
c:/Users/pfisc/OneDrive/Development/Particle/projects/LevelWatcherProject/target/2.1.0/electron/LevelWatcherProject.elf:     file format elf32-littlearm

Sections:
Idx Name          Size      VMA       LMA       File off  Algn
  0 .module_info  00000018  08080000  08080000  00010000  2**0
                  CONTENTS, ALLOC, LOAD, READONLY, DATA
  1 .dynalib      00000004  08080018  08080018  00010018  2**2
                  CONTENTS, ALLOC, LOAD, READONLY, DATA
  2 .text         000068b0  08080020  08080020  00010020  2**3
                  CONTENTS, ALLOC, LOAD, READONLY, CODE
  3 .backup       00000004  40024000  080868d0  00024000  2**2
                  CONTENTS, ALLOC, LOAD, DATA
  4 .data         000001e8  20000000  080868d4  00030000  2**2
                  CONTENTS, ALLOC, LOAD, DATA
  5 .bss          0000041c  200001e8  200001e8  000401e8  2**3
                  ALLOC
  6 .module_info_suffix 00000028  08086abc  08086abc  00036abc  2**0
                  CONTENTS, ALLOC, LOAD, READONLY, DATA
  7 .module_info_crc 00000004  08086ae4  08086ae4  00036ae4  2**0
                  CONTENTS, ALLOC, LOAD, READONLY, DATA
  8 .debug_info   0014f040  00000000  00000000  00036ae8  2**0
                  CONTENTS, READONLY, DEBUGGING
  9 .debug_abbrev 00017b02  00000000  00000000  00185b28  2**0
                  CONTENTS, READONLY, DEBUGGING
 10 .debug_aranges 00002620  00000000  00000000  0019d62a  2**0
                  CONTENTS, READONLY, DEBUGGING
 11 .debug_ranges 00005dd0  00000000  00000000  0019fc4a  2**0
                  CONTENTS, READONLY, DEBUGGING
 12 .debug_macro  0002ca72  00000000  00000000  001a5a1a  2**0
                  CONTENTS, READONLY, DEBUGGING
 13 .debug_line   00035f1f  00000000  00000000  001d248c  2**0
                  CONTENTS, READONLY, DEBUGGING
 14 .debug_str    000b9b04  00000000  00000000  002083ab  2**0
                  CONTENTS, READONLY, DEBUGGING
 15 .debug_frame  00006de8  00000000  00000000  002c1eb0  2**2
                  CONTENTS, READONLY, DEBUGGING
 16 .debug_loc    00020d5a  00000000  00000000  002c8c98  2**0
                  CONTENTS, READONLY, DEBUGGING

Disassembly of section .text:

08080020 <localtime_r>:
 8080020:	b508      	push	{r3, lr}
 8080022:	4b02      	ldr	r3, [pc, #8]	; (808002c <localtime_r+0xc>)
 8080024:	681b      	ldr	r3, [r3, #0]
 8080026:	6d9b      	ldr	r3, [r3, #88]	; 0x58
 8080028:	9301      	str	r3, [sp, #4]
 808002a:	bd08      	pop	{r3, pc}
 808002c:	0806002c 	.word	0x0806002c

08080030 <strftime>:
 8080030:	b508      	push	{r3, lr}
 8080032:	4b02      	ldr	r3, [pc, #8]	; (808003c <strftime+0xc>)
 8080034:	681b      	ldr	r3, [r3, #0]
 8080036:	6e5b      	ldr	r3, [r3, #100]	; 0x64
 8080038:	9301      	str	r3, [sp, #4]
 808003a:	bd08      	pop	{r3, pc}
 808003c:	0806002c 	.word	0x0806002c

08080040 <module_user_pre_init>:
 8080040:	4809      	ldr	r0, [pc, #36]	; (8080068 <module_user_pre_init+0x28>)
 8080042:	490a      	ldr	r1, [pc, #40]	; (808006c <module_user_pre_init+0x2c>)
 8080044:	b508      	push	{r3, lr}
 8080046:	4288      	cmp	r0, r1
 8080048:	d005      	beq.n	8080056 <module_user_pre_init+0x16>
 808004a:	4a09      	ldr	r2, [pc, #36]	; (8080070 <module_user_pre_init+0x30>)
 808004c:	4282      	cmp	r2, r0
 808004e:	d002      	beq.n	8080056 <module_user_pre_init+0x16>
 8080050:	1a12      	subs	r2, r2, r0
 8080052:	f004 f8d7 	bl	8084204 <memcpy>
 8080056:	4807      	ldr	r0, [pc, #28]	; (8080074 <module_user_pre_init+0x34>)
 8080058:	4a07      	ldr	r2, [pc, #28]	; (8080078 <module_user_pre_init+0x38>)
 808005a:	2100      	movs	r1, #0
 808005c:	1a12      	subs	r2, r2, r0
 808005e:	f004 f8df 	bl	8084220 <memset>
 8080062:	4806      	ldr	r0, [pc, #24]	; (808007c <module_user_pre_init+0x3c>)
 8080064:	bd08      	pop	{r3, pc}
 8080066:	bf00      	nop
 8080068:	20000000 	.word	0x20000000
 808006c:	080868d4 	.word	0x080868d4
 8080070:	200001e8 	.word	0x200001e8
 8080074:	200001e8 	.word	0x200001e8
 8080078:	20000604 	.word	0x20000604
 808007c:	20000604 	.word	0x20000604

08080080 <module_user_init>:
 8080080:	b570      	push	{r4, r5, r6, lr}
 8080082:	f002 fc47 	bl	8082914 <module_user_init_hook>
 8080086:	2500      	movs	r5, #0
 8080088:	4e05      	ldr	r6, [pc, #20]	; (80800a0 <module_user_init+0x20>)
 808008a:	4c06      	ldr	r4, [pc, #24]	; (80800a4 <module_user_init+0x24>)
 808008c:	1ba4      	subs	r4, r4, r6
 808008e:	08a4      	lsrs	r4, r4, #2
 8080090:	42a5      	cmp	r5, r4
 8080092:	d100      	bne.n	8080096 <module_user_init+0x16>
 8080094:	bd70      	pop	{r4, r5, r6, pc}
 8080096:	f856 3b04 	ldr.w	r3, [r6], #4
 808009a:	4798      	blx	r3
 808009c:	3501      	adds	r5, #1
 808009e:	e7f7      	b.n	8080090 <module_user_init+0x10>
 80800a0:	080868ac 	.word	0x080868ac
 80800a4:	080868cc 	.word	0x080868cc

080800a8 <module_user_setup>:
 80800a8:	f000 b94e 	b.w	8080348 <setup>

080800ac <module_user_loop>:
 80800ac:	b508      	push	{r3, lr}
 80800ae:	f000 f9cb 	bl	8080448 <loop>
 80800b2:	e8bd 4008 	ldmia.w	sp!, {r3, lr}
 80800b6:	f002 bbef 	b.w	8082898 <_post_loop>

080800ba <_Znwj>:
 80800ba:	f001 bf7d 	b.w	8081fb8 <malloc>

080800be <_Znaj>:
 80800be:	f001 bf7b 	b.w	8081fb8 <malloc>

080800c2 <_ZdlPv>:
 80800c2:	f001 bf81 	b.w	8081fc8 <free>

080800c6 <__cxa_guard_acquire>:
 80800c6:	7800      	ldrb	r0, [r0, #0]
 80800c8:	fab0 f080 	clz	r0, r0
 80800cc:	0940      	lsrs	r0, r0, #5
 80800ce:	4770      	bx	lr

080800d0 <__cxa_guard_release>:
 80800d0:	2301      	movs	r3, #1
 80800d2:	7003      	strb	r3, [r0, #0]
 80800d4:	4770      	bx	lr
	...

080800d8 <_ZN16JsonParserStaticILj256ELj20EED1Ev>:
 *
 * @param MAX_TOKENS The maximum number of tokens you expect. Each object has a token and two for each key/value pair.
 * Each array is a token and one for each element in the array.
 */
template <size_t BUFFER_SIZE, size_t MAX_TOKENS>
class JsonParserStatic : public JsonParser {
 80800d8:	b510      	push	{r4, lr}
 80800da:	4604      	mov	r4, r0
 80800dc:	4b02      	ldr	r3, [pc, #8]	; (80800e8 <_ZN16JsonParserStaticILj256ELj20EED1Ev+0x10>)
 80800de:	6003      	str	r3, [r0, #0]
 80800e0:	f000 fe72 	bl	8080dc8 <_ZN10JsonParserD1Ev>
 80800e4:	4620      	mov	r0, r4
 80800e6:	bd10      	pop	{r4, pc}
 80800e8:	08086348 	.word	0x08086348

080800ec <_ZN16JsonParserStaticILj256ELj20EED0Ev>:
 80800ec:	b510      	push	{r4, lr}
 80800ee:	4604      	mov	r4, r0
 80800f0:	f7ff fff2 	bl	80800d8 <_ZN16JsonParserStaticILj256ELj20EED1Ev>
 80800f4:	4620      	mov	r0, r4
 80800f6:	f44f 711b 	mov.w	r1, #620	; 0x26c
 80800fa:	f003 fad4 	bl	80836a6 <_ZdlPvj>
 80800fe:	4620      	mov	r0, r4
 8080100:	bd10      	pop	{r4, pc}

08080102 <_ZN5Print8printlnfEPKcz>:
        auto r = this->vprintf(false, format, args);
        va_end(args);
        return r;
    }

    size_t printlnf(const char* format, ...) __attribute__ ((format(printf, 2, 3)))
 8080102:	b40e      	push	{r1, r2, r3}
 8080104:	b503      	push	{r0, r1, lr}
 8080106:	ab03      	add	r3, sp, #12
 8080108:	f853 2b04 	ldr.w	r2, [r3], #4
    {
        va_list args;
        va_start(args, format);
        auto r = this->vprintf(true, format, args);
 808010c:	2101      	movs	r1, #1
        va_start(args, format);
 808010e:	9301      	str	r3, [sp, #4]
        auto r = this->vprintf(true, format, args);
 8080110:	f002 f9e2 	bl	80824d8 <_ZN5Print7vprintfEbPKcSt9__va_list>
        va_end(args);
        return r;
    }
 8080114:	b002      	add	sp, #8
 8080116:	f85d eb04 	ldr.w	lr, [sp], #4
 808011a:	b003      	add	sp, #12
 808011c:	4770      	bx	lr
	...

08080120 <_Z7setZero6String>:
//STARTUP(cellular_credentials_set("3iot", "", "", NULL)); //globalM2M SIM starting 89353
STARTUP(cellular_credentials_set(apn, "", "", NULL));
//STARTUP(cellular_credentials_set("globaldata", "", "", NULL));  //globalM2M SIM starting 89234 or 89444

int setZero(String command)
{
 8080120:	b507      	push	{r0, r1, r2, lr}
    Serial.printlnf("Set Zero Function called from cloud");
 8080122:	f002 ff95 	bl	8083050 <_Z16_fetch_usbserialv>
 8080126:	490b      	ldr	r1, [pc, #44]	; (8080154 <_Z7setZero6String+0x34>)
 8080128:	f7ff ffeb 	bl	8080102 <_ZN5Print8printlnfEPKcz>
    zeroOffsetInMm = 0.0; //Reset zero offset to allow re-calculation
 808012c:	2200      	movs	r2, #0
 808012e:	2300      	movs	r3, #0
 8080130:	4909      	ldr	r1, [pc, #36]	; (8080158 <_Z7setZero6String+0x38>)
    longAveragingArray.fillValue(0.0, LONG_SAMPLE_SIZE);
 8080132:	480a      	ldr	r0, [pc, #40]	; (808015c <_Z7setZero6String+0x3c>)
    zeroOffsetInMm = 0.0; //Reset zero offset to allow re-calculation
 8080134:	e9c1 2300 	strd	r2, r3, [r1]
    longAveragingArray.fillValue(0.0, LONG_SAMPLE_SIZE);
 8080138:	2118      	movs	r1, #24
 808013a:	9100      	str	r1, [sp, #0]
 808013c:	f001 facb 	bl	80816d6 <_ZN14RunningAverage9fillValueEdh>
    zeroingInProgress = true;
 8080140:	2301      	movs	r3, #1
    sample = 1;
    return 0;
}
 8080142:	2000      	movs	r0, #0
    zeroingInProgress = true;
 8080144:	4a06      	ldr	r2, [pc, #24]	; (8080160 <_Z7setZero6String+0x40>)
 8080146:	7013      	strb	r3, [r2, #0]
    sample = 1;
 8080148:	4a06      	ldr	r2, [pc, #24]	; (8080164 <_Z7setZero6String+0x44>)
 808014a:	6013      	str	r3, [r2, #0]
}
 808014c:	b003      	add	sp, #12
 808014e:	f85d fb04 	ldr.w	pc, [sp], #4
 8080152:	bf00      	nop
 8080154:	0808614c 	.word	0x0808614c
 8080158:	200004f8 	.word	0x200004f8
 808015c:	20000218 	.word	0x20000218
 8080160:	20000500 	.word	0x20000500
 8080164:	20000008 	.word	0x20000008

08080168 <_Z18cloudResetFunction6String>:
    Particle.publish("Loop Delay updated", loopDelayData, 600, PRIVATE);
    return 0;
}

int cloudResetFunction(String command)
{
 8080168:	b508      	push	{r3, lr}
    Serial.printlnf("Restart triggered");
 808016a:	f002 ff71 	bl	8083050 <_Z16_fetch_usbserialv>
 808016e:	4906      	ldr	r1, [pc, #24]	; (8080188 <_Z18cloudResetFunction6String+0x20>)
 8080170:	f7ff ffc7 	bl	8080102 <_ZN5Print8printlnfEPKcz>
    resetFlag = true;
 8080174:	2201      	movs	r2, #1
 8080176:	4b05      	ldr	r3, [pc, #20]	; (808018c <_Z18cloudResetFunction6String+0x24>)
 8080178:	701a      	strb	r2, [r3, #0]

#ifdef __cplusplus
extern "C" {
#endif

inline system_tick_t millis(void) { return HAL_Timer_Get_Milli_Seconds(); }
 808017a:	f001 fd07 	bl	8081b8c <HAL_Timer_Get_Milli_Seconds>
    rebootSync = millis();
 808017e:	4b04      	ldr	r3, [pc, #16]	; (8080190 <_Z18cloudResetFunction6String+0x28>)
 8080180:	6018      	str	r0, [r3, #0]
    return 0;
}
 8080182:	2000      	movs	r0, #0
 8080184:	bd08      	pop	{r3, pc}
 8080186:	bf00      	nop
 8080188:	08086170 	.word	0x08086170
 808018c:	200004b0 	.word	0x200004b0
 8080190:	200004ac 	.word	0x200004ac

08080194 <_Z5blinkm>:
    blinkLong(3);
    blinkShort(3);
}

void blink(unsigned long onTime)
{
 8080194:	b538      	push	{r3, r4, r5, lr}
 8080196:	4604      	mov	r4, r0
    digitalWrite(onboardLed, HIGH);
 8080198:	4d08      	ldr	r5, [pc, #32]	; (80801bc <_Z5blinkm+0x28>)
 808019a:	2101      	movs	r1, #1
 808019c:	8828      	ldrh	r0, [r5, #0]
 808019e:	f003 fa06 	bl	80835ae <digitalWrite>
    // We'll leave it on for 1 second...
    delay(onTime);
 80801a2:	4620      	mov	r0, r4
 80801a4:	f002 fb04 	bl	80827b0 <delay>
    // Then we'll turn it off...
    digitalWrite(onboardLed, LOW);
 80801a8:	8828      	ldrh	r0, [r5, #0]
 80801aa:	2100      	movs	r1, #0
 80801ac:	f003 f9ff 	bl	80835ae <digitalWrite>
    delay(BLINK_OFF_DELAY_MS);
}
 80801b0:	e8bd 4038 	ldmia.w	sp!, {r3, r4, r5, lr}
    delay(BLINK_OFF_DELAY_MS);
 80801b4:	20c8      	movs	r0, #200	; 0xc8
 80801b6:	f002 bafb 	b.w	80827b0 <delay>
 80801ba:	bf00      	nop
 80801bc:	20000004 	.word	0x20000004

080801c0 <_Z9blinkLongi>:

void blinkLong(int times)
{
 80801c0:	b538      	push	{r3, r4, r5, lr}
 80801c2:	4605      	mov	r5, r0
    for (int i = 0; i < times; i++)
 80801c4:	2400      	movs	r4, #0
 80801c6:	42ac      	cmp	r4, r5
 80801c8:	da05      	bge.n	80801d6 <_Z9blinkLongi+0x16>
    {
        blink(LONG_BLINK_MS);
 80801ca:	f44f 7016 	mov.w	r0, #600	; 0x258
 80801ce:	f7ff ffe1 	bl	8080194 <_Z5blinkm>
    for (int i = 0; i < times; i++)
 80801d2:	3401      	adds	r4, #1
 80801d4:	e7f7      	b.n	80801c6 <_Z9blinkLongi+0x6>
    }
}
 80801d6:	bd38      	pop	{r3, r4, r5, pc}

080801d8 <_Z10blinkShorti>:

void blinkShort(int times)
{
 80801d8:	b538      	push	{r3, r4, r5, lr}
 80801da:	4605      	mov	r5, r0
    for (int i = 0; i < times; i++)
 80801dc:	2400      	movs	r4, #0
 80801de:	42ac      	cmp	r4, r5
 80801e0:	da04      	bge.n	80801ec <_Z10blinkShorti+0x14>
    {
        blink(SHORT_BLINK_MS);
 80801e2:	20c8      	movs	r0, #200	; 0xc8
 80801e4:	f7ff ffd6 	bl	8080194 <_Z5blinkm>
    for (int i = 0; i < times; i++)
 80801e8:	3401      	adds	r4, #1
 80801ea:	e7f8      	b.n	80801de <_Z10blinkShorti+0x6>
    }
}
 80801ec:	bd38      	pop	{r3, r4, r5, pc}

080801ee <_Z3sosv>:
{
 80801ee:	b508      	push	{r3, lr}
    blinkShort(3);
 80801f0:	2003      	movs	r0, #3
 80801f2:	f7ff fff1 	bl	80801d8 <_Z10blinkShorti>
    blinkLong(3);
 80801f6:	2003      	movs	r0, #3
 80801f8:	f7ff ffe2 	bl	80801c0 <_Z9blinkLongi>
}
 80801fc:	e8bd 4008 	ldmia.w	sp!, {r3, lr}
    blinkShort(3);
 8080200:	2003      	movs	r0, #3
 8080202:	f7ff bfe9 	b.w	80801d8 <_Z10blinkShorti>

08080206 <_ZNSt14__shared_countILN9__gnu_cxx12_Lock_policyE0EED1Ev>:
      explicit __shared_count(const __weak_count<_Lp>& __r);

      // Does not throw if __r._M_get_use_count() == 0, caller must check.
      explicit __shared_count(const __weak_count<_Lp>& __r, std::nothrow_t);

      ~__shared_count() noexcept
 8080206:	b538      	push	{r3, r4, r5, lr}
      {
	if (_M_pi != nullptr)
 8080208:	6804      	ldr	r4, [r0, #0]
      ~__shared_count() noexcept
 808020a:	4605      	mov	r5, r0
	if (_M_pi != nullptr)
 808020c:	b17c      	cbz	r4, 808022e <_ZNSt14__shared_countILN9__gnu_cxx12_Lock_policyE0EED1Ev+0x28>
      if (--_M_use_count == 0)
 808020e:	6863      	ldr	r3, [r4, #4]
 8080210:	3b01      	subs	r3, #1
 8080212:	6063      	str	r3, [r4, #4]
 8080214:	b95b      	cbnz	r3, 808022e <_ZNSt14__shared_countILN9__gnu_cxx12_Lock_policyE0EED1Ev+0x28>
          _M_dispose();
 8080216:	6823      	ldr	r3, [r4, #0]
 8080218:	4620      	mov	r0, r4
 808021a:	689b      	ldr	r3, [r3, #8]
 808021c:	4798      	blx	r3
          if (--_M_weak_count == 0)
 808021e:	68a3      	ldr	r3, [r4, #8]
 8080220:	3b01      	subs	r3, #1
 8080222:	60a3      	str	r3, [r4, #8]
 8080224:	b91b      	cbnz	r3, 808022e <_ZNSt14__shared_countILN9__gnu_cxx12_Lock_policyE0EED1Ev+0x28>
            _M_destroy();
 8080226:	6823      	ldr	r3, [r4, #0]
 8080228:	4620      	mov	r0, r4
 808022a:	68db      	ldr	r3, [r3, #12]
 808022c:	4798      	blx	r3
	  _M_pi->_M_release();
      }
 808022e:	4628      	mov	r0, r5
 8080230:	bd38      	pop	{r3, r4, r5, pc}
	...

08080234 <_Z12setLoopDelay6String>:
{
 8080234:	b570      	push	{r4, r5, r6, lr}
 8080236:	b09a      	sub	sp, #104	; 0x68
    loopDelay = atol(delay);
 8080238:	6800      	ldr	r0, [r0, #0]
 808023a:	f003 ffd1 	bl	80841e0 <atol>
 808023e:	4d38      	ldr	r5, [pc, #224]	; (8080320 <_Z12setLoopDelay6String+0xec>)
    Serial.printlnf("Loop Delay updated to: " + String::format("%u", loopDelay));
 8080240:	4e38      	ldr	r6, [pc, #224]	; (8080324 <_Z12setLoopDelay6String+0xf0>)
    loopDelay = atol(delay);
 8080242:	6028      	str	r0, [r5, #0]
    Serial.printlnf("Loop Delay updated to: " + String::format("%u", loopDelay));
 8080244:	f002 ff04 	bl	8083050 <_Z16_fetch_usbserialv>

class StringSumHelper : public String
{
public:
	StringSumHelper(const String &s) : String(s) {}
	StringSumHelper(const char *p) : String(p) {}
 8080248:	4937      	ldr	r1, [pc, #220]	; (8080328 <_Z12setLoopDelay6String+0xf4>)
 808024a:	4604      	mov	r4, r0
 808024c:	a816      	add	r0, sp, #88	; 0x58
 808024e:	f001 ffed 	bl	808222c <_ZN6StringC1EPKc>
 8080252:	682a      	ldr	r2, [r5, #0]
 8080254:	4631      	mov	r1, r6
 8080256:	a812      	add	r0, sp, #72	; 0x48
 8080258:	f002 f8c4 	bl	80823e4 <_ZN6String6formatEPKcz>
 808025c:	a912      	add	r1, sp, #72	; 0x48
 808025e:	a816      	add	r0, sp, #88	; 0x58
 8080260:	f002 f88d 	bl	808237e <_ZplRK15StringSumHelperRK6String>
 8080264:	6801      	ldr	r1, [r0, #0]
 8080266:	4620      	mov	r0, r4
 8080268:	f7ff ff4b 	bl	8080102 <_ZN5Print8printlnfEPKcz>
 808026c:	a812      	add	r0, sp, #72	; 0x48
 808026e:	f001 ff93 	bl	8082198 <_ZN6StringD1Ev>
class StringSumHelper : public String
 8080272:	a816      	add	r0, sp, #88	; 0x58
 8080274:	f001 ff90 	bl	8082198 <_ZN6StringD1Ev>
    loopDelayData = String("{") +
 8080278:	492c      	ldr	r1, [pc, #176]	; (808032c <_Z12setLoopDelay6String+0xf8>)
 808027a:	a802      	add	r0, sp, #8
 808027c:	f001 ffd6 	bl	808222c <_ZN6StringC1EPKc>
	StringSumHelper(const String &s) : String(s) {}
 8080280:	a902      	add	r1, sp, #8
 8080282:	a80a      	add	r0, sp, #40	; 0x28
 8080284:	f002 f811 	bl	80822aa <_ZN6StringC1ERKS_>
                    String("\"LoopDelay\":") + String("\"") + String::format("%u", loopDelay) +
 8080288:	4929      	ldr	r1, [pc, #164]	; (8080330 <_Z12setLoopDelay6String+0xfc>)
 808028a:	a806      	add	r0, sp, #24
 808028c:	f001 ffce 	bl	808222c <_ZN6StringC1EPKc>
 8080290:	a906      	add	r1, sp, #24
 8080292:	a80a      	add	r0, sp, #40	; 0x28
 8080294:	f002 f873 	bl	808237e <_ZplRK15StringSumHelperRK6String>
 8080298:	4604      	mov	r4, r0
 808029a:	4926      	ldr	r1, [pc, #152]	; (8080334 <_Z12setLoopDelay6String+0x100>)
 808029c:	a80e      	add	r0, sp, #56	; 0x38
 808029e:	f001 ffc5 	bl	808222c <_ZN6StringC1EPKc>
 80802a2:	a90e      	add	r1, sp, #56	; 0x38
 80802a4:	4620      	mov	r0, r4
 80802a6:	f002 f86a 	bl	808237e <_ZplRK15StringSumHelperRK6String>
 80802aa:	4604      	mov	r4, r0
 80802ac:	682a      	ldr	r2, [r5, #0]
 80802ae:	4631      	mov	r1, r6
 80802b0:	a812      	add	r0, sp, #72	; 0x48
 80802b2:	f002 f897 	bl	80823e4 <_ZN6String6formatEPKcz>
 80802b6:	a912      	add	r1, sp, #72	; 0x48
 80802b8:	4620      	mov	r0, r4
 80802ba:	f002 f860 	bl	808237e <_ZplRK15StringSumHelperRK6String>
 80802be:	4604      	mov	r4, r0
                    String("\"}");
 80802c0:	491d      	ldr	r1, [pc, #116]	; (8080338 <_Z12setLoopDelay6String+0x104>)
 80802c2:	a816      	add	r0, sp, #88	; 0x58
 80802c4:	f001 ffb2 	bl	808222c <_ZN6StringC1EPKc>
 80802c8:	a916      	add	r1, sp, #88	; 0x58
 80802ca:	4620      	mov	r0, r4
 80802cc:	f002 f857 	bl	808237e <_ZplRK15StringSumHelperRK6String>
 80802d0:	4c1a      	ldr	r4, [pc, #104]	; (808033c <_Z12setLoopDelay6String+0x108>)
 80802d2:	4601      	mov	r1, r0
 80802d4:	4620      	mov	r0, r4
 80802d6:	f001 ffd9 	bl	808228c <_ZN6StringaSERKS_>
 80802da:	a816      	add	r0, sp, #88	; 0x58
 80802dc:	f001 ff5c 	bl	8082198 <_ZN6StringD1Ev>
                    String("\"LoopDelay\":") + String("\"") + String::format("%u", loopDelay) +
 80802e0:	a812      	add	r0, sp, #72	; 0x48
 80802e2:	f001 ff59 	bl	8082198 <_ZN6StringD1Ev>
 80802e6:	a80e      	add	r0, sp, #56	; 0x38
 80802e8:	f001 ff56 	bl	8082198 <_ZN6StringD1Ev>
 80802ec:	a806      	add	r0, sp, #24
 80802ee:	f001 ff53 	bl	8082198 <_ZN6StringD1Ev>
class StringSumHelper : public String
 80802f2:	a80a      	add	r0, sp, #40	; 0x28
 80802f4:	f001 ff50 	bl	8082198 <_ZN6StringD1Ev>
    loopDelayData = String("{") +
 80802f8:	a802      	add	r0, sp, #8
 80802fa:	f001 ff4d 	bl	8082198 <_ZN6StringD1Ev>
inline particle::Flags<TagT, ValueT>::Flags(Flag<TagT, ValueT> flag) :
        val_(flag.value()) {
}

template<typename TagT, typename ValueT>
inline particle::Flags<TagT, ValueT>::Flags(ValueT val) :
 80802fe:	4b10      	ldr	r3, [pc, #64]	; (8080340 <_Z12setLoopDelay6String+0x10c>)
        return publish(eventName, eventData, DEFAULT_CLOUD_EVENT_TTL, flags1, flags2);
    }

    inline particle::Future<bool> publish(const char *eventName, const char *eventData, int ttl, PublishFlags flags1, PublishFlags flags2 = PublishFlags())
    {
        return publish_event(eventName, eventData, ttl, flags1 | flags2);
 8080300:	4910      	ldr	r1, [pc, #64]	; (8080344 <_Z12setLoopDelay6String+0x110>)
 8080302:	781b      	ldrb	r3, [r3, #0]
 8080304:	a816      	add	r0, sp, #88	; 0x58
 8080306:	f88d 3000 	strb.w	r3, [sp]
 808030a:	6822      	ldr	r2, [r4, #0]
 808030c:	f44f 7316 	mov.w	r3, #600	; 0x258
 8080310:	f002 fc80 	bl	8082c14 <_ZN10CloudClass13publish_eventEPKcS1_iN8particle5FlagsI15PublishFlagTypehEE>
	: _M_ptr(__p), _M_refcount(__r._M_refcount) // never throws
	{ }

      __shared_ptr(const __shared_ptr&) noexcept = default;
      __shared_ptr& operator=(const __shared_ptr&) noexcept = default;
      ~__shared_ptr() = default;
 8080314:	a817      	add	r0, sp, #92	; 0x5c
 8080316:	f7ff ff76 	bl	8080206 <_ZNSt14__shared_countILN9__gnu_cxx12_Lock_policyE0EED1Ev>
}
 808031a:	2000      	movs	r0, #0
 808031c:	b01a      	add	sp, #104	; 0x68
 808031e:	bd70      	pop	{r4, r5, r6, pc}
 8080320:	20000000 	.word	0x20000000
 8080324:	0808619a 	.word	0x0808619a
 8080328:	08086182 	.word	0x08086182
 808032c:	0808619d 	.word	0x0808619d
 8080330:	0808619f 	.word	0x0808619f
 8080334:	080861ac 	.word	0x080861ac
 8080338:	080861ae 	.word	0x080861ae
 808033c:	20000230 	.word	0x20000230
 8080340:	200001ec 	.word	0x200001ec
 8080344:	080861b1 	.word	0x080861b1

08080348 <setup>:

void setup()
{
 8080348:	e92d 437f 	stmdb	sp!, {r0, r1, r2, r3, r4, r5, r6, r8, r9, lr}
    //
    Serial.printlnf("Startup: Running Setup");
 808034c:	f002 fe80 	bl	8083050 <_Z16_fetch_usbserialv>
 8080350:	492d      	ldr	r1, [pc, #180]	; (8080408 <setup+0xc0>)
 8080352:	f7ff fed6 	bl	8080102 <_ZN5Print8printlnfEPKcz>
    static String deviceID(void) { return SystemClass::deviceID(); }

#if HAL_PLATFORM_CLOUD_UDP
    inline static void keepAlive(unsigned sec)
    {
        particle::protocol::connection_properties_t conn_prop = {0};
 8080356:	2400      	movs	r4, #0
        conn_prop.size = sizeof(conn_prop);
 8080358:	2308      	movs	r3, #8
        conn_prop.keepalive_source = particle::protocol::KeepAliveSource::USER;
 808035a:	2601      	movs	r6, #1
        return register_function(call_raw_user_function, (void*)func, funcKey);
 808035c:	4d2b      	ldr	r5, [pc, #172]	; (808040c <setup+0xc4>)
        conn_prop.size = sizeof(conn_prop);
 808035e:	f8ad 3008 	strh.w	r3, [sp, #8]
        spark_set_connection_property(SPARK_CLOUD_PING_INTERVAL, sec * 1000, &conn_prop, nullptr);
 8080362:	aa02      	add	r2, sp, #8
 8080364:	4623      	mov	r3, r4
 8080366:	f247 5130 	movw	r1, #30000	; 0x7530
 808036a:	4620      	mov	r0, r4
        particle::protocol::connection_properties_t conn_prop = {0};
 808036c:	f8ad 400a 	strh.w	r4, [sp, #10]
        conn_prop.keepalive_source = particle::protocol::KeepAliveSource::USER;
 8080370:	9603      	str	r6, [sp, #12]
        spark_set_connection_property(SPARK_CLOUD_PING_INTERVAL, sec * 1000, &conn_prop, nullptr);
 8080372:	f001 fe11 	bl	8081f98 <spark_set_connection_property>
        return register_function(call_raw_user_function, (void*)func, funcKey);
 8080376:	4628      	mov	r0, r5
 8080378:	4a25      	ldr	r2, [pc, #148]	; (8080410 <setup+0xc8>)
 808037a:	4926      	ldr	r1, [pc, #152]	; (8080414 <setup+0xcc>)
 808037c:	f002 fb57 	bl	8082a2e <_ZN10CloudClass17register_functionEPFiPvPKcS0_ES0_S2_>
 8080380:	4628      	mov	r0, r5
 8080382:	4a25      	ldr	r2, [pc, #148]	; (8080418 <setup+0xd0>)
 8080384:	4925      	ldr	r1, [pc, #148]	; (808041c <setup+0xd4>)
 8080386:	f002 fb52 	bl	8082a2e <_ZN10CloudClass17register_functionEPFiPvPKcS0_ES0_S2_>
 808038a:	4628      	mov	r0, r5
 808038c:	4a24      	ldr	r2, [pc, #144]	; (8080420 <setup+0xd8>)
 808038e:	4925      	ldr	r1, [pc, #148]	; (8080424 <setup+0xdc>)
 8080390:	f002 fb4d 	bl	8082a2e <_ZN10CloudClass17register_functionEPFiPvPKcS0_ES0_S2_>
        return spark_subscribe(eventName, handler, NULL, scope, NULL, NULL);
 8080394:	4924      	ldr	r1, [pc, #144]	; (8080428 <setup+0xe0>)
 8080396:	4623      	mov	r3, r4
 8080398:	4622      	mov	r2, r4
 808039a:	e9cd 4400 	strd	r4, r4, [sp]
 808039e:	4823      	ldr	r0, [pc, #140]	; (808042c <setup+0xe4>)
 80803a0:	f001 fdea 	bl	8081f78 <spark_subscribe>
    Particle.function("SetZero", setZero);

    // Subscribe to the webhook response event
    Particle.subscribe("hook-response/startup", startupHandler, MY_DEVICES);

    longAveragingArray.fillValue(0.0, LONG_SAMPLE_SIZE);   // Clear out averaging array
 80803a4:	f04f 0800 	mov.w	r8, #0
 80803a8:	f04f 0900 	mov.w	r9, #0
 80803ac:	2318      	movs	r3, #24
 80803ae:	4642      	mov	r2, r8
 80803b0:	9300      	str	r3, [sp, #0]
 80803b2:	481f      	ldr	r0, [pc, #124]	; (8080430 <setup+0xe8>)
 80803b4:	464b      	mov	r3, r9
 80803b6:	f001 f98e 	bl	80816d6 <_ZN14RunningAverage9fillValueEdh>
    shortAveragingArray.fillValue(0.0, SHORT_SAMPLE_SIZE); // Clear out averaging array
 80803ba:	2303      	movs	r3, #3
 80803bc:	4642      	mov	r2, r8
 80803be:	9300      	str	r3, [sp, #0]
 80803c0:	481c      	ldr	r0, [pc, #112]	; (8080434 <setup+0xec>)
 80803c2:	464b      	mov	r3, r9
 80803c4:	f001 f987 	bl	80816d6 <_ZN14RunningAverage9fillValueEdh>
    pinMode(onboardLed, OUTPUT);                           //Setup activity led so we can blink it to show we're rolling...
 80803c8:	4b1b      	ldr	r3, [pc, #108]	; (8080438 <setup+0xf0>)
    //   setADCSampleTime(ADC_SampleTime_3Cycles);
    //set ADC gain  ads.setGain(GAIN_ONE);        // 1x gain   +/- 4.096V  1 bit=0.125mV
    //Setup ADC
    ads.setGain(GAIN_TWO); //GAIN_ONE for ...
 80803ca:	4d1c      	ldr	r5, [pc, #112]	; (808043c <setup+0xf4>)
    pinMode(onboardLed, OUTPUT);                           //Setup activity led so we can blink it to show we're rolling...
 80803cc:	8818      	ldrh	r0, [r3, #0]
 80803ce:	4631      	mov	r1, r6
 80803d0:	f003 f8dc 	bl	808358c <pinMode>
    ads.setGain(GAIN_TWO); //GAIN_ONE for ...
 80803d4:	f44f 6180 	mov.w	r1, #1024	; 0x400
 80803d8:	4628      	mov	r0, r5
 80803da:	f001 f9e6 	bl	80817aa <_ZN16Adafruit_ADS10157setGainE9adsGain_t>
    ads.begin();
 80803de:	4628      	mov	r0, r5
 80803e0:	f001 f9dc 	bl	808179c <_ZN16Adafruit_ADS10155beginEv>
 80803e4:	4b16      	ldr	r3, [pc, #88]	; (8080440 <setup+0xf8>)
        return publish_event(eventName, eventData, ttl, flags1 | flags2);
 80803e6:	4622      	mov	r2, r4
 80803e8:	781b      	ldrb	r3, [r3, #0]
 80803ea:	4916      	ldr	r1, [pc, #88]	; (8080444 <setup+0xfc>)
 80803ec:	f88d 3000 	strb.w	r3, [sp]
 80803f0:	a802      	add	r0, sp, #8
 80803f2:	f44f 7316 	mov.w	r3, #600	; 0x258
 80803f6:	f002 fc0d 	bl	8082c14 <_ZN10CloudClass13publish_eventEPKcS1_iN8particle5FlagsI15PublishFlagTypehEE>
 80803fa:	a803      	add	r0, sp, #12
 80803fc:	f7ff ff03 	bl	8080206 <_ZNSt14__shared_countILN9__gnu_cxx12_Lock_policyE0EED1Ev>
    Particle.publish("startup", NULL, 600, PRIVATE); //TODO:  Specify and send sensor ID so as to retrieve correct offset.
}
 8080400:	b004      	add	sp, #16
 8080402:	e8bd 8370 	ldmia.w	sp!, {r4, r5, r6, r8, r9, pc}
 8080406:	bf00      	nop
 8080408:	080861c4 	.word	0x080861c4
 808040c:	08082a03 	.word	0x08082a03
 8080410:	080861db 	.word	0x080861db
 8080414:	08080169 	.word	0x08080169
 8080418:	080861ee 	.word	0x080861ee
 808041c:	08080235 	.word	0x08080235
 8080420:	080861fb 	.word	0x080861fb
 8080424:	08080121 	.word	0x08080121
 8080428:	08080c01 	.word	0x08080c01
 808042c:	08086203 	.word	0x08086203
 8080430:	20000218 	.word	0x20000218
 8080434:	200004b8 	.word	0x200004b8
 8080438:	20000004 	.word	0x20000004
 808043c:	200001ee 	.word	0x200001ee
 8080440:	200001ec 	.word	0x200001ec
 8080444:	08086211 	.word	0x08086211

08080448 <loop>:
//
// Main loop
//
void loop()
{
 8080448:	e92d 41f0 	stmdb	sp!, {r4, r5, r6, r7, r8, lr}
 808044c:	b0f8      	sub	sp, #480	; 0x1e0
 808044e:	f001 fb9d 	bl	8081b8c <HAL_Timer_Get_Milli_Seconds>
    if ((millis() >= REBOOT_INTERVAL_IN_MS))
 8080452:	4b27      	ldr	r3, [pc, #156]	; (80804f0 <loop+0xa8>)
 8080454:	4298      	cmp	r0, r3
 8080456:	d911      	bls.n	808047c <loop+0x34>
    {
        //Reboot regularly to freshen up
        // do things here  before reset and then push the button
        sos();
 8080458:	f7ff fec9 	bl	80801ee <_Z3sosv>
 808045c:	4b25      	ldr	r3, [pc, #148]	; (80804f4 <loop+0xac>)
 808045e:	4a26      	ldr	r2, [pc, #152]	; (80804f8 <loop+0xb0>)
 8080460:	781b      	ldrb	r3, [r3, #0]
 8080462:	4926      	ldr	r1, [pc, #152]	; (80804fc <loop+0xb4>)
 8080464:	f88d 3000 	strb.w	r3, [sp]
 8080468:	a86b      	add	r0, sp, #428	; 0x1ac
 808046a:	f44f 7396 	mov.w	r3, #300	; 0x12c
 808046e:	f002 fbd1 	bl	8082c14 <_ZN10CloudClass13publish_eventEPKcS1_iN8particle5FlagsI15PublishFlagTypehEE>
 8080472:	a86c      	add	r0, sp, #432	; 0x1b0
 8080474:	f7ff fec7 	bl	8080206 <_ZNSt14__shared_countILN9__gnu_cxx12_Lock_policyE0EED1Ev>
        Particle.publish("Debug", "Reboot intiated", 300, PRIVATE);
        System.reset();
 8080478:	f001 fe1c 	bl	80820b4 <_ZN11SystemClass5resetEv>
    }

    if ((resetFlag) && (millis() - rebootSync >= REBOOT_DELAY_IN_MS))
 808047c:	4b20      	ldr	r3, [pc, #128]	; (8080500 <loop+0xb8>)
 808047e:	781b      	ldrb	r3, [r3, #0]
 8080480:	b1d3      	cbz	r3, 80804b8 <loop+0x70>
 8080482:	f001 fb83 	bl	8081b8c <HAL_Timer_Get_Milli_Seconds>
 8080486:	4b1f      	ldr	r3, [pc, #124]	; (8080504 <loop+0xbc>)
 8080488:	681b      	ldr	r3, [r3, #0]
 808048a:	1ac0      	subs	r0, r0, r3
 808048c:	f643 2397 	movw	r3, #14999	; 0x3a97
 8080490:	4298      	cmp	r0, r3
 8080492:	d911      	bls.n	80804b8 <loop+0x70>
    {
        // do things here  before reset and then push the button
        sos();
 8080494:	f7ff feab 	bl	80801ee <_Z3sosv>
 8080498:	4b16      	ldr	r3, [pc, #88]	; (80804f4 <loop+0xac>)
 808049a:	4a1b      	ldr	r2, [pc, #108]	; (8080508 <loop+0xc0>)
 808049c:	781b      	ldrb	r3, [r3, #0]
 808049e:	4917      	ldr	r1, [pc, #92]	; (80804fc <loop+0xb4>)
 80804a0:	f88d 3000 	strb.w	r3, [sp]
 80804a4:	a86b      	add	r0, sp, #428	; 0x1ac
 80804a6:	f44f 7396 	mov.w	r3, #300	; 0x12c
 80804aa:	f002 fbb3 	bl	8082c14 <_ZN10CloudClass13publish_eventEPKcS1_iN8particle5FlagsI15PublishFlagTypehEE>
 80804ae:	a86c      	add	r0, sp, #432	; 0x1b0
 80804b0:	f7ff fea9 	bl	8080206 <_ZNSt14__shared_countILN9__gnu_cxx12_Lock_policyE0EED1Ev>
        Particle.publish("Debug", "Remote Reset Initiated", 300, PRIVATE);
        System.reset();
 80804b4:	f001 fdfe 	bl	80820b4 <_ZN11SystemClass5resetEv>
    }

    time_t time = Time.now();
 80804b8:	f002 f95f 	bl	808277a <_ZN9TimeClass3nowEv>

    CellularHelperRSSIQualResponse rssiQual = CellularHelper.getRSSIQual();
 80804bc:	4913      	ldr	r1, [pc, #76]	; (808050c <loop+0xc4>)
    time_t time = Time.now();
 80804be:	4604      	mov	r4, r0
    CellularHelperRSSIQualResponse rssiQual = CellularHelper.getRSSIQual();
 80804c0:	a86b      	add	r0, sp, #428	; 0x1ac
 80804c2:	f001 fab9 	bl	8081a38 <_ZNK19CellularHelperClass11getRSSIQualEv>

    if (!startupCompleted)
 80804c6:	4b12      	ldr	r3, [pc, #72]	; (8080510 <loop+0xc8>)
 80804c8:	781b      	ldrb	r3, [r3, #0]
 80804ca:	bb2b      	cbnz	r3, 8080518 <loop+0xd0>
    {
        blinkShort(STARTUP_BLINK_FREQUENCY); // Let know i'm waiting...
 80804cc:	2004      	movs	r0, #4
 80804ce:	f7ff fe83 	bl	80801d8 <_Z10blinkShorti>
        delay(STARTUP_LOOP_DELAY);           //Wait a bit to  let syseem run ok
 80804d2:	f242 7010 	movw	r0, #10000	; 0x2710

    // Wait nn seconds
    if (zeroingInProgress)
        delay(ZEROING_LOOP_DELAY); //Use shorter delay when averaging for zero...
    else
        delay(loopDelay); //10 min: 600,000 1 min: 60,000 10 sec: 10,000
 80804d6:	f002 f96b 	bl	80827b0 <delay>
 * Things that return a + response and a string use this.
 *
 * Since it inherits from CellularHelperPlusStringResponse and CellularHelperCommonResponse you
 * can check resp == RESP_OK to make sure the call succeeded.
 */
class CellularHelperPlusStringResponse : public CellularHelperCommonResponse {
 80804da:	4b0e      	ldr	r3, [pc, #56]	; (8080514 <loop+0xcc>)
 80804dc:	a872      	add	r0, sp, #456	; 0x1c8
 80804de:	936b      	str	r3, [sp, #428]	; 0x1ac
 80804e0:	f001 fe5a 	bl	8082198 <_ZN6StringD1Ev>
 80804e4:	a86e      	add	r0, sp, #440	; 0x1b8
 80804e6:	f001 fe57 	bl	8082198 <_ZN6StringD1Ev>
}
 80804ea:	b078      	add	sp, #480	; 0x1e0
 80804ec:	e8bd 81f0 	ldmia.w	sp!, {r4, r5, r6, r7, r8, pc}
 80804f0:	481907ff 	.word	0x481907ff
 80804f4:	200001ec 	.word	0x200001ec
 80804f8:	08086219 	.word	0x08086219
 80804fc:	08086229 	.word	0x08086229
 8080500:	200004b0 	.word	0x200004b0
 8080504:	200004ac 	.word	0x200004ac
 8080508:	0808622f 	.word	0x0808622f
 808050c:	20000501 	.word	0x20000501
 8080510:	200004d0 	.word	0x200004d0
 8080514:	08086478 	.word	0x08086478
    blinkShort(NORMAL_LOOP_BLINK_FREQUENCY); //Signal normal running loop
 8080518:	2001      	movs	r0, #1
 808051a:	f7ff fe5d 	bl	80801d8 <_Z10blinkShorti>
    waterLevelSampleReading = ads.readADC_SingleEnded(0); //FOR NDC setup -- ads.readADC_Differential_0_1() for ...;
 808051e:	2100      	movs	r1, #0
 8080520:	48bb      	ldr	r0, [pc, #748]	; (8080810 <loop+0x3c8>)
 8080522:	f001 f944 	bl	80817ae <_ZN16Adafruit_ADS101519readADC_SingleEndedEh>
 8080526:	4abb      	ldr	r2, [pc, #748]	; (8080814 <loop+0x3cc>)
    if (waterLevelSampleReading > 1 and waterLevelSampleReading <= MAX_16_BIT_ANALOGUE_BIT_VALUE)
 8080528:	1e83      	subs	r3, r0, #2
    waterLevelSampleReading = ads.readADC_SingleEnded(0); //FOR NDC setup -- ads.readADC_Differential_0_1() for ...;
 808052a:	6010      	str	r0, [r2, #0]
    if (waterLevelSampleReading > 1 and waterLevelSampleReading <= MAX_16_BIT_ANALOGUE_BIT_VALUE)
 808052c:	f647 5298 	movw	r2, #32152	; 0x7d98
 8080530:	4293      	cmp	r3, r2
 8080532:	d81d      	bhi.n	8080570 <loop+0x128>
        waterLevelInMm = (waterLevelSampleReading - FOUR_MA_OFFSET_IN_BITS) * (SENSOR_FULL_RANGE_IN_MM / (MAX_16_BIT_ANALOGUE_BIT_VALUE - FOUR_MA_OFFSET_IN_BITS)) - zeroOffsetInMm;
 8080534:	f003 fa10 	bl	8083958 <__aeabi_i2d>
 8080538:	a3b1      	add	r3, pc, #708	; (adr r3, 8080800 <loop+0x3b8>)
 808053a:	e9d3 2300 	ldrd	r2, r3, [r3]
 808053e:	f003 f8bd 	bl	80836bc <__aeabi_dsub>
 8080542:	a3b1      	add	r3, pc, #708	; (adr r3, 8080808 <loop+0x3c0>)
 8080544:	e9d3 2300 	ldrd	r2, r3, [r3]
 8080548:	f003 fa70 	bl	8083a2c <__aeabi_dmul>
 808054c:	4bb2      	ldr	r3, [pc, #712]	; (8080818 <loop+0x3d0>)
 808054e:	4db3      	ldr	r5, [pc, #716]	; (808081c <loop+0x3d4>)
 8080550:	e9d3 2300 	ldrd	r2, r3, [r3]
 8080554:	f003 f8b2 	bl	80836bc <__aeabi_dsub>
 8080558:	4602      	mov	r2, r0
 808055a:	460b      	mov	r3, r1
        longAveragingArray.addValue(waterLevelInMm);
 808055c:	48b0      	ldr	r0, [pc, #704]	; (8080820 <loop+0x3d8>)
        waterLevelInMm = (waterLevelSampleReading - FOUR_MA_OFFSET_IN_BITS) * (SENSOR_FULL_RANGE_IN_MM / (MAX_16_BIT_ANALOGUE_BIT_VALUE - FOUR_MA_OFFSET_IN_BITS)) - zeroOffsetInMm;
 808055e:	e9c5 2300 	strd	r2, r3, [r5]
        longAveragingArray.addValue(waterLevelInMm);
 8080562:	f001 f878 	bl	8081656 <_ZN14RunningAverage8addValueEd>
        shortAveragingArray.addValue(waterLevelInMm);
 8080566:	e9d5 2300 	ldrd	r2, r3, [r5]
 808056a:	48ae      	ldr	r0, [pc, #696]	; (8080824 <loop+0x3dc>)
 808056c:	f001 f873 	bl	8081656 <_ZN14RunningAverage8addValueEd>
    Serial.printlnf(String::format("%i", sample) + ", " + String::format("%u", waterLevelSampleReading) + ", " + String::format("%4.1f", waterLevelInMm) + ", " + String::format("%4.1f", longAveragingArray.getAverage()) + ", " + String::format("%4.1f", shortAveragingArray.getAverage()));
 8080570:	f002 fd6e 	bl	8083050 <_Z16_fetch_usbserialv>
 8080574:	4dac      	ldr	r5, [pc, #688]	; (8080828 <loop+0x3e0>)
 8080576:	4606      	mov	r6, r0
 8080578:	682a      	ldr	r2, [r5, #0]
 808057a:	49ac      	ldr	r1, [pc, #688]	; (808082c <loop+0x3e4>)
 808057c:	a853      	add	r0, sp, #332	; 0x14c
 808057e:	f001 ff31 	bl	80823e4 <_ZN6String6formatEPKcz>
	StringSumHelper(const String &s) : String(s) {}
 8080582:	a953      	add	r1, sp, #332	; 0x14c
 8080584:	a857      	add	r0, sp, #348	; 0x15c
 8080586:	f001 fe90 	bl	80822aa <_ZN6StringC1ERKS_>
 808058a:	49a9      	ldr	r1, [pc, #676]	; (8080830 <loop+0x3e8>)
 808058c:	a857      	add	r0, sp, #348	; 0x15c
 808058e:	f001 ff02 	bl	8082396 <_ZplRK15StringSumHelperPKc>
 8080592:	4607      	mov	r7, r0
 8080594:	4b9f      	ldr	r3, [pc, #636]	; (8080814 <loop+0x3cc>)
 8080596:	49a7      	ldr	r1, [pc, #668]	; (8080834 <loop+0x3ec>)
 8080598:	681a      	ldr	r2, [r3, #0]
 808059a:	a85b      	add	r0, sp, #364	; 0x16c
 808059c:	f001 ff22 	bl	80823e4 <_ZN6String6formatEPKcz>
 80805a0:	4638      	mov	r0, r7
 80805a2:	a95b      	add	r1, sp, #364	; 0x16c
 80805a4:	f001 feeb 	bl	808237e <_ZplRK15StringSumHelperRK6String>
 80805a8:	49a1      	ldr	r1, [pc, #644]	; (8080830 <loop+0x3e8>)
 80805aa:	f001 fef4 	bl	8082396 <_ZplRK15StringSumHelperPKc>
 80805ae:	4607      	mov	r7, r0
 80805b0:	4b9a      	ldr	r3, [pc, #616]	; (808081c <loop+0x3d4>)
 80805b2:	49a1      	ldr	r1, [pc, #644]	; (8080838 <loop+0x3f0>)
 80805b4:	e9d3 2300 	ldrd	r2, r3, [r3]
 80805b8:	a85f      	add	r0, sp, #380	; 0x17c
 80805ba:	f001 ff13 	bl	80823e4 <_ZN6String6formatEPKcz>
 80805be:	4638      	mov	r0, r7
 80805c0:	a95f      	add	r1, sp, #380	; 0x17c
 80805c2:	f001 fedc 	bl	808237e <_ZplRK15StringSumHelperRK6String>
 80805c6:	499a      	ldr	r1, [pc, #616]	; (8080830 <loop+0x3e8>)
 80805c8:	f001 fee5 	bl	8082396 <_ZplRK15StringSumHelperPKc>
 80805cc:	4607      	mov	r7, r0
 80805ce:	4894      	ldr	r0, [pc, #592]	; (8080820 <loop+0x3d8>)
 80805d0:	f001 f871 	bl	80816b6 <_ZN14RunningAverage10getAverageEv>
 80805d4:	4602      	mov	r2, r0
 80805d6:	460b      	mov	r3, r1
 80805d8:	a863      	add	r0, sp, #396	; 0x18c
 80805da:	4997      	ldr	r1, [pc, #604]	; (8080838 <loop+0x3f0>)
 80805dc:	f001 ff02 	bl	80823e4 <_ZN6String6formatEPKcz>
 80805e0:	4638      	mov	r0, r7
 80805e2:	a963      	add	r1, sp, #396	; 0x18c
 80805e4:	f001 fecb 	bl	808237e <_ZplRK15StringSumHelperRK6String>
 80805e8:	4991      	ldr	r1, [pc, #580]	; (8080830 <loop+0x3e8>)
 80805ea:	f001 fed4 	bl	8082396 <_ZplRK15StringSumHelperPKc>
 80805ee:	4607      	mov	r7, r0
 80805f0:	488c      	ldr	r0, [pc, #560]	; (8080824 <loop+0x3dc>)
 80805f2:	f001 f860 	bl	80816b6 <_ZN14RunningAverage10getAverageEv>
 80805f6:	4602      	mov	r2, r0
 80805f8:	460b      	mov	r3, r1
 80805fa:	a867      	add	r0, sp, #412	; 0x19c
 80805fc:	498e      	ldr	r1, [pc, #568]	; (8080838 <loop+0x3f0>)
 80805fe:	f001 fef1 	bl	80823e4 <_ZN6String6formatEPKcz>
 8080602:	a967      	add	r1, sp, #412	; 0x19c
 8080604:	4638      	mov	r0, r7
 8080606:	f001 feba 	bl	808237e <_ZplRK15StringSumHelperRK6String>
 808060a:	6801      	ldr	r1, [r0, #0]
 808060c:	4630      	mov	r0, r6
 808060e:	f7ff fd78 	bl	8080102 <_ZN5Print8printlnfEPKcz>
 8080612:	a867      	add	r0, sp, #412	; 0x19c
 8080614:	f001 fdc0 	bl	8082198 <_ZN6StringD1Ev>
 8080618:	a863      	add	r0, sp, #396	; 0x18c
 808061a:	f001 fdbd 	bl	8082198 <_ZN6StringD1Ev>
 808061e:	a85f      	add	r0, sp, #380	; 0x17c
 8080620:	f001 fdba 	bl	8082198 <_ZN6StringD1Ev>
 8080624:	a85b      	add	r0, sp, #364	; 0x16c
 8080626:	f001 fdb7 	bl	8082198 <_ZN6StringD1Ev>
class StringSumHelper : public String
 808062a:	a857      	add	r0, sp, #348	; 0x15c
 808062c:	f001 fdb4 	bl	8082198 <_ZN6StringD1Ev>
 8080630:	a853      	add	r0, sp, #332	; 0x14c
 8080632:	f001 fdb1 	bl	8082198 <_ZN6StringD1Ev>
    if (sample == LONG_SAMPLE_SIZE)
 8080636:	f8d5 8000 	ldr.w	r8, [r5]
 808063a:	f1b8 0f18 	cmp.w	r8, #24
 808063e:	f040 808b 	bne.w	8080758 <loop+0x310>
        sample = -1;           //  Hit the buffers no need to count anymore
 8080642:	f04f 33ff 	mov.w	r3, #4294967295
        if (zeroingInProgress) //This is true if a cloud call has been made to set zero
 8080646:	4f7d      	ldr	r7, [pc, #500]	; (808083c <loop+0x3f4>)
        sample = -1;           //  Hit the buffers no need to count anymore
 8080648:	602b      	str	r3, [r5, #0]
        if (zeroingInProgress) //This is true if a cloud call has been made to set zero
 808064a:	783b      	ldrb	r3, [r7, #0]
 808064c:	2b00      	cmp	r3, #0
 808064e:	f000 8083 	beq.w	8080758 <loop+0x310>
            zeroOffsetInMm = longAveragingArray.getAverage();
 8080652:	4873      	ldr	r0, [pc, #460]	; (8080820 <loop+0x3d8>)
 8080654:	f001 f82f 	bl	80816b6 <_ZN14RunningAverage10getAverageEv>
 8080658:	4e6f      	ldr	r6, [pc, #444]	; (8080818 <loop+0x3d0>)
 808065a:	e9c6 0100 	strd	r0, r1, [r6]
            longAveragingArray.clear();
 808065e:	4870      	ldr	r0, [pc, #448]	; (8080820 <loop+0x3d8>)
 8080660:	f000 ffd8 	bl	8081614 <_ZN14RunningAverage5clearEv>
            longAveragingArray.fillValue(0.0, LONG_SAMPLE_SIZE);
 8080664:	2200      	movs	r2, #0
 8080666:	2300      	movs	r3, #0
 8080668:	486d      	ldr	r0, [pc, #436]	; (8080820 <loop+0x3d8>)
 808066a:	f8cd 8000 	str.w	r8, [sp]
 808066e:	f001 f832 	bl	80816d6 <_ZN14RunningAverage9fillValueEdh>
            shortAveragingArray.clear();
 8080672:	486c      	ldr	r0, [pc, #432]	; (8080824 <loop+0x3dc>)
 8080674:	f000 ffce 	bl	8081614 <_ZN14RunningAverage5clearEv>
            shortAveragingArray.fillValue(0.0, SHORT_SAMPLE_SIZE);
 8080678:	2303      	movs	r3, #3
 808067a:	2200      	movs	r2, #0
 808067c:	4869      	ldr	r0, [pc, #420]	; (8080824 <loop+0x3dc>)
 808067e:	9300      	str	r3, [sp, #0]
 8080680:	2300      	movs	r3, #0
 8080682:	f001 f828 	bl	80816d6 <_ZN14RunningAverage9fillValueEdh>
            zeroData = String("{") +
 8080686:	496e      	ldr	r1, [pc, #440]	; (8080840 <loop+0x3f8>)
 8080688:	a853      	add	r0, sp, #332	; 0x14c
 808068a:	f001 fdcf 	bl	808222c <_ZN6StringC1EPKc>
	StringSumHelper(const String &s) : String(s) {}
 808068e:	a953      	add	r1, sp, #332	; 0x14c
 8080690:	a85b      	add	r0, sp, #364	; 0x16c
 8080692:	f001 fe0a 	bl	80822aa <_ZN6StringC1ERKS_>
                       String("\"ZeroOffsetInMm\":") + String("\"") + String::format("%4.1f", zeroOffsetInMm) +
 8080696:	496b      	ldr	r1, [pc, #428]	; (8080844 <loop+0x3fc>)
 8080698:	a857      	add	r0, sp, #348	; 0x15c
 808069a:	f001 fdc7 	bl	808222c <_ZN6StringC1EPKc>
 808069e:	a957      	add	r1, sp, #348	; 0x15c
 80806a0:	a85b      	add	r0, sp, #364	; 0x16c
 80806a2:	f001 fe6c 	bl	808237e <_ZplRK15StringSumHelperRK6String>
 80806a6:	4605      	mov	r5, r0
 80806a8:	4967      	ldr	r1, [pc, #412]	; (8080848 <loop+0x400>)
 80806aa:	a85f      	add	r0, sp, #380	; 0x17c
 80806ac:	f001 fdbe 	bl	808222c <_ZN6StringC1EPKc>
 80806b0:	4628      	mov	r0, r5
 80806b2:	a95f      	add	r1, sp, #380	; 0x17c
 80806b4:	f001 fe63 	bl	808237e <_ZplRK15StringSumHelperRK6String>
 80806b8:	e9d6 2300 	ldrd	r2, r3, [r6]
 80806bc:	4605      	mov	r5, r0
 80806be:	495e      	ldr	r1, [pc, #376]	; (8080838 <loop+0x3f0>)
 80806c0:	a863      	add	r0, sp, #396	; 0x18c
 80806c2:	f001 fe8f 	bl	80823e4 <_ZN6String6formatEPKcz>
 80806c6:	4628      	mov	r0, r5
 80806c8:	a963      	add	r1, sp, #396	; 0x18c
 80806ca:	f001 fe58 	bl	808237e <_ZplRK15StringSumHelperRK6String>
 80806ce:	4605      	mov	r5, r0
                       String("\"}");
 80806d0:	495e      	ldr	r1, [pc, #376]	; (808084c <loop+0x404>)
 80806d2:	a867      	add	r0, sp, #412	; 0x19c
 80806d4:	f001 fdaa 	bl	808222c <_ZN6StringC1EPKc>
 80806d8:	4628      	mov	r0, r5
 80806da:	a967      	add	r1, sp, #412	; 0x19c
 80806dc:	f001 fe4f 	bl	808237e <_ZplRK15StringSumHelperRK6String>
 80806e0:	4e5b      	ldr	r6, [pc, #364]	; (8080850 <loop+0x408>)
 80806e2:	4601      	mov	r1, r0
 80806e4:	4630      	mov	r0, r6
 80806e6:	f001 fdd1 	bl	808228c <_ZN6StringaSERKS_>
 80806ea:	a867      	add	r0, sp, #412	; 0x19c
 80806ec:	f001 fd54 	bl	8082198 <_ZN6StringD1Ev>
                       String("\"ZeroOffsetInMm\":") + String("\"") + String::format("%4.1f", zeroOffsetInMm) +
 80806f0:	a863      	add	r0, sp, #396	; 0x18c
 80806f2:	f001 fd51 	bl	8082198 <_ZN6StringD1Ev>
 80806f6:	a85f      	add	r0, sp, #380	; 0x17c
 80806f8:	f001 fd4e 	bl	8082198 <_ZN6StringD1Ev>
 80806fc:	a857      	add	r0, sp, #348	; 0x15c
 80806fe:	f001 fd4b 	bl	8082198 <_ZN6StringD1Ev>
class StringSumHelper : public String
 8080702:	a85b      	add	r0, sp, #364	; 0x16c
 8080704:	f001 fd48 	bl	8082198 <_ZN6StringD1Ev>
            zeroData = String("{") +
 8080708:	a853      	add	r0, sp, #332	; 0x14c
 808070a:	f001 fd45 	bl	8082198 <_ZN6StringD1Ev>
 808070e:	4b51      	ldr	r3, [pc, #324]	; (8080854 <loop+0x40c>)
 8080710:	4951      	ldr	r1, [pc, #324]	; (8080858 <loop+0x410>)
 8080712:	781b      	ldrb	r3, [r3, #0]
 8080714:	a867      	add	r0, sp, #412	; 0x19c
 8080716:	f88d 3000 	strb.w	r3, [sp]
 808071a:	6832      	ldr	r2, [r6, #0]
 808071c:	f44f 7316 	mov.w	r3, #600	; 0x258
 8080720:	f002 fa78 	bl	8082c14 <_ZN10CloudClass13publish_eventEPKcS1_iN8particle5FlagsI15PublishFlagTypehEE>
 8080724:	a868      	add	r0, sp, #416	; 0x1a0
 8080726:	f7ff fd6e 	bl	8080206 <_ZNSt14__shared_countILN9__gnu_cxx12_Lock_policyE0EED1Ev>
            Serial.printlnf("New zeroOffset (saved to cloud): " + zeroData);
 808072a:	f002 fc91 	bl	8083050 <_Z16_fetch_usbserialv>
	StringSumHelper(const char *p) : String(p) {}
 808072e:	494b      	ldr	r1, [pc, #300]	; (808085c <loop+0x414>)
 8080730:	4605      	mov	r5, r0
 8080732:	a867      	add	r0, sp, #412	; 0x19c
 8080734:	f001 fd7a 	bl	808222c <_ZN6StringC1EPKc>
 8080738:	4631      	mov	r1, r6
 808073a:	a867      	add	r0, sp, #412	; 0x19c
 808073c:	f001 fe1f 	bl	808237e <_ZplRK15StringSumHelperRK6String>
 8080740:	6801      	ldr	r1, [r0, #0]
 8080742:	4628      	mov	r0, r5
 8080744:	f7ff fcdd 	bl	8080102 <_ZN5Print8printlnfEPKcz>
class StringSumHelper : public String
 8080748:	a867      	add	r0, sp, #412	; 0x19c
 808074a:	f001 fd25 	bl	8082198 <_ZN6StringD1Ev>
            blinkLong(5); // Signal zeroing complete.
 808074e:	2005      	movs	r0, #5
 8080750:	f7ff fd36 	bl	80801c0 <_Z9blinkLongi>
            zeroingInProgress = false;
 8080754:	2300      	movs	r3, #0
 8080756:	703b      	strb	r3, [r7, #0]
    data = String("{") +
 8080758:	4939      	ldr	r1, [pc, #228]	; (8080840 <loop+0x3f8>)
 808075a:	a803      	add	r0, sp, #12
 808075c:	f001 fd66 	bl	808222c <_ZN6StringC1EPKc>
	StringSumHelper(const String &s) : String(s) {}
 8080760:	a903      	add	r1, sp, #12
 8080762:	a80b      	add	r0, sp, #44	; 0x2c
 8080764:	f001 fda1 	bl	80822aa <_ZN6StringC1ERKS_>
           String("\"DT\":") + String("\"") + Time.format(time, TIME_FORMAT_ISO8601_FULL) + String("\",") +
 8080768:	493d      	ldr	r1, [pc, #244]	; (8080860 <loop+0x418>)
 808076a:	a807      	add	r0, sp, #28
 808076c:	f001 fd5e 	bl	808222c <_ZN6StringC1EPKc>
 8080770:	a907      	add	r1, sp, #28
 8080772:	a80b      	add	r0, sp, #44	; 0x2c
 8080774:	f001 fe03 	bl	808237e <_ZplRK15StringSumHelperRK6String>
 8080778:	4605      	mov	r5, r0
 808077a:	4933      	ldr	r1, [pc, #204]	; (8080848 <loop+0x400>)
 808077c:	a80f      	add	r0, sp, #60	; 0x3c
 808077e:	f001 fd55 	bl	808222c <_ZN6StringC1EPKc>
 8080782:	4628      	mov	r0, r5
 8080784:	a90f      	add	r1, sp, #60	; 0x3c
 8080786:	f001 fdfa 	bl	808237e <_ZplRK15StringSumHelperRK6String>
 808078a:	4605      	mov	r5, r0
 808078c:	4b35      	ldr	r3, [pc, #212]	; (8080864 <loop+0x41c>)
 808078e:	4622      	mov	r2, r4
 8080790:	681b      	ldr	r3, [r3, #0]
 8080792:	4935      	ldr	r1, [pc, #212]	; (8080868 <loop+0x420>)
 8080794:	9300      	str	r3, [sp, #0]
 8080796:	a813      	add	r0, sp, #76	; 0x4c
 8080798:	17e3      	asrs	r3, r4, #31
 808079a:	f001 ff8f 	bl	80826bc <_ZN9TimeClass6formatExPKc>
 808079e:	a913      	add	r1, sp, #76	; 0x4c
 80807a0:	4628      	mov	r0, r5
 80807a2:	f001 fdec 	bl	808237e <_ZplRK15StringSumHelperRK6String>
 80807a6:	4604      	mov	r4, r0
 80807a8:	4930      	ldr	r1, [pc, #192]	; (808086c <loop+0x424>)
 80807aa:	a817      	add	r0, sp, #92	; 0x5c
 80807ac:	f001 fd3e 	bl	808222c <_ZN6StringC1EPKc>
 80807b0:	4620      	mov	r0, r4
 80807b2:	a917      	add	r1, sp, #92	; 0x5c
 80807b4:	f001 fde3 	bl	808237e <_ZplRK15StringSumHelperRK6String>
 80807b8:	4604      	mov	r4, r0
           String("\"SS\":") + String("\"") + String::format("rssi=%d, qual=%d", rssiQual.rssi, rssiQual.qual) + String("\",") +
 80807ba:	492d      	ldr	r1, [pc, #180]	; (8080870 <loop+0x428>)
 80807bc:	a81b      	add	r0, sp, #108	; 0x6c
 80807be:	f001 fd35 	bl	808222c <_ZN6StringC1EPKc>
 80807c2:	4620      	mov	r0, r4
 80807c4:	a91b      	add	r1, sp, #108	; 0x6c
 80807c6:	f001 fdda 	bl	808237e <_ZplRK15StringSumHelperRK6String>
 80807ca:	4604      	mov	r4, r0
 80807cc:	491e      	ldr	r1, [pc, #120]	; (8080848 <loop+0x400>)
 80807ce:	a81f      	add	r0, sp, #124	; 0x7c
 80807d0:	f001 fd2c 	bl	808222c <_ZN6StringC1EPKc>
 80807d4:	4620      	mov	r0, r4
 80807d6:	a91f      	add	r1, sp, #124	; 0x7c
 80807d8:	f001 fdd1 	bl	808237e <_ZplRK15StringSumHelperRK6String>
 80807dc:	e9dd 2376 	ldrd	r2, r3, [sp, #472]	; 0x1d8
 80807e0:	4604      	mov	r4, r0
 80807e2:	4924      	ldr	r1, [pc, #144]	; (8080874 <loop+0x42c>)
 80807e4:	a823      	add	r0, sp, #140	; 0x8c
 80807e6:	f001 fdfd 	bl	80823e4 <_ZN6String6formatEPKcz>
 80807ea:	4620      	mov	r0, r4
 80807ec:	a923      	add	r1, sp, #140	; 0x8c
 80807ee:	f001 fdc6 	bl	808237e <_ZplRK15StringSumHelperRK6String>
 80807f2:	4604      	mov	r4, r0
 80807f4:	491d      	ldr	r1, [pc, #116]	; (808086c <loop+0x424>)
 80807f6:	a827      	add	r0, sp, #156	; 0x9c
 80807f8:	e03e      	b.n	8080878 <loop+0x430>
 80807fa:	bf00      	nop
 80807fc:	f3af 8000 	nop.w
 8080800:	00000000 	.word	0x00000000
 8080804:	40b91e00 	.word	0x40b91e00
 8080808:	cdc369d9 	.word	0xcdc369d9
 808080c:	3fb3e751 	.word	0x3fb3e751
 8080810:	200001ee 	.word	0x200001ee
 8080814:	200004e0 	.word	0x200004e0
 8080818:	200004f8 	.word	0x200004f8
 808081c:	200004d8 	.word	0x200004d8
 8080820:	20000218 	.word	0x20000218
 8080824:	200004b8 	.word	0x200004b8
 8080828:	20000008 	.word	0x20000008
 808082c:	08086246 	.word	0x08086246
 8080830:	08086249 	.word	0x08086249
 8080834:	0808619a 	.word	0x0808619a
 8080838:	0808624c 	.word	0x0808624c
 808083c:	20000500 	.word	0x20000500
 8080840:	0808619d 	.word	0x0808619d
 8080844:	08086252 	.word	0x08086252
 8080848:	080861ac 	.word	0x080861ac
 808084c:	080861ae 	.word	0x080861ae
 8080850:	200004e4 	.word	0x200004e4
 8080854:	200001ec 	.word	0x200001ec
 8080858:	08086264 	.word	0x08086264
 808085c:	0808626d 	.word	0x0808626d
 8080860:	0808628f 	.word	0x0808628f
 8080864:	20000010 	.word	0x20000010
 8080868:	20000518 	.word	0x20000518
 808086c:	08086295 	.word	0x08086295
 8080870:	08086298 	.word	0x08086298
 8080874:	0808629e 	.word	0x0808629e
 8080878:	f001 fcd8 	bl	808222c <_ZN6StringC1EPKc>
 808087c:	4620      	mov	r0, r4
 808087e:	a927      	add	r1, sp, #156	; 0x9c
 8080880:	f001 fd7d 	bl	808237e <_ZplRK15StringSumHelperRK6String>
 8080884:	4604      	mov	r4, r0
           String("\"LsBits\":") + String("\"") + String::format("%u", waterLevelSampleReading) + String("\",") +
 8080886:	4988      	ldr	r1, [pc, #544]	; (8080aa8 <loop+0x660>)
 8080888:	a82b      	add	r0, sp, #172	; 0xac
 808088a:	f001 fccf 	bl	808222c <_ZN6StringC1EPKc>
 808088e:	4620      	mov	r0, r4
 8080890:	a92b      	add	r1, sp, #172	; 0xac
 8080892:	f001 fd74 	bl	808237e <_ZplRK15StringSumHelperRK6String>
 8080896:	4604      	mov	r4, r0
 8080898:	4984      	ldr	r1, [pc, #528]	; (8080aac <loop+0x664>)
 808089a:	a82f      	add	r0, sp, #188	; 0xbc
 808089c:	f001 fcc6 	bl	808222c <_ZN6StringC1EPKc>
 80808a0:	4620      	mov	r0, r4
 80808a2:	a92f      	add	r1, sp, #188	; 0xbc
 80808a4:	f001 fd6b 	bl	808237e <_ZplRK15StringSumHelperRK6String>
 80808a8:	4604      	mov	r4, r0
 80808aa:	4b81      	ldr	r3, [pc, #516]	; (8080ab0 <loop+0x668>)
 80808ac:	4981      	ldr	r1, [pc, #516]	; (8080ab4 <loop+0x66c>)
 80808ae:	681a      	ldr	r2, [r3, #0]
 80808b0:	a833      	add	r0, sp, #204	; 0xcc
 80808b2:	f001 fd97 	bl	80823e4 <_ZN6String6formatEPKcz>
 80808b6:	4620      	mov	r0, r4
 80808b8:	a933      	add	r1, sp, #204	; 0xcc
 80808ba:	f001 fd60 	bl	808237e <_ZplRK15StringSumHelperRK6String>
 80808be:	4604      	mov	r4, r0
 80808c0:	497d      	ldr	r1, [pc, #500]	; (8080ab8 <loop+0x670>)
 80808c2:	a837      	add	r0, sp, #220	; 0xdc
 80808c4:	f001 fcb2 	bl	808222c <_ZN6StringC1EPKc>
 80808c8:	4620      	mov	r0, r4
 80808ca:	a937      	add	r1, sp, #220	; 0xdc
 80808cc:	f001 fd57 	bl	808237e <_ZplRK15StringSumHelperRK6String>
 80808d0:	4604      	mov	r4, r0
           String("\"LsMm\":") + String("\"") + String::format("%4.1f", waterLevelInMm) + String("\",") +
 80808d2:	497a      	ldr	r1, [pc, #488]	; (8080abc <loop+0x674>)
 80808d4:	a83b      	add	r0, sp, #236	; 0xec
 80808d6:	f001 fca9 	bl	808222c <_ZN6StringC1EPKc>
 80808da:	4620      	mov	r0, r4
 80808dc:	a93b      	add	r1, sp, #236	; 0xec
 80808de:	f001 fd4e 	bl	808237e <_ZplRK15StringSumHelperRK6String>
 80808e2:	4604      	mov	r4, r0
 80808e4:	4971      	ldr	r1, [pc, #452]	; (8080aac <loop+0x664>)
 80808e6:	a83f      	add	r0, sp, #252	; 0xfc
 80808e8:	f001 fca0 	bl	808222c <_ZN6StringC1EPKc>
 80808ec:	4620      	mov	r0, r4
 80808ee:	a93f      	add	r1, sp, #252	; 0xfc
 80808f0:	f001 fd45 	bl	808237e <_ZplRK15StringSumHelperRK6String>
 80808f4:	4604      	mov	r4, r0
 80808f6:	4b72      	ldr	r3, [pc, #456]	; (8080ac0 <loop+0x678>)
 80808f8:	4972      	ldr	r1, [pc, #456]	; (8080ac4 <loop+0x67c>)
 80808fa:	e9d3 2300 	ldrd	r2, r3, [r3]
 80808fe:	a843      	add	r0, sp, #268	; 0x10c
 8080900:	f001 fd70 	bl	80823e4 <_ZN6String6formatEPKcz>
 8080904:	4620      	mov	r0, r4
 8080906:	a943      	add	r1, sp, #268	; 0x10c
 8080908:	f001 fd39 	bl	808237e <_ZplRK15StringSumHelperRK6String>
 808090c:	4604      	mov	r4, r0
 808090e:	496a      	ldr	r1, [pc, #424]	; (8080ab8 <loop+0x670>)
 8080910:	a847      	add	r0, sp, #284	; 0x11c
 8080912:	f001 fc8b 	bl	808222c <_ZN6StringC1EPKc>
 8080916:	4620      	mov	r0, r4
 8080918:	a947      	add	r1, sp, #284	; 0x11c
 808091a:	f001 fd30 	bl	808237e <_ZplRK15StringSumHelperRK6String>
 808091e:	4604      	mov	r4, r0
           String("\"LsAv\":") + String("\"") + String::format("%4.1f", longAveragingArray.getAverage()) + String("\",") +
 8080920:	4969      	ldr	r1, [pc, #420]	; (8080ac8 <loop+0x680>)
 8080922:	a84b      	add	r0, sp, #300	; 0x12c
 8080924:	f001 fc82 	bl	808222c <_ZN6StringC1EPKc>
 8080928:	4620      	mov	r0, r4
 808092a:	a94b      	add	r1, sp, #300	; 0x12c
 808092c:	f001 fd27 	bl	808237e <_ZplRK15StringSumHelperRK6String>
 8080930:	4604      	mov	r4, r0
 8080932:	495e      	ldr	r1, [pc, #376]	; (8080aac <loop+0x664>)
 8080934:	a84f      	add	r0, sp, #316	; 0x13c
 8080936:	f001 fc79 	bl	808222c <_ZN6StringC1EPKc>
 808093a:	4620      	mov	r0, r4
 808093c:	a94f      	add	r1, sp, #316	; 0x13c
 808093e:	f001 fd1e 	bl	808237e <_ZplRK15StringSumHelperRK6String>
 8080942:	4604      	mov	r4, r0
 8080944:	4861      	ldr	r0, [pc, #388]	; (8080acc <loop+0x684>)
 8080946:	f000 feb6 	bl	80816b6 <_ZN14RunningAverage10getAverageEv>
 808094a:	4602      	mov	r2, r0
 808094c:	460b      	mov	r3, r1
 808094e:	a853      	add	r0, sp, #332	; 0x14c
 8080950:	495c      	ldr	r1, [pc, #368]	; (8080ac4 <loop+0x67c>)
 8080952:	f001 fd47 	bl	80823e4 <_ZN6String6formatEPKcz>
 8080956:	4620      	mov	r0, r4
 8080958:	a953      	add	r1, sp, #332	; 0x14c
 808095a:	f001 fd10 	bl	808237e <_ZplRK15StringSumHelperRK6String>
 808095e:	4604      	mov	r4, r0
 8080960:	4955      	ldr	r1, [pc, #340]	; (8080ab8 <loop+0x670>)
 8080962:	a857      	add	r0, sp, #348	; 0x15c
 8080964:	f001 fc62 	bl	808222c <_ZN6StringC1EPKc>
 8080968:	4620      	mov	r0, r4
 808096a:	a957      	add	r1, sp, #348	; 0x15c
 808096c:	f001 fd07 	bl	808237e <_ZplRK15StringSumHelperRK6String>
 8080970:	4604      	mov	r4, r0
           String("\"LsShAv\":") + String("\"") + String::format("%4.1f", shortAveragingArray.getAverage()) +
 8080972:	4957      	ldr	r1, [pc, #348]	; (8080ad0 <loop+0x688>)
 8080974:	a85b      	add	r0, sp, #364	; 0x16c
 8080976:	f001 fc59 	bl	808222c <_ZN6StringC1EPKc>
 808097a:	4620      	mov	r0, r4
 808097c:	a95b      	add	r1, sp, #364	; 0x16c
 808097e:	f001 fcfe 	bl	808237e <_ZplRK15StringSumHelperRK6String>
 8080982:	4604      	mov	r4, r0
 8080984:	4949      	ldr	r1, [pc, #292]	; (8080aac <loop+0x664>)
 8080986:	a85f      	add	r0, sp, #380	; 0x17c
 8080988:	f001 fc50 	bl	808222c <_ZN6StringC1EPKc>
 808098c:	4620      	mov	r0, r4
 808098e:	a95f      	add	r1, sp, #380	; 0x17c
 8080990:	f001 fcf5 	bl	808237e <_ZplRK15StringSumHelperRK6String>
 8080994:	4604      	mov	r4, r0
 8080996:	484f      	ldr	r0, [pc, #316]	; (8080ad4 <loop+0x68c>)
 8080998:	f000 fe8d 	bl	80816b6 <_ZN14RunningAverage10getAverageEv>
 808099c:	4602      	mov	r2, r0
 808099e:	460b      	mov	r3, r1
 80809a0:	a863      	add	r0, sp, #396	; 0x18c
 80809a2:	4948      	ldr	r1, [pc, #288]	; (8080ac4 <loop+0x67c>)
 80809a4:	f001 fd1e 	bl	80823e4 <_ZN6String6formatEPKcz>
 80809a8:	4620      	mov	r0, r4
 80809aa:	a963      	add	r1, sp, #396	; 0x18c
 80809ac:	f001 fce7 	bl	808237e <_ZplRK15StringSumHelperRK6String>
 80809b0:	4604      	mov	r4, r0
           String("\"}");
 80809b2:	4949      	ldr	r1, [pc, #292]	; (8080ad8 <loop+0x690>)
 80809b4:	a867      	add	r0, sp, #412	; 0x19c
 80809b6:	f001 fc39 	bl	808222c <_ZN6StringC1EPKc>
 80809ba:	4620      	mov	r0, r4
 80809bc:	a967      	add	r1, sp, #412	; 0x19c
 80809be:	f001 fcde 	bl	808237e <_ZplRK15StringSumHelperRK6String>
 80809c2:	4c46      	ldr	r4, [pc, #280]	; (8080adc <loop+0x694>)
 80809c4:	4601      	mov	r1, r0
 80809c6:	4620      	mov	r0, r4
 80809c8:	f001 fc60 	bl	808228c <_ZN6StringaSERKS_>
 80809cc:	a867      	add	r0, sp, #412	; 0x19c
 80809ce:	f001 fbe3 	bl	8082198 <_ZN6StringD1Ev>
           String("\"LsShAv\":") + String("\"") + String::format("%4.1f", shortAveragingArray.getAverage()) +
 80809d2:	a863      	add	r0, sp, #396	; 0x18c
 80809d4:	f001 fbe0 	bl	8082198 <_ZN6StringD1Ev>
 80809d8:	a85f      	add	r0, sp, #380	; 0x17c
 80809da:	f001 fbdd 	bl	8082198 <_ZN6StringD1Ev>
 80809de:	a85b      	add	r0, sp, #364	; 0x16c
 80809e0:	f001 fbda 	bl	8082198 <_ZN6StringD1Ev>
           String("\"LsAv\":") + String("\"") + String::format("%4.1f", longAveragingArray.getAverage()) + String("\",") +
 80809e4:	a857      	add	r0, sp, #348	; 0x15c
 80809e6:	f001 fbd7 	bl	8082198 <_ZN6StringD1Ev>
 80809ea:	a853      	add	r0, sp, #332	; 0x14c
 80809ec:	f001 fbd4 	bl	8082198 <_ZN6StringD1Ev>
 80809f0:	a84f      	add	r0, sp, #316	; 0x13c
 80809f2:	f001 fbd1 	bl	8082198 <_ZN6StringD1Ev>
 80809f6:	a84b      	add	r0, sp, #300	; 0x12c
 80809f8:	f001 fbce 	bl	8082198 <_ZN6StringD1Ev>
           String("\"LsMm\":") + String("\"") + String::format("%4.1f", waterLevelInMm) + String("\",") +
 80809fc:	a847      	add	r0, sp, #284	; 0x11c
 80809fe:	f001 fbcb 	bl	8082198 <_ZN6StringD1Ev>
 8080a02:	a843      	add	r0, sp, #268	; 0x10c
 8080a04:	f001 fbc8 	bl	8082198 <_ZN6StringD1Ev>
 8080a08:	a83f      	add	r0, sp, #252	; 0xfc
 8080a0a:	f001 fbc5 	bl	8082198 <_ZN6StringD1Ev>
 8080a0e:	a83b      	add	r0, sp, #236	; 0xec
 8080a10:	f001 fbc2 	bl	8082198 <_ZN6StringD1Ev>
           String("\"LsBits\":") + String("\"") + String::format("%u", waterLevelSampleReading) + String("\",") +
 8080a14:	a837      	add	r0, sp, #220	; 0xdc
 8080a16:	f001 fbbf 	bl	8082198 <_ZN6StringD1Ev>
 8080a1a:	a833      	add	r0, sp, #204	; 0xcc
 8080a1c:	f001 fbbc 	bl	8082198 <_ZN6StringD1Ev>
 8080a20:	a82f      	add	r0, sp, #188	; 0xbc
 8080a22:	f001 fbb9 	bl	8082198 <_ZN6StringD1Ev>
 8080a26:	a82b      	add	r0, sp, #172	; 0xac
 8080a28:	f001 fbb6 	bl	8082198 <_ZN6StringD1Ev>
           String("\"SS\":") + String("\"") + String::format("rssi=%d, qual=%d", rssiQual.rssi, rssiQual.qual) + String("\",") +
 8080a2c:	a827      	add	r0, sp, #156	; 0x9c
 8080a2e:	f001 fbb3 	bl	8082198 <_ZN6StringD1Ev>
 8080a32:	a823      	add	r0, sp, #140	; 0x8c
 8080a34:	f001 fbb0 	bl	8082198 <_ZN6StringD1Ev>
 8080a38:	a81f      	add	r0, sp, #124	; 0x7c
 8080a3a:	f001 fbad 	bl	8082198 <_ZN6StringD1Ev>
 8080a3e:	a81b      	add	r0, sp, #108	; 0x6c
 8080a40:	f001 fbaa 	bl	8082198 <_ZN6StringD1Ev>
           String("\"DT\":") + String("\"") + Time.format(time, TIME_FORMAT_ISO8601_FULL) + String("\",") +
 8080a44:	a817      	add	r0, sp, #92	; 0x5c
 8080a46:	f001 fba7 	bl	8082198 <_ZN6StringD1Ev>
 8080a4a:	a813      	add	r0, sp, #76	; 0x4c
 8080a4c:	f001 fba4 	bl	8082198 <_ZN6StringD1Ev>
 8080a50:	a80f      	add	r0, sp, #60	; 0x3c
 8080a52:	f001 fba1 	bl	8082198 <_ZN6StringD1Ev>
 8080a56:	a807      	add	r0, sp, #28
 8080a58:	f001 fb9e 	bl	8082198 <_ZN6StringD1Ev>
class StringSumHelper : public String
 8080a5c:	a80b      	add	r0, sp, #44	; 0x2c
 8080a5e:	f001 fb9b 	bl	8082198 <_ZN6StringD1Ev>
    data = String("{") +
 8080a62:	a803      	add	r0, sp, #12
 8080a64:	f001 fb98 	bl	8082198 <_ZN6StringD1Ev>
        spark_cloud_flag_connect();
 8080a68:	f001 fa6e 	bl	8081f48 <spark_cloud_flag_connect>
 8080a6c:	4b1c      	ldr	r3, [pc, #112]	; (8080ae0 <loop+0x698>)
        return publish_event(eventName, eventData, ttl, flags1 | flags2);
 8080a6e:	491d      	ldr	r1, [pc, #116]	; (8080ae4 <loop+0x69c>)
 8080a70:	781b      	ldrb	r3, [r3, #0]
 8080a72:	a867      	add	r0, sp, #412	; 0x19c
 8080a74:	f88d 3000 	strb.w	r3, [sp]
 8080a78:	6822      	ldr	r2, [r4, #0]
 8080a7a:	f44f 7316 	mov.w	r3, #600	; 0x258
 8080a7e:	f002 f8c9 	bl	8082c14 <_ZN10CloudClass13publish_eventEPKcS1_iN8particle5FlagsI15PublishFlagTypehEE>
 8080a82:	a868      	add	r0, sp, #416	; 0x1a0
 8080a84:	f7ff fbbf 	bl	8080206 <_ZNSt14__shared_countILN9__gnu_cxx12_Lock_policyE0EED1Ev>
    if (sample > 0)
 8080a88:	4a17      	ldr	r2, [pc, #92]	; (8080ae8 <loop+0x6a0>)
 8080a8a:	6813      	ldr	r3, [r2, #0]
 8080a8c:	2b00      	cmp	r3, #0
        ++sample; //Increase sample count if on initial fill
 8080a8e:	bfc4      	itt	gt
 8080a90:	3301      	addgt	r3, #1
 8080a92:	6013      	strgt	r3, [r2, #0]
    if (zeroingInProgress)
 8080a94:	4b15      	ldr	r3, [pc, #84]	; (8080aec <loop+0x6a4>)
 8080a96:	781b      	ldrb	r3, [r3, #0]
 8080a98:	b113      	cbz	r3, 8080aa0 <loop+0x658>
        delay(ZEROING_LOOP_DELAY); //Use shorter delay when averaging for zero...
 8080a9a:	f241 3088 	movw	r0, #5000	; 0x1388
 8080a9e:	e51a      	b.n	80804d6 <loop+0x8e>
        delay(loopDelay); //10 min: 600,000 1 min: 60,000 10 sec: 10,000
 8080aa0:	4b13      	ldr	r3, [pc, #76]	; (8080af0 <loop+0x6a8>)
 8080aa2:	6818      	ldr	r0, [r3, #0]
 8080aa4:	e517      	b.n	80804d6 <loop+0x8e>
 8080aa6:	bf00      	nop
 8080aa8:	080862af 	.word	0x080862af
 8080aac:	080861ac 	.word	0x080861ac
 8080ab0:	200004e0 	.word	0x200004e0
 8080ab4:	0808619a 	.word	0x0808619a
 8080ab8:	08086295 	.word	0x08086295
 8080abc:	080862b9 	.word	0x080862b9
 8080ac0:	200004d8 	.word	0x200004d8
 8080ac4:	0808624c 	.word	0x0808624c
 8080ac8:	080862c1 	.word	0x080862c1
 8080acc:	20000218 	.word	0x20000218
 8080ad0:	080862c9 	.word	0x080862c9
 8080ad4:	200004b8 	.word	0x200004b8
 8080ad8:	080861ae 	.word	0x080861ae
 8080adc:	20000204 	.word	0x20000204
 8080ae0:	200001ec 	.word	0x200001ec
 8080ae4:	080862d3 	.word	0x080862d3
 8080ae8:	20000008 	.word	0x20000008
 8080aec:	20000500 	.word	0x20000500
 8080af0:	20000000 	.word	0x20000000

08080af4 <_GLOBAL__sub_I_rebootSync>:
        val_(val) {
 8080af4:	2201      	movs	r2, #1
 8080af6:	4b32      	ldr	r3, [pc, #200]	; (8080bc0 <_GLOBAL__sub_I_rebootSync+0xcc>)
}
 8080af8:	b573      	push	{r0, r1, r4, r5, r6, lr}
RunningAverage longAveragingArray(LONG_SAMPLE_SIZE);   //averaging bucket
 8080afa:	4d32      	ldr	r5, [pc, #200]	; (8080bc4 <_GLOBAL__sub_I_rebootSync+0xd0>)
 8080afc:	701a      	strb	r2, [r3, #0]
Adafruit_ADS1115 ads;
 8080afe:	2148      	movs	r1, #72	; 0x48
 8080b00:	4831      	ldr	r0, [pc, #196]	; (8080bc8 <_GLOBAL__sub_I_rebootSync+0xd4>)
RunningAverage longAveragingArray(LONG_SAMPLE_SIZE);   //averaging bucket
 8080b02:	4c32      	ldr	r4, [pc, #200]	; (8080bcc <_GLOBAL__sub_I_rebootSync+0xd8>)
Adafruit_ADS1115 ads;
 8080b04:	f000 fe43 	bl	808178e <_ZN16Adafruit_ADS1115C1Eh>
RunningAverage longAveragingArray(LONG_SAMPLE_SIZE);   //averaging bucket
 8080b08:	4e31      	ldr	r6, [pc, #196]	; (8080bd0 <_GLOBAL__sub_I_rebootSync+0xdc>)
 8080b0a:	2118      	movs	r1, #24
 8080b0c:	4628      	mov	r0, r5
 8080b0e:	f000 fd95 	bl	808163c <_ZN14RunningAverageC1Eh>
 8080b12:	4628      	mov	r0, r5
RunningAverage shortAveragingArray(SHORT_SAMPLE_SIZE); //averaging bucket
 8080b14:	4d2f      	ldr	r5, [pc, #188]	; (8080bd4 <_GLOBAL__sub_I_rebootSync+0xe0>)
RunningAverage longAveragingArray(LONG_SAMPLE_SIZE);   //averaging bucket
 8080b16:	4622      	mov	r2, r4
 8080b18:	4631      	mov	r1, r6
 8080b1a:	f002 fdbf 	bl	808369c <__aeabi_atexit>
RunningAverage shortAveragingArray(SHORT_SAMPLE_SIZE); //averaging bucket
 8080b1e:	2103      	movs	r1, #3
 8080b20:	4628      	mov	r0, r5
 8080b22:	f000 fd8b 	bl	808163c <_ZN14RunningAverageC1Eh>
 8080b26:	4628      	mov	r0, r5
String data = String(80);
 8080b28:	4d2b      	ldr	r5, [pc, #172]	; (8080bd8 <_GLOBAL__sub_I_rebootSync+0xe4>)
RunningAverage shortAveragingArray(SHORT_SAMPLE_SIZE); //averaging bucket
 8080b2a:	4622      	mov	r2, r4
 8080b2c:	4631      	mov	r1, r6
 8080b2e:	f002 fdb5 	bl	808369c <__aeabi_atexit>
String data = String(80);
 8080b32:	4e2a      	ldr	r6, [pc, #168]	; (8080bdc <_GLOBAL__sub_I_rebootSync+0xe8>)
 8080b34:	220a      	movs	r2, #10
 8080b36:	2150      	movs	r1, #80	; 0x50
 8080b38:	4628      	mov	r0, r5
 8080b3a:	f001 fbda 	bl	80822f2 <_ZN6StringC1Eih>
 8080b3e:	4628      	mov	r0, r5
String zeroData = String(80);
 8080b40:	4d27      	ldr	r5, [pc, #156]	; (8080be0 <_GLOBAL__sub_I_rebootSync+0xec>)
String data = String(80);
 8080b42:	4622      	mov	r2, r4
 8080b44:	4631      	mov	r1, r6
 8080b46:	f002 fda9 	bl	808369c <__aeabi_atexit>
String zeroData = String(80);
 8080b4a:	220a      	movs	r2, #10
 8080b4c:	2150      	movs	r1, #80	; 0x50
 8080b4e:	4628      	mov	r0, r5
 8080b50:	f001 fbcf 	bl	80822f2 <_ZN6StringC1Eih>
 8080b54:	4628      	mov	r0, r5
String loopDelayData = String(80);
 8080b56:	4d23      	ldr	r5, [pc, #140]	; (8080be4 <_GLOBAL__sub_I_rebootSync+0xf0>)
String zeroData = String(80);
 8080b58:	4622      	mov	r2, r4
 8080b5a:	4631      	mov	r1, r6
 8080b5c:	f002 fd9e 	bl	808369c <__aeabi_atexit>
String loopDelayData = String(80);
 8080b60:	220a      	movs	r2, #10
 8080b62:	2150      	movs	r1, #80	; 0x50
 8080b64:	4628      	mov	r0, r5
 8080b66:	f001 fbc4 	bl	80822f2 <_ZN6StringC1Eih>
 8080b6a:	4622      	mov	r2, r4
 8080b6c:	4631      	mov	r1, r6
 8080b6e:	4628      	mov	r0, r5
 8080b70:	f002 fd94 	bl	808369c <__aeabi_atexit>
public:
	/**
	 * @brief Construct a JsonParser using a static buffer and static maximum number of tokens.
	 */
	explicit JsonParserStatic() : JsonParser(staticBuffer, BUFFER_SIZE, staticTokens, MAX_TOKENS) {};
 8080b74:	2314      	movs	r3, #20
 8080b76:	4d1c      	ldr	r5, [pc, #112]	; (8080be8 <_GLOBAL__sub_I_rebootSync+0xf4>)
 8080b78:	9300      	str	r3, [sp, #0]
 8080b7a:	f105 012c 	add.w	r1, r5, #44	; 0x2c
 8080b7e:	f505 7396 	add.w	r3, r5, #300	; 0x12c
 8080b82:	f44f 7280 	mov.w	r2, #256	; 0x100
 8080b86:	4628      	mov	r0, r5
 8080b88:	f000 f970 	bl	8080e6c <_ZN10JsonParserC1EPcjPN21JsonParserGeneratorRK9jsmntok_tEj>
 8080b8c:	4b17      	ldr	r3, [pc, #92]	; (8080bec <_GLOBAL__sub_I_rebootSync+0xf8>)
JsonParserStatic<256, 20> parser;
 8080b8e:	4628      	mov	r0, r5
 8080b90:	602b      	str	r3, [r5, #0]
String apn = "3iot.com";
 8080b92:	4d17      	ldr	r5, [pc, #92]	; (8080bf0 <_GLOBAL__sub_I_rebootSync+0xfc>)
JsonParserStatic<256, 20> parser;
 8080b94:	4622      	mov	r2, r4
 8080b96:	4917      	ldr	r1, [pc, #92]	; (8080bf4 <_GLOBAL__sub_I_rebootSync+0x100>)
 8080b98:	f002 fd80 	bl	808369c <__aeabi_atexit>
String apn = "3iot.com";
 8080b9c:	4628      	mov	r0, r5
 8080b9e:	4916      	ldr	r1, [pc, #88]	; (8080bf8 <_GLOBAL__sub_I_rebootSync+0x104>)
 8080ba0:	f001 fb44 	bl	808222c <_ZN6StringC1EPKc>
 8080ba4:	4622      	mov	r2, r4
 8080ba6:	4631      	mov	r1, r6
 8080ba8:	4628      	mov	r0, r5
 8080baa:	f002 fd77 	bl	808369c <__aeabi_atexit>
STARTUP(cellular_credentials_set(apn, "", "", NULL));
 8080bae:	4a13      	ldr	r2, [pc, #76]	; (8080bfc <_GLOBAL__sub_I_rebootSync+0x108>)
 8080bb0:	2300      	movs	r3, #0
 8080bb2:	4611      	mov	r1, r2
 8080bb4:	6828      	ldr	r0, [r5, #0]
}
 8080bb6:	b002      	add	sp, #8
 8080bb8:	e8bd 4070 	ldmia.w	sp!, {r4, r5, r6, lr}
STARTUP(cellular_credentials_set(apn, "", "", NULL));
 8080bbc:	f001 b8b6 	b.w	8081d2c <cellular_credentials_set>
 8080bc0:	200001ec 	.word	0x200001ec
 8080bc4:	20000218 	.word	0x20000218
 8080bc8:	200001ee 	.word	0x200001ee
 8080bcc:	200001e8 	.word	0x200001e8
 8080bd0:	08081605 	.word	0x08081605
 8080bd4:	200004b8 	.word	0x200004b8
 8080bd8:	20000204 	.word	0x20000204
 8080bdc:	08082199 	.word	0x08082199
 8080be0:	200004e4 	.word	0x200004e4
 8080be4:	20000230 	.word	0x20000230
 8080be8:	20000240 	.word	0x20000240
 8080bec:	08086348 	.word	0x08086348
 8080bf0:	200001f4 	.word	0x200001f4
 8080bf4:	080800d9 	.word	0x080800d9
 8080bf8:	080862dd 	.word	0x080862dd
 8080bfc:	08086459 	.word	0x08086459

08080c00 <_Z14startupHandlerPKcS0_>:
{
 8080c00:	b530      	push	{r4, r5, lr}
 8080c02:	460c      	mov	r4, r1
 8080c04:	b09b      	sub	sp, #108	; 0x6c
    parser.clear();
 8080c06:	4851      	ldr	r0, [pc, #324]	; (8080d4c <_Z14startupHandlerPKcS0_+0x14c>)
 8080c08:	f000 f92c 	bl	8080e64 <_ZN10JsonBuffer5clearEv>
	bool addString(const char *data) { return addData(data, strlen(data)); }
 8080c0c:	4620      	mov	r0, r4
 8080c0e:	f003 fb6e 	bl	80842ee <strlen>
 8080c12:	4621      	mov	r1, r4
 8080c14:	4602      	mov	r2, r0
 8080c16:	484d      	ldr	r0, [pc, #308]	; (8080d4c <_Z14startupHandlerPKcS0_+0x14c>)
 8080c18:	f000 f907 	bl	8080e2a <_ZN10JsonBuffer7addDataEPKcj>
    if (parser.parse())
 8080c1c:	484b      	ldr	r0, [pc, #300]	; (8080d4c <_Z14startupHandlerPKcS0_+0x14c>)
 8080c1e:	f000 fca3 	bl	8081568 <_ZN10JsonParser5parseEv>
 8080c22:	4d4b      	ldr	r5, [pc, #300]	; (8080d50 <_Z14startupHandlerPKcS0_+0x150>)
 8080c24:	2800      	cmp	r0, #0
 8080c26:	f000 8089 	beq.w	8080d3c <_Z14startupHandlerPKcS0_+0x13c>
        zeroOffsetInMm = parser.getReference().key("zeroOffsetInMm").valueFloat();
 8080c2a:	4948      	ldr	r1, [pc, #288]	; (8080d4c <_Z14startupHandlerPKcS0_+0x14c>)
 8080c2c:	a812      	add	r0, sp, #72	; 0x48
 8080c2e:	f000 f92d 	bl	8080e8c <_ZNK10JsonParser12getReferenceEv>
 8080c32:	4a48      	ldr	r2, [pc, #288]	; (8080d54 <_Z14startupHandlerPKcS0_+0x154>)
 8080c34:	a912      	add	r1, sp, #72	; 0x48
 8080c36:	a816      	add	r0, sp, #88	; 0x58
 8080c38:	f000 fa9c 	bl	8081174 <_ZNK13JsonReference3keyEPKc>
 8080c3c:	2100      	movs	r1, #0
 8080c3e:	a816      	add	r0, sp, #88	; 0x58
 8080c40:	f000 f997 	bl	8080f72 <_ZNK13JsonReference10valueFloatEf>
 8080c44:	f002 fe9a 	bl	808397c <__aeabi_f2d>
 8080c48:	e9c5 0100 	strd	r0, r1, [r5]
 8080c4c:	a816      	add	r0, sp, #88	; 0x58
 8080c4e:	f000 f89b 	bl	8080d88 <_ZN13JsonReferenceD1Ev>
 8080c52:	a812      	add	r0, sp, #72	; 0x48
 8080c54:	f000 f898 	bl	8080d88 <_ZN13JsonReferenceD1Ev>
    Serial.printlnf("zeroOffsetInMm (as stored on Azure): " + String::format("%4.1f", zeroOffsetInMm));
 8080c58:	f002 f9fa 	bl	8083050 <_Z16_fetch_usbserialv>
	StringSumHelper(const char *p) : String(p) {}
 8080c5c:	493e      	ldr	r1, [pc, #248]	; (8080d58 <_Z14startupHandlerPKcS0_+0x158>)
 8080c5e:	4604      	mov	r4, r0
 8080c60:	a816      	add	r0, sp, #88	; 0x58
 8080c62:	f001 fae3 	bl	808222c <_ZN6StringC1EPKc>
 8080c66:	e9d5 2300 	ldrd	r2, r3, [r5]
 8080c6a:	a812      	add	r0, sp, #72	; 0x48
 8080c6c:	493b      	ldr	r1, [pc, #236]	; (8080d5c <_Z14startupHandlerPKcS0_+0x15c>)
 8080c6e:	f001 fbb9 	bl	80823e4 <_ZN6String6formatEPKcz>
 8080c72:	a912      	add	r1, sp, #72	; 0x48
 8080c74:	a816      	add	r0, sp, #88	; 0x58
 8080c76:	f001 fb82 	bl	808237e <_ZplRK15StringSumHelperRK6String>
 8080c7a:	6801      	ldr	r1, [r0, #0]
 8080c7c:	4620      	mov	r0, r4
 8080c7e:	f7ff fa40 	bl	8080102 <_ZN5Print8printlnfEPKcz>
 8080c82:	a812      	add	r0, sp, #72	; 0x48
 8080c84:	f001 fa88 	bl	8082198 <_ZN6StringD1Ev>
class StringSumHelper : public String
 8080c88:	a816      	add	r0, sp, #88	; 0x58
 8080c8a:	f001 fa85 	bl	8082198 <_ZN6StringD1Ev>
    zeroData = String("{") +
 8080c8e:	4934      	ldr	r1, [pc, #208]	; (8080d60 <_Z14startupHandlerPKcS0_+0x160>)
 8080c90:	a802      	add	r0, sp, #8
 8080c92:	f001 facb 	bl	808222c <_ZN6StringC1EPKc>
	StringSumHelper(const String &s) : String(s) {}
 8080c96:	a902      	add	r1, sp, #8
 8080c98:	a80a      	add	r0, sp, #40	; 0x28
 8080c9a:	f001 fb06 	bl	80822aa <_ZN6StringC1ERKS_>
               String("\"ZeroOffsetInMm\":") + String("\"") + String::format("%4.1f", zeroOffsetInMm) +
 8080c9e:	4931      	ldr	r1, [pc, #196]	; (8080d64 <_Z14startupHandlerPKcS0_+0x164>)
 8080ca0:	a806      	add	r0, sp, #24
 8080ca2:	f001 fac3 	bl	808222c <_ZN6StringC1EPKc>
 8080ca6:	a906      	add	r1, sp, #24
 8080ca8:	a80a      	add	r0, sp, #40	; 0x28
 8080caa:	f001 fb68 	bl	808237e <_ZplRK15StringSumHelperRK6String>
 8080cae:	4604      	mov	r4, r0
 8080cb0:	492d      	ldr	r1, [pc, #180]	; (8080d68 <_Z14startupHandlerPKcS0_+0x168>)
 8080cb2:	a80e      	add	r0, sp, #56	; 0x38
 8080cb4:	f001 faba 	bl	808222c <_ZN6StringC1EPKc>
 8080cb8:	a90e      	add	r1, sp, #56	; 0x38
 8080cba:	4620      	mov	r0, r4
 8080cbc:	f001 fb5f 	bl	808237e <_ZplRK15StringSumHelperRK6String>
 8080cc0:	e9d5 2300 	ldrd	r2, r3, [r5]
 8080cc4:	4604      	mov	r4, r0
 8080cc6:	4925      	ldr	r1, [pc, #148]	; (8080d5c <_Z14startupHandlerPKcS0_+0x15c>)
 8080cc8:	a812      	add	r0, sp, #72	; 0x48
 8080cca:	f001 fb8b 	bl	80823e4 <_ZN6String6formatEPKcz>
 8080cce:	a912      	add	r1, sp, #72	; 0x48
 8080cd0:	4620      	mov	r0, r4
 8080cd2:	f001 fb54 	bl	808237e <_ZplRK15StringSumHelperRK6String>
 8080cd6:	4604      	mov	r4, r0
               String("\"}");
 8080cd8:	4924      	ldr	r1, [pc, #144]	; (8080d6c <_Z14startupHandlerPKcS0_+0x16c>)
 8080cda:	a816      	add	r0, sp, #88	; 0x58
 8080cdc:	f001 faa6 	bl	808222c <_ZN6StringC1EPKc>
 8080ce0:	a916      	add	r1, sp, #88	; 0x58
 8080ce2:	4620      	mov	r0, r4
 8080ce4:	f001 fb4b 	bl	808237e <_ZplRK15StringSumHelperRK6String>
 8080ce8:	4c21      	ldr	r4, [pc, #132]	; (8080d70 <_Z14startupHandlerPKcS0_+0x170>)
 8080cea:	4601      	mov	r1, r0
 8080cec:	4620      	mov	r0, r4
 8080cee:	f001 facd 	bl	808228c <_ZN6StringaSERKS_>
 8080cf2:	a816      	add	r0, sp, #88	; 0x58
 8080cf4:	f001 fa50 	bl	8082198 <_ZN6StringD1Ev>
               String("\"ZeroOffsetInMm\":") + String("\"") + String::format("%4.1f", zeroOffsetInMm) +
 8080cf8:	a812      	add	r0, sp, #72	; 0x48
 8080cfa:	f001 fa4d 	bl	8082198 <_ZN6StringD1Ev>
 8080cfe:	a80e      	add	r0, sp, #56	; 0x38
 8080d00:	f001 fa4a 	bl	8082198 <_ZN6StringD1Ev>
 8080d04:	a806      	add	r0, sp, #24
 8080d06:	f001 fa47 	bl	8082198 <_ZN6StringD1Ev>
class StringSumHelper : public String
 8080d0a:	a80a      	add	r0, sp, #40	; 0x28
 8080d0c:	f001 fa44 	bl	8082198 <_ZN6StringD1Ev>
    zeroData = String("{") +
 8080d10:	a802      	add	r0, sp, #8
 8080d12:	f001 fa41 	bl	8082198 <_ZN6StringD1Ev>
inline particle::Flags<TagT, ValueT>::Flags(ValueT val) :
 8080d16:	4b17      	ldr	r3, [pc, #92]	; (8080d74 <_Z14startupHandlerPKcS0_+0x174>)
 8080d18:	4917      	ldr	r1, [pc, #92]	; (8080d78 <_Z14startupHandlerPKcS0_+0x178>)
 8080d1a:	781b      	ldrb	r3, [r3, #0]
 8080d1c:	a816      	add	r0, sp, #88	; 0x58
 8080d1e:	f88d 3000 	strb.w	r3, [sp]
 8080d22:	6822      	ldr	r2, [r4, #0]
 8080d24:	f44f 7316 	mov.w	r3, #600	; 0x258
 8080d28:	f001 ff74 	bl	8082c14 <_ZN10CloudClass13publish_eventEPKcS1_iN8particle5FlagsI15PublishFlagTypehEE>
 8080d2c:	a817      	add	r0, sp, #92	; 0x5c
 8080d2e:	f7ff fa6a 	bl	8080206 <_ZNSt14__shared_countILN9__gnu_cxx12_Lock_policyE0EED1Ev>
    startupCompleted = true; //We can now run loop
 8080d32:	2201      	movs	r2, #1
 8080d34:	4b11      	ldr	r3, [pc, #68]	; (8080d7c <_Z14startupHandlerPKcS0_+0x17c>)
 8080d36:	701a      	strb	r2, [r3, #0]
}
 8080d38:	b01b      	add	sp, #108	; 0x6c
 8080d3a:	bd30      	pop	{r4, r5, pc}
        Serial.printlnf("error", "could not parse json");
 8080d3c:	f002 f988 	bl	8083050 <_Z16_fetch_usbserialv>
 8080d40:	4a0f      	ldr	r2, [pc, #60]	; (8080d80 <_Z14startupHandlerPKcS0_+0x180>)
 8080d42:	4910      	ldr	r1, [pc, #64]	; (8080d84 <_Z14startupHandlerPKcS0_+0x184>)
 8080d44:	f7ff f9dd 	bl	8080102 <_ZN5Print8printlnfEPKcz>
 8080d48:	e786      	b.n	8080c58 <_Z14startupHandlerPKcS0_+0x58>
 8080d4a:	bf00      	nop
 8080d4c:	20000240 	.word	0x20000240
 8080d50:	200004f8 	.word	0x200004f8
 8080d54:	0808632f 	.word	0x0808632f
 8080d58:	08086301 	.word	0x08086301
 8080d5c:	0808624c 	.word	0x0808624c
 8080d60:	0808619d 	.word	0x0808619d
 8080d64:	08086252 	.word	0x08086252
 8080d68:	080861ac 	.word	0x080861ac
 8080d6c:	080861ae 	.word	0x080861ae
 8080d70:	200004e4 	.word	0x200004e4
 8080d74:	200001ec 	.word	0x200001ec
 8080d78:	08086327 	.word	0x08086327
 8080d7c:	200004d0 	.word	0x200004d0
 8080d80:	080862e6 	.word	0x080862e6
 8080d84:	080862fb 	.word	0x080862fb

08080d88 <_ZN13JsonReferenceD1Ev>:
JsonReference::JsonReference(const JsonParser *parser) : parser(parser), token(0) {

}

JsonReference::~JsonReference() {
}
 8080d88:	4770      	bx	lr

08080d8a <_ZN13JsonReferenceD0Ev>:
JsonReference::~JsonReference() {
 8080d8a:	b510      	push	{r4, lr}
 8080d8c:	4604      	mov	r4, r0
}
 8080d8e:	210c      	movs	r1, #12
 8080d90:	f002 fc89 	bl	80836a6 <_ZdlPvj>
 8080d94:	4620      	mov	r0, r4
 8080d96:	bd10      	pop	{r4, pc}

08080d98 <_ZN10JsonBufferD1Ev>:
JsonBuffer::~JsonBuffer() {
 8080d98:	b510      	push	{r4, lr}
 8080d9a:	4b05      	ldr	r3, [pc, #20]	; (8080db0 <_ZN10JsonBufferD1Ev+0x18>)
 8080d9c:	4604      	mov	r4, r0
 8080d9e:	6003      	str	r3, [r0, #0]
	if (!staticBuffers && buffer) {
 8080da0:	7c03      	ldrb	r3, [r0, #16]
 8080da2:	b91b      	cbnz	r3, 8080dac <_ZN10JsonBufferD1Ev+0x14>
 8080da4:	6840      	ldr	r0, [r0, #4]
 8080da6:	b108      	cbz	r0, 8080dac <_ZN10JsonBufferD1Ev+0x14>
		free(buffer);
 8080da8:	f001 f90e 	bl	8081fc8 <free>
}
 8080dac:	4620      	mov	r0, r4
 8080dae:	bd10      	pop	{r4, pc}
 8080db0:	08086360 	.word	0x08086360

08080db4 <_ZN10JsonBufferD0Ev>:
JsonBuffer::~JsonBuffer() {
 8080db4:	b510      	push	{r4, lr}
 8080db6:	4604      	mov	r4, r0
}
 8080db8:	f7ff ffee 	bl	8080d98 <_ZN10JsonBufferD1Ev>
 8080dbc:	4620      	mov	r0, r4
 8080dbe:	2114      	movs	r1, #20
 8080dc0:	f002 fc71 	bl	80836a6 <_ZdlPvj>
 8080dc4:	4620      	mov	r0, r4
 8080dc6:	bd10      	pop	{r4, pc}

08080dc8 <_ZN10JsonParserD1Ev>:
JsonParser::~JsonParser() {
 8080dc8:	b510      	push	{r4, lr}
 8080dca:	4b07      	ldr	r3, [pc, #28]	; (8080de8 <_ZN10JsonParserD1Ev+0x20>)
 8080dcc:	4604      	mov	r4, r0
 8080dce:	6003      	str	r3, [r0, #0]
	if (!staticBuffers && tokens) {
 8080dd0:	7c03      	ldrb	r3, [r0, #16]
 8080dd2:	b91b      	cbnz	r3, 8080ddc <_ZN10JsonParserD1Ev+0x14>
 8080dd4:	6940      	ldr	r0, [r0, #20]
 8080dd6:	b108      	cbz	r0, 8080ddc <_ZN10JsonParserD1Ev+0x14>
		free(tokens);
 8080dd8:	f001 f8f6 	bl	8081fc8 <free>
JsonParser::~JsonParser() {
 8080ddc:	4620      	mov	r0, r4
 8080dde:	f7ff ffdb 	bl	8080d98 <_ZN10JsonBufferD1Ev>
}
 8080de2:	4620      	mov	r0, r4
 8080de4:	bd10      	pop	{r4, pc}
 8080de6:	bf00      	nop
 8080de8:	08086370 	.word	0x08086370

08080dec <_ZN10JsonParserD0Ev>:
JsonParser::~JsonParser() {
 8080dec:	b510      	push	{r4, lr}
 8080dee:	4604      	mov	r4, r0
}
 8080df0:	f7ff ffea 	bl	8080dc8 <_ZN10JsonParserD1Ev>
 8080df4:	4620      	mov	r0, r4
 8080df6:	212c      	movs	r1, #44	; 0x2c
 8080df8:	f002 fc55 	bl	80836a6 <_ZdlPvj>
 8080dfc:	4620      	mov	r0, r4
 8080dfe:	bd10      	pop	{r4, pc}

08080e00 <_ZN10JsonBuffer8allocateEj>:
bool JsonBuffer::allocate(size_t len) {
 8080e00:	b538      	push	{r3, r4, r5, lr}
	if (!staticBuffers) {
 8080e02:	7c03      	ldrb	r3, [r0, #16]
bool JsonBuffer::allocate(size_t len) {
 8080e04:	4604      	mov	r4, r0
 8080e06:	460d      	mov	r5, r1
	if (!staticBuffers) {
 8080e08:	b10b      	cbz	r3, 8080e0e <_ZN10JsonBuffer8allocateEj+0xe>
		return false;
 8080e0a:	2000      	movs	r0, #0
}
 8080e0c:	bd38      	pop	{r3, r4, r5, pc}
		if (buffer) {
 8080e0e:	6840      	ldr	r0, [r0, #4]
 8080e10:	b138      	cbz	r0, 8080e22 <_ZN10JsonBuffer8allocateEj+0x22>
			newBuffer = (char *) realloc(buffer, len);
 8080e12:	f001 f8e1 	bl	8081fd8 <realloc>
		if (newBuffer) {
 8080e16:	2800      	cmp	r0, #0
 8080e18:	d0f7      	beq.n	8080e0a <_ZN10JsonBuffer8allocateEj+0xa>
			bufferLen = len;
 8080e1a:	e9c4 0501 	strd	r0, r5, [r4, #4]
			return true;
 8080e1e:	2001      	movs	r0, #1
 8080e20:	e7f4      	b.n	8080e0c <_ZN10JsonBuffer8allocateEj+0xc>
			newBuffer = (char *) malloc(len);
 8080e22:	4608      	mov	r0, r1
 8080e24:	f001 f8c8 	bl	8081fb8 <malloc>
 8080e28:	e7f5      	b.n	8080e16 <_ZN10JsonBuffer8allocateEj+0x16>

08080e2a <_ZN10JsonBuffer7addDataEPKcj>:
bool JsonBuffer::addData(const char *data, size_t dataLen) {
 8080e2a:	b570      	push	{r4, r5, r6, lr}
 8080e2c:	68c3      	ldr	r3, [r0, #12]
 8080e2e:	460e      	mov	r6, r1
 8080e30:	18d1      	adds	r1, r2, r3
	if (!buffer || (offset + dataLen) > bufferLen) {
 8080e32:	6843      	ldr	r3, [r0, #4]
bool JsonBuffer::addData(const char *data, size_t dataLen) {
 8080e34:	4604      	mov	r4, r0
 8080e36:	4615      	mov	r5, r2
	if (!buffer || (offset + dataLen) > bufferLen) {
 8080e38:	b173      	cbz	r3, 8080e58 <_ZN10JsonBuffer7addDataEPKcj+0x2e>
 8080e3a:	6883      	ldr	r3, [r0, #8]
 8080e3c:	428b      	cmp	r3, r1
 8080e3e:	d30b      	bcc.n	8080e58 <_ZN10JsonBuffer7addDataEPKcj+0x2e>
	memcpy(&buffer[offset], data, dataLen);
 8080e40:	6860      	ldr	r0, [r4, #4]
 8080e42:	68e3      	ldr	r3, [r4, #12]
 8080e44:	462a      	mov	r2, r5
 8080e46:	4631      	mov	r1, r6
 8080e48:	4418      	add	r0, r3
 8080e4a:	f003 f9db 	bl	8084204 <memcpy>
	return true;
 8080e4e:	2001      	movs	r0, #1
	offset += dataLen;
 8080e50:	68e2      	ldr	r2, [r4, #12]
 8080e52:	442a      	add	r2, r5
 8080e54:	60e2      	str	r2, [r4, #12]
}
 8080e56:	bd70      	pop	{r4, r5, r6, pc}
		if (!allocate(offset + dataLen)) {
 8080e58:	4620      	mov	r0, r4
 8080e5a:	f7ff ffd1 	bl	8080e00 <_ZN10JsonBuffer8allocateEj>
 8080e5e:	2800      	cmp	r0, #0
 8080e60:	d1ee      	bne.n	8080e40 <_ZN10JsonBuffer7addDataEPKcj+0x16>
 8080e62:	e7f8      	b.n	8080e56 <_ZN10JsonBuffer7addDataEPKcj+0x2c>

08080e64 <_ZN10JsonBuffer5clearEv>:
	offset = 0;
 8080e64:	2300      	movs	r3, #0
 8080e66:	60c3      	str	r3, [r0, #12]
}
 8080e68:	4770      	bx	lr
	...

08080e6c <_ZN10JsonParserC1EPcjPN21JsonParserGeneratorRK9jsmntok_tEj>:
JsonBuffer::JsonBuffer(char *buffer, size_t bufferLen)  : buffer(buffer), bufferLen(bufferLen), offset(0), staticBuffers(true) {
 8080e6c:	e9c0 1201 	strd	r1, r2, [r0, #4]
 8080e70:	2200      	movs	r2, #0
 8080e72:	60c2      	str	r2, [r0, #12]
 8080e74:	2201      	movs	r2, #1
JsonParser::JsonParser(char *buffer, size_t bufferLen, JsonParserGeneratorRK::jsmntok_t *tokens, size_t maxTokens) :
 8080e76:	b510      	push	{r4, lr}
JsonBuffer::JsonBuffer(char *buffer, size_t bufferLen)  : buffer(buffer), bufferLen(bufferLen), offset(0), staticBuffers(true) {
 8080e78:	7402      	strb	r2, [r0, #16]
		JsonBuffer(buffer, bufferLen), tokens(tokens), maxTokens(maxTokens) {
 8080e7a:	6143      	str	r3, [r0, #20]
 8080e7c:	4a02      	ldr	r2, [pc, #8]	; (8080e88 <_ZN10JsonParserC1EPcjPN21JsonParserGeneratorRK9jsmntok_tEj+0x1c>)
 8080e7e:	9b02      	ldr	r3, [sp, #8]
 8080e80:	6002      	str	r2, [r0, #0]
 8080e82:	61c3      	str	r3, [r0, #28]
}
 8080e84:	bd10      	pop	{r4, pc}
 8080e86:	bf00      	nop
 8080e88:	08086370 	.word	0x08086370

08080e8c <_ZNK10JsonParser12getReferenceEv>:
	if (tokens < tokensEnd) {
 8080e8c:	e9d1 2305 	ldrd	r2, r3, [r1, #20]
 8080e90:	429a      	cmp	r2, r3
 8080e92:	4b04      	ldr	r3, [pc, #16]	; (8080ea4 <_ZNK10JsonParser12getReferenceEv+0x18>)

JsonReference::JsonReference(const JsonParser *parser, const JsonParserGeneratorRK::jsmntok_t *token) : parser(parser), token(token) {
 8080e94:	bf38      	it	cc
 8080e96:	6082      	strcc	r2, [r0, #8]
 8080e98:	e9c0 3100 	strd	r3, r1, [r0]
JsonReference::JsonReference(const JsonParser *parser) : parser(parser), token(0) {
 8080e9c:	bf24      	itt	cs
 8080e9e:	2300      	movcs	r3, #0
 8080ea0:	6083      	strcs	r3, [r0, #8]
}
 8080ea2:	4770      	bx	lr
 8080ea4:	08086380 	.word	0x08086380

08080ea8 <_ZNK10JsonParser10skipObjectEPKN21JsonParserGeneratorRK9jsmntok_tERS3_>:
bool JsonParser::skipObject(const JsonParserGeneratorRK::jsmntok_t *container, const JsonParserGeneratorRK::jsmntok_t *&obj) const {
 8080ea8:	b570      	push	{r4, r5, r6, lr}
	int curObjectEnd = obj->end;
 8080eaa:	6813      	ldr	r3, [r2, #0]
 8080eac:	689d      	ldr	r5, [r3, #8]
	while(++obj < tokensEnd && obj->end < container->end && obj->end <= curObjectEnd) {
 8080eae:	6813      	ldr	r3, [r2, #0]
 8080eb0:	f103 0410 	add.w	r4, r3, #16
 8080eb4:	6014      	str	r4, [r2, #0]
 8080eb6:	6986      	ldr	r6, [r0, #24]
 8080eb8:	42b4      	cmp	r4, r6
 8080eba:	d20a      	bcs.n	8080ed2 <_ZNK10JsonParser10skipObjectEPKN21JsonParserGeneratorRK9jsmntok_tERS3_+0x2a>
 8080ebc:	699b      	ldr	r3, [r3, #24]
 8080ebe:	688c      	ldr	r4, [r1, #8]
 8080ec0:	42a3      	cmp	r3, r4
 8080ec2:	da01      	bge.n	8080ec8 <_ZNK10JsonParser10skipObjectEPKN21JsonParserGeneratorRK9jsmntok_tERS3_+0x20>
 8080ec4:	42ab      	cmp	r3, r5
 8080ec6:	ddf2      	ble.n	8080eae <_ZNK10JsonParser10skipObjectEPKN21JsonParserGeneratorRK9jsmntok_tERS3_+0x6>
	if (obj >= tokensEnd || obj->end > container->end) {
 8080ec8:	42a3      	cmp	r3, r4
 8080eca:	bfcc      	ite	gt
 8080ecc:	2000      	movgt	r0, #0
 8080ece:	2001      	movle	r0, #1
 8080ed0:	e000      	b.n	8080ed4 <_ZNK10JsonParser10skipObjectEPKN21JsonParserGeneratorRK9jsmntok_tERS3_+0x2c>
		return false;
 8080ed2:	2000      	movs	r0, #0
}
 8080ed4:	bd70      	pop	{r4, r5, r6, pc}

08080ed6 <_ZNK10JsonParser23getKeyValueTokenByIndexEPKN21JsonParserGeneratorRK9jsmntok_tERS3_S4_j>:
bool JsonParser::getKeyValueTokenByIndex(const JsonParserGeneratorRK::jsmntok_t *container, const JsonParserGeneratorRK::jsmntok_t *&key, const JsonParserGeneratorRK::jsmntok_t *&value, size_t desiredIndex) const {
 8080ed6:	e92d 41f3 	stmdb	sp!, {r0, r1, r4, r5, r6, r7, r8, lr}
 8080eda:	4605      	mov	r5, r0
 8080edc:	4617      	mov	r7, r2
	size_t index = 0;
 8080ede:	2600      	movs	r6, #0
bool JsonParser::getKeyValueTokenByIndex(const JsonParserGeneratorRK::jsmntok_t *container, const JsonParserGeneratorRK::jsmntok_t *&key, const JsonParserGeneratorRK::jsmntok_t *&value, size_t desiredIndex) const {
 8080ee0:	4698      	mov	r8, r3
 8080ee2:	9c08      	ldr	r4, [sp, #32]
	const JsonParserGeneratorRK::jsmntok_t *token = container + 1;
 8080ee4:	f101 0310 	add.w	r3, r1, #16
 8080ee8:	9301      	str	r3, [sp, #4]
	while(token < tokensEnd && token->end < container->end) {
 8080eea:	9801      	ldr	r0, [sp, #4]
 8080eec:	69ab      	ldr	r3, [r5, #24]
 8080eee:	4283      	cmp	r3, r0
 8080ef0:	d91b      	bls.n	8080f2a <_ZNK10JsonParser23getKeyValueTokenByIndexEPKN21JsonParserGeneratorRK9jsmntok_tERS3_S4_j+0x54>
 8080ef2:	6882      	ldr	r2, [r0, #8]
 8080ef4:	688b      	ldr	r3, [r1, #8]
 8080ef6:	429a      	cmp	r2, r3
 8080ef8:	da17      	bge.n	8080f2a <_ZNK10JsonParser23getKeyValueTokenByIndexEPKN21JsonParserGeneratorRK9jsmntok_tERS3_S4_j+0x54>
		if (desiredIndex == index) {
 8080efa:	42a6      	cmp	r6, r4
 8080efc:	d10b      	bne.n	8080f16 <_ZNK10JsonParser23getKeyValueTokenByIndexEPKN21JsonParserGeneratorRK9jsmntok_tERS3_S4_j+0x40>
			key = token;
 8080efe:	6038      	str	r0, [r7, #0]
			if (skipObject(container, token)) {
 8080f00:	aa01      	add	r2, sp, #4
 8080f02:	4628      	mov	r0, r5
 8080f04:	f7ff ffd0 	bl	8080ea8 <_ZNK10JsonParser10skipObjectEPKN21JsonParserGeneratorRK9jsmntok_tERS3_>
 8080f08:	b128      	cbz	r0, 8080f16 <_ZNK10JsonParser23getKeyValueTokenByIndexEPKN21JsonParserGeneratorRK9jsmntok_tERS3_S4_j+0x40>
				value = token;
 8080f0a:	9b01      	ldr	r3, [sp, #4]
 8080f0c:	f8c8 3000 	str.w	r3, [r8]
}
 8080f10:	b002      	add	sp, #8
 8080f12:	e8bd 81f0 	ldmia.w	sp!, {r4, r5, r6, r7, r8, pc}
		skipObject(container, token);
 8080f16:	aa01      	add	r2, sp, #4
 8080f18:	4628      	mov	r0, r5
 8080f1a:	f7ff ffc5 	bl	8080ea8 <_ZNK10JsonParser10skipObjectEPKN21JsonParserGeneratorRK9jsmntok_tERS3_>
		skipObject(container, token);
 8080f1e:	4628      	mov	r0, r5
 8080f20:	aa01      	add	r2, sp, #4
		index++;
 8080f22:	3601      	adds	r6, #1
		skipObject(container, token);
 8080f24:	f7ff ffc0 	bl	8080ea8 <_ZNK10JsonParser10skipObjectEPKN21JsonParserGeneratorRK9jsmntok_tERS3_>
	while(token < tokensEnd && token->end < container->end) {
 8080f28:	e7df      	b.n	8080eea <_ZNK10JsonParser23getKeyValueTokenByIndexEPKN21JsonParserGeneratorRK9jsmntok_tERS3_S4_j+0x14>
	return false;
 8080f2a:	2000      	movs	r0, #0
 8080f2c:	e7f0      	b.n	8080f10 <_ZNK10JsonParser23getKeyValueTokenByIndexEPKN21JsonParserGeneratorRK9jsmntok_tERS3_S4_j+0x3a>

08080f2e <_ZNK10JsonParser14copyTokenValueEPKN21JsonParserGeneratorRK9jsmntok_tEPcj>:
void JsonParser::copyTokenValue(const JsonParserGeneratorRK::jsmntok_t *token, char *dst, size_t dstLen) const {
 8080f2e:	b5f0      	push	{r4, r5, r6, r7, lr}
	for(ii = 0; ii < (token->end - token->start) && ii < ((int)dstLen - 1); ii++) {
 8080f30:	2400      	movs	r4, #0
 8080f32:	3b01      	subs	r3, #1
 8080f34:	e9d1 7601 	ldrd	r7, r6, [r1, #4]
 8080f38:	1bf6      	subs	r6, r6, r7
 8080f3a:	42a6      	cmp	r6, r4
 8080f3c:	dd08      	ble.n	8080f50 <_ZNK10JsonParser14copyTokenValueEPKN21JsonParserGeneratorRK9jsmntok_tEPcj+0x22>
 8080f3e:	42a3      	cmp	r3, r4
 8080f40:	dd06      	ble.n	8080f50 <_ZNK10JsonParser14copyTokenValueEPKN21JsonParserGeneratorRK9jsmntok_tEPcj+0x22>
		dst[ii] = buffer[token->start + ii];
 8080f42:	6845      	ldr	r5, [r0, #4]
 8080f44:	443d      	add	r5, r7
 8080f46:	5d2d      	ldrb	r5, [r5, r4]
	for(ii = 0; ii < (token->end - token->start) && ii < ((int)dstLen - 1); ii++) {
 8080f48:	3401      	adds	r4, #1
		dst[ii] = buffer[token->start + ii];
 8080f4a:	f802 5b01 	strb.w	r5, [r2], #1
	for(ii = 0; ii < (token->end - token->start) && ii < ((int)dstLen - 1); ii++) {
 8080f4e:	e7f1      	b.n	8080f34 <_ZNK10JsonParser14copyTokenValueEPKN21JsonParserGeneratorRK9jsmntok_tEPcj+0x6>
	dst[ii] = 0;
 8080f50:	2300      	movs	r3, #0
 8080f52:	7013      	strb	r3, [r2, #0]
}
 8080f54:	bdf0      	pop	{r4, r5, r6, r7, pc}

08080f56 <_ZNK10JsonParser13getTokenValueEPKN21JsonParserGeneratorRK9jsmntok_tERf>:
bool JsonParser::getTokenValue(const JsonParserGeneratorRK::jsmntok_t *token, float &result) const {
 8080f56:	b51f      	push	{r0, r1, r2, r3, r4, lr}
 8080f58:	4614      	mov	r4, r2
	copyTokenValue(token, tmp, sizeof(tmp));
 8080f5a:	2310      	movs	r3, #16
 8080f5c:	466a      	mov	r2, sp
 8080f5e:	f7ff ffe6 	bl	8080f2e <_ZNK10JsonParser14copyTokenValueEPKN21JsonParserGeneratorRK9jsmntok_tEPcj>
	result = strtof(tmp, 0);
 8080f62:	2100      	movs	r1, #0
 8080f64:	4668      	mov	r0, sp
 8080f66:	f004 f81b 	bl	8084fa0 <strtof>
 8080f6a:	6020      	str	r0, [r4, #0]
}
 8080f6c:	2001      	movs	r0, #1
 8080f6e:	b004      	add	sp, #16
 8080f70:	bd10      	pop	{r4, pc}

08080f72 <_ZNK13JsonReference10valueFloatEf>:
unsigned long JsonReference::valueUnsignedLong(unsigned long result) const {
	(void) value(result);
	return result;
}

float JsonReference::valueFloat(float result) const {
 8080f72:	b507      	push	{r0, r1, r2, lr}
 8080f74:	9101      	str	r1, [sp, #4]
	 * There are also type-specific versions like valueBool that return the value, instead of having to pass an object
	 * to hold the value, as in this call.
	 */
	template<class T>
	bool value(T &result) const {
		if (token && parser->getTokenValue(token, result)) {
 8080f76:	6881      	ldr	r1, [r0, #8]
 8080f78:	b119      	cbz	r1, 8080f82 <_ZNK13JsonReference10valueFloatEf+0x10>
 8080f7a:	6840      	ldr	r0, [r0, #4]
 8080f7c:	aa01      	add	r2, sp, #4
 8080f7e:	f7ff ffea 	bl	8080f56 <_ZNK10JsonParser13getTokenValueEPKN21JsonParserGeneratorRK9jsmntok_tERf>
	(void) value(result);
	return result;
}
 8080f82:	9801      	ldr	r0, [sp, #4]
 8080f84:	b003      	add	sp, #12
 8080f86:	f85d fb04 	ldr.w	pc, [sp], #4

08080f8a <_ZN16JsonParserString6appendEc>:
	if (buf && bufLen) {
		memset(buf, 0, bufLen);
	}
}

void JsonParserString::append(char ch) {
 8080f8a:	b510      	push	{r4, lr}
 8080f8c:	4604      	mov	r4, r0
	if (str) {
 8080f8e:	6800      	ldr	r0, [r0, #0]
void JsonParserString::append(char ch) {
 8080f90:	460b      	mov	r3, r1
	if (str) {
 8080f92:	b128      	cbz	r0, 8080fa0 <_ZN16JsonParserString6appendEc+0x16>
		str->concat(ch);
 8080f94:	f001 f9e6 	bl	8082364 <_ZN6String6concatEc>
	}
	else {
		if (buf && length < (bufLen - 1)) {
			buf[length] = ch;
		}
		length++;
 8080f98:	68e3      	ldr	r3, [r4, #12]
 8080f9a:	3301      	adds	r3, #1
 8080f9c:	60e3      	str	r3, [r4, #12]
	}
}
 8080f9e:	bd10      	pop	{r4, pc}
		if (buf && length < (bufLen - 1)) {
 8080fa0:	6860      	ldr	r0, [r4, #4]
 8080fa2:	2800      	cmp	r0, #0
 8080fa4:	d0f8      	beq.n	8080f98 <_ZN16JsonParserString6appendEc+0xe>
 8080fa6:	e9d4 2102 	ldrd	r2, r1, [r4, #8]
 8080faa:	3a01      	subs	r2, #1
 8080fac:	428a      	cmp	r2, r1
			buf[length] = ch;
 8080fae:	bf88      	it	hi
 8080fb0:	5443      	strbhi	r3, [r0, r1]
 8080fb2:	e7f1      	b.n	8080f98 <_ZN16JsonParserString6appendEc+0xe>

08080fb4 <_ZN10JsonParser10appendUtf8EtR16JsonParserString>:
	if (unicode <= 0x007f) {
 8080fb4:	287f      	cmp	r0, #127	; 0x7f
void JsonParser::appendUtf8(uint16_t unicode, JsonParserString &str) {
 8080fb6:	b570      	push	{r4, r5, r6, lr}
 8080fb8:	460c      	mov	r4, r1
 8080fba:	b2c1      	uxtb	r1, r0
	if (unicode <= 0x007f) {
 8080fbc:	d804      	bhi.n	8080fc8 <_ZN10JsonParser10appendUtf8EtR16JsonParserString+0x14>
		str.append((char)value);
 8080fbe:	4620      	mov	r0, r4
}
 8080fc0:	e8bd 4070 	ldmia.w	sp!, {r4, r5, r6, lr}
		str.append((char)value);
 8080fc4:	f7ff bfe1 	b.w	8080f8a <_ZN16JsonParserString6appendEc>
	if (unicode <= 0x7ff) {
 8080fc8:	f001 013f 	and.w	r1, r1, #63	; 0x3f
 8080fcc:	f5b0 6f00 	cmp.w	r0, #2048	; 0x800
 8080fd0:	f340 1687 	sbfx	r6, r0, #6, #8
 8080fd4:	f041 0580 	orr.w	r5, r1, #128	; 0x80
 8080fd8:	d207      	bcs.n	8080fea <_ZN10JsonParser10appendUtf8EtR16JsonParserString+0x36>
		value = (0b11000000 | ((unicode >> 6) & 0b11111));
 8080fda:	f066 013f 	orn	r1, r6, #63	; 0x3f
		str.append((char)value);
 8080fde:	b2c9      	uxtb	r1, r1
		str.append((char)value);
 8080fe0:	4620      	mov	r0, r4
 8080fe2:	f7ff ffd2 	bl	8080f8a <_ZN16JsonParserString6appendEc>
		str.append((char)value);
 8080fe6:	4629      	mov	r1, r5
 8080fe8:	e7e9      	b.n	8080fbe <_ZN10JsonParser10appendUtf8EtR16JsonParserString+0xa>
		value = 0b11100000 | ((unicode >> 12) & 0b1111);
 8080fea:	0b03      	lsrs	r3, r0, #12
		str.append((char)value);
 8080fec:	f043 01e0 	orr.w	r1, r3, #224	; 0xe0
 8080ff0:	4620      	mov	r0, r4
 8080ff2:	f7ff ffca 	bl	8080f8a <_ZN16JsonParserString6appendEc>
		value = 0b10000000 | ((unicode >> 6) & 0b111111);
 8080ff6:	f006 013f 	and.w	r1, r6, #63	; 0x3f
		str.append((char)value);
 8080ffa:	f041 0180 	orr.w	r1, r1, #128	; 0x80
 8080ffe:	e7ef      	b.n	8080fe0 <_ZN10JsonParser10appendUtf8EtR16JsonParserString+0x2c>

08081000 <_ZNK10JsonParser13getTokenValueEPKN21JsonParserGeneratorRK9jsmntok_tER16JsonParserString>:
bool JsonParser::getTokenValue(const JsonParserGeneratorRK::jsmntok_t *token, JsonParserString &str) const {
 8081000:	e92d 47ff 	stmdb	sp!, {r0, r1, r2, r3, r4, r5, r6, r7, r8, r9, sl, lr}
	bool escape = false;
 8081004:	2400      	movs	r4, #0
bool JsonParser::getTokenValue(const JsonParserGeneratorRK::jsmntok_t *token, JsonParserString &str) const {
 8081006:	4680      	mov	r8, r0
 8081008:	460f      	mov	r7, r1
 808100a:	4615      	mov	r5, r2
			escape = false;
 808100c:	46a1      	mov	r9, r4
	for(int ii = token->start; ii < token->end; ii++) {
 808100e:	684e      	ldr	r6, [r1, #4]
					if (sscanf(tmp, "%04x", &unicode) == 1) {
 8081010:	f8df a0c4 	ldr.w	sl, [pc, #196]	; 80810d8 <_ZNK10JsonParser13getTokenValueEPKN21JsonParserGeneratorRK9jsmntok_tER16JsonParserString+0xd8>
	for(int ii = token->start; ii < token->end; ii++) {
 8081014:	68b8      	ldr	r0, [r7, #8]
 8081016:	42b0      	cmp	r0, r6
 8081018:	dd5a      	ble.n	80810d0 <_ZNK10JsonParser13getTokenValueEPKN21JsonParserGeneratorRK9jsmntok_tER16JsonParserString+0xd0>
		if (escape) {
 808101a:	f8d8 3004 	ldr.w	r3, [r8, #4]
 808101e:	5d99      	ldrb	r1, [r3, r6]
 8081020:	199a      	adds	r2, r3, r6
 8081022:	2c00      	cmp	r4, #0
 8081024:	d04b      	beq.n	80810be <_ZNK10JsonParser13getTokenValueEPKN21JsonParserGeneratorRK9jsmntok_tER16JsonParserString+0xbe>
			switch(buffer[ii]) {
 8081026:	2975      	cmp	r1, #117	; 0x75
 8081028:	d805      	bhi.n	8081036 <_ZNK10JsonParser13getTokenValueEPKN21JsonParserGeneratorRK9jsmntok_tER16JsonParserString+0x36>
 808102a:	296d      	cmp	r1, #109	; 0x6d
 808102c:	d807      	bhi.n	808103e <_ZNK10JsonParser13getTokenValueEPKN21JsonParserGeneratorRK9jsmntok_tER16JsonParserString+0x3e>
 808102e:	2962      	cmp	r1, #98	; 0x62
 8081030:	d01e      	beq.n	8081070 <_ZNK10JsonParser13getTokenValueEPKN21JsonParserGeneratorRK9jsmntok_tER16JsonParserString+0x70>
 8081032:	2966      	cmp	r1, #102	; 0x66
 8081034:	d01e      	beq.n	8081074 <_ZNK10JsonParser13getTokenValueEPKN21JsonParserGeneratorRK9jsmntok_tER16JsonParserString+0x74>
				str.append(buffer[ii]);
 8081036:	4628      	mov	r0, r5
 8081038:	f7ff ffa7 	bl	8080f8a <_ZN16JsonParserString6appendEc>
				break;
 808103c:	e03d      	b.n	80810ba <_ZNK10JsonParser13getTokenValueEPKN21JsonParserGeneratorRK9jsmntok_tER16JsonParserString+0xba>
 808103e:	f1a1 046e 	sub.w	r4, r1, #110	; 0x6e
 8081042:	2c07      	cmp	r4, #7
 8081044:	d8f7      	bhi.n	8081036 <_ZNK10JsonParser13getTokenValueEPKN21JsonParserGeneratorRK9jsmntok_tER16JsonParserString+0x36>
 8081046:	f20f 0c08 	addw	ip, pc, #8
 808104a:	f85c f024 	ldr.w	pc, [ip, r4, lsl #2]
 808104e:	bf00      	nop
 8081050:	08081079 	.word	0x08081079
 8081054:	08081037 	.word	0x08081037
 8081058:	08081037 	.word	0x08081037
 808105c:	08081037 	.word	0x08081037
 8081060:	0808107d 	.word	0x0808107d
 8081064:	08081037 	.word	0x08081037
 8081068:	08081081 	.word	0x08081081
 808106c:	08081085 	.word	0x08081085
				str.append('\b');
 8081070:	2108      	movs	r1, #8
 8081072:	e7e0      	b.n	8081036 <_ZNK10JsonParser13getTokenValueEPKN21JsonParserGeneratorRK9jsmntok_tER16JsonParserString+0x36>
				str.append('\f');
 8081074:	210c      	movs	r1, #12
 8081076:	e7de      	b.n	8081036 <_ZNK10JsonParser13getTokenValueEPKN21JsonParserGeneratorRK9jsmntok_tER16JsonParserString+0x36>
				str.append('\n');
 8081078:	210a      	movs	r1, #10
 808107a:	e7dc      	b.n	8081036 <_ZNK10JsonParser13getTokenValueEPKN21JsonParserGeneratorRK9jsmntok_tER16JsonParserString+0x36>
				str.append('\r');
 808107c:	210d      	movs	r1, #13
 808107e:	e7da      	b.n	8081036 <_ZNK10JsonParser13getTokenValueEPKN21JsonParserGeneratorRK9jsmntok_tER16JsonParserString+0x36>
				str.append('\t');
 8081080:	2109      	movs	r1, #9
 8081082:	e7d8      	b.n	8081036 <_ZNK10JsonParser13getTokenValueEPKN21JsonParserGeneratorRK9jsmntok_tER16JsonParserString+0x36>
				if ((ii + 4) < token->end) {
 8081084:	1d31      	adds	r1, r6, #4
 8081086:	4288      	cmp	r0, r1
 8081088:	dd17      	ble.n	80810ba <_ZNK10JsonParser13getTokenValueEPKN21JsonParserGeneratorRK9jsmntok_tER16JsonParserString+0xba>
 808108a:	a902      	add	r1, sp, #8
 808108c:	4608      	mov	r0, r1
 808108e:	3304      	adds	r3, #4
 8081090:	4433      	add	r3, r6
						tmp[jj] = buffer[ii + jj + 1];
 8081092:	f812 4f01 	ldrb.w	r4, [r2, #1]!
					for(size_t jj = 0; jj < 4; jj++) {
 8081096:	429a      	cmp	r2, r3
						tmp[jj] = buffer[ii + jj + 1];
 8081098:	f801 4b01 	strb.w	r4, [r1], #1
					for(size_t jj = 0; jj < 4; jj++) {
 808109c:	d1f9      	bne.n	8081092 <_ZNK10JsonParser13getTokenValueEPKN21JsonParserGeneratorRK9jsmntok_tER16JsonParserString+0x92>
					if (sscanf(tmp, "%04x", &unicode) == 1) {
 808109e:	4651      	mov	r1, sl
 80810a0:	aa01      	add	r2, sp, #4
					tmp[4] = 0;
 80810a2:	f88d 900c 	strb.w	r9, [sp, #12]
					if (sscanf(tmp, "%04x", &unicode) == 1) {
 80810a6:	f000 ffa7 	bl	8081ff8 <sscanf>
 80810aa:	2801      	cmp	r0, #1
 80810ac:	d105      	bne.n	80810ba <_ZNK10JsonParser13getTokenValueEPKN21JsonParserGeneratorRK9jsmntok_tER16JsonParserString+0xba>
						appendUtf8((uint16_t)unicode, str);
 80810ae:	4629      	mov	r1, r5
 80810b0:	f8bd 0004 	ldrh.w	r0, [sp, #4]
 80810b4:	f7ff ff7e 	bl	8080fb4 <_ZN10JsonParser10appendUtf8EtR16JsonParserString>
						ii += 5; // also increments in loop
 80810b8:	3605      	adds	r6, #5
			escape = false;
 80810ba:	2400      	movs	r4, #0
 80810bc:	e004      	b.n	80810c8 <_ZNK10JsonParser13getTokenValueEPKN21JsonParserGeneratorRK9jsmntok_tER16JsonParserString+0xc8>
		if (buffer[ii] == '\\') {
 80810be:	295c      	cmp	r1, #92	; 0x5c
 80810c0:	d004      	beq.n	80810cc <_ZNK10JsonParser13getTokenValueEPKN21JsonParserGeneratorRK9jsmntok_tER16JsonParserString+0xcc>
			str.append(buffer[ii]);
 80810c2:	4628      	mov	r0, r5
 80810c4:	f7ff ff61 	bl	8080f8a <_ZN16JsonParserString6appendEc>
	for(int ii = token->start; ii < token->end; ii++) {
 80810c8:	3601      	adds	r6, #1
 80810ca:	e7a3      	b.n	8081014 <_ZNK10JsonParser13getTokenValueEPKN21JsonParserGeneratorRK9jsmntok_tER16JsonParserString+0x14>
			escape = true;
 80810cc:	2401      	movs	r4, #1
 80810ce:	e7fb      	b.n	80810c8 <_ZNK10JsonParser13getTokenValueEPKN21JsonParserGeneratorRK9jsmntok_tER16JsonParserString+0xc8>
}
 80810d0:	2001      	movs	r0, #1
 80810d2:	b004      	add	sp, #16
 80810d4:	e8bd 87f0 	ldmia.w	sp!, {r4, r5, r6, r7, r8, r9, sl, pc}
 80810d8:	08086350 	.word	0x08086350

080810dc <_ZNK10JsonParser13getTokenValueEPKN21JsonParserGeneratorRK9jsmntok_tER6String>:
bool JsonParser::getTokenValue(const JsonParserGeneratorRK::jsmntok_t *token, String &result) const {
 80810dc:	b57f      	push	{r0, r1, r2, r3, r4, r5, r6, lr}
 80810de:	460c      	mov	r4, r1
 80810e0:	4615      	mov	r5, r2
 80810e2:	4606      	mov	r6, r0
	result = "";
 80810e4:	490b      	ldr	r1, [pc, #44]	; (8081114 <_ZNK10JsonParser13getTokenValueEPKN21JsonParserGeneratorRK9jsmntok_tER6String+0x38>)
 80810e6:	4610      	mov	r0, r2
 80810e8:	f001 f8f2 	bl	80822d0 <_ZN6StringaSEPKc>
	result.reserve(token->end - token->start + 1);
 80810ec:	e9d4 3101 	ldrd	r3, r1, [r4, #4]
 80810f0:	1ac9      	subs	r1, r1, r3
 80810f2:	4628      	mov	r0, r5
 80810f4:	3101      	adds	r1, #1
 80810f6:	f001 f86d 	bl	80821d4 <_ZN6String7reserveEj>
JsonParserString::JsonParserString(String *str) : str(str), buf(0), bufLen(0), length(0){
 80810fa:	2300      	movs	r3, #0
	return getTokenValue(token, strWrapper);
 80810fc:	466a      	mov	r2, sp
 80810fe:	4621      	mov	r1, r4
 8081100:	4630      	mov	r0, r6
JsonParserString::JsonParserString(String *str) : str(str), buf(0), bufLen(0), length(0){
 8081102:	e9cd 3301 	strd	r3, r3, [sp, #4]
 8081106:	9500      	str	r5, [sp, #0]
 8081108:	9303      	str	r3, [sp, #12]
	return getTokenValue(token, strWrapper);
 808110a:	f7ff ff79 	bl	8081000 <_ZNK10JsonParser13getTokenValueEPKN21JsonParserGeneratorRK9jsmntok_tER16JsonParserString>
}
 808110e:	b004      	add	sp, #16
 8081110:	bd70      	pop	{r4, r5, r6, pc}
 8081112:	bf00      	nop
 8081114:	08086459 	.word	0x08086459

08081118 <_ZNK10JsonParser18getValueTokenByKeyEPKN21JsonParserGeneratorRK9jsmntok_tEPKcRS3_>:
bool JsonParser::getValueTokenByKey(const JsonParserGeneratorRK::jsmntok_t *container, const char *name, const JsonParserGeneratorRK::jsmntok_t *&value) const {
 8081118:	e92d 43f0 	stmdb	sp!, {r4, r5, r6, r7, r8, r9, lr}
 808111c:	b089      	sub	sp, #36	; 0x24
 808111e:	4605      	mov	r5, r0
 8081120:	4688      	mov	r8, r1
	String keyName;
 8081122:	a804      	add	r0, sp, #16
 8081124:	4912      	ldr	r1, [pc, #72]	; (8081170 <_ZNK10JsonParser18getValueTokenByKeyEPKN21JsonParserGeneratorRK9jsmntok_tEPKcRS3_+0x58>)
bool JsonParser::getValueTokenByKey(const JsonParserGeneratorRK::jsmntok_t *container, const char *name, const JsonParserGeneratorRK::jsmntok_t *&value) const {
 8081126:	4616      	mov	r6, r2
 8081128:	4699      	mov	r9, r3
	for(size_t ii = 0; getKeyValueTokenByIndex(container, key, value, ii); ii++) {
 808112a:	2700      	movs	r7, #0
	String keyName;
 808112c:	f001 f87e 	bl	808222c <_ZN6StringC1EPKc>
	for(size_t ii = 0; getKeyValueTokenByIndex(container, key, value, ii); ii++) {
 8081130:	464b      	mov	r3, r9
 8081132:	4641      	mov	r1, r8
 8081134:	4628      	mov	r0, r5
 8081136:	9700      	str	r7, [sp, #0]
 8081138:	aa03      	add	r2, sp, #12
 808113a:	f7ff fecc 	bl	8080ed6 <_ZNK10JsonParser23getKeyValueTokenByIndexEPKN21JsonParserGeneratorRK9jsmntok_tERS3_S4_j>
 808113e:	4604      	mov	r4, r0
 8081140:	b170      	cbz	r0, 8081160 <_ZNK10JsonParser18getValueTokenByKeyEPKN21JsonParserGeneratorRK9jsmntok_tEPKcRS3_+0x48>
		if (getTokenValue(key, keyName) && keyName == name) {
 8081142:	4628      	mov	r0, r5
 8081144:	9903      	ldr	r1, [sp, #12]
 8081146:	aa04      	add	r2, sp, #16
 8081148:	f7ff ffc8 	bl	80810dc <_ZNK10JsonParser13getTokenValueEPKN21JsonParserGeneratorRK9jsmntok_tER6String>
 808114c:	4604      	mov	r4, r0
 808114e:	b908      	cbnz	r0, 8081154 <_ZNK10JsonParser18getValueTokenByKeyEPKN21JsonParserGeneratorRK9jsmntok_tEPKcRS3_+0x3c>
	for(size_t ii = 0; getKeyValueTokenByIndex(container, key, value, ii); ii++) {
 8081150:	3701      	adds	r7, #1
 8081152:	e7ed      	b.n	8081130 <_ZNK10JsonParser18getValueTokenByKeyEPKN21JsonParserGeneratorRK9jsmntok_tEPKcRS3_+0x18>
	unsigned char operator == (const char *cstr) const {return equals(cstr);}
 8081154:	4631      	mov	r1, r6
 8081156:	a804      	add	r0, sp, #16
 8081158:	f001 f931 	bl	80823be <_ZNK6String6equalsEPKc>
		if (getTokenValue(key, keyName) && keyName == name) {
 808115c:	2800      	cmp	r0, #0
 808115e:	d0f7      	beq.n	8081150 <_ZNK10JsonParser18getValueTokenByKeyEPKN21JsonParserGeneratorRK9jsmntok_tEPKcRS3_+0x38>
	String keyName;
 8081160:	a804      	add	r0, sp, #16
 8081162:	f001 f819 	bl	8082198 <_ZN6StringD1Ev>
}
 8081166:	4620      	mov	r0, r4
 8081168:	b009      	add	sp, #36	; 0x24
 808116a:	e8bd 83f0 	ldmia.w	sp!, {r4, r5, r6, r7, r8, r9, pc}
 808116e:	bf00      	nop
 8081170:	08086459 	.word	0x08086459

08081174 <_ZNK13JsonReference3keyEPKc>:
JsonReference JsonReference::key(const char *name) const {
 8081174:	b573      	push	{r0, r1, r4, r5, r6, lr}
 8081176:	460d      	mov	r5, r1
	if (token && parser->getValueTokenByKey(token, name, newToken)) {
 8081178:	6889      	ldr	r1, [r1, #8]
JsonReference JsonReference::key(const char *name) const {
 808117a:	4604      	mov	r4, r0
 808117c:	4e09      	ldr	r6, [pc, #36]	; (80811a4 <_ZNK13JsonReference3keyEPKc+0x30>)
	if (token && parser->getValueTokenByKey(token, name, newToken)) {
 808117e:	b161      	cbz	r1, 808119a <_ZNK13JsonReference3keyEPKc+0x26>
 8081180:	6868      	ldr	r0, [r5, #4]
 8081182:	ab01      	add	r3, sp, #4
 8081184:	f7ff ffc8 	bl	8081118 <_ZNK10JsonParser18getValueTokenByKeyEPKN21JsonParserGeneratorRK9jsmntok_tEPKcRS3_>
 8081188:	b138      	cbz	r0, 808119a <_ZNK13JsonReference3keyEPKc+0x26>
		return JsonReference(parser, newToken);
 808118a:	686b      	ldr	r3, [r5, #4]
JsonReference::JsonReference(const JsonParser *parser, const JsonParserGeneratorRK::jsmntok_t *token) : parser(parser), token(token) {
 808118c:	e9c4 6300 	strd	r6, r3, [r4]
 8081190:	9b01      	ldr	r3, [sp, #4]
}
 8081192:	4620      	mov	r0, r4
JsonReference::JsonReference(const JsonParser *parser) : parser(parser), token(0) {
 8081194:	60a3      	str	r3, [r4, #8]
}
 8081196:	b002      	add	sp, #8
 8081198:	bd70      	pop	{r4, r5, r6, pc}
		return JsonReference(parser);
 808119a:	686b      	ldr	r3, [r5, #4]
JsonReference::JsonReference(const JsonParser *parser) : parser(parser), token(0) {
 808119c:	e9c4 6300 	strd	r6, r3, [r4]
 80811a0:	2300      	movs	r3, #0
 80811a2:	e7f6      	b.n	8081192 <_ZNK13JsonReference3keyEPKc+0x1e>
 80811a4:	08086380 	.word	0x08086380

080811a8 <_ZN21JsonParserGeneratorRK10jsmn_parseEPNS_11jsmn_parserEPKcjPNS_9jsmntok_tEj>:

/**
 * Parse JSON string and fill tokens.
 */
int jsmn_parse(jsmn_parser *parser, const char *js, size_t len,
		jsmntok_t *tokens, unsigned int num_tokens) {
 80811a8:	e92d 4ff0 	stmdb	sp!, {r4, r5, r6, r7, r8, r9, sl, fp, lr}
 80811ac:	f04f 0c01 	mov.w	ip, #1
	tok->start = tok->end = -1;
 80811b0:	f04f 35ff 	mov.w	r5, #4294967295
		jsmntok_t *tokens, unsigned int num_tokens) {
 80811b4:	4604      	mov	r4, r0
	int r;
	int i;
	jsmntok_t *token;
	int count = parser->toknext;
 80811b6:	6840      	ldr	r0, [r0, #4]

	for (; parser->pos < len && js[parser->pos] != '\0'; parser->pos++) {
 80811b8:	f8d4 e000 	ldr.w	lr, [r4]
 80811bc:	4596      	cmp	lr, r2
 80811be:	f080 81be 	bcs.w	808153e <_ZN21JsonParserGeneratorRK10jsmn_parseEPNS_11jsmn_parserEPKcjPNS_9jsmntok_tEj+0x396>
 80811c2:	f811 800e 	ldrb.w	r8, [r1, lr]
 80811c6:	f1b8 0f00 	cmp.w	r8, #0
 80811ca:	f000 81b8 	beq.w	808153e <_ZN21JsonParserGeneratorRK10jsmn_parseEPNS_11jsmn_parserEPKcjPNS_9jsmntok_tEj+0x396>
		char c;
		jsmntype_t type;

		c = js[parser->pos];
		switch (c) {
 80811ce:	f1b8 0f3a 	cmp.w	r8, #58	; 0x3a
 80811d2:	f000 809b 	beq.w	808130c <_ZN21JsonParserGeneratorRK10jsmn_parseEPNS_11jsmn_parserEPKcjPNS_9jsmntok_tEj+0x164>
 80811d6:	d833      	bhi.n	8081240 <_ZN21JsonParserGeneratorRK10jsmn_parseEPNS_11jsmn_parserEPKcjPNS_9jsmntok_tEj+0x98>
 80811d8:	f1b8 0f22 	cmp.w	r8, #34	; 0x22
 80811dc:	f000 80ad 	beq.w	808133a <_ZN21JsonParserGeneratorRK10jsmn_parseEPNS_11jsmn_parserEPKcjPNS_9jsmntok_tEj+0x192>
 80811e0:	d810      	bhi.n	8081204 <_ZN21JsonParserGeneratorRK10jsmn_parseEPNS_11jsmn_parserEPKcjPNS_9jsmntok_tEj+0x5c>
 80811e2:	f1a8 0809 	sub.w	r8, r8, #9
 80811e6:	fa5f f888 	uxtb.w	r8, r8
 80811ea:	f1b8 0f17 	cmp.w	r8, #23
 80811ee:	d80d      	bhi.n	808120c <_ZN21JsonParserGeneratorRK10jsmn_parseEPNS_11jsmn_parserEPKcjPNS_9jsmntok_tEj+0x64>
 80811f0:	4fc0      	ldr	r7, [pc, #768]	; (80814f4 <_ZN21JsonParserGeneratorRK10jsmn_parseEPNS_11jsmn_parserEPKcjPNS_9jsmntok_tEj+0x34c>)
 80811f2:	fa0c f808 	lsl.w	r8, ip, r8
 80811f6:	ea18 0f07 	tst.w	r8, r7
 80811fa:	d007      	beq.n	808120c <_ZN21JsonParserGeneratorRK10jsmn_parseEPNS_11jsmn_parserEPKcjPNS_9jsmntok_tEj+0x64>
	for (; parser->pos < len && js[parser->pos] != '\0'; parser->pos++) {
 80811fc:	6827      	ldr	r7, [r4, #0]
 80811fe:	3701      	adds	r7, #1
 8081200:	6027      	str	r7, [r4, #0]
 8081202:	e7d9      	b.n	80811b8 <_ZN21JsonParserGeneratorRK10jsmn_parseEPNS_11jsmn_parserEPKcjPNS_9jsmntok_tEj+0x10>
		switch (c) {
 8081204:	f1b8 0f2c 	cmp.w	r8, #44	; 0x2c
 8081208:	f000 8136 	beq.w	8081478 <_ZN21JsonParserGeneratorRK10jsmn_parseEPNS_11jsmn_parserEPKcjPNS_9jsmntok_tEj+0x2d0>
	for (; parser->pos < len && js[parser->pos] != '\0'; parser->pos++) {
 808120c:	f8d4 8000 	ldr.w	r8, [r4]
 8081210:	4542      	cmp	r2, r8
 8081212:	d90e      	bls.n	8081232 <_ZN21JsonParserGeneratorRK10jsmn_parseEPNS_11jsmn_parserEPKcjPNS_9jsmntok_tEj+0x8a>
 8081214:	f811 7008 	ldrb.w	r7, [r1, r8]
 8081218:	b15f      	cbz	r7, 8081232 <_ZN21JsonParserGeneratorRK10jsmn_parseEPNS_11jsmn_parserEPKcjPNS_9jsmntok_tEj+0x8a>
		switch (js[parser->pos]) {
 808121a:	2f3a      	cmp	r7, #58	; 0x3a
 808121c:	f200 816e 	bhi.w	80814fc <_ZN21JsonParserGeneratorRK10jsmn_parseEPNS_11jsmn_parserEPKcjPNS_9jsmntok_tEj+0x354>
 8081220:	2f1f      	cmp	r7, #31
 8081222:	f200 8152 	bhi.w	80814ca <_ZN21JsonParserGeneratorRK10jsmn_parseEPNS_11jsmn_parserEPKcjPNS_9jsmntok_tEj+0x322>
 8081226:	2f0a      	cmp	r7, #10
 8081228:	f200 8161 	bhi.w	80814ee <_ZN21JsonParserGeneratorRK10jsmn_parseEPNS_11jsmn_parserEPKcjPNS_9jsmntok_tEj+0x346>
 808122c:	2f08      	cmp	r7, #8
 808122e:	f240 8157 	bls.w	80814e0 <_ZN21JsonParserGeneratorRK10jsmn_parseEPNS_11jsmn_parserEPKcjPNS_9jsmntok_tEj+0x338>
	if (tokens == NULL) {
 8081232:	2b00      	cmp	r3, #0
 8081234:	f040 8167 	bne.w	8081506 <_ZN21JsonParserGeneratorRK10jsmn_parseEPNS_11jsmn_parserEPKcjPNS_9jsmntok_tEj+0x35e>
		parser->pos--;
 8081238:	f108 37ff 	add.w	r7, r8, #4294967295
	parser->pos--;
 808123c:	6027      	str	r7, [r4, #0]
 808123e:	e0ab      	b.n	8081398 <_ZN21JsonParserGeneratorRK10jsmn_parseEPNS_11jsmn_parserEPKcjPNS_9jsmntok_tEj+0x1f0>
		switch (c) {
 8081240:	f1b8 0f7b 	cmp.w	r8, #123	; 0x7b
 8081244:	d03a      	beq.n	80812bc <_ZN21JsonParserGeneratorRK10jsmn_parseEPNS_11jsmn_parserEPKcjPNS_9jsmntok_tEj+0x114>
 8081246:	d80a      	bhi.n	808125e <_ZN21JsonParserGeneratorRK10jsmn_parseEPNS_11jsmn_parserEPKcjPNS_9jsmntok_tEj+0xb6>
 8081248:	f1b8 0f5b 	cmp.w	r8, #91	; 0x5b
 808124c:	d036      	beq.n	80812bc <_ZN21JsonParserGeneratorRK10jsmn_parseEPNS_11jsmn_parserEPKcjPNS_9jsmntok_tEj+0x114>
 808124e:	f1b8 0f5d 	cmp.w	r8, #93	; 0x5d
 8081252:	d1db      	bne.n	808120c <_ZN21JsonParserGeneratorRK10jsmn_parseEPNS_11jsmn_parserEPKcjPNS_9jsmntok_tEj+0x64>
				token->type = (c == '{' ? JSMN_OBJECT : JSMN_ARRAY);
				token->start = parser->pos;
				parser->toksuper = parser->toknext - 1;
				break;
			case '}': case ']':
				if (tokens == NULL)
 8081254:	2b00      	cmp	r3, #0
 8081256:	d0d1      	beq.n	80811fc <_ZN21JsonParserGeneratorRK10jsmn_parseEPNS_11jsmn_parserEPKcjPNS_9jsmntok_tEj+0x54>
					break;
				type = (c == '}' ? JSMN_OBJECT : JSMN_ARRAY);
 8081258:	f04f 0b02 	mov.w	fp, #2
 808125c:	e006      	b.n	808126c <_ZN21JsonParserGeneratorRK10jsmn_parseEPNS_11jsmn_parserEPKcjPNS_9jsmntok_tEj+0xc4>
		switch (c) {
 808125e:	f1b8 0f7d 	cmp.w	r8, #125	; 0x7d
 8081262:	d1d3      	bne.n	808120c <_ZN21JsonParserGeneratorRK10jsmn_parseEPNS_11jsmn_parserEPKcjPNS_9jsmntok_tEj+0x64>
				if (tokens == NULL)
 8081264:	2b00      	cmp	r3, #0
 8081266:	d0c9      	beq.n	80811fc <_ZN21JsonParserGeneratorRK10jsmn_parseEPNS_11jsmn_parserEPKcjPNS_9jsmntok_tEj+0x54>
				type = (c == '}' ? JSMN_OBJECT : JSMN_ARRAY);
 8081268:	f04f 0b01 	mov.w	fp, #1
						break;
					}
					token = &tokens[token->parent];
				}
#else
				for (i = parser->toknext - 1; i >= 0; i--) {
 808126c:	6867      	ldr	r7, [r4, #4]
 808126e:	f107 38ff 	add.w	r8, r7, #4294967295
 8081272:	eb03 1907 	add.w	r9, r3, r7, lsl #4
 8081276:	f1b8 0f00 	cmp.w	r8, #0
 808127a:	db4f      	blt.n	808131c <_ZN21JsonParserGeneratorRK10jsmn_parseEPNS_11jsmn_parserEPKcjPNS_9jsmntok_tEj+0x174>
					token = &tokens[i];
					if (token->start != -1 && token->end == -1) {
 808127c:	f859 7c0c 	ldr.w	r7, [r9, #-12]
 8081280:	f1a9 0a10 	sub.w	sl, r9, #16
 8081284:	3701      	adds	r7, #1
 8081286:	d045      	beq.n	8081314 <_ZN21JsonParserGeneratorRK10jsmn_parseEPNS_11jsmn_parserEPKcjPNS_9jsmntok_tEj+0x16c>
 8081288:	f859 7c08 	ldr.w	r7, [r9, #-8]
 808128c:	1c7e      	adds	r6, r7, #1
 808128e:	d141      	bne.n	8081314 <_ZN21JsonParserGeneratorRK10jsmn_parseEPNS_11jsmn_parserEPKcjPNS_9jsmntok_tEj+0x16c>
						if (token->type != type) {
 8081290:	f89a 9000 	ldrb.w	r9, [sl]
 8081294:	45d9      	cmp	r9, fp
 8081296:	d145      	bne.n	8081324 <_ZN21JsonParserGeneratorRK10jsmn_parseEPNS_11jsmn_parserEPKcjPNS_9jsmntok_tEj+0x17c>
							return JSMN_ERROR_INVAL;
						}
						parser->toksuper = -1;
 8081298:	60a7      	str	r7, [r4, #8]
						token->end = parser->pos + 1;
 808129a:	f10e 0701 	add.w	r7, lr, #1
 808129e:	f8ca 7008 	str.w	r7, [sl, #8]
						break;
					}
				}
				/* Error if unmatched closing bracket */
				if (i == -1) return JSMN_ERROR_INVAL;
 80812a2:	eb03 1e08 	add.w	lr, r3, r8, lsl #4
				for (; i >= 0; i--) {
					token = &tokens[i];
					if (token->start != -1 && token->end == -1) {
 80812a6:	f8de 7004 	ldr.w	r7, [lr, #4]
 80812aa:	3701      	adds	r7, #1
 80812ac:	d03d      	beq.n	808132a <_ZN21JsonParserGeneratorRK10jsmn_parseEPNS_11jsmn_parserEPKcjPNS_9jsmntok_tEj+0x182>
 80812ae:	f8de 7008 	ldr.w	r7, [lr, #8]
 80812b2:	3701      	adds	r7, #1
 80812b4:	d139      	bne.n	808132a <_ZN21JsonParserGeneratorRK10jsmn_parseEPNS_11jsmn_parserEPKcjPNS_9jsmntok_tEj+0x182>
					parser->toksuper = tokens[parser->toksuper].parent;
#else
					for (i = parser->toknext - 1; i >= 0; i--) {
						if (tokens[i].type == JSMN_ARRAY || tokens[i].type == JSMN_OBJECT) {
							if (tokens[i].start != -1 && tokens[i].end == -1) {
								parser->toksuper = i;
 80812b6:	f8c4 8008 	str.w	r8, [r4, #8]
								break;
 80812ba:	e79f      	b.n	80811fc <_ZN21JsonParserGeneratorRK10jsmn_parseEPNS_11jsmn_parserEPKcjPNS_9jsmntok_tEj+0x54>
				count++;
 80812bc:	3001      	adds	r0, #1
				if (tokens == NULL) {
 80812be:	2b00      	cmp	r3, #0
 80812c0:	d09c      	beq.n	80811fc <_ZN21JsonParserGeneratorRK10jsmn_parseEPNS_11jsmn_parserEPKcjPNS_9jsmntok_tEj+0x54>
	if (parser->toknext >= num_tokens) {
 80812c2:	6867      	ldr	r7, [r4, #4]
 80812c4:	9e09      	ldr	r6, [sp, #36]	; 0x24
 80812c6:	42be      	cmp	r6, r7
 80812c8:	d94e      	bls.n	8081368 <_ZN21JsonParserGeneratorRK10jsmn_parseEPNS_11jsmn_parserEPKcjPNS_9jsmntok_tEj+0x1c0>
	tok->size = 0;
 80812ca:	2600      	movs	r6, #0
	tok = &tokens[parser->toknext++];
 80812cc:	f107 0e01 	add.w	lr, r7, #1
 80812d0:	f8c4 e004 	str.w	lr, [r4, #4]
 80812d4:	eb03 1e07 	add.w	lr, r3, r7, lsl #4
	tok->start = tok->end = -1;
 80812d8:	e9ce 5501 	strd	r5, r5, [lr, #4]
	tok->size = 0;
 80812dc:	f8ce 600c 	str.w	r6, [lr, #12]
	tok = &tokens[parser->toknext++];
 80812e0:	ea4f 1a07 	mov.w	sl, r7, lsl #4
				if (parser->toksuper != -1) {
 80812e4:	68a7      	ldr	r7, [r4, #8]
 80812e6:	1c7e      	adds	r6, r7, #1
					tokens[parser->toksuper].size++;
 80812e8:	bf1f      	itttt	ne
 80812ea:	eb03 1907 	addne.w	r9, r3, r7, lsl #4
 80812ee:	f8d9 700c 	ldrne.w	r7, [r9, #12]
 80812f2:	3701      	addne	r7, #1
 80812f4:	f8c9 700c 	strne.w	r7, [r9, #12]
				token->type = (c == '{' ? JSMN_OBJECT : JSMN_ARRAY);
 80812f8:	f1b8 0f7b 	cmp.w	r8, #123	; 0x7b
 80812fc:	bf0c      	ite	eq
 80812fe:	2701      	moveq	r7, #1
 8081300:	2702      	movne	r7, #2
 8081302:	f803 700a 	strb.w	r7, [r3, sl]
				token->start = parser->pos;
 8081306:	6827      	ldr	r7, [r4, #0]
 8081308:	f8ce 7004 	str.w	r7, [lr, #4]
				parser->toksuper = parser->toknext - 1;
 808130c:	6867      	ldr	r7, [r4, #4]
 808130e:	3f01      	subs	r7, #1
 8081310:	60a7      	str	r7, [r4, #8]
				break;
 8081312:	e773      	b.n	80811fc <_ZN21JsonParserGeneratorRK10jsmn_parseEPNS_11jsmn_parserEPKcjPNS_9jsmntok_tEj+0x54>
				for (i = parser->toknext - 1; i >= 0; i--) {
 8081314:	46d1      	mov	r9, sl
 8081316:	f108 38ff 	add.w	r8, r8, #4294967295
 808131a:	e7ac      	b.n	8081276 <_ZN21JsonParserGeneratorRK10jsmn_parseEPNS_11jsmn_parserEPKcjPNS_9jsmntok_tEj+0xce>
				if (i == -1) return JSMN_ERROR_INVAL;
 808131c:	f1b8 3fff 	cmp.w	r8, #4294967295
 8081320:	f47f af6c 	bne.w	80811fc <_ZN21JsonParserGeneratorRK10jsmn_parseEPNS_11jsmn_parserEPKcjPNS_9jsmntok_tEj+0x54>
							return JSMN_ERROR_INVAL;
 8081324:	f06f 0001 	mvn.w	r0, #1
 8081328:	e020      	b.n	808136c <_ZN21JsonParserGeneratorRK10jsmn_parseEPNS_11jsmn_parserEPKcjPNS_9jsmntok_tEj+0x1c4>
				for (; i >= 0; i--) {
 808132a:	f108 38ff 	add.w	r8, r8, #4294967295
 808132e:	f1b8 3fff 	cmp.w	r8, #4294967295
 8081332:	f1ae 0e10 	sub.w	lr, lr, #16
 8081336:	d1b6      	bne.n	80812a6 <_ZN21JsonParserGeneratorRK10jsmn_parseEPNS_11jsmn_parserEPKcjPNS_9jsmntok_tEj+0xfe>
 8081338:	e760      	b.n	80811fc <_ZN21JsonParserGeneratorRK10jsmn_parseEPNS_11jsmn_parserEPKcjPNS_9jsmntok_tEj+0x54>
	parser->pos++;
 808133a:	f10e 0901 	add.w	r9, lr, #1
 808133e:	f8c4 9000 	str.w	r9, [r4]
	for (; parser->pos < len && js[parser->pos] != '\0'; parser->pos++) {
 8081342:	f8d4 8000 	ldr.w	r8, [r4]
 8081346:	4542      	cmp	r2, r8
 8081348:	f240 8091 	bls.w	808146e <_ZN21JsonParserGeneratorRK10jsmn_parseEPNS_11jsmn_parserEPKcjPNS_9jsmntok_tEj+0x2c6>
 808134c:	f811 7008 	ldrb.w	r7, [r1, r8]
 8081350:	2f00      	cmp	r7, #0
 8081352:	f000 808c 	beq.w	808146e <_ZN21JsonParserGeneratorRK10jsmn_parseEPNS_11jsmn_parserEPKcjPNS_9jsmntok_tEj+0x2c6>
		if (c == '\"') {
 8081356:	2f22      	cmp	r7, #34	; 0x22
 8081358:	d12e      	bne.n	80813b8 <_ZN21JsonParserGeneratorRK10jsmn_parseEPNS_11jsmn_parserEPKcjPNS_9jsmntok_tEj+0x210>
			if (tokens == NULL) {
 808135a:	b1eb      	cbz	r3, 8081398 <_ZN21JsonParserGeneratorRK10jsmn_parseEPNS_11jsmn_parserEPKcjPNS_9jsmntok_tEj+0x1f0>
	if (parser->toknext >= num_tokens) {
 808135c:	6867      	ldr	r7, [r4, #4]
 808135e:	9e09      	ldr	r6, [sp, #36]	; 0x24
 8081360:	42be      	cmp	r6, r7
 8081362:	d805      	bhi.n	8081370 <_ZN21JsonParserGeneratorRK10jsmn_parseEPNS_11jsmn_parserEPKcjPNS_9jsmntok_tEj+0x1c8>
		parser->pos = start;
 8081364:	f8c4 e000 	str.w	lr, [r4]
					return JSMN_ERROR_NOMEM;
 8081368:	f04f 30ff 	mov.w	r0, #4294967295
			}
		}
	}

	return count;
}
 808136c:	e8bd 8ff0 	ldmia.w	sp!, {r4, r5, r6, r7, r8, r9, sl, fp, pc}
	tok->size = 0;
 8081370:	2600      	movs	r6, #0
	token->type = type;
 8081372:	f04f 0a03 	mov.w	sl, #3
	tok = &tokens[parser->toknext++];
 8081376:	f107 0e01 	add.w	lr, r7, #1
 808137a:	ea4f 1807 	mov.w	r8, r7, lsl #4
 808137e:	eb03 1707 	add.w	r7, r3, r7, lsl #4
 8081382:	f8c4 e004 	str.w	lr, [r4, #4]
	tok->start = tok->end = -1;
 8081386:	e9c7 5501 	strd	r5, r5, [r7, #4]
	tok->size = 0;
 808138a:	60fe      	str	r6, [r7, #12]
			jsmn_fill_token(token, JSMN_STRING, start+1, parser->pos);
 808138c:	f8d4 e000 	ldr.w	lr, [r4]
	token->type = type;
 8081390:	f803 a008 	strb.w	sl, [r3, r8]
	token->end = end;
 8081394:	e9c7 9e01 	strd	r9, lr, [r7, #4]
				if (parser->toksuper != -1 && tokens != NULL)
 8081398:	68a7      	ldr	r7, [r4, #8]
				count++;
 808139a:	3001      	adds	r0, #1
				if (parser->toksuper != -1 && tokens != NULL)
 808139c:	1c7e      	adds	r6, r7, #1
 808139e:	f43f af2d 	beq.w	80811fc <_ZN21JsonParserGeneratorRK10jsmn_parseEPNS_11jsmn_parserEPKcjPNS_9jsmntok_tEj+0x54>
 80813a2:	2b00      	cmp	r3, #0
 80813a4:	f43f af2a 	beq.w	80811fc <_ZN21JsonParserGeneratorRK10jsmn_parseEPNS_11jsmn_parserEPKcjPNS_9jsmntok_tEj+0x54>
					tokens[parser->toksuper].size++;
 80813a8:	eb03 1e07 	add.w	lr, r3, r7, lsl #4
 80813ac:	f8de 700c 	ldr.w	r7, [lr, #12]
 80813b0:	3701      	adds	r7, #1
 80813b2:	f8ce 700c 	str.w	r7, [lr, #12]
 80813b6:	e721      	b.n	80811fc <_ZN21JsonParserGeneratorRK10jsmn_parseEPNS_11jsmn_parserEPKcjPNS_9jsmntok_tEj+0x54>
		if (c == '\\' && parser->pos + 1 < len) {
 80813b8:	2f5c      	cmp	r7, #92	; 0x5c
 80813ba:	d111      	bne.n	80813e0 <_ZN21JsonParserGeneratorRK10jsmn_parseEPNS_11jsmn_parserEPKcjPNS_9jsmntok_tEj+0x238>
 80813bc:	f108 0701 	add.w	r7, r8, #1
 80813c0:	42ba      	cmp	r2, r7
 80813c2:	d90d      	bls.n	80813e0 <_ZN21JsonParserGeneratorRK10jsmn_parseEPNS_11jsmn_parserEPKcjPNS_9jsmntok_tEj+0x238>
			parser->pos++;
 80813c4:	6027      	str	r7, [r4, #0]
			switch (js[parser->pos]) {
 80813c6:	5dcf      	ldrb	r7, [r1, r7]
 80813c8:	2f75      	cmp	r7, #117	; 0x75
 80813ca:	d82b      	bhi.n	8081424 <_ZN21JsonParserGeneratorRK10jsmn_parseEPNS_11jsmn_parserEPKcjPNS_9jsmntok_tEj+0x27c>
 80813cc:	2f6d      	cmp	r7, #109	; 0x6d
 80813ce:	d80b      	bhi.n	80813e8 <_ZN21JsonParserGeneratorRK10jsmn_parseEPNS_11jsmn_parserEPKcjPNS_9jsmntok_tEj+0x240>
 80813d0:	2f66      	cmp	r7, #102	; 0x66
 80813d2:	d827      	bhi.n	8081424 <_ZN21JsonParserGeneratorRK10jsmn_parseEPNS_11jsmn_parserEPKcjPNS_9jsmntok_tEj+0x27c>
 80813d4:	2f5b      	cmp	r7, #91	; 0x5b
 80813d6:	d81d      	bhi.n	8081414 <_ZN21JsonParserGeneratorRK10jsmn_parseEPNS_11jsmn_parserEPKcjPNS_9jsmntok_tEj+0x26c>
 80813d8:	2f22      	cmp	r7, #34	; 0x22
 80813da:	d001      	beq.n	80813e0 <_ZN21JsonParserGeneratorRK10jsmn_parseEPNS_11jsmn_parserEPKcjPNS_9jsmntok_tEj+0x238>
 80813dc:	2f2f      	cmp	r7, #47	; 0x2f
 80813de:	d121      	bne.n	8081424 <_ZN21JsonParserGeneratorRK10jsmn_parseEPNS_11jsmn_parserEPKcjPNS_9jsmntok_tEj+0x27c>
	for (; parser->pos < len && js[parser->pos] != '\0'; parser->pos++) {
 80813e0:	6827      	ldr	r7, [r4, #0]
 80813e2:	3701      	adds	r7, #1
 80813e4:	6027      	str	r7, [r4, #0]
 80813e6:	e7ac      	b.n	8081342 <_ZN21JsonParserGeneratorRK10jsmn_parseEPNS_11jsmn_parserEPKcjPNS_9jsmntok_tEj+0x19a>
 80813e8:	3f6e      	subs	r7, #110	; 0x6e
 80813ea:	2f07      	cmp	r7, #7
 80813ec:	d81a      	bhi.n	8081424 <_ZN21JsonParserGeneratorRK10jsmn_parseEPNS_11jsmn_parserEPKcjPNS_9jsmntok_tEj+0x27c>
 80813ee:	a601      	add	r6, pc, #4	; (adr r6, 80813f4 <_ZN21JsonParserGeneratorRK10jsmn_parseEPNS_11jsmn_parserEPKcjPNS_9jsmntok_tEj+0x24c>)
 80813f0:	f856 f027 	ldr.w	pc, [r6, r7, lsl #2]
 80813f4:	080813e1 	.word	0x080813e1
 80813f8:	08081425 	.word	0x08081425
 80813fc:	08081425 	.word	0x08081425
 8081400:	08081425 	.word	0x08081425
 8081404:	080813e1 	.word	0x080813e1
 8081408:	08081425 	.word	0x08081425
 808140c:	080813e1 	.word	0x080813e1
 8081410:	0808142b 	.word	0x0808142b
 8081414:	f240 4641 	movw	r6, #1089	; 0x441
 8081418:	3f5c      	subs	r7, #92	; 0x5c
 808141a:	b2ff      	uxtb	r7, r7
 808141c:	fa0c f707 	lsl.w	r7, ip, r7
 8081420:	4237      	tst	r7, r6
 8081422:	d1dd      	bne.n	80813e0 <_ZN21JsonParserGeneratorRK10jsmn_parseEPNS_11jsmn_parserEPKcjPNS_9jsmntok_tEj+0x238>
			parser->pos = start;
 8081424:	f8c4 e000 	str.w	lr, [r4]
				if (r < 0) return r;
 8081428:	e77c      	b.n	8081324 <_ZN21JsonParserGeneratorRK10jsmn_parseEPNS_11jsmn_parserEPKcjPNS_9jsmntok_tEj+0x17c>
					parser->pos++;
 808142a:	f04f 0a04 	mov.w	sl, #4
 808142e:	f108 0702 	add.w	r7, r8, #2
 8081432:	6027      	str	r7, [r4, #0]
					for(i = 0; i < 4 && parser->pos < len && js[parser->pos] != '\0'; i++) {
 8081434:	f8d4 8000 	ldr.w	r8, [r4]
 8081438:	4542      	cmp	r2, r8
 808143a:	d803      	bhi.n	8081444 <_ZN21JsonParserGeneratorRK10jsmn_parseEPNS_11jsmn_parserEPKcjPNS_9jsmntok_tEj+0x29c>
					parser->pos--;
 808143c:	6827      	ldr	r7, [r4, #0]
 808143e:	3f01      	subs	r7, #1
 8081440:	6027      	str	r7, [r4, #0]
					break;
 8081442:	e7cd      	b.n	80813e0 <_ZN21JsonParserGeneratorRK10jsmn_parseEPNS_11jsmn_parserEPKcjPNS_9jsmntok_tEj+0x238>
					for(i = 0; i < 4 && parser->pos < len && js[parser->pos] != '\0'; i++) {
 8081444:	f811 7008 	ldrb.w	r7, [r1, r8]
 8081448:	2f00      	cmp	r7, #0
 808144a:	d0f7      	beq.n	808143c <_ZN21JsonParserGeneratorRK10jsmn_parseEPNS_11jsmn_parserEPKcjPNS_9jsmntok_tEj+0x294>
						if(!((js[parser->pos] >= 48 && js[parser->pos] <= 57) || /* 0-9 */
 808144c:	f1a7 0b30 	sub.w	fp, r7, #48	; 0x30
 8081450:	f1bb 0f09 	cmp.w	fp, #9
 8081454:	d904      	bls.n	8081460 <_ZN21JsonParserGeneratorRK10jsmn_parseEPNS_11jsmn_parserEPKcjPNS_9jsmntok_tEj+0x2b8>
 8081456:	f027 0720 	bic.w	r7, r7, #32
 808145a:	3f41      	subs	r7, #65	; 0x41
 808145c:	2f05      	cmp	r7, #5
 808145e:	d8e1      	bhi.n	8081424 <_ZN21JsonParserGeneratorRK10jsmn_parseEPNS_11jsmn_parserEPKcjPNS_9jsmntok_tEj+0x27c>
						parser->pos++;
 8081460:	f108 0701 	add.w	r7, r8, #1
					for(i = 0; i < 4 && parser->pos < len && js[parser->pos] != '\0'; i++) {
 8081464:	f1ba 0a01 	subs.w	sl, sl, #1
						parser->pos++;
 8081468:	6027      	str	r7, [r4, #0]
					for(i = 0; i < 4 && parser->pos < len && js[parser->pos] != '\0'; i++) {
 808146a:	d1e3      	bne.n	8081434 <_ZN21JsonParserGeneratorRK10jsmn_parseEPNS_11jsmn_parserEPKcjPNS_9jsmntok_tEj+0x28c>
 808146c:	e7e6      	b.n	808143c <_ZN21JsonParserGeneratorRK10jsmn_parseEPNS_11jsmn_parserEPKcjPNS_9jsmntok_tEj+0x294>
	parser->pos = start;
 808146e:	f8c4 e000 	str.w	lr, [r4]
				return JSMN_ERROR_PART;
 8081472:	f06f 0002 	mvn.w	r0, #2
 8081476:	e779      	b.n	808136c <_ZN21JsonParserGeneratorRK10jsmn_parseEPNS_11jsmn_parserEPKcjPNS_9jsmntok_tEj+0x1c4>
				if (tokens != NULL && parser->toksuper != -1 &&
 8081478:	2b00      	cmp	r3, #0
 808147a:	f43f aebf 	beq.w	80811fc <_ZN21JsonParserGeneratorRK10jsmn_parseEPNS_11jsmn_parserEPKcjPNS_9jsmntok_tEj+0x54>
 808147e:	68a7      	ldr	r7, [r4, #8]
 8081480:	1c7e      	adds	r6, r7, #1
 8081482:	f43f aebb 	beq.w	80811fc <_ZN21JsonParserGeneratorRK10jsmn_parseEPNS_11jsmn_parserEPKcjPNS_9jsmntok_tEj+0x54>
						tokens[parser->toksuper].type != JSMN_ARRAY &&
 8081486:	013f      	lsls	r7, r7, #4
 8081488:	5ddf      	ldrb	r7, [r3, r7]
 808148a:	3f01      	subs	r7, #1
 808148c:	2f01      	cmp	r7, #1
 808148e:	f67f aeb5 	bls.w	80811fc <_ZN21JsonParserGeneratorRK10jsmn_parseEPNS_11jsmn_parserEPKcjPNS_9jsmntok_tEj+0x54>
					for (i = parser->toknext - 1; i >= 0; i--) {
 8081492:	6867      	ldr	r7, [r4, #4]
 8081494:	f107 38ff 	add.w	r8, r7, #4294967295
 8081498:	eb03 1e07 	add.w	lr, r3, r7, lsl #4
 808149c:	f1b8 0f00 	cmp.w	r8, #0
 80814a0:	f6ff aeac 	blt.w	80811fc <_ZN21JsonParserGeneratorRK10jsmn_parseEPNS_11jsmn_parserEPKcjPNS_9jsmntok_tEj+0x54>
						if (tokens[i].type == JSMN_ARRAY || tokens[i].type == JSMN_OBJECT) {
 80814a4:	f81e 7c10 	ldrb.w	r7, [lr, #-16]
 80814a8:	3f01      	subs	r7, #1
 80814aa:	2f01      	cmp	r7, #1
 80814ac:	d808      	bhi.n	80814c0 <_ZN21JsonParserGeneratorRK10jsmn_parseEPNS_11jsmn_parserEPKcjPNS_9jsmntok_tEj+0x318>
							if (tokens[i].start != -1 && tokens[i].end == -1) {
 80814ae:	f85e 7c0c 	ldr.w	r7, [lr, #-12]
 80814b2:	3701      	adds	r7, #1
 80814b4:	d004      	beq.n	80814c0 <_ZN21JsonParserGeneratorRK10jsmn_parseEPNS_11jsmn_parserEPKcjPNS_9jsmntok_tEj+0x318>
 80814b6:	f85e 7c08 	ldr.w	r7, [lr, #-8]
 80814ba:	3701      	adds	r7, #1
 80814bc:	f43f aefb 	beq.w	80812b6 <_ZN21JsonParserGeneratorRK10jsmn_parseEPNS_11jsmn_parserEPKcjPNS_9jsmntok_tEj+0x10e>
					for (i = parser->toknext - 1; i >= 0; i--) {
 80814c0:	f108 38ff 	add.w	r8, r8, #4294967295
 80814c4:	f1ae 0e10 	sub.w	lr, lr, #16
 80814c8:	e7e8      	b.n	808149c <_ZN21JsonParserGeneratorRK10jsmn_parseEPNS_11jsmn_parserEPKcjPNS_9jsmntok_tEj+0x2f4>
 80814ca:	f1a7 0920 	sub.w	r9, r7, #32
 80814ce:	4e0a      	ldr	r6, [pc, #40]	; (80814f8 <_ZN21JsonParserGeneratorRK10jsmn_parseEPNS_11jsmn_parserEPKcjPNS_9jsmntok_tEj+0x350>)
 80814d0:	fa5f f989 	uxtb.w	r9, r9
 80814d4:	fa0c f909 	lsl.w	r9, ip, r9
 80814d8:	ea19 0f06 	tst.w	r9, r6
 80814dc:	f47f aea9 	bne.w	8081232 <_ZN21JsonParserGeneratorRK10jsmn_parseEPNS_11jsmn_parserEPKcjPNS_9jsmntok_tEj+0x8a>
		if (js[parser->pos] < 32 || js[parser->pos] >= 127) {
 80814e0:	3f20      	subs	r7, #32
 80814e2:	2f5e      	cmp	r7, #94	; 0x5e
 80814e4:	d89e      	bhi.n	8081424 <_ZN21JsonParserGeneratorRK10jsmn_parseEPNS_11jsmn_parserEPKcjPNS_9jsmntok_tEj+0x27c>
	for (; parser->pos < len && js[parser->pos] != '\0'; parser->pos++) {
 80814e6:	f108 0701 	add.w	r7, r8, #1
 80814ea:	6027      	str	r7, [r4, #0]
 80814ec:	e68e      	b.n	808120c <_ZN21JsonParserGeneratorRK10jsmn_parseEPNS_11jsmn_parserEPKcjPNS_9jsmntok_tEj+0x64>
		switch (js[parser->pos]) {
 80814ee:	2f0d      	cmp	r7, #13
 80814f0:	d1f6      	bne.n	80814e0 <_ZN21JsonParserGeneratorRK10jsmn_parseEPNS_11jsmn_parserEPKcjPNS_9jsmntok_tEj+0x338>
 80814f2:	e69e      	b.n	8081232 <_ZN21JsonParserGeneratorRK10jsmn_parseEPNS_11jsmn_parserEPKcjPNS_9jsmntok_tEj+0x8a>
 80814f4:	00800013 	.word	0x00800013
 80814f8:	04001001 	.word	0x04001001
 80814fc:	f007 09df 	and.w	r9, r7, #223	; 0xdf
 8081500:	f1b9 0f5d 	cmp.w	r9, #93	; 0x5d
 8081504:	e7f4      	b.n	80814f0 <_ZN21JsonParserGeneratorRK10jsmn_parseEPNS_11jsmn_parserEPKcjPNS_9jsmntok_tEj+0x348>
	if (parser->toknext >= num_tokens) {
 8081506:	6867      	ldr	r7, [r4, #4]
 8081508:	9e09      	ldr	r6, [sp, #36]	; 0x24
 808150a:	42be      	cmp	r6, r7
 808150c:	f67f af2a 	bls.w	8081364 <_ZN21JsonParserGeneratorRK10jsmn_parseEPNS_11jsmn_parserEPKcjPNS_9jsmntok_tEj+0x1bc>
	tok->size = 0;
 8081510:	2600      	movs	r6, #0
	token->type = type;
 8081512:	f04f 0a04 	mov.w	sl, #4
	tok = &tokens[parser->toknext++];
 8081516:	f107 0801 	add.w	r8, r7, #1
 808151a:	ea4f 1907 	mov.w	r9, r7, lsl #4
 808151e:	eb03 1707 	add.w	r7, r3, r7, lsl #4
 8081522:	f8c4 8004 	str.w	r8, [r4, #4]
	tok->start = tok->end = -1;
 8081526:	e9c7 5501 	strd	r5, r5, [r7, #4]
	tok->size = 0;
 808152a:	60fe      	str	r6, [r7, #12]
	jsmn_fill_token(token, JSMN_PRIMITIVE, start, parser->pos);
 808152c:	f8d4 8000 	ldr.w	r8, [r4]
	token->type = type;
 8081530:	f803 a009 	strb.w	sl, [r3, r9]
	token->end = end;
 8081534:	e9c7 e801 	strd	lr, r8, [r7, #4]
	parser->pos--;
 8081538:	6827      	ldr	r7, [r4, #0]
 808153a:	3f01      	subs	r7, #1
 808153c:	e67e      	b.n	808123c <_ZN21JsonParserGeneratorRK10jsmn_parseEPNS_11jsmn_parserEPKcjPNS_9jsmntok_tEj+0x94>
	if (tokens != NULL) {
 808153e:	2b00      	cmp	r3, #0
 8081540:	f43f af14 	beq.w	808136c <_ZN21JsonParserGeneratorRK10jsmn_parseEPNS_11jsmn_parserEPKcjPNS_9jsmntok_tEj+0x1c4>
		for (i = parser->toknext - 1; i >= 0; i--) {
 8081544:	6862      	ldr	r2, [r4, #4]
 8081546:	1e51      	subs	r1, r2, #1
 8081548:	eb03 1302 	add.w	r3, r3, r2, lsl #4
 808154c:	2900      	cmp	r1, #0
 808154e:	f6ff af0d 	blt.w	808136c <_ZN21JsonParserGeneratorRK10jsmn_parseEPNS_11jsmn_parserEPKcjPNS_9jsmntok_tEj+0x1c4>
			if (tokens[i].start != -1 && tokens[i].end == -1) {
 8081552:	f853 2c0c 	ldr.w	r2, [r3, #-12]
 8081556:	3201      	adds	r2, #1
 8081558:	d003      	beq.n	8081562 <_ZN21JsonParserGeneratorRK10jsmn_parseEPNS_11jsmn_parserEPKcjPNS_9jsmntok_tEj+0x3ba>
 808155a:	f853 2c08 	ldr.w	r2, [r3, #-8]
 808155e:	3201      	adds	r2, #1
 8081560:	d087      	beq.n	8081472 <_ZN21JsonParserGeneratorRK10jsmn_parseEPNS_11jsmn_parserEPKcjPNS_9jsmntok_tEj+0x2ca>
		for (i = parser->toknext - 1; i >= 0; i--) {
 8081562:	3901      	subs	r1, #1
 8081564:	3b10      	subs	r3, #16
 8081566:	e7f1      	b.n	808154c <_ZN21JsonParserGeneratorRK10jsmn_parseEPNS_11jsmn_parserEPKcjPNS_9jsmntok_tEj+0x3a4>

08081568 <_ZN10JsonParser5parseEv>:
bool JsonParser::parse() {
 8081568:	b5f7      	push	{r0, r1, r2, r4, r5, r6, r7, lr}
	if (tokens) {
 808156a:	6943      	ldr	r3, [r0, #20]
bool JsonParser::parse() {
 808156c:	4604      	mov	r4, r0
 808156e:	f100 0620 	add.w	r6, r0, #32
	if (tokens) {
 8081572:	b1c3      	cbz	r3, 80815a6 <_ZN10JsonParser5parseEv+0x3e>
/**
 * Creates a new parser based over a given  buffer with an array of tokens
 * available.
 */
void jsmn_init(jsmn_parser *parser) {
	parser->pos = 0;
 8081574:	2200      	movs	r2, #0
	parser->toknext = 0;
 8081576:	e9c0 2208 	strd	r2, r2, [r0, #32]
	parser->toksuper = -1;
 808157a:	f04f 32ff 	mov.w	r2, #4294967295
 808157e:	6282      	str	r2, [r0, #40]	; 0x28
		int result = JsonParserGeneratorRK::jsmn_parse(&parser, buffer, offset, tokens, maxTokens);
 8081580:	69c2      	ldr	r2, [r0, #28]
 8081582:	9200      	str	r2, [sp, #0]
 8081584:	68c2      	ldr	r2, [r0, #12]
 8081586:	6841      	ldr	r1, [r0, #4]
 8081588:	4630      	mov	r0, r6
 808158a:	f7ff fe0d 	bl	80811a8 <_ZN21JsonParserGeneratorRK10jsmn_parseEPNS_11jsmn_parserEPKcjPNS_9jsmntok_tEj>
		if (result == JsonParserGeneratorRK::JSMN_ERROR_NOMEM) {
 808158e:	1c43      	adds	r3, r0, #1
 8081590:	d12e      	bne.n	80815f0 <_ZN10JsonParser5parseEv+0x88>
			if (staticBuffers) {
 8081592:	7c25      	ldrb	r5, [r4, #16]
 8081594:	b115      	cbz	r5, 808159c <_ZN10JsonParser5parseEv+0x34>
				return false;
 8081596:	2000      	movs	r0, #0
}
 8081598:	b003      	add	sp, #12
 808159a:	bdf0      	pop	{r4, r5, r6, r7, pc}
			free(tokens);
 808159c:	6960      	ldr	r0, [r4, #20]
 808159e:	f000 fd13 	bl	8081fc8 <free>
			tokens = 0;
 80815a2:	6165      	str	r5, [r4, #20]
			maxTokens = 0;
 80815a4:	61e5      	str	r5, [r4, #28]
	parser->pos = 0;
 80815a6:	2500      	movs	r5, #0
	parser->toksuper = -1;
 80815a8:	f04f 37ff 	mov.w	r7, #4294967295
	int result = JsonParserGeneratorRK::jsmn_parse(&parser, buffer, offset, 0, 0);
 80815ac:	462b      	mov	r3, r5
 80815ae:	4630      	mov	r0, r6
	parser->toknext = 0;
 80815b0:	e9c4 5508 	strd	r5, r5, [r4, #32]
	int result = JsonParserGeneratorRK::jsmn_parse(&parser, buffer, offset, 0, 0);
 80815b4:	68e2      	ldr	r2, [r4, #12]
 80815b6:	6861      	ldr	r1, [r4, #4]
	parser->toksuper = -1;
 80815b8:	62a7      	str	r7, [r4, #40]	; 0x28
	int result = JsonParserGeneratorRK::jsmn_parse(&parser, buffer, offset, 0, 0);
 80815ba:	9500      	str	r5, [sp, #0]
 80815bc:	f7ff fdf4 	bl	80811a8 <_ZN21JsonParserGeneratorRK10jsmn_parseEPNS_11jsmn_parserEPKcjPNS_9jsmntok_tEj>
	if (result < 0) {
 80815c0:	2800      	cmp	r0, #0
 80815c2:	dbe8      	blt.n	8081596 <_ZN10JsonParser5parseEv+0x2e>
	maxTokens = (size_t) result;
 80815c4:	61e0      	str	r0, [r4, #28]
	if (maxTokens > 0) {
 80815c6:	d01b      	beq.n	8081600 <_ZN10JsonParser5parseEv+0x98>
		tokens = (JsonParserGeneratorRK::jsmntok_t *)malloc(sizeof(JsonParserGeneratorRK::jsmntok_t) * maxTokens);
 80815c8:	0100      	lsls	r0, r0, #4
 80815ca:	f000 fcf5 	bl	8081fb8 <malloc>
		int result = JsonParserGeneratorRK::jsmn_parse(&parser, buffer, offset, tokens, maxTokens);
 80815ce:	69e2      	ldr	r2, [r4, #28]
		tokens = (JsonParserGeneratorRK::jsmntok_t *)malloc(sizeof(JsonParserGeneratorRK::jsmntok_t) * maxTokens);
 80815d0:	4603      	mov	r3, r0
 80815d2:	6160      	str	r0, [r4, #20]
		int result = JsonParserGeneratorRK::jsmn_parse(&parser, buffer, offset, tokens, maxTokens);
 80815d4:	9200      	str	r2, [sp, #0]
 80815d6:	4630      	mov	r0, r6
	parser->toknext = 0;
 80815d8:	e9c4 5508 	strd	r5, r5, [r4, #32]
		int result = JsonParserGeneratorRK::jsmn_parse(&parser, buffer, offset, tokens, maxTokens);
 80815dc:	68e2      	ldr	r2, [r4, #12]
 80815de:	6861      	ldr	r1, [r4, #4]
	parser->toksuper = -1;
 80815e0:	62a7      	str	r7, [r4, #40]	; 0x28
		int result = JsonParserGeneratorRK::jsmn_parse(&parser, buffer, offset, tokens, maxTokens);
 80815e2:	f7ff fde1 	bl	80811a8 <_ZN21JsonParserGeneratorRK10jsmn_parseEPNS_11jsmn_parserEPKcjPNS_9jsmntok_tEj>
		tokensEnd = &tokens[result];
 80815e6:	6963      	ldr	r3, [r4, #20]
 80815e8:	eb03 1300 	add.w	r3, r3, r0, lsl #4
		tokensEnd = tokens;
 80815ec:	61a3      	str	r3, [r4, #24]
 80815ee:	e005      	b.n	80815fc <_ZN10JsonParser5parseEv+0x94>
		if (result < 0) {
 80815f0:	2800      	cmp	r0, #0
 80815f2:	dbd0      	blt.n	8081596 <_ZN10JsonParser5parseEv+0x2e>
			tokensEnd = &tokens[result];
 80815f4:	6963      	ldr	r3, [r4, #20]
 80815f6:	eb03 1000 	add.w	r0, r3, r0, lsl #4
 80815fa:	61a0      	str	r0, [r4, #24]
	return true;
 80815fc:	2001      	movs	r0, #1
 80815fe:	e7cb      	b.n	8081598 <_ZN10JsonParser5parseEv+0x30>
		tokensEnd = tokens;
 8081600:	6963      	ldr	r3, [r4, #20]
 8081602:	e7f3      	b.n	80815ec <_ZN10JsonParser5parseEv+0x84>

08081604 <_ZN14RunningAverageD1Ev>:
    _ar = (double*) malloc(_size * sizeof(double));
    if (_ar == NULL) _size = 0;
    clear();
}

RunningAverage::~RunningAverage()
 8081604:	b510      	push	{r4, lr}
 8081606:	4604      	mov	r4, r0
{
    if (_ar != NULL) free(_ar);
 8081608:	6900      	ldr	r0, [r0, #16]
 808160a:	b108      	cbz	r0, 8081610 <_ZN14RunningAverageD1Ev+0xc>
 808160c:	f000 fcdc 	bl	8081fc8 <free>
}
 8081610:	4620      	mov	r0, r4
 8081612:	bd10      	pop	{r4, pc}

08081614 <_ZN14RunningAverage5clearEv>:

// resets all counters
void RunningAverage::clear()
{
 8081614:	b530      	push	{r4, r5, lr}
    _cnt = 0;
    _idx = 0;
    _sum = 0.0;
 8081616:	2400      	movs	r4, #0
 8081618:	2500      	movs	r5, #0
    _cnt = 0;
 808161a:	2300      	movs	r3, #0
    _sum = 0.0;
 808161c:	e9c0 4502 	strd	r4, r5, [r0, #8]
    _cnt = 0;
 8081620:	7043      	strb	r3, [r0, #1]
    _idx = 0;
 8081622:	7083      	strb	r3, [r0, #2]
    for (uint8_t i = 0; i< _size; i++)
 8081624:	7802      	ldrb	r2, [r0, #0]
 8081626:	b2d9      	uxtb	r1, r3
 8081628:	428a      	cmp	r2, r1
 808162a:	d906      	bls.n	808163a <_ZN14RunningAverage5clearEv+0x26>
    {
        _ar[i] = 0.0; // keeps addValue simple
 808162c:	6902      	ldr	r2, [r0, #16]
 808162e:	3301      	adds	r3, #1
 8081630:	eb02 02c1 	add.w	r2, r2, r1, lsl #3
 8081634:	e9c2 4500 	strd	r4, r5, [r2]
    for (uint8_t i = 0; i< _size; i++)
 8081638:	e7f4      	b.n	8081624 <_ZN14RunningAverage5clearEv+0x10>
    }
}
 808163a:	bd30      	pop	{r4, r5, pc}

0808163c <_ZN14RunningAverageC1Eh>:
RunningAverage::RunningAverage(uint8_t size)
 808163c:	b510      	push	{r4, lr}
 808163e:	4604      	mov	r4, r0
    _size = size;
 8081640:	7001      	strb	r1, [r0, #0]
    _ar = (double*) malloc(_size * sizeof(double));
 8081642:	00c8      	lsls	r0, r1, #3
 8081644:	f000 fcb8 	bl	8081fb8 <malloc>
 8081648:	6120      	str	r0, [r4, #16]
    if (_ar == NULL) _size = 0;
 808164a:	b900      	cbnz	r0, 808164e <_ZN14RunningAverageC1Eh+0x12>
 808164c:	7020      	strb	r0, [r4, #0]
    clear();
 808164e:	4620      	mov	r0, r4
 8081650:	f7ff ffe0 	bl	8081614 <_ZN14RunningAverage5clearEv>
}
 8081654:	bd10      	pop	{r4, pc}

08081656 <_ZN14RunningAverage8addValueEd>:

// adds a new value to the data-set
void RunningAverage::addValue(double value)
{
 8081656:	b5f8      	push	{r3, r4, r5, r6, r7, lr}
    if (_ar == NULL) return;
 8081658:	6905      	ldr	r5, [r0, #16]
{
 808165a:	4604      	mov	r4, r0
 808165c:	4616      	mov	r6, r2
 808165e:	461f      	mov	r7, r3
    if (_ar == NULL) return;
 8081660:	b345      	cbz	r5, 80816b4 <_ZN14RunningAverage8addValueEd+0x5e>
    _sum -= _ar[_idx];
 8081662:	7883      	ldrb	r3, [r0, #2]
 8081664:	f100 0108 	add.w	r1, r0, #8
 8081668:	e9d1 0100 	ldrd	r0, r1, [r1]
 808166c:	eb05 05c3 	add.w	r5, r5, r3, lsl #3
 8081670:	e9d5 2300 	ldrd	r2, r3, [r5]
 8081674:	f002 f822 	bl	80836bc <__aeabi_dsub>
 8081678:	e9c4 0102 	strd	r0, r1, [r4, #8]
    _ar[_idx] = value;
 808167c:	e9c5 6700 	strd	r6, r7, [r5]
    _sum += _ar[_idx];
 8081680:	78a5      	ldrb	r5, [r4, #2]
 8081682:	6923      	ldr	r3, [r4, #16]
 8081684:	e9d4 0102 	ldrd	r0, r1, [r4, #8]
 8081688:	eb03 03c5 	add.w	r3, r3, r5, lsl #3
 808168c:	e9d3 2300 	ldrd	r2, r3, [r3]
 8081690:	f002 f816 	bl	80836c0 <__adddf3>
    _idx++;
 8081694:	3501      	adds	r5, #1
    if (_idx == _size) _idx = 0;  // faster than %
 8081696:	7822      	ldrb	r2, [r4, #0]
    _idx++;
 8081698:	b2ed      	uxtb	r5, r5
    if (_idx == _size) _idx = 0;  // faster than %
 808169a:	4295      	cmp	r5, r2
 808169c:	bf08      	it	eq
 808169e:	2300      	moveq	r3, #0
    _idx++;
 80816a0:	70a5      	strb	r5, [r4, #2]
    if (_idx == _size) _idx = 0;  // faster than %
 80816a2:	bf08      	it	eq
 80816a4:	70a3      	strbeq	r3, [r4, #2]
    if (_cnt < _size) _cnt++;
 80816a6:	7863      	ldrb	r3, [r4, #1]
    _sum += _ar[_idx];
 80816a8:	e9c4 0102 	strd	r0, r1, [r4, #8]
    if (_cnt < _size) _cnt++;
 80816ac:	429a      	cmp	r2, r3
 80816ae:	bf84      	itt	hi
 80816b0:	3301      	addhi	r3, #1
 80816b2:	7063      	strbhi	r3, [r4, #1]
}
 80816b4:	bdf8      	pop	{r3, r4, r5, r6, r7, pc}

080816b6 <_ZN14RunningAverage10getAverageEv>:

// returns the average of the data-set added sofar
double RunningAverage::getAverage()
{
 80816b6:	b510      	push	{r4, lr}
 80816b8:	4604      	mov	r4, r0
    if (_cnt == 0) return 0;
 80816ba:	7840      	ldrb	r0, [r0, #1]
 80816bc:	b140      	cbz	r0, 80816d0 <_ZN14RunningAverage10getAverageEv+0x1a>
    return _sum / _cnt;
 80816be:	f002 f94b 	bl	8083958 <__aeabi_i2d>
 80816c2:	4602      	mov	r2, r0
 80816c4:	460b      	mov	r3, r1
 80816c6:	e9d4 0102 	ldrd	r0, r1, [r4, #8]
 80816ca:	f002 fad9 	bl	8083c80 <__aeabi_ddiv>
}
 80816ce:	bd10      	pop	{r4, pc}
    if (_cnt == 0) return 0;
 80816d0:	2000      	movs	r0, #0
 80816d2:	2100      	movs	r1, #0
 80816d4:	e7fb      	b.n	80816ce <_ZN14RunningAverage10getAverageEv+0x18>

080816d6 <_ZN14RunningAverage9fillValueEdh>:

// fill the average with a value
// the param number determines how often value is added (weight)
// number should preferably be between 1 and size
void RunningAverage::fillValue(double value, uint8_t number)
{
 80816d6:	e92d 41f0 	stmdb	sp!, {r4, r5, r6, r7, r8, lr}
 80816da:	4605      	mov	r5, r0
 80816dc:	4616      	mov	r6, r2
 80816de:	461f      	mov	r7, r3
 80816e0:	f89d 8018 	ldrb.w	r8, [sp, #24]
    clear(); // TODO conditional?  if (clr) clear();
 80816e4:	2400      	movs	r4, #0
 80816e6:	f7ff ff95 	bl	8081614 <_ZN14RunningAverage5clearEv>

    for (uint8_t i = 0; i < number; i++)
 80816ea:	4544      	cmp	r4, r8
 80816ec:	d006      	beq.n	80816fc <_ZN14RunningAverage9fillValueEdh+0x26>
    {
        addValue(value);
 80816ee:	4632      	mov	r2, r6
 80816f0:	463b      	mov	r3, r7
 80816f2:	4628      	mov	r0, r5
 80816f4:	f7ff ffaf 	bl	8081656 <_ZN14RunningAverage8addValueEd>
    for (uint8_t i = 0; i < number; i++)
 80816f8:	3401      	adds	r4, #1
 80816fa:	e7f6      	b.n	80816ea <_ZN14RunningAverage9fillValueEdh+0x14>
    }
}
 80816fc:	e8bd 81f0 	ldmia.w	sp!, {r4, r5, r6, r7, r8, pc}

08081700 <_ZL8i2cwriteh>:
/**************************************************************************/
/*!
    @brief  Abstract away platform differences in Arduino wire library
*/
/**************************************************************************/
static void i2cwrite(uint8_t x) {
 8081700:	b510      	push	{r4, lr}
 8081702:	4604      	mov	r4, r0
  #if ARDUINO >= 100
  Wire.write((uint8_t)x);
 8081704:	f001 ffa2 	bl	808364c <_Z19__fetch_global_Wirev>
 8081708:	6803      	ldr	r3, [r0, #0]
 808170a:	4621      	mov	r1, r4
  #else
  Wire.send(x);
  #endif
}
 808170c:	e8bd 4010 	ldmia.w	sp!, {r4, lr}
  Wire.write((uint8_t)x);
 8081710:	689b      	ldr	r3, [r3, #8]
 8081712:	4718      	bx	r3

08081714 <_ZL7i2creadv>:
static uint8_t i2cread(void) {
 8081714:	b508      	push	{r3, lr}
  return Wire.read();
 8081716:	f001 ff99 	bl	808364c <_Z19__fetch_global_Wirev>
 808171a:	6803      	ldr	r3, [r0, #0]
 808171c:	695b      	ldr	r3, [r3, #20]
 808171e:	4798      	blx	r3
}
 8081720:	b2c0      	uxtb	r0, r0
 8081722:	bd08      	pop	{r3, pc}

08081724 <_ZL13writeRegisterhht>:
/**************************************************************************/
/*!
    @brief  Writes 16-bits to the specified destination register
*/
/**************************************************************************/
static void writeRegister(uint8_t i2cAddress, uint8_t reg, uint16_t value) {
 8081724:	b570      	push	{r4, r5, r6, lr}
 8081726:	4606      	mov	r6, r0
 8081728:	460d      	mov	r5, r1
 808172a:	4614      	mov	r4, r2
  Wire.beginTransmission(i2cAddress);
 808172c:	f001 ff8e 	bl	808364c <_Z19__fetch_global_Wirev>
 8081730:	4631      	mov	r1, r6
 8081732:	f001 fe67 	bl	8083404 <_ZN7TwoWire17beginTransmissionEh>
  i2cwrite((uint8_t)reg);
 8081736:	4628      	mov	r0, r5
 8081738:	f7ff ffe2 	bl	8081700 <_ZL8i2cwriteh>
  i2cwrite((uint8_t)(value>>8));
 808173c:	0a20      	lsrs	r0, r4, #8
 808173e:	f7ff ffdf 	bl	8081700 <_ZL8i2cwriteh>
  i2cwrite((uint8_t)(value & 0xFF));
 8081742:	b2e0      	uxtb	r0, r4
 8081744:	f7ff ffdc 	bl	8081700 <_ZL8i2cwriteh>
  Wire.endTransmission();
 8081748:	f001 ff80 	bl	808364c <_Z19__fetch_global_Wirev>
}
 808174c:	e8bd 4070 	ldmia.w	sp!, {r4, r5, r6, lr}
  Wire.endTransmission();
 8081750:	f001 be60 	b.w	8083414 <_ZN7TwoWire15endTransmissionEv>

08081754 <_ZL12readRegisterhh.isra.0>:
/**************************************************************************/
/*!
    @brief  Writes 16-bits to the specified destination register
*/
/**************************************************************************/
static uint16_t readRegister(uint8_t i2cAddress, uint8_t reg) {
 8081754:	b510      	push	{r4, lr}
 8081756:	4604      	mov	r4, r0
  Wire.beginTransmission(i2cAddress);
 8081758:	f001 ff78 	bl	808364c <_Z19__fetch_global_Wirev>
 808175c:	4621      	mov	r1, r4
 808175e:	f001 fe51 	bl	8083404 <_ZN7TwoWire17beginTransmissionEh>
  i2cwrite(ADS1015_REG_POINTER_CONVERT);
 8081762:	2000      	movs	r0, #0
 8081764:	f7ff ffcc 	bl	8081700 <_ZL8i2cwriteh>
  Wire.endTransmission();
 8081768:	f001 ff70 	bl	808364c <_Z19__fetch_global_Wirev>
 808176c:	f001 fe52 	bl	8083414 <_ZN7TwoWire15endTransmissionEv>
  Wire.requestFrom(i2cAddress, (uint8_t)2);
 8081770:	f001 ff6c 	bl	808364c <_Z19__fetch_global_Wirev>
 8081774:	4621      	mov	r1, r4
 8081776:	2202      	movs	r2, #2
 8081778:	f001 fe41 	bl	80833fe <_ZN7TwoWire11requestFromEhj>
  return ((i2cread() << 8) | i2cread());  
 808177c:	f7ff ffca 	bl	8081714 <_ZL7i2creadv>
 8081780:	4604      	mov	r4, r0
 8081782:	f7ff ffc7 	bl	8081714 <_ZL7i2creadv>
 8081786:	ea40 2004 	orr.w	r0, r0, r4, lsl #8
}
 808178a:	b280      	uxth	r0, r0
 808178c:	bd10      	pop	{r4, pc}

0808178e <_ZN16Adafruit_ADS1115C1Eh>:
Adafruit_ADS1015::Adafruit_ADS1015(uint8_t i2cAddress) 
{
   m_i2cAddress = i2cAddress;
   m_conversionDelay = ADS1015_CONVERSIONDELAY;
   m_bitShift = 4;
   m_gain = GAIN_TWOTHIRDS; /* +/- 6.144V range (limited to VDD +0.3V max!) */
 808178e:	2200      	movs	r2, #0
    @brief  Instantiates a new ADS1115 class w/appropriate properties
*/
/**************************************************************************/
Adafruit_ADS1115::Adafruit_ADS1115(uint8_t i2cAddress)
{
   m_i2cAddress = i2cAddress;
 8081790:	7001      	strb	r1, [r0, #0]
   m_conversionDelay = ADS1115_CONVERSIONDELAY;
 8081792:	2102      	movs	r1, #2
   m_gain = GAIN_TWOTHIRDS; /* +/- 6.144V range (limited to VDD +0.3V max!) */
 8081794:	8082      	strh	r2, [r0, #4]
   m_conversionDelay = ADS1115_CONVERSIONDELAY;
 8081796:	7041      	strb	r1, [r0, #1]
   m_bitShift = 0;
 8081798:	7082      	strb	r2, [r0, #2]
   m_gain = GAIN_TWOTHIRDS; /* +/- 6.144V range (limited to VDD +0.3V max!) */
}
 808179a:	4770      	bx	lr

0808179c <_ZN16Adafruit_ADS10155beginEv>:
/**************************************************************************/
/*!
    @brief  Sets up the HW (reads coefficients values, etc.)
*/
/**************************************************************************/
void Adafruit_ADS1015::begin() {
 808179c:	b508      	push	{r3, lr}
  Wire.begin();
 808179e:	f001 ff55 	bl	808364c <_Z19__fetch_global_Wirev>
}
 80817a2:	e8bd 4008 	ldmia.w	sp!, {r3, lr}
  Wire.begin();
 80817a6:	f001 bdfb 	b.w	80833a0 <_ZN7TwoWire5beginEv>

080817aa <_ZN16Adafruit_ADS10157setGainE9adsGain_t>:
    @brief  Sets the gain and input voltage range
*/
/**************************************************************************/
void Adafruit_ADS1015::setGain(adsGain_t gain)
{
  m_gain = gain;
 80817aa:	8081      	strh	r1, [r0, #4]
}
 80817ac:	4770      	bx	lr

080817ae <_ZN16Adafruit_ADS101519readADC_SingleEndedEh>:
/*!
    @brief  Gets a single-ended ADC reading from the specified channel
*/
/**************************************************************************/
uint16_t Adafruit_ADS1015::readADC_SingleEnded(uint8_t channel) {
  if (channel > 3)
 80817ae:	2903      	cmp	r1, #3
uint16_t Adafruit_ADS1015::readADC_SingleEnded(uint8_t channel) {
 80817b0:	b510      	push	{r4, lr}
 80817b2:	4604      	mov	r4, r0
  if (channel > 3)
 80817b4:	d822      	bhi.n	80817fc <_ZN16Adafruit_ADS101519readADC_SingleEndedEh+0x4e>

  // Set PGA/voltage range
  config |= m_gain;

  // Set single-ended input channel
  switch (channel)
 80817b6:	2902      	cmp	r1, #2
  config |= m_gain;
 80817b8:	8882      	ldrh	r2, [r0, #4]
  switch (channel)
 80817ba:	d019      	beq.n	80817f0 <_ZN16Adafruit_ADS101519readADC_SingleEndedEh+0x42>
 80817bc:	2903      	cmp	r1, #3
 80817be:	d01a      	beq.n	80817f6 <_ZN16Adafruit_ADS101519readADC_SingleEndedEh+0x48>
 80817c0:	2901      	cmp	r1, #1
  {
    case (0):
      config |= ADS1015_REG_CONFIG_MUX_SINGLE_0;
 80817c2:	bf14      	ite	ne
 80817c4:	f442 4283 	orrne.w	r2, r2, #16768	; 0x4180
      break;
    case (1):
      config |= ADS1015_REG_CONFIG_MUX_SINGLE_1;
 80817c8:	f442 42a3 	orreq.w	r2, r2, #20864	; 0x5180
      break;
    case (2):
      config |= ADS1015_REG_CONFIG_MUX_SINGLE_2;
      break;
    case (3):
      config |= ADS1015_REG_CONFIG_MUX_SINGLE_3;
 80817cc:	f042 0203 	orr.w	r2, r2, #3

  // Set 'start single-conversion' bit
  config |= ADS1015_REG_CONFIG_OS_SINGLE;

  // Write config register to the ADC
  writeRegister(m_i2cAddress, ADS1015_REG_POINTER_CONFIG, config);
 80817d0:	2101      	movs	r1, #1
 80817d2:	f442 4200 	orr.w	r2, r2, #32768	; 0x8000
 80817d6:	7820      	ldrb	r0, [r4, #0]
 80817d8:	f7ff ffa4 	bl	8081724 <_ZL13writeRegisterhht>

  // Wait for the conversion to complete
  delay(m_conversionDelay);
 80817dc:	7860      	ldrb	r0, [r4, #1]
 80817de:	f000 ffe7 	bl	80827b0 <delay>

  // Read the conversion results
  // Shift 12-bit results right 4 bits for the ADS1015
  return readRegister(m_i2cAddress, ADS1015_REG_POINTER_CONVERT) >> m_bitShift;  
 80817e2:	7820      	ldrb	r0, [r4, #0]
 80817e4:	f7ff ffb6 	bl	8081754 <_ZL12readRegisterhh.isra.0>
 80817e8:	78a3      	ldrb	r3, [r4, #2]
 80817ea:	4118      	asrs	r0, r3
 80817ec:	b280      	uxth	r0, r0
}
 80817ee:	bd10      	pop	{r4, pc}
      config |= ADS1015_REG_CONFIG_MUX_SINGLE_2;
 80817f0:	f442 42c3 	orr.w	r2, r2, #24960	; 0x6180
 80817f4:	e7ea      	b.n	80817cc <_ZN16Adafruit_ADS101519readADC_SingleEndedEh+0x1e>
      config |= ADS1015_REG_CONFIG_MUX_SINGLE_3;
 80817f6:	f442 42e3 	orr.w	r2, r2, #29056	; 0x7180
 80817fa:	e7e7      	b.n	80817cc <_ZN16Adafruit_ADS101519readADC_SingleEndedEh+0x1e>
    return 0;
 80817fc:	2000      	movs	r0, #0
 80817fe:	e7f6      	b.n	80817ee <_ZN16Adafruit_ADS101519readADC_SingleEndedEh+0x40>

08081800 <_ZN19CellularHelperClass16responseCallbackEiPKciPv>:
	}
	return bars;
}

// static
int CellularHelperClass::responseCallback(int type, const char* buf, int len, void *param) {
 8081800:	b430      	push	{r4, r5}
 8081802:	4605      	mov	r5, r0
 8081804:	4618      	mov	r0, r3
	CellularHelperCommonResponse *presp = (CellularHelperCommonResponse *)param;

	return presp->parse(type, buf, len);
 8081806:	681b      	ldr	r3, [r3, #0]
 8081808:	681c      	ldr	r4, [r3, #0]
 808180a:	4613      	mov	r3, r2
 808180c:	46a4      	mov	ip, r4
 808180e:	460a      	mov	r2, r1
 8081810:	4629      	mov	r1, r5
}
 8081812:	bc30      	pop	{r4, r5}
	return presp->parse(type, buf, len);
 8081814:	4760      	bx	ip

08081816 <_ZNK5spark6Logger4infoEPKcz>:
    va_start(args, fmt);
    log(LOG_LEVEL_TRACE, fmt, args);
    va_end(args);
}

inline void spark::Logger::info(const char *fmt, ...) const {
 8081816:	b40e      	push	{r1, r2, r3}
 8081818:	b510      	push	{r4, lr}
}

inline void spark::Logger::log(LogLevel level, const char *fmt, va_list args) const {
    LogAttributes attr;
    attr.size = sizeof(LogAttributes);
    attr.flags = 0;
 808181a:	2300      	movs	r3, #0
    log(LOG_LEVEL_INFO, fmt, args);
 808181c:	6801      	ldr	r1, [r0, #0]
    attr.flags = 0;
 808181e:	2020      	movs	r0, #32
inline void spark::Logger::info(const char *fmt, ...) const {
 8081820:	b08d      	sub	sp, #52	; 0x34
 8081822:	aa0f      	add	r2, sp, #60	; 0x3c
 8081824:	f852 4b04 	ldr.w	r4, [r2], #4
    attr.flags = 0;
 8081828:	e9cd 0304 	strd	r0, r3, [sp, #16]
    log_message_v(level, name_, &attr, nullptr, fmt, args);
 808182c:	e9cd 4200 	strd	r4, r2, [sp]
    va_start(args, fmt);
 8081830:	9203      	str	r2, [sp, #12]
    log_message_v(level, name_, &attr, nullptr, fmt, args);
 8081832:	201e      	movs	r0, #30
 8081834:	aa04      	add	r2, sp, #16
 8081836:	f000 fac1 	bl	8081dbc <log_message_v>
}
 808183a:	b00d      	add	sp, #52	; 0x34
 808183c:	e8bd 4010 	ldmia.w	sp!, {r4, lr}
 8081840:	b003      	add	sp, #12
 8081842:	4770      	bx	lr

08081844 <_ZNK28CellularHelperCommonResponse16logCellularDebugEiPKci>:
void CellularHelperCommonResponse::logCellularDebug(int type, const char *buf, int len) const {
 8081844:	e92d 43f0 	stmdb	sp!, {r4, r5, r6, r7, r8, r9, lr}
 8081848:	460c      	mov	r4, r1
 808184a:	b08d      	sub	sp, #52	; 0x34
	String typeStr;
 808184c:	494d      	ldr	r1, [pc, #308]	; (8081984 <_ZNK28CellularHelperCommonResponse16logCellularDebugEiPKci+0x140>)
 808184e:	a804      	add	r0, sp, #16
void CellularHelperCommonResponse::logCellularDebug(int type, const char *buf, int len) const {
 8081850:	4616      	mov	r6, r2
 8081852:	461d      	mov	r5, r3
	String typeStr;
 8081854:	f000 fcea 	bl	808222c <_ZN6StringC1EPKc>
	switch(type) {
 8081858:	f5b4 1f10 	cmp.w	r4, #2359296	; 0x240000
 808185c:	d064      	beq.n	8081928 <_ZNK28CellularHelperCommonResponse16logCellularDebugEiPKci+0xe4>
 808185e:	dc1f      	bgt.n	80818a0 <_ZNK28CellularHelperCommonResponse16logCellularDebugEiPKci+0x5c>
 8081860:	f5b4 1f04 	cmp.w	r4, #2162688	; 0x210000
 8081864:	d05c      	beq.n	8081920 <_ZNK28CellularHelperCommonResponse16logCellularDebugEiPKci+0xdc>
 8081866:	dc13      	bgt.n	8081890 <_ZNK28CellularHelperCommonResponse16logCellularDebugEiPKci+0x4c>
 8081868:	f5b4 1f88 	cmp.w	r4, #1114112	; 0x110000
 808186c:	d056      	beq.n	808191c <_ZNK28CellularHelperCommonResponse16logCellularDebugEiPKci+0xd8>
 808186e:	f5b4 1f90 	cmp.w	r4, #1179648	; 0x120000
 8081872:	d055      	beq.n	8081920 <_ZNK28CellularHelperCommonResponse16logCellularDebugEiPKci+0xdc>
 8081874:	b35c      	cbz	r4, 80818ce <_ZNK28CellularHelperCommonResponse16logCellularDebugEiPKci+0x8a>
		typeStr = String::format("type=0x%x", type);
 8081876:	4622      	mov	r2, r4
 8081878:	a808      	add	r0, sp, #32
 808187a:	4943      	ldr	r1, [pc, #268]	; (8081988 <_ZNK28CellularHelperCommonResponse16logCellularDebugEiPKci+0x144>)
 808187c:	f000 fdb2 	bl	80823e4 <_ZN6String6formatEPKcz>
 8081880:	a908      	add	r1, sp, #32
 8081882:	a804      	add	r0, sp, #16
 8081884:	f000 fd1c 	bl	80822c0 <_ZN6StringaSEOS_>
 8081888:	a808      	add	r0, sp, #32
 808188a:	f000 fc85 	bl	8082198 <_ZN6StringD1Ev>
		break;
 808188e:	e022      	b.n	80818d6 <_ZNK28CellularHelperCommonResponse16logCellularDebugEiPKci+0x92>
	switch(type) {
 8081890:	f5b4 1f08 	cmp.w	r4, #2228224	; 0x220000
 8081894:	d046      	beq.n	8081924 <_ZNK28CellularHelperCommonResponse16logCellularDebugEiPKci+0xe0>
 8081896:	f5b4 1f0c 	cmp.w	r4, #2293760	; 0x230000
 808189a:	d1ec      	bne.n	8081876 <_ZNK28CellularHelperCommonResponse16logCellularDebugEiPKci+0x32>
		typeStr = "TYPE_NOCARRIER";
 808189c:	493b      	ldr	r1, [pc, #236]	; (808198c <_ZNK28CellularHelperCommonResponse16logCellularDebugEiPKci+0x148>)
 808189e:	e017      	b.n	80818d0 <_ZNK28CellularHelperCommonResponse16logCellularDebugEiPKci+0x8c>
	switch(type) {
 80818a0:	f5b4 0f80 	cmp.w	r4, #4194304	; 0x400000
 80818a4:	d046      	beq.n	8081934 <_ZNK28CellularHelperCommonResponse16logCellularDebugEiPKci+0xf0>
 80818a6:	dc0a      	bgt.n	80818be <_ZNK28CellularHelperCommonResponse16logCellularDebugEiPKci+0x7a>
 80818a8:	f5b4 1f18 	cmp.w	r4, #2490368	; 0x260000
 80818ac:	d03e      	beq.n	808192c <_ZNK28CellularHelperCommonResponse16logCellularDebugEiPKci+0xe8>
 80818ae:	f5b4 1f40 	cmp.w	r4, #3145728	; 0x300000
 80818b2:	d03d      	beq.n	8081930 <_ZNK28CellularHelperCommonResponse16logCellularDebugEiPKci+0xec>
 80818b4:	f5b4 1f14 	cmp.w	r4, #2424832	; 0x250000
 80818b8:	d1dd      	bne.n	8081876 <_ZNK28CellularHelperCommonResponse16logCellularDebugEiPKci+0x32>
		typeStr = "TYPE_BUSY";
 80818ba:	4935      	ldr	r1, [pc, #212]	; (8081990 <_ZNK28CellularHelperCommonResponse16logCellularDebugEiPKci+0x14c>)
 80818bc:	e008      	b.n	80818d0 <_ZNK28CellularHelperCommonResponse16logCellularDebugEiPKci+0x8c>
	switch(type) {
 80818be:	f5b4 0fa0 	cmp.w	r4, #5242880	; 0x500000
 80818c2:	d037      	beq.n	8081934 <_ZNK28CellularHelperCommonResponse16logCellularDebugEiPKci+0xf0>
 80818c4:	f5b4 0fc0 	cmp.w	r4, #6291456	; 0x600000
 80818c8:	d1d5      	bne.n	8081876 <_ZNK28CellularHelperCommonResponse16logCellularDebugEiPKci+0x32>
		typeStr = "TYPE_ABORTED";
 80818ca:	4932      	ldr	r1, [pc, #200]	; (8081994 <_ZNK28CellularHelperCommonResponse16logCellularDebugEiPKci+0x150>)
 80818cc:	e000      	b.n	80818d0 <_ZNK28CellularHelperCommonResponse16logCellularDebugEiPKci+0x8c>
		typeStr = "TYPE_UNKNOWN";
 80818ce:	4932      	ldr	r1, [pc, #200]	; (8081998 <_ZNK28CellularHelperCommonResponse16logCellularDebugEiPKci+0x154>)
		typeStr = "TYPE_OK";
 80818d0:	a804      	add	r0, sp, #16
 80818d2:	f000 fcfd 	bl	80822d0 <_ZN6StringaSEPKc>
	Log.info("cellular response type=%s len=%d", typeStr.c_str(), len);
 80818d6:	462b      	mov	r3, r5
 80818d8:	9a04      	ldr	r2, [sp, #16]
 80818da:	4930      	ldr	r1, [pc, #192]	; (808199c <_ZNK28CellularHelperCommonResponse16logCellularDebugEiPKci+0x158>)
 80818dc:	4830      	ldr	r0, [pc, #192]	; (80819a0 <_ZNK28CellularHelperCommonResponse16logCellularDebugEiPKci+0x15c>)
 80818de:	f7ff ff9a 	bl	8081816 <_ZNK5spark6Logger4infoEPKcz>
	String out;
 80818e2:	4928      	ldr	r1, [pc, #160]	; (8081984 <_ZNK28CellularHelperCommonResponse16logCellularDebugEiPKci+0x140>)
 80818e4:	a808      	add	r0, sp, #32
 80818e6:	f000 fca1 	bl	808222c <_ZN6StringC1EPKc>
	for(int ii = 0; ii < len; ii++) {
 80818ea:	2400      	movs	r4, #0
			snprintf(hex, sizeof(hex), "0x%02x", buf[ii]);
 80818ec:	4f2d      	ldr	r7, [pc, #180]	; (80819a4 <_ZNK28CellularHelperCommonResponse16logCellularDebugEiPKci+0x160>)
	String & operator += (const char *cstr)		{concat(cstr); return (*this);}
 80818ee:	f8df 80d4 	ldr.w	r8, [pc, #212]	; 80819c4 <_ZNK28CellularHelperCommonResponse16logCellularDebugEiPKci+0x180>
 80818f2:	f8df 90d4 	ldr.w	r9, [pc, #212]	; 80819c8 <_ZNK28CellularHelperCommonResponse16logCellularDebugEiPKci+0x184>
	for(int ii = 0; ii < len; ii++) {
 80818f6:	42ac      	cmp	r4, r5
 80818f8:	da35      	bge.n	8081966 <_ZNK28CellularHelperCommonResponse16logCellularDebugEiPKci+0x122>
		if (buf[ii] == '\n') {
 80818fa:	5d31      	ldrb	r1, [r6, r4]
 80818fc:	290a      	cmp	r1, #10
 80818fe:	d11b      	bne.n	8081938 <_ZNK28CellularHelperCommonResponse16logCellularDebugEiPKci+0xf4>
 8081900:	4649      	mov	r1, r9
 8081902:	a808      	add	r0, sp, #32
 8081904:	f000 fd1f 	bl	8082346 <_ZN6String6concatEPKc>
			Log.info(out);
 8081908:	9908      	ldr	r1, [sp, #32]
 808190a:	4825      	ldr	r0, [pc, #148]	; (80819a0 <_ZNK28CellularHelperCommonResponse16logCellularDebugEiPKci+0x15c>)
 808190c:	f7ff ff83 	bl	8081816 <_ZNK5spark6Logger4infoEPKcz>
			out = "";
 8081910:	491c      	ldr	r1, [pc, #112]	; (8081984 <_ZNK28CellularHelperCommonResponse16logCellularDebugEiPKci+0x140>)
 8081912:	a808      	add	r0, sp, #32
 8081914:	f000 fcdc 	bl	80822d0 <_ZN6StringaSEPKc>
	for(int ii = 0; ii < len; ii++) {
 8081918:	3401      	adds	r4, #1
 808191a:	e7ec      	b.n	80818f6 <_ZNK28CellularHelperCommonResponse16logCellularDebugEiPKci+0xb2>
		typeStr = "TYPE_OK";
 808191c:	4922      	ldr	r1, [pc, #136]	; (80819a8 <_ZNK28CellularHelperCommonResponse16logCellularDebugEiPKci+0x164>)
 808191e:	e7d7      	b.n	80818d0 <_ZNK28CellularHelperCommonResponse16logCellularDebugEiPKci+0x8c>
		typeStr = "TYPE_ERROR";
 8081920:	4922      	ldr	r1, [pc, #136]	; (80819ac <_ZNK28CellularHelperCommonResponse16logCellularDebugEiPKci+0x168>)
 8081922:	e7d5      	b.n	80818d0 <_ZNK28CellularHelperCommonResponse16logCellularDebugEiPKci+0x8c>
		typeStr = "TYPE_CONNECT";
 8081924:	4922      	ldr	r1, [pc, #136]	; (80819b0 <_ZNK28CellularHelperCommonResponse16logCellularDebugEiPKci+0x16c>)
 8081926:	e7d3      	b.n	80818d0 <_ZNK28CellularHelperCommonResponse16logCellularDebugEiPKci+0x8c>
		typeStr = "TYPE_NODIALTONE";
 8081928:	4922      	ldr	r1, [pc, #136]	; (80819b4 <_ZNK28CellularHelperCommonResponse16logCellularDebugEiPKci+0x170>)
 808192a:	e7d1      	b.n	80818d0 <_ZNK28CellularHelperCommonResponse16logCellularDebugEiPKci+0x8c>
		typeStr = "TYPE_NOANSWER";
 808192c:	4922      	ldr	r1, [pc, #136]	; (80819b8 <_ZNK28CellularHelperCommonResponse16logCellularDebugEiPKci+0x174>)
 808192e:	e7cf      	b.n	80818d0 <_ZNK28CellularHelperCommonResponse16logCellularDebugEiPKci+0x8c>
		typeStr = "TYPE_PROMPT";
 8081930:	4922      	ldr	r1, [pc, #136]	; (80819bc <_ZNK28CellularHelperCommonResponse16logCellularDebugEiPKci+0x178>)
 8081932:	e7cd      	b.n	80818d0 <_ZNK28CellularHelperCommonResponse16logCellularDebugEiPKci+0x8c>
		typeStr = "TYPE_PLUS";
 8081934:	4922      	ldr	r1, [pc, #136]	; (80819c0 <_ZNK28CellularHelperCommonResponse16logCellularDebugEiPKci+0x17c>)
 8081936:	e7cb      	b.n	80818d0 <_ZNK28CellularHelperCommonResponse16logCellularDebugEiPKci+0x8c>
		if (buf[ii] == '\r') {
 8081938:	290d      	cmp	r1, #13
 808193a:	d104      	bne.n	8081946 <_ZNK28CellularHelperCommonResponse16logCellularDebugEiPKci+0x102>
 808193c:	4641      	mov	r1, r8
			out.concat(hex);
 808193e:	a808      	add	r0, sp, #32
 8081940:	f000 fd01 	bl	8082346 <_ZN6String6concatEPKc>
 8081944:	e7e8      	b.n	8081918 <_ZNK28CellularHelperCommonResponse16logCellularDebugEiPKci+0xd4>
		if (buf[ii] < ' ' || buf[ii] >= 127) {
 8081946:	f1a1 0320 	sub.w	r3, r1, #32
 808194a:	2b5e      	cmp	r3, #94	; 0x5e
 808194c:	d907      	bls.n	808195e <_ZNK28CellularHelperCommonResponse16logCellularDebugEiPKci+0x11a>
			snprintf(hex, sizeof(hex), "0x%02x", buf[ii]);
 808194e:	460b      	mov	r3, r1
 8081950:	463a      	mov	r2, r7
 8081952:	210a      	movs	r1, #10
 8081954:	a801      	add	r0, sp, #4
 8081956:	f000 fb57 	bl	8082008 <snprintf>
			out.concat(hex);
 808195a:	a901      	add	r1, sp, #4
 808195c:	e7ef      	b.n	808193e <_ZNK28CellularHelperCommonResponse16logCellularDebugEiPKci+0xfa>
			out.concat(buf[ii]);
 808195e:	a808      	add	r0, sp, #32
 8081960:	f000 fd00 	bl	8082364 <_ZN6String6concatEc>
 8081964:	e7d8      	b.n	8081918 <_ZNK28CellularHelperCommonResponse16logCellularDebugEiPKci+0xd4>
	if (out.length() > 0) {
 8081966:	9b0a      	ldr	r3, [sp, #40]	; 0x28
 8081968:	b11b      	cbz	r3, 8081972 <_ZNK28CellularHelperCommonResponse16logCellularDebugEiPKci+0x12e>
		Log.info(out);
 808196a:	9908      	ldr	r1, [sp, #32]
 808196c:	480c      	ldr	r0, [pc, #48]	; (80819a0 <_ZNK28CellularHelperCommonResponse16logCellularDebugEiPKci+0x15c>)
 808196e:	f7ff ff52 	bl	8081816 <_ZNK5spark6Logger4infoEPKcz>
	String out;
 8081972:	a808      	add	r0, sp, #32
 8081974:	f000 fc10 	bl	8082198 <_ZN6StringD1Ev>
	String typeStr;
 8081978:	a804      	add	r0, sp, #16
 808197a:	f000 fc0d 	bl	8082198 <_ZN6StringD1Ev>
}
 808197e:	b00d      	add	sp, #52	; 0x34
 8081980:	e8bd 83f0 	ldmia.w	sp!, {r4, r5, r6, r7, r8, r9, pc}
 8081984:	08086459 	.word	0x08086459
 8081988:	0808640f 	.word	0x0808640f
 808198c:	080863b5 	.word	0x080863b5
 8081990:	080863d4 	.word	0x080863d4
 8081994:	08086402 	.word	0x08086402
 8081998:	08086388 	.word	0x08086388
 808199c:	08086419 	.word	0x08086419
 80819a0:	20000514 	.word	0x20000514
 80819a4:	08086440 	.word	0x08086440
 80819a8:	08086395 	.word	0x08086395
 80819ac:	0808639d 	.word	0x0808639d
 80819b0:	080863a8 	.word	0x080863a8
 80819b4:	080863c4 	.word	0x080863c4
 80819b8:	080863de 	.word	0x080863de
 80819bc:	080863ec 	.word	0x080863ec
 80819c0:	080863f8 	.word	0x080863f8
 80819c4:	0808643d 	.word	0x0808643d
 80819c8:	0808643a 	.word	0x0808643a

080819cc <_ZN30CellularHelperRSSIQualResponse11postProcessEv>:
void CellularHelperRSSIQualResponse::postProcess() {
 80819cc:	b510      	push	{r4, lr}
	if (sscanf(string.c_str(), "%d,%d", &rssi, &qual) == 2) {
 80819ce:	f100 0330 	add.w	r3, r0, #48	; 0x30
 80819d2:	f100 022c 	add.w	r2, r0, #44	; 0x2c
void CellularHelperRSSIQualResponse::postProcess() {
 80819d6:	4604      	mov	r4, r0
	if (sscanf(string.c_str(), "%d,%d", &rssi, &qual) == 2) {
 80819d8:	4909      	ldr	r1, [pc, #36]	; (8081a00 <_ZN30CellularHelperRSSIQualResponse11postProcessEv+0x34>)
 80819da:	69c0      	ldr	r0, [r0, #28]
 80819dc:	f000 fb0c 	bl	8081ff8 <sscanf>
 80819e0:	2802      	cmp	r0, #2
 80819e2:	d10a      	bne.n	80819fa <_ZN30CellularHelperRSSIQualResponse11postProcessEv+0x2e>
		if (rssi < 99) {
 80819e4:	6ae3      	ldr	r3, [r4, #44]	; 0x2c
 80819e6:	2b62      	cmp	r3, #98	; 0x62
			rssi = 0;
 80819e8:	bfce      	itee	gt
 80819ea:	2300      	movgt	r3, #0
			rssi = -113 + (rssi * 2);
 80819ec:	005b      	lslle	r3, r3, #1
 80819ee:	3b71      	suble	r3, #113	; 0x71
 80819f0:	62e3      	str	r3, [r4, #44]	; 0x2c
		resp = RESP_OK;
 80819f2:	f06f 0301 	mvn.w	r3, #1
		resp = RESP_ERROR;
 80819f6:	6063      	str	r3, [r4, #4]
}
 80819f8:	bd10      	pop	{r4, pc}
		resp = RESP_ERROR;
 80819fa:	f06f 0302 	mvn.w	r3, #2
 80819fe:	e7fa      	b.n	80819f6 <_ZN30CellularHelperRSSIQualResponse11postProcessEv+0x2a>
 8081a00:	08086447 	.word	0x08086447

08081a04 <_ZN32CellularHelperPlusStringResponseC1Ev>:
 8081a04:	b538      	push	{r3, r4, r5, lr}
class CellularHelperCommonResponse {
 8081a06:	f06f 0302 	mvn.w	r3, #2
 8081a0a:	6043      	str	r3, [r0, #4]
 8081a0c:	2300      	movs	r3, #0
class CellularHelperPlusStringResponse : public CellularHelperCommonResponse {
 8081a0e:	4604      	mov	r4, r0
 8081a10:	4d07      	ldr	r5, [pc, #28]	; (8081a30 <_ZN32CellularHelperPlusStringResponseC1Ev+0x2c>)
class CellularHelperCommonResponse {
 8081a12:	7203      	strb	r3, [r0, #8]
class CellularHelperPlusStringResponse : public CellularHelperCommonResponse {
 8081a14:	4b07      	ldr	r3, [pc, #28]	; (8081a34 <_ZN32CellularHelperPlusStringResponseC1Ev+0x30>)
 8081a16:	4629      	mov	r1, r5
 8081a18:	f840 3b0c 	str.w	r3, [r0], #12
 8081a1c:	f000 fc06 	bl	808222c <_ZN6StringC1EPKc>
 8081a20:	4629      	mov	r1, r5
 8081a22:	f104 001c 	add.w	r0, r4, #28
 8081a26:	f000 fc01 	bl	808222c <_ZN6StringC1EPKc>
 8081a2a:	4620      	mov	r0, r4
 8081a2c:	bd38      	pop	{r3, r4, r5, pc}
 8081a2e:	bf00      	nop
 8081a30:	08086459 	.word	0x08086459
 8081a34:	08086478 	.word	0x08086478

08081a38 <_ZNK19CellularHelperClass11getRSSIQualEv>:
CellularHelperRSSIQualResponse CellularHelperClass::getRSSIQual() const {
 8081a38:	b510      	push	{r4, lr}
 8081a3a:	4604      	mov	r4, r0
 * Note that for 2G, qual is not available and 99 is always returned.
 *
 * Since it inherits from CellularHelperPlusStringResponse and CellularHelperCommonResponse you
 * can check resp == RESP_OK to make sure the call succeeded.
 */
class CellularHelperRSSIQualResponse : public CellularHelperPlusStringResponse {
 8081a3c:	f7ff ffe2 	bl	8081a04 <_ZN32CellularHelperPlusStringResponseC1Ev>
 8081a40:	4b0c      	ldr	r3, [pc, #48]	; (8081a74 <_ZNK19CellularHelperClass11getRSSIQualEv+0x3c>)
	resp.command = "CSQ";
 8081a42:	490d      	ldr	r1, [pc, #52]	; (8081a78 <_ZNK19CellularHelperClass11getRSSIQualEv+0x40>)
 8081a44:	6023      	str	r3, [r4, #0]
 8081a46:	2300      	movs	r3, #0
 8081a48:	f104 000c 	add.w	r0, r4, #12
 8081a4c:	e9c4 330b 	strd	r3, r3, [r4, #44]	; 0x2c
 8081a50:	f000 fc3e 	bl	80822d0 <_ZN6StringaSEPKc>

    template<typename T, typename... Targs>
    inline int command(int (*cb)(int type, const char* buf, int len, T* param),
            T* param, system_tick_t timeout_ms, const char* format, Targs... Fargs)
    {
        return cellular_command((_CALLBACKPTR_MDM)cb, (void*)param, timeout_ms, format, Fargs...);
 8081a54:	f242 7210 	movw	r2, #10000	; 0x2710
 8081a58:	4621      	mov	r1, r4
 8081a5a:	4b08      	ldr	r3, [pc, #32]	; (8081a7c <_ZNK19CellularHelperClass11getRSSIQualEv+0x44>)
 8081a5c:	4808      	ldr	r0, [pc, #32]	; (8081a80 <_ZNK19CellularHelperClass11getRSSIQualEv+0x48>)
 8081a5e:	f000 f975 	bl	8081d4c <cellular_command>
	resp.resp = Cellular.command(responseCallback, (void *)&resp, DEFAULT_TIMEOUT, "AT+CSQ\r\n");
 8081a62:	6060      	str	r0, [r4, #4]
	if (resp.resp == RESP_OK) {
 8081a64:	3002      	adds	r0, #2
 8081a66:	d102      	bne.n	8081a6e <_ZNK19CellularHelperClass11getRSSIQualEv+0x36>
		resp.postProcess();
 8081a68:	4620      	mov	r0, r4
 8081a6a:	f7ff ffaf 	bl	80819cc <_ZN30CellularHelperRSSIQualResponse11postProcessEv>
}
 8081a6e:	4620      	mov	r0, r4
 8081a70:	bd10      	pop	{r4, pc}
 8081a72:	bf00      	nop
 8081a74:	0808646c 	.word	0x0808646c
 8081a78:	0808644d 	.word	0x0808644d
 8081a7c:	08086451 	.word	0x08086451
 8081a80:	08081801 	.word	0x08081801

08081a84 <_ZNK19CellularHelperClass20appendBufferToStringER6StringPKcib>:
void CellularHelperClass::appendBufferToString(String &str, const char *buf, int len, bool noEOL) const {
 8081a84:	e92d 41f0 	stmdb	sp!, {r4, r5, r6, r7, r8, lr}
 8081a88:	460c      	mov	r4, r1
 8081a8a:	461e      	mov	r6, r3
	str.reserve(str.length() + (size_t)len + 1);
 8081a8c:	1c59      	adds	r1, r3, #1
 8081a8e:	68a3      	ldr	r3, [r4, #8]
 8081a90:	4620      	mov	r0, r4
 8081a92:	4419      	add	r1, r3
void CellularHelperClass::appendBufferToString(String &str, const char *buf, int len, bool noEOL) const {
 8081a94:	4617      	mov	r7, r2
 8081a96:	f89d 8018 	ldrb.w	r8, [sp, #24]
	for(int ii = 0; ii < len; ii++) {
 8081a9a:	2500      	movs	r5, #0
	str.reserve(str.length() + (size_t)len + 1);
 8081a9c:	f000 fb9a 	bl	80821d4 <_ZN6String7reserveEj>
	for(int ii = 0; ii < len; ii++) {
 8081aa0:	42b5      	cmp	r5, r6
 8081aa2:	da0c      	bge.n	8081abe <_ZNK19CellularHelperClass20appendBufferToStringER6StringPKcib+0x3a>
		if (!noEOL || (buf[ii] != '\r' && buf[ii] != '\n')) {
 8081aa4:	5d79      	ldrb	r1, [r7, r5]
 8081aa6:	f1b8 0f00 	cmp.w	r8, #0
 8081aaa:	d003      	beq.n	8081ab4 <_ZNK19CellularHelperClass20appendBufferToStringER6StringPKcib+0x30>
 8081aac:	290d      	cmp	r1, #13
 8081aae:	d004      	beq.n	8081aba <_ZNK19CellularHelperClass20appendBufferToStringER6StringPKcib+0x36>
 8081ab0:	290a      	cmp	r1, #10
 8081ab2:	d002      	beq.n	8081aba <_ZNK19CellularHelperClass20appendBufferToStringER6StringPKcib+0x36>
			str.concat(buf[ii]);
 8081ab4:	4620      	mov	r0, r4
 8081ab6:	f000 fc55 	bl	8082364 <_ZN6String6concatEc>
	for(int ii = 0; ii < len; ii++) {
 8081aba:	3501      	adds	r5, #1
 8081abc:	e7f0      	b.n	8081aa0 <_ZNK19CellularHelperClass20appendBufferToStringER6StringPKcib+0x1c>
}
 8081abe:	e8bd 81f0 	ldmia.w	sp!, {r4, r5, r6, r7, r8, pc}
	...

08081ac4 <_ZN32CellularHelperPlusStringResponse5parseEiPKci>:
int CellularHelperPlusStringResponse::parse(int type, const char *buf, int len) {
 8081ac4:	b5f0      	push	{r4, r5, r6, r7, lr}
	if (enableDebug) {
 8081ac6:	f890 c008 	ldrb.w	ip, [r0, #8]
int CellularHelperPlusStringResponse::parse(int type, const char *buf, int len) {
 8081aca:	4606      	mov	r6, r0
 8081acc:	460d      	mov	r5, r1
 8081ace:	4617      	mov	r7, r2
 8081ad0:	461c      	mov	r4, r3
 8081ad2:	b08b      	sub	sp, #44	; 0x2c
	if (enableDebug) {
 8081ad4:	f1bc 0f00 	cmp.w	ip, #0
 8081ad8:	d001      	beq.n	8081ade <_ZN32CellularHelperPlusStringResponse5parseEiPKci+0x1a>
		logCellularDebug(type, buf, len);
 8081ada:	f7ff feb3 	bl	8081844 <_ZNK28CellularHelperCommonResponse16logCellularDebugEiPKci>
	if (type == TYPE_PLUS) {
 8081ade:	f5b5 0f80 	cmp.w	r5, #4194304	; 0x400000
 8081ae2:	d12a      	bne.n	8081b3a <_ZN32CellularHelperPlusStringResponse5parseEiPKci+0x76>
		char *copy = (char *) malloc(len + 1);
 8081ae4:	1c60      	adds	r0, r4, #1
 8081ae6:	f000 fa67 	bl	8081fb8 <malloc>
		if (copy) {
 8081aea:	4605      	mov	r5, r0
 8081aec:	b328      	cbz	r0, 8081b3a <_ZN32CellularHelperPlusStringResponse5parseEiPKci+0x76>
			strncpy(copy, buf, len);
 8081aee:	4622      	mov	r2, r4
 8081af0:	4639      	mov	r1, r7
 8081af2:	f002 fc16 	bl	8084322 <strncpy>
			copy[len] = 0;
 8081af6:	2300      	movs	r3, #0
			snprintf(searchFor, sizeof(searchFor), "\n+%s: ", command.c_str());
 8081af8:	2120      	movs	r1, #32
			copy[len] = 0;
 8081afa:	552b      	strb	r3, [r5, r4]
			snprintf(searchFor, sizeof(searchFor), "\n+%s: ", command.c_str());
 8081afc:	4a11      	ldr	r2, [pc, #68]	; (8081b44 <_ZN32CellularHelperPlusStringResponse5parseEiPKci+0x80>)
 8081afe:	68f3      	ldr	r3, [r6, #12]
 8081b00:	a802      	add	r0, sp, #8
 8081b02:	f000 fa81 	bl	8082008 <snprintf>
			char *start = strstr(copy, searchFor);
 8081b06:	4628      	mov	r0, r5
 8081b08:	a902      	add	r1, sp, #8
 8081b0a:	f002 fc1d 	bl	8084348 <strstr>
			if (start) {
 8081b0e:	4604      	mov	r4, r0
 8081b10:	b180      	cbz	r0, 8081b34 <_ZN32CellularHelperPlusStringResponse5parseEiPKci+0x70>
				start += strlen(searchFor);
 8081b12:	a802      	add	r0, sp, #8
 8081b14:	f002 fbeb 	bl	80842ee <strlen>
 8081b18:	4404      	add	r4, r0
				char *end = strchr(start, '\r');
 8081b1a:	210d      	movs	r1, #13
 8081b1c:	4620      	mov	r0, r4
 8081b1e:	f002 fbab 	bl	8084278 <strchr>
				CellularHelper.appendBufferToString(string, start, end - start);
 8081b22:	2301      	movs	r3, #1
 8081b24:	4622      	mov	r2, r4
 8081b26:	9300      	str	r3, [sp, #0]
 8081b28:	f106 011c 	add.w	r1, r6, #28
 8081b2c:	1b03      	subs	r3, r0, r4
 8081b2e:	4806      	ldr	r0, [pc, #24]	; (8081b48 <_ZN32CellularHelperPlusStringResponse5parseEiPKci+0x84>)
 8081b30:	f7ff ffa8 	bl	8081a84 <_ZNK19CellularHelperClass20appendBufferToStringER6StringPKcib>
			free(copy);
 8081b34:	4628      	mov	r0, r5
 8081b36:	f000 fa47 	bl	8081fc8 <free>
}
 8081b3a:	f04f 30ff 	mov.w	r0, #4294967295
 8081b3e:	b00b      	add	sp, #44	; 0x2c
 8081b40:	bdf0      	pop	{r4, r5, r6, r7, pc}
 8081b42:	bf00      	nop
 8081b44:	0808645a 	.word	0x0808645a
 8081b48:	20000501 	.word	0x20000501

08081b4c <HAL_Pin_Mode>:

DYNALIB_BEGIN(hal_gpio)

DYNALIB_FN(0, hal_gpio, HAL_Pin_Map, Hal_Pin_Info*(void))
DYNALIB_FN(1, hal_gpio, HAL_Validate_Pin_Function, PinFunction(pin_t, PinFunction))
DYNALIB_FN(2, hal_gpio, HAL_Pin_Mode, void(pin_t, PinMode))
 8081b4c:	b508      	push	{r3, lr}
 8081b4e:	4b02      	ldr	r3, [pc, #8]	; (8081b58 <HAL_Pin_Mode+0xc>)
 8081b50:	681b      	ldr	r3, [r3, #0]
 8081b52:	689b      	ldr	r3, [r3, #8]
 8081b54:	9301      	str	r3, [sp, #4]
 8081b56:	bd08      	pop	{r3, pc}
 8081b58:	080401b0 	.word	0x080401b0

08081b5c <HAL_Get_Pin_Mode>:
DYNALIB_FN(3, hal_gpio, HAL_Get_Pin_Mode, PinMode(pin_t))
 8081b5c:	b508      	push	{r3, lr}
 8081b5e:	4b02      	ldr	r3, [pc, #8]	; (8081b68 <HAL_Get_Pin_Mode+0xc>)
 8081b60:	681b      	ldr	r3, [r3, #0]
 8081b62:	68db      	ldr	r3, [r3, #12]
 8081b64:	9301      	str	r3, [sp, #4]
 8081b66:	bd08      	pop	{r3, pc}
 8081b68:	080401b0 	.word	0x080401b0

08081b6c <HAL_GPIO_Write>:
DYNALIB_FN(4, hal_gpio, HAL_GPIO_Write, void(pin_t, uint8_t))
 8081b6c:	b508      	push	{r3, lr}
 8081b6e:	4b02      	ldr	r3, [pc, #8]	; (8081b78 <HAL_GPIO_Write+0xc>)
 8081b70:	681b      	ldr	r3, [r3, #0]
 8081b72:	691b      	ldr	r3, [r3, #16]
 8081b74:	9301      	str	r3, [sp, #4]
 8081b76:	bd08      	pop	{r3, pc}
 8081b78:	080401b0 	.word	0x080401b0

08081b7c <HAL_RNG_GetRandomNumber>:

DYNALIB_BEGIN(hal)

#if PLATFORM_ID > 3
DYNALIB_FN(0, hal, HAL_RNG_Configuration, void(void))
DYNALIB_FN(1, hal, HAL_RNG_GetRandomNumber, uint32_t(void))
 8081b7c:	b508      	push	{r3, lr}
 8081b7e:	4b02      	ldr	r3, [pc, #8]	; (8081b88 <HAL_RNG_GetRandomNumber+0xc>)
 8081b80:	681b      	ldr	r3, [r3, #0]
 8081b82:	685b      	ldr	r3, [r3, #4]
 8081b84:	9301      	str	r3, [sp, #4]
 8081b86:	bd08      	pop	{r3, pc}
 8081b88:	0804019c 	.word	0x0804019c

08081b8c <HAL_Timer_Get_Milli_Seconds>:
#endif

DYNALIB_FN(BASE_IDX + 0, hal, HAL_Delay_Milliseconds, void(uint32_t))
DYNALIB_FN(BASE_IDX + 1, hal, HAL_Delay_Microseconds, void(uint32_t))
DYNALIB_FN(BASE_IDX + 2, hal, HAL_Timer_Get_Micro_Seconds, system_tick_t(void))
DYNALIB_FN(BASE_IDX + 3, hal, HAL_Timer_Get_Milli_Seconds, system_tick_t(void))
 8081b8c:	b508      	push	{r3, lr}
 8081b8e:	4b02      	ldr	r3, [pc, #8]	; (8081b98 <HAL_Timer_Get_Milli_Seconds+0xc>)
 8081b90:	681b      	ldr	r3, [r3, #0]
 8081b92:	695b      	ldr	r3, [r3, #20]
 8081b94:	9301      	str	r3, [sp, #4]
 8081b96:	bd08      	pop	{r3, pc}
 8081b98:	0804019c 	.word	0x0804019c

08081b9c <hal_rtc_time_is_valid>:
DYNALIB_FN(BASE_IDX + 15, hal, HAL_EEPROM_Get, void(uint32_t, void *, size_t))
DYNALIB_FN(BASE_IDX + 16, hal, HAL_EEPROM_Put, void(uint32_t, const void *, size_t))
DYNALIB_FN(BASE_IDX + 17, hal, HAL_EEPROM_Clear, void(void))
DYNALIB_FN(BASE_IDX + 18, hal, HAL_EEPROM_Has_Pending_Erase, bool(void))
DYNALIB_FN(BASE_IDX + 19, hal, HAL_EEPROM_Perform_Pending_Erase, void(void))
DYNALIB_FN(BASE_IDX + 20, hal, hal_rtc_time_is_valid, bool(void*))
 8081b9c:	b508      	push	{r3, lr}
 8081b9e:	4b02      	ldr	r3, [pc, #8]	; (8081ba8 <hal_rtc_time_is_valid+0xc>)
 8081ba0:	681b      	ldr	r3, [r3, #0]
 8081ba2:	6d9b      	ldr	r3, [r3, #88]	; 0x58
 8081ba4:	9301      	str	r3, [sp, #4]
 8081ba6:	bd08      	pop	{r3, pc}
 8081ba8:	0804019c 	.word	0x0804019c

08081bac <hal_rtc_get_time>:

DYNALIB_FN(BASE_IDX + 21, hal, hal_timer_millis, uint64_t(void*))
DYNALIB_FN(BASE_IDX + 22, hal, hal_timer_micros, uint64_t(void*))

DYNALIB_FN(BASE_IDX + 23, hal, hal_rtc_get_time, int(struct timeval*, void*))
 8081bac:	b508      	push	{r3, lr}
 8081bae:	4b02      	ldr	r3, [pc, #8]	; (8081bb8 <hal_rtc_get_time+0xc>)
 8081bb0:	681b      	ldr	r3, [r3, #0]
 8081bb2:	6e5b      	ldr	r3, [r3, #100]	; 0x64
 8081bb4:	9301      	str	r3, [sp, #4]
 8081bb6:	bd08      	pop	{r3, pc}
 8081bb8:	0804019c 	.word	0x0804019c

08081bbc <os_mutex_recursive_create>:
DYNALIB_FN(13, hal_concurrent, os_mutex_destroy, int(os_mutex_t))
DYNALIB_FN(14, hal_concurrent, os_mutex_lock, int(os_mutex_t))
DYNALIB_FN(15, hal_concurrent, os_mutex_trylock, int(os_mutex_t))
DYNALIB_FN(16, hal_concurrent, os_mutex_unlock, int(os_mutex_t))

DYNALIB_FN(17, hal_concurrent, os_mutex_recursive_create, int(os_mutex_recursive_t*))
 8081bbc:	b508      	push	{r3, lr}
 8081bbe:	4b02      	ldr	r3, [pc, #8]	; (8081bc8 <os_mutex_recursive_create+0xc>)
 8081bc0:	681b      	ldr	r3, [r3, #0]
 8081bc2:	6c5b      	ldr	r3, [r3, #68]	; 0x44
 8081bc4:	9301      	str	r3, [sp, #4]
 8081bc6:	bd08      	pop	{r3, pc}
 8081bc8:	080401d0 	.word	0x080401d0

08081bcc <os_mutex_recursive_destroy>:
DYNALIB_FN(18, hal_concurrent, os_mutex_recursive_destroy, int(os_mutex_recursive_t))
 8081bcc:	b508      	push	{r3, lr}
 8081bce:	4b02      	ldr	r3, [pc, #8]	; (8081bd8 <os_mutex_recursive_destroy+0xc>)
 8081bd0:	681b      	ldr	r3, [r3, #0]
 8081bd2:	6c9b      	ldr	r3, [r3, #72]	; 0x48
 8081bd4:	9301      	str	r3, [sp, #4]
 8081bd6:	bd08      	pop	{r3, pc}
 8081bd8:	080401d0 	.word	0x080401d0

08081bdc <hal_usart_init>:
#define BASE_IDX 6 // Base index for all subsequent functions
#else
#define BASE_IDX 0
#endif

DYNALIB_FN(BASE_IDX + 0, hal_usart, hal_usart_init, void(hal_usart_interface_t, hal_usart_ring_buffer_t*, hal_usart_ring_buffer_t*))
 8081bdc:	b508      	push	{r3, lr}
 8081bde:	4b02      	ldr	r3, [pc, #8]	; (8081be8 <hal_usart_init+0xc>)
 8081be0:	681b      	ldr	r3, [r3, #0]
 8081be2:	699b      	ldr	r3, [r3, #24]
 8081be4:	9301      	str	r3, [sp, #4]
 8081be6:	bd08      	pop	{r3, pc}
 8081be8:	080401c4 	.word	0x080401c4

08081bec <hal_usart_write>:
DYNALIB_FN(BASE_IDX + 1, hal_usart, hal_usart_begin, void(hal_usart_interface_t, uint32_t))
DYNALIB_FN(BASE_IDX + 2, hal_usart, hal_usart_end, void(hal_usart_interface_t))
DYNALIB_FN(BASE_IDX + 3, hal_usart, hal_usart_write, uint32_t(hal_usart_interface_t, uint8_t))
 8081bec:	b508      	push	{r3, lr}
 8081bee:	4b02      	ldr	r3, [pc, #8]	; (8081bf8 <hal_usart_write+0xc>)
 8081bf0:	681b      	ldr	r3, [r3, #0]
 8081bf2:	6a5b      	ldr	r3, [r3, #36]	; 0x24
 8081bf4:	9301      	str	r3, [sp, #4]
 8081bf6:	bd08      	pop	{r3, pc}
 8081bf8:	080401c4 	.word	0x080401c4

08081bfc <hal_usart_available>:
DYNALIB_FN(BASE_IDX + 4, hal_usart, hal_usart_available, int32_t(hal_usart_interface_t))
 8081bfc:	b508      	push	{r3, lr}
 8081bfe:	4b02      	ldr	r3, [pc, #8]	; (8081c08 <hal_usart_available+0xc>)
 8081c00:	681b      	ldr	r3, [r3, #0]
 8081c02:	6a9b      	ldr	r3, [r3, #40]	; 0x28
 8081c04:	9301      	str	r3, [sp, #4]
 8081c06:	bd08      	pop	{r3, pc}
 8081c08:	080401c4 	.word	0x080401c4

08081c0c <hal_usart_read>:
DYNALIB_FN(BASE_IDX + 5, hal_usart, hal_usart_read, int32_t(hal_usart_interface_t))
 8081c0c:	b508      	push	{r3, lr}
 8081c0e:	4b02      	ldr	r3, [pc, #8]	; (8081c18 <hal_usart_read+0xc>)
 8081c10:	681b      	ldr	r3, [r3, #0]
 8081c12:	6adb      	ldr	r3, [r3, #44]	; 0x2c
 8081c14:	9301      	str	r3, [sp, #4]
 8081c16:	bd08      	pop	{r3, pc}
 8081c18:	080401c4 	.word	0x080401c4

08081c1c <hal_usart_peek>:
DYNALIB_FN(BASE_IDX + 6, hal_usart, hal_usart_peek, int32_t(hal_usart_interface_t))
 8081c1c:	b508      	push	{r3, lr}
 8081c1e:	4b02      	ldr	r3, [pc, #8]	; (8081c28 <hal_usart_peek+0xc>)
 8081c20:	681b      	ldr	r3, [r3, #0]
 8081c22:	6b1b      	ldr	r3, [r3, #48]	; 0x30
 8081c24:	9301      	str	r3, [sp, #4]
 8081c26:	bd08      	pop	{r3, pc}
 8081c28:	080401c4 	.word	0x080401c4

08081c2c <hal_usart_flush>:
DYNALIB_FN(BASE_IDX + 7, hal_usart, hal_usart_flush, void(hal_usart_interface_t))
 8081c2c:	b508      	push	{r3, lr}
 8081c2e:	4b02      	ldr	r3, [pc, #8]	; (8081c38 <hal_usart_flush+0xc>)
 8081c30:	681b      	ldr	r3, [r3, #0]
 8081c32:	6b5b      	ldr	r3, [r3, #52]	; 0x34
 8081c34:	9301      	str	r3, [sp, #4]
 8081c36:	bd08      	pop	{r3, pc}
 8081c38:	080401c4 	.word	0x080401c4

08081c3c <hal_usart_is_enabled>:
DYNALIB_FN(BASE_IDX + 8, hal_usart, hal_usart_is_enabled, bool(hal_usart_interface_t))
 8081c3c:	b508      	push	{r3, lr}
 8081c3e:	4b02      	ldr	r3, [pc, #8]	; (8081c48 <hal_usart_is_enabled+0xc>)
 8081c40:	681b      	ldr	r3, [r3, #0]
 8081c42:	6b9b      	ldr	r3, [r3, #56]	; 0x38
 8081c44:	9301      	str	r3, [sp, #4]
 8081c46:	bd08      	pop	{r3, pc}
 8081c48:	080401c4 	.word	0x080401c4

08081c4c <hal_usart_available_data_for_write>:
DYNALIB_FN(BASE_IDX + 9, hal_usart, hal_usart_half_duplex, void(hal_usart_interface_t, bool))
DYNALIB_FN(BASE_IDX + 10, hal_usart, hal_usart_available_data_for_write, int32_t(hal_usart_interface_t))
 8081c4c:	b508      	push	{r3, lr}
 8081c4e:	4b02      	ldr	r3, [pc, #8]	; (8081c58 <hal_usart_available_data_for_write+0xc>)
 8081c50:	681b      	ldr	r3, [r3, #0]
 8081c52:	6c1b      	ldr	r3, [r3, #64]	; 0x40
 8081c54:	9301      	str	r3, [sp, #4]
 8081c56:	bd08      	pop	{r3, pc}
 8081c58:	080401c4 	.word	0x080401c4

08081c5c <hal_i2c_begin>:
#endif

DYNALIB_FN(BASE_IDX + 0, hal_i2c, hal_i2c_set_speed, void(hal_i2c_interface_t, uint32_t, void*))
DYNALIB_FN(BASE_IDX + 1, hal_i2c, hal_i2c_enable_dma_mode, void(hal_i2c_interface_t, bool, void*))
DYNALIB_FN(BASE_IDX + 2, hal_i2c, hal_i2c_stretch_clock, void(hal_i2c_interface_t, bool, void*))
DYNALIB_FN(BASE_IDX + 3, hal_i2c, hal_i2c_begin, void(hal_i2c_interface_t, hal_i2c_mode_t, uint8_t, void*))
 8081c5c:	b508      	push	{r3, lr}
 8081c5e:	4b02      	ldr	r3, [pc, #8]	; (8081c68 <hal_i2c_begin+0xc>)
 8081c60:	681b      	ldr	r3, [r3, #0]
 8081c62:	68db      	ldr	r3, [r3, #12]
 8081c64:	9301      	str	r3, [sp, #4]
 8081c66:	bd08      	pop	{r3, pc}
 8081c68:	080401ac 	.word	0x080401ac

08081c6c <hal_i2c_begin_transmission>:
DYNALIB_FN(BASE_IDX + 4, hal_i2c, hal_i2c_end, void(hal_i2c_interface_t, void*))
DYNALIB_FN(BASE_IDX + 5, hal_i2c, hal_i2c_request, uint32_t(hal_i2c_interface_t, uint8_t, uint8_t, uint8_t, void*))
DYNALIB_FN(BASE_IDX + 6, hal_i2c, hal_i2c_begin_transmission, void(hal_i2c_interface_t, uint8_t, const hal_i2c_transmission_config_t*))
 8081c6c:	b508      	push	{r3, lr}
 8081c6e:	4b02      	ldr	r3, [pc, #8]	; (8081c78 <hal_i2c_begin_transmission+0xc>)
 8081c70:	681b      	ldr	r3, [r3, #0]
 8081c72:	699b      	ldr	r3, [r3, #24]
 8081c74:	9301      	str	r3, [sp, #4]
 8081c76:	bd08      	pop	{r3, pc}
 8081c78:	080401ac 	.word	0x080401ac

08081c7c <hal_i2c_end_transmission>:
DYNALIB_FN(BASE_IDX + 7, hal_i2c, hal_i2c_end_transmission, uint8_t(hal_i2c_interface_t, uint8_t, void*))
 8081c7c:	b508      	push	{r3, lr}
 8081c7e:	4b02      	ldr	r3, [pc, #8]	; (8081c88 <hal_i2c_end_transmission+0xc>)
 8081c80:	681b      	ldr	r3, [r3, #0]
 8081c82:	69db      	ldr	r3, [r3, #28]
 8081c84:	9301      	str	r3, [sp, #4]
 8081c86:	bd08      	pop	{r3, pc}
 8081c88:	080401ac 	.word	0x080401ac

08081c8c <hal_i2c_write>:
DYNALIB_FN(BASE_IDX + 8, hal_i2c, hal_i2c_write, uint32_t(hal_i2c_interface_t, uint8_t, void*))
 8081c8c:	b508      	push	{r3, lr}
 8081c8e:	4b02      	ldr	r3, [pc, #8]	; (8081c98 <hal_i2c_write+0xc>)
 8081c90:	681b      	ldr	r3, [r3, #0]
 8081c92:	6a1b      	ldr	r3, [r3, #32]
 8081c94:	9301      	str	r3, [sp, #4]
 8081c96:	bd08      	pop	{r3, pc}
 8081c98:	080401ac 	.word	0x080401ac

08081c9c <hal_i2c_available>:
DYNALIB_FN(BASE_IDX + 9, hal_i2c, hal_i2c_available, int32_t(hal_i2c_interface_t, void*))
 8081c9c:	b508      	push	{r3, lr}
 8081c9e:	4b02      	ldr	r3, [pc, #8]	; (8081ca8 <hal_i2c_available+0xc>)
 8081ca0:	681b      	ldr	r3, [r3, #0]
 8081ca2:	6a5b      	ldr	r3, [r3, #36]	; 0x24
 8081ca4:	9301      	str	r3, [sp, #4]
 8081ca6:	bd08      	pop	{r3, pc}
 8081ca8:	080401ac 	.word	0x080401ac

08081cac <hal_i2c_read>:
DYNALIB_FN(BASE_IDX + 10, hal_i2c, hal_i2c_read, int32_t(hal_i2c_interface_t, void*))
 8081cac:	b508      	push	{r3, lr}
 8081cae:	4b02      	ldr	r3, [pc, #8]	; (8081cb8 <hal_i2c_read+0xc>)
 8081cb0:	681b      	ldr	r3, [r3, #0]
 8081cb2:	6a9b      	ldr	r3, [r3, #40]	; 0x28
 8081cb4:	9301      	str	r3, [sp, #4]
 8081cb6:	bd08      	pop	{r3, pc}
 8081cb8:	080401ac 	.word	0x080401ac

08081cbc <hal_i2c_peek>:
DYNALIB_FN(BASE_IDX + 11, hal_i2c, hal_i2c_peek, int32_t(hal_i2c_interface_t, void*))
 8081cbc:	b508      	push	{r3, lr}
 8081cbe:	4b02      	ldr	r3, [pc, #8]	; (8081cc8 <hal_i2c_peek+0xc>)
 8081cc0:	681b      	ldr	r3, [r3, #0]
 8081cc2:	6adb      	ldr	r3, [r3, #44]	; 0x2c
 8081cc4:	9301      	str	r3, [sp, #4]
 8081cc6:	bd08      	pop	{r3, pc}
 8081cc8:	080401ac 	.word	0x080401ac

08081ccc <hal_i2c_flush>:
DYNALIB_FN(BASE_IDX + 12, hal_i2c, hal_i2c_flush, void(hal_i2c_interface_t, void*))
 8081ccc:	b508      	push	{r3, lr}
 8081cce:	4b02      	ldr	r3, [pc, #8]	; (8081cd8 <hal_i2c_flush+0xc>)
 8081cd0:	681b      	ldr	r3, [r3, #0]
 8081cd2:	6b1b      	ldr	r3, [r3, #48]	; 0x30
 8081cd4:	9301      	str	r3, [sp, #4]
 8081cd6:	bd08      	pop	{r3, pc}
 8081cd8:	080401ac 	.word	0x080401ac

08081cdc <hal_i2c_is_enabled>:
DYNALIB_FN(BASE_IDX + 13, hal_i2c, hal_i2c_is_enabled, bool(hal_i2c_interface_t, void*))
 8081cdc:	b508      	push	{r3, lr}
 8081cde:	4b02      	ldr	r3, [pc, #8]	; (8081ce8 <hal_i2c_is_enabled+0xc>)
 8081ce0:	681b      	ldr	r3, [r3, #0]
 8081ce2:	6b5b      	ldr	r3, [r3, #52]	; 0x34
 8081ce4:	9301      	str	r3, [sp, #4]
 8081ce6:	bd08      	pop	{r3, pc}
 8081ce8:	080401ac 	.word	0x080401ac

08081cec <hal_i2c_init>:
DYNALIB_FN(BASE_IDX + 14, hal_i2c, hal_i2c_set_callback_on_received, void(hal_i2c_interface_t, void(*)(int), void*))
DYNALIB_FN(BASE_IDX + 15, hal_i2c, hal_i2c_set_callback_on_requested, void(hal_i2c_interface_t, void(*)(void), void*))
DYNALIB_FN(BASE_IDX + 16, hal_i2c, hal_i2c_init, int(hal_i2c_interface_t, const hal_i2c_config_t*))
 8081cec:	b508      	push	{r3, lr}
 8081cee:	4b02      	ldr	r3, [pc, #8]	; (8081cf8 <hal_i2c_init+0xc>)
 8081cf0:	681b      	ldr	r3, [r3, #0]
 8081cf2:	6c1b      	ldr	r3, [r3, #64]	; 0x40
 8081cf4:	9301      	str	r3, [sp, #4]
 8081cf6:	bd08      	pop	{r3, pc}
 8081cf8:	080401ac 	.word	0x080401ac

08081cfc <hal_i2c_request_ex>:
DYNALIB_FN(BASE_IDX + 17, hal_i2c, hal_i2c_reset, uint8_t(hal_i2c_interface_t, uint32_t, void*))
DYNALIB_FN(BASE_IDX + 18, hal_i2c, hal_i2c_lock, int32_t(hal_i2c_interface_t, void*))
DYNALIB_FN(BASE_IDX + 19, hal_i2c, hal_i2c_unlock, int32_t(hal_i2c_interface_t, void*))
DYNALIB_FN(BASE_IDX + 20, hal_i2c, hal_i2c_request_ex, int32_t(hal_i2c_interface_t, const hal_i2c_transmission_config_t*, void*))
 8081cfc:	b508      	push	{r3, lr}
 8081cfe:	4b02      	ldr	r3, [pc, #8]	; (8081d08 <hal_i2c_request_ex+0xc>)
 8081d00:	681b      	ldr	r3, [r3, #0]
 8081d02:	6d1b      	ldr	r3, [r3, #80]	; 0x50
 8081d04:	9301      	str	r3, [sp, #4]
 8081d06:	bd08      	pop	{r3, pc}
 8081d08:	080401ac 	.word	0x080401ac

08081d0c <hal_spi_init>:
DYNALIB_FN(2, hal_spi, hal_spi_set_bit_order, void(hal_spi_interface_t, uint8_t))
DYNALIB_FN(3, hal_spi, hal_spi_set_data_mode, void(hal_spi_interface_t, uint8_t))
DYNALIB_FN(4, hal_spi, hal_spi_set_clock_divider, void(hal_spi_interface_t, uint8_t))
DYNALIB_FN(5, hal_spi, hal_spi_transfer, uint16_t(hal_spi_interface_t, uint16_t))
DYNALIB_FN(6, hal_spi, hal_spi_is_enabled_deprecated, bool(void))
DYNALIB_FN(7, hal_spi, hal_spi_init, void(hal_spi_interface_t))
 8081d0c:	b508      	push	{r3, lr}
 8081d0e:	4b02      	ldr	r3, [pc, #8]	; (8081d18 <hal_spi_init+0xc>)
 8081d10:	681b      	ldr	r3, [r3, #0]
 8081d12:	69db      	ldr	r3, [r3, #28]
 8081d14:	9301      	str	r3, [sp, #4]
 8081d16:	bd08      	pop	{r3, pc}
 8081d18:	080401b4 	.word	0x080401b4

08081d1c <hal_spi_is_enabled>:
DYNALIB_FN(8, hal_spi, hal_spi_is_enabled, bool(hal_spi_interface_t))
 8081d1c:	b508      	push	{r3, lr}
 8081d1e:	4b02      	ldr	r3, [pc, #8]	; (8081d28 <hal_spi_is_enabled+0xc>)
 8081d20:	681b      	ldr	r3, [r3, #0]
 8081d22:	6a1b      	ldr	r3, [r3, #32]
 8081d24:	9301      	str	r3, [sp, #4]
 8081d26:	bd08      	pop	{r3, pc}
 8081d28:	080401b4 	.word	0x080401b4

08081d2c <cellular_credentials_set>:
DYNALIB_FN(5, hal_cellular, cellular_pdp_deactivate, cellular_result_t(void*))
DYNALIB_FN(6, hal_cellular, cellular_gprs_attach, cellular_result_t(CellularCredentials*, void*))
DYNALIB_FN(7, hal_cellular, cellular_gprs_detach, cellular_result_t(void*))
DYNALIB_FN(8, hal_cellular, cellular_fetch_ipconfig, cellular_result_t(CellularConfig*, void*))
DYNALIB_FN(9, hal_cellular, cellular_device_info, cellular_result_t(CellularDevice*, void*))
DYNALIB_FN(10, hal_cellular, cellular_credentials_set, cellular_result_t(const char*, const char*, const char*, void*))
 8081d2c:	b508      	push	{r3, lr}
 8081d2e:	4b02      	ldr	r3, [pc, #8]	; (8081d38 <cellular_credentials_set+0xc>)
 8081d30:	681b      	ldr	r3, [r3, #0]
 8081d32:	6a9b      	ldr	r3, [r3, #40]	; 0x28
 8081d34:	9301      	str	r3, [sp, #4]
 8081d36:	bd08      	pop	{r3, pc}
 8081d38:	08060020 	.word	0x08060020

08081d3c <inet_gethostbyname>:
DYNALIB_FN(11, hal_cellular, cellular_credentials_get, CellularCredentials*(void*))
DYNALIB_FN(12, hal_cellular, cellular_sim_ready, bool(void*))
DYNALIB_FN(13, hal_cellular, cellular_cancel, void(bool, bool, void*))
DYNALIB_FN(14, hal_cellular, HAL_NET_SetNetWatchDog, uint32_t(uint32_t))
DYNALIB_FN(15, hal_cellular, inet_gethostbyname, int(const char*, uint16_t, HAL_IPAddress*, network_interface_t, void*))
 8081d3c:	b508      	push	{r3, lr}
 8081d3e:	4b02      	ldr	r3, [pc, #8]	; (8081d48 <inet_gethostbyname+0xc>)
 8081d40:	681b      	ldr	r3, [r3, #0]
 8081d42:	6bdb      	ldr	r3, [r3, #60]	; 0x3c
 8081d44:	9301      	str	r3, [sp, #4]
 8081d46:	bd08      	pop	{r3, pc}
 8081d48:	08060020 	.word	0x08060020

08081d4c <cellular_command>:
DYNALIB_FN(16, hal_cellular, inet_ping, int(const HAL_IPAddress*, network_interface_t, uint8_t, void*))
DYNALIB_FN(17, hal_cellular, cellular_signal, cellular_result_t(CellularSignalHal*, cellular_signal_t*))
DYNALIB_FN(18, hal_cellular, cellular_command, cellular_result_t(_CALLBACKPTR_MDM, void*, system_tick_t, const char*, ...))
 8081d4c:	b508      	push	{r3, lr}
 8081d4e:	4b02      	ldr	r3, [pc, #8]	; (8081d58 <cellular_command+0xc>)
 8081d50:	681b      	ldr	r3, [r3, #0]
 8081d52:	6c9b      	ldr	r3, [r3, #72]	; 0x48
 8081d54:	9301      	str	r3, [sp, #4]
 8081d56:	bd08      	pop	{r3, pc}
 8081d58:	08060020 	.word	0x08060020

08081d5c <HAL_USB_USART_Init>:
#endif

DYNALIB_BEGIN(hal_usb)

#ifdef USB_CDC_ENABLE
DYNALIB_FN(0, hal_usb, HAL_USB_USART_Init, void(HAL_USB_USART_Serial, const HAL_USB_USART_Config*))
 8081d5c:	b508      	push	{r3, lr}
 8081d5e:	4b02      	ldr	r3, [pc, #8]	; (8081d68 <HAL_USB_USART_Init+0xc>)
 8081d60:	681b      	ldr	r3, [r3, #0]
 8081d62:	681b      	ldr	r3, [r3, #0]
 8081d64:	9301      	str	r3, [sp, #4]
 8081d66:	bd08      	pop	{r3, pc}
 8081d68:	0806001c 	.word	0x0806001c

08081d6c <HAL_USB_USART_Available_Data>:
DYNALIB_FN(1, hal_usb, HAL_USB_USART_Begin, void(HAL_USB_USART_Serial, uint32_t, void *))
DYNALIB_FN(2, hal_usb, HAL_USB_USART_End, void(HAL_USB_USART_Serial))
DYNALIB_FN(3, hal_usb, HAL_USB_USART_Baud_Rate, unsigned int(HAL_USB_USART_Serial))
DYNALIB_FN(4, hal_usb, HAL_USB_USART_Available_Data, int32_t(HAL_USB_USART_Serial))
 8081d6c:	b508      	push	{r3, lr}
 8081d6e:	4b02      	ldr	r3, [pc, #8]	; (8081d78 <HAL_USB_USART_Available_Data+0xc>)
 8081d70:	681b      	ldr	r3, [r3, #0]
 8081d72:	691b      	ldr	r3, [r3, #16]
 8081d74:	9301      	str	r3, [sp, #4]
 8081d76:	bd08      	pop	{r3, pc}
 8081d78:	0806001c 	.word	0x0806001c

08081d7c <HAL_USB_USART_Available_Data_For_Write>:
DYNALIB_FN(5, hal_usb, HAL_USB_USART_Available_Data_For_Write, int32_t(HAL_USB_USART_Serial))
 8081d7c:	b508      	push	{r3, lr}
 8081d7e:	4b02      	ldr	r3, [pc, #8]	; (8081d88 <HAL_USB_USART_Available_Data_For_Write+0xc>)
 8081d80:	681b      	ldr	r3, [r3, #0]
 8081d82:	695b      	ldr	r3, [r3, #20]
 8081d84:	9301      	str	r3, [sp, #4]
 8081d86:	bd08      	pop	{r3, pc}
 8081d88:	0806001c 	.word	0x0806001c

08081d8c <HAL_USB_USART_Receive_Data>:
DYNALIB_FN(6, hal_usb, HAL_USB_USART_Receive_Data, int32_t(HAL_USB_USART_Serial, uint8_t))
 8081d8c:	b508      	push	{r3, lr}
 8081d8e:	4b02      	ldr	r3, [pc, #8]	; (8081d98 <HAL_USB_USART_Receive_Data+0xc>)
 8081d90:	681b      	ldr	r3, [r3, #0]
 8081d92:	699b      	ldr	r3, [r3, #24]
 8081d94:	9301      	str	r3, [sp, #4]
 8081d96:	bd08      	pop	{r3, pc}
 8081d98:	0806001c 	.word	0x0806001c

08081d9c <HAL_USB_USART_Send_Data>:
DYNALIB_FN(7, hal_usb, HAL_USB_USART_Send_Data, int32_t(HAL_USB_USART_Serial, uint8_t))
 8081d9c:	b508      	push	{r3, lr}
 8081d9e:	4b02      	ldr	r3, [pc, #8]	; (8081da8 <HAL_USB_USART_Send_Data+0xc>)
 8081da0:	681b      	ldr	r3, [r3, #0]
 8081da2:	69db      	ldr	r3, [r3, #28]
 8081da4:	9301      	str	r3, [sp, #4]
 8081da6:	bd08      	pop	{r3, pc}
 8081da8:	0806001c 	.word	0x0806001c

08081dac <HAL_USB_USART_Flush_Data>:
DYNALIB_FN(8, hal_usb, HAL_USB_USART_Flush_Data, void(HAL_USB_USART_Serial))
 8081dac:	b508      	push	{r3, lr}
 8081dae:	4b02      	ldr	r3, [pc, #8]	; (8081db8 <HAL_USB_USART_Flush_Data+0xc>)
 8081db0:	681b      	ldr	r3, [r3, #0]
 8081db2:	6a1b      	ldr	r3, [r3, #32]
 8081db4:	9301      	str	r3, [sp, #4]
 8081db6:	bd08      	pop	{r3, pc}
 8081db8:	0806001c 	.word	0x0806001c

08081dbc <log_message_v>:
DYNALIB_FN(17, services, LED_RGB_SetChangeHandler, void(led_update_handler_fn, void*))
DYNALIB_FN(18, services, log_print_direct_, void(int, void*, const char*, ...)) // Deprecated
DYNALIB_FN(19, services, LED_GetColor, uint32_t(uint32_t, void*))

DYNALIB_FN(20, services, log_message, void(int, const char*, LogAttributes*, void*, const char*, ...))
DYNALIB_FN(21, services, log_message_v, void(int, const char*, LogAttributes*, void*, const char*, va_list))
 8081dbc:	b508      	push	{r3, lr}
 8081dbe:	4b02      	ldr	r3, [pc, #8]	; (8081dc8 <log_message_v+0xc>)
 8081dc0:	681b      	ldr	r3, [r3, #0]
 8081dc2:	6d5b      	ldr	r3, [r3, #84]	; 0x54
 8081dc4:	9301      	str	r3, [sp, #4]
 8081dc6:	bd08      	pop	{r3, pc}
 8081dc8:	080201a0 	.word	0x080201a0

08081dcc <system_mode>:
#include "system_power.h"
#endif

DYNALIB_BEGIN(system)

DYNALIB_FN(0, system, system_mode, System_Mode_TypeDef(void))
 8081dcc:	b508      	push	{r3, lr}
 8081dce:	4b02      	ldr	r3, [pc, #8]	; (8081dd8 <system_mode+0xc>)
 8081dd0:	681b      	ldr	r3, [r3, #0]
 8081dd2:	681b      	ldr	r3, [r3, #0]
 8081dd4:	9301      	str	r3, [sp, #4]
 8081dd6:	bd08      	pop	{r3, pc}
 8081dd8:	080401a4 	.word	0x080401a4

08081ddc <set_system_mode>:
DYNALIB_FN(1, system, set_system_mode, void(System_Mode_TypeDef))
 8081ddc:	b508      	push	{r3, lr}
 8081dde:	4b02      	ldr	r3, [pc, #8]	; (8081de8 <set_system_mode+0xc>)
 8081de0:	681b      	ldr	r3, [r3, #0]
 8081de2:	685b      	ldr	r3, [r3, #4]
 8081de4:	9301      	str	r3, [sp, #4]
 8081de6:	bd08      	pop	{r3, pc}
 8081de8:	080401a4 	.word	0x080401a4

08081dec <system_delay_ms>:

DYNALIB_FN(2, system, set_ymodem_serial_flash_update_handler, void(ymodem_serial_flash_update_handler))
DYNALIB_FN(3, system, system_firmwareUpdate, bool(Stream*, void*))
DYNALIB_FN(4, system, system_fileTransfer, bool(system_file_transfer_t*, void*))

DYNALIB_FN(5, system, system_delay_ms, void(unsigned long, bool))
 8081dec:	b508      	push	{r3, lr}
 8081dee:	4b02      	ldr	r3, [pc, #8]	; (8081df8 <system_delay_ms+0xc>)
 8081df0:	681b      	ldr	r3, [r3, #0]
 8081df2:	695b      	ldr	r3, [r3, #20]
 8081df4:	9301      	str	r3, [sp, #4]
 8081df6:	bd08      	pop	{r3, pc}
 8081df8:	080401a4 	.word	0x080401a4

08081dfc <application_thread_current>:
DYNALIB_FN(15, system, system_get_flag, int(system_flag_t, uint8_t*, void*))
DYNALIB_FN(16, system, Spark_Prepare_For_Firmware_Update, int(FileTransfer::Descriptor&, uint32_t, void*))
DYNALIB_FN(17, system, Spark_Save_Firmware_Chunk, int(FileTransfer::Descriptor&, const uint8_t*, void*))
DYNALIB_FN(18, system, Spark_Finish_Firmware_Update, int(FileTransfer::Descriptor&, uint32_t, void*))

DYNALIB_FN(19, system, application_thread_current, uint8_t(void*))
 8081dfc:	b508      	push	{r3, lr}
 8081dfe:	4b02      	ldr	r3, [pc, #8]	; (8081e08 <application_thread_current+0xc>)
 8081e00:	681b      	ldr	r3, [r3, #0]
 8081e02:	6cdb      	ldr	r3, [r3, #76]	; 0x4c
 8081e04:	9301      	str	r3, [sp, #4]
 8081e06:	bd08      	pop	{r3, pc}
 8081e08:	080401a4 	.word	0x080401a4

08081e0c <application_thread_invoke>:
DYNALIB_FN(20, system, system_thread_current, uint8_t(void*))
DYNALIB_FN(21, system, application_thread_invoke, uint8_t(void(*)(void*), void*, void*))
 8081e0c:	b508      	push	{r3, lr}
 8081e0e:	4b02      	ldr	r3, [pc, #8]	; (8081e18 <application_thread_invoke+0xc>)
 8081e10:	681b      	ldr	r3, [r3, #0]
 8081e12:	6d5b      	ldr	r3, [r3, #84]	; 0x54
 8081e14:	9301      	str	r3, [sp, #4]
 8081e16:	bd08      	pop	{r3, pc}
 8081e18:	080401a4 	.word	0x080401a4

08081e1c <system_thread_get_state>:
DYNALIB_FN(22, system, system_thread_get_state, spark::feature::State(void*))
 8081e1c:	b508      	push	{r3, lr}
 8081e1e:	4b02      	ldr	r3, [pc, #8]	; (8081e28 <system_thread_get_state+0xc>)
 8081e20:	681b      	ldr	r3, [r3, #0]
 8081e22:	6d9b      	ldr	r3, [r3, #88]	; 0x58
 8081e24:	9301      	str	r3, [sp, #4]
 8081e26:	bd08      	pop	{r3, pc}
 8081e28:	080401a4 	.word	0x080401a4

08081e2c <system_ctrl_set_app_request_handler>:
DYNALIB_FN(BASE_IDX + 6, system, led_pattern_period, uint16_t(int, int, void*))
DYNALIB_FN(BASE_IDX + 7, system, system_set_tester_handlers, int(system_tester_handlers_t*, void*))
DYNALIB_FN(BASE_IDX + 8, system, system_format_diag_data, int(const uint16_t*, size_t, unsigned, appender_fn, void*, void*))

// Control requests
DYNALIB_FN(BASE_IDX + 9, system, system_ctrl_set_app_request_handler, int(ctrl_request_handler_fn, void*))
 8081e2c:	b508      	push	{r3, lr}
 8081e2e:	4b03      	ldr	r3, [pc, #12]	; (8081e3c <system_ctrl_set_app_request_handler+0x10>)
 8081e30:	681b      	ldr	r3, [r3, #0]
 8081e32:	f8d3 3090 	ldr.w	r3, [r3, #144]	; 0x90
 8081e36:	9301      	str	r3, [sp, #4]
 8081e38:	bd08      	pop	{r3, pc}
 8081e3a:	0000      	.short	0x0000
 8081e3c:	080401a4 	.word	0x080401a4

08081e40 <system_ctrl_set_result>:
DYNALIB_FN(BASE_IDX + 10, system, system_ctrl_alloc_reply_data, int(ctrl_request*, size_t, void*))
DYNALIB_FN(BASE_IDX + 11, system, system_ctrl_free_request_data, void(ctrl_request*, void*))
DYNALIB_FN(BASE_IDX + 12, system, system_ctrl_set_result, void(ctrl_request*, int, ctrl_completion_handler_fn, void*, void*))
 8081e40:	b508      	push	{r3, lr}
 8081e42:	4b03      	ldr	r3, [pc, #12]	; (8081e50 <system_ctrl_set_result+0x10>)
 8081e44:	681b      	ldr	r3, [r3, #0]
 8081e46:	f8d3 309c 	ldr.w	r3, [r3, #156]	; 0x9c
 8081e4a:	9301      	str	r3, [sp, #4]
 8081e4c:	bd08      	pop	{r3, pc}
 8081e4e:	0000      	.short	0x0000
 8081e50:	080401a4 	.word	0x080401a4

08081e54 <system_reset>:
#else
#define BASE_IDX1 (BASE_IDX + 17)
#endif // HAL_PLATFORM_POWER_MANAGEMENT

DYNALIB_FN(BASE_IDX1 + 0, system, system_sleep_ext, int(const hal_sleep_config_t*, hal_wakeup_source_base_t**, void*))
DYNALIB_FN(BASE_IDX1 + 1, system, system_reset, int(unsigned, unsigned, unsigned, unsigned, void*))
 8081e54:	b508      	push	{r3, lr}
 8081e56:	4b03      	ldr	r3, [pc, #12]	; (8081e64 <system_reset+0x10>)
 8081e58:	681b      	ldr	r3, [r3, #0]
 8081e5a:	f8d3 30b8 	ldr.w	r3, [r3, #184]	; 0xb8
 8081e5e:	9301      	str	r3, [sp, #4]
 8081e60:	bd08      	pop	{r3, pc}
 8081e62:	0000      	.short	0x0000
 8081e64:	080401a4 	.word	0x080401a4

08081e68 <network_connect>:
#endif

DYNALIB_BEGIN(system_net)

DYNALIB_FN(0, system_net, network_config, const void*(network_handle_t, uint32_t, void*))
DYNALIB_FN(1, system_net, network_connect, void(network_handle_t, uint32_t, uint32_t, void*))
 8081e68:	b508      	push	{r3, lr}
 8081e6a:	4b02      	ldr	r3, [pc, #8]	; (8081e74 <network_connect+0xc>)
 8081e6c:	681b      	ldr	r3, [r3, #0]
 8081e6e:	685b      	ldr	r3, [r3, #4]
 8081e70:	9301      	str	r3, [sp, #4]
 8081e72:	bd08      	pop	{r3, pc}
 8081e74:	080401c8 	.word	0x080401c8

08081e78 <network_connecting>:
DYNALIB_FN(2, system_net, network_connecting, bool(network_handle_t, uint32_t, void*))
 8081e78:	b508      	push	{r3, lr}
 8081e7a:	4b02      	ldr	r3, [pc, #8]	; (8081e84 <network_connecting+0xc>)
 8081e7c:	681b      	ldr	r3, [r3, #0]
 8081e7e:	689b      	ldr	r3, [r3, #8]
 8081e80:	9301      	str	r3, [sp, #4]
 8081e82:	bd08      	pop	{r3, pc}
 8081e84:	080401c8 	.word	0x080401c8

08081e88 <network_disconnect>:
DYNALIB_FN(3, system_net, network_disconnect, void(network_handle_t, uint32_t, void*))
 8081e88:	b508      	push	{r3, lr}
 8081e8a:	4b02      	ldr	r3, [pc, #8]	; (8081e94 <network_disconnect+0xc>)
 8081e8c:	681b      	ldr	r3, [r3, #0]
 8081e8e:	68db      	ldr	r3, [r3, #12]
 8081e90:	9301      	str	r3, [sp, #4]
 8081e92:	bd08      	pop	{r3, pc}
 8081e94:	080401c8 	.word	0x080401c8

08081e98 <network_ready>:
DYNALIB_FN(4, system_net, network_ready, bool(network_handle_t, uint32_t, void*))
 8081e98:	b508      	push	{r3, lr}
 8081e9a:	4b02      	ldr	r3, [pc, #8]	; (8081ea4 <network_ready+0xc>)
 8081e9c:	681b      	ldr	r3, [r3, #0]
 8081e9e:	691b      	ldr	r3, [r3, #16]
 8081ea0:	9301      	str	r3, [sp, #4]
 8081ea2:	bd08      	pop	{r3, pc}
 8081ea4:	080401c8 	.word	0x080401c8

08081ea8 <network_on>:
DYNALIB_FN(5, system_net, network_on, void(network_handle_t, uint32_t, uint32_t, void*))
 8081ea8:	b508      	push	{r3, lr}
 8081eaa:	4b02      	ldr	r3, [pc, #8]	; (8081eb4 <network_on+0xc>)
 8081eac:	681b      	ldr	r3, [r3, #0]
 8081eae:	695b      	ldr	r3, [r3, #20]
 8081eb0:	9301      	str	r3, [sp, #4]
 8081eb2:	bd08      	pop	{r3, pc}
 8081eb4:	080401c8 	.word	0x080401c8

08081eb8 <network_off>:
DYNALIB_FN(6, system_net, network_off, void(network_handle_t, uint32_t, uint32_t, void*))
 8081eb8:	b508      	push	{r3, lr}
 8081eba:	4b02      	ldr	r3, [pc, #8]	; (8081ec4 <network_off+0xc>)
 8081ebc:	681b      	ldr	r3, [r3, #0]
 8081ebe:	699b      	ldr	r3, [r3, #24]
 8081ec0:	9301      	str	r3, [sp, #4]
 8081ec2:	bd08      	pop	{r3, pc}
 8081ec4:	080401c8 	.word	0x080401c8

08081ec8 <network_listen>:
DYNALIB_FN(7, system_net, network_listen, void(network_handle_t, uint32_t, void*))
 8081ec8:	b508      	push	{r3, lr}
 8081eca:	4b02      	ldr	r3, [pc, #8]	; (8081ed4 <network_listen+0xc>)
 8081ecc:	681b      	ldr	r3, [r3, #0]
 8081ece:	69db      	ldr	r3, [r3, #28]
 8081ed0:	9301      	str	r3, [sp, #4]
 8081ed2:	bd08      	pop	{r3, pc}
 8081ed4:	080401c8 	.word	0x080401c8

08081ed8 <network_listening>:
DYNALIB_FN(8, system_net, network_listening, bool(network_handle_t, uint32_t, void*))
 8081ed8:	b508      	push	{r3, lr}
 8081eda:	4b02      	ldr	r3, [pc, #8]	; (8081ee4 <network_listening+0xc>)
 8081edc:	681b      	ldr	r3, [r3, #0]
 8081ede:	6a1b      	ldr	r3, [r3, #32]
 8081ee0:	9301      	str	r3, [sp, #4]
 8081ee2:	bd08      	pop	{r3, pc}
 8081ee4:	080401c8 	.word	0x080401c8

08081ee8 <network_set_listen_timeout>:
DYNALIB_FN(9, system_net, network_has_credentials, bool(network_handle_t, uint32_t, void*))
DYNALIB_FN(10, system_net, network_set_credentials, int(network_handle_t, uint32_t, NetworkCredentials*, void*))
DYNALIB_FN(11, system_net, network_clear_credentials, bool(network_handle_t, uint32_t, NetworkCredentials*, void*))
DYNALIB_FN(12, system_net, network_set_listen_timeout, void(network_handle_t, uint16_t, void*))
 8081ee8:	b508      	push	{r3, lr}
 8081eea:	4b02      	ldr	r3, [pc, #8]	; (8081ef4 <network_set_listen_timeout+0xc>)
 8081eec:	681b      	ldr	r3, [r3, #0]
 8081eee:	6b1b      	ldr	r3, [r3, #48]	; 0x30
 8081ef0:	9301      	str	r3, [sp, #4]
 8081ef2:	bd08      	pop	{r3, pc}
 8081ef4:	080401c8 	.word	0x080401c8

08081ef8 <network_get_listen_timeout>:
DYNALIB_FN(13, system_net, network_get_listen_timeout, uint16_t(network_handle_t, uint32_t, void*))
 8081ef8:	b508      	push	{r3, lr}
 8081efa:	4b02      	ldr	r3, [pc, #8]	; (8081f04 <network_get_listen_timeout+0xc>)
 8081efc:	681b      	ldr	r3, [r3, #0]
 8081efe:	6b5b      	ldr	r3, [r3, #52]	; 0x34
 8081f00:	9301      	str	r3, [sp, #4]
 8081f02:	bd08      	pop	{r3, pc}
 8081f04:	080401c8 	.word	0x080401c8

08081f08 <network_is_on>:
DYNALIB_FN(14, system_net, network_set_hostname, int(network_handle_t, uint32_t, const char*, void*))
DYNALIB_FN(15, system_net, network_get_hostname, int(network_handle_t, uint32_t, char*, size_t, void*))
DYNALIB_FN(16, system_net, network_is_on, bool(network_handle_t, void*))
 8081f08:	b508      	push	{r3, lr}
 8081f0a:	4b02      	ldr	r3, [pc, #8]	; (8081f14 <network_is_on+0xc>)
 8081f0c:	681b      	ldr	r3, [r3, #0]
 8081f0e:	6c1b      	ldr	r3, [r3, #64]	; 0x40
 8081f10:	9301      	str	r3, [sp, #4]
 8081f12:	bd08      	pop	{r3, pc}
 8081f14:	080401c8 	.word	0x080401c8

08081f18 <network_is_off>:
DYNALIB_FN(17, system_net, network_is_off, bool(network_handle_t, void*))
 8081f18:	b508      	push	{r3, lr}
 8081f1a:	4b02      	ldr	r3, [pc, #8]	; (8081f24 <network_is_off+0xc>)
 8081f1c:	681b      	ldr	r3, [r3, #0]
 8081f1e:	6c5b      	ldr	r3, [r3, #68]	; 0x44
 8081f20:	9301      	str	r3, [sp, #4]
 8081f22:	bd08      	pop	{r3, pc}
 8081f24:	080401c8 	.word	0x080401c8

08081f28 <spark_function>:


DYNALIB_BEGIN(system_cloud)

DYNALIB_FN(0, system_cloud, spark_variable, bool(const char*, const void*, Spark_Data_TypeDef, spark_variable_t*))
DYNALIB_FN(1, system_cloud, spark_function, bool(const char*, p_user_function_int_str_t, void*))
 8081f28:	b508      	push	{r3, lr}
 8081f2a:	4b02      	ldr	r3, [pc, #8]	; (8081f34 <spark_function+0xc>)
 8081f2c:	681b      	ldr	r3, [r3, #0]
 8081f2e:	685b      	ldr	r3, [r3, #4]
 8081f30:	9301      	str	r3, [sp, #4]
 8081f32:	bd08      	pop	{r3, pc}
 8081f34:	080401cc 	.word	0x080401cc

08081f38 <spark_process>:
DYNALIB_FN(2, system_cloud, spark_process, void(void))
 8081f38:	b508      	push	{r3, lr}
 8081f3a:	4b02      	ldr	r3, [pc, #8]	; (8081f44 <spark_process+0xc>)
 8081f3c:	681b      	ldr	r3, [r3, #0]
 8081f3e:	689b      	ldr	r3, [r3, #8]
 8081f40:	9301      	str	r3, [sp, #4]
 8081f42:	bd08      	pop	{r3, pc}
 8081f44:	080401cc 	.word	0x080401cc

08081f48 <spark_cloud_flag_connect>:
DYNALIB_FN(3, system_cloud, spark_cloud_flag_connect, void(void))
 8081f48:	b508      	push	{r3, lr}
 8081f4a:	4b02      	ldr	r3, [pc, #8]	; (8081f54 <spark_cloud_flag_connect+0xc>)
 8081f4c:	681b      	ldr	r3, [r3, #0]
 8081f4e:	68db      	ldr	r3, [r3, #12]
 8081f50:	9301      	str	r3, [sp, #4]
 8081f52:	bd08      	pop	{r3, pc}
 8081f54:	080401cc 	.word	0x080401cc

08081f58 <spark_cloud_flag_connected>:
DYNALIB_FN(4, system_cloud, spark_cloud_flag_disconnect, void(void))
DYNALIB_FN(5, system_cloud, spark_cloud_flag_connected, bool(void))
 8081f58:	b508      	push	{r3, lr}
 8081f5a:	4b02      	ldr	r3, [pc, #8]	; (8081f64 <spark_cloud_flag_connected+0xc>)
 8081f5c:	681b      	ldr	r3, [r3, #0]
 8081f5e:	695b      	ldr	r3, [r3, #20]
 8081f60:	9301      	str	r3, [sp, #4]
 8081f62:	bd08      	pop	{r3, pc}
 8081f64:	080401cc 	.word	0x080401cc

08081f68 <spark_send_event>:
DYNALIB_FN(6, system_cloud, system_cloud_protocol_instance, ProtocolFacade*(void))
DYNALIB_FN(7, system_cloud, spark_deviceID, String(void))
DYNALIB_FN(8, system_cloud, spark_send_event, bool(const char*, const char*, int, uint32_t, void*))
 8081f68:	b508      	push	{r3, lr}
 8081f6a:	4b02      	ldr	r3, [pc, #8]	; (8081f74 <spark_send_event+0xc>)
 8081f6c:	681b      	ldr	r3, [r3, #0]
 8081f6e:	6a1b      	ldr	r3, [r3, #32]
 8081f70:	9301      	str	r3, [sp, #4]
 8081f72:	bd08      	pop	{r3, pc}
 8081f74:	080401cc 	.word	0x080401cc

08081f78 <spark_subscribe>:
DYNALIB_FN(9, system_cloud, spark_subscribe, bool(const char*, EventHandler, void*, Spark_Subscription_Scope_TypeDef, const char*, void*))
 8081f78:	b508      	push	{r3, lr}
 8081f7a:	4b02      	ldr	r3, [pc, #8]	; (8081f84 <spark_subscribe+0xc>)
 8081f7c:	681b      	ldr	r3, [r3, #0]
 8081f7e:	6a5b      	ldr	r3, [r3, #36]	; 0x24
 8081f80:	9301      	str	r3, [sp, #4]
 8081f82:	bd08      	pop	{r3, pc}
 8081f84:	080401cc 	.word	0x080401cc

08081f88 <spark_sync_time_pending>:
DYNALIB_FN(10, system_cloud, spark_unsubscribe, void(void*))
DYNALIB_FN(11, system_cloud, spark_sync_time, bool(void*))
DYNALIB_FN(12, system_cloud, spark_sync_time_pending, bool(void*))
 8081f88:	b508      	push	{r3, lr}
 8081f8a:	4b02      	ldr	r3, [pc, #8]	; (8081f94 <spark_sync_time_pending+0xc>)
 8081f8c:	681b      	ldr	r3, [r3, #0]
 8081f8e:	6b1b      	ldr	r3, [r3, #48]	; 0x30
 8081f90:	9301      	str	r3, [sp, #4]
 8081f92:	bd08      	pop	{r3, pc}
 8081f94:	080401cc 	.word	0x080401cc

08081f98 <spark_set_connection_property>:
DYNALIB_FN(13, system_cloud, spark_sync_time_last, system_tick_t(time32_t*, time_t*))
DYNALIB_FN(14, system_cloud, spark_set_connection_property, int(unsigned, unsigned, const void*, void*))
 8081f98:	b508      	push	{r3, lr}
 8081f9a:	4b02      	ldr	r3, [pc, #8]	; (8081fa4 <spark_set_connection_property+0xc>)
 8081f9c:	681b      	ldr	r3, [r3, #0]
 8081f9e:	6b9b      	ldr	r3, [r3, #56]	; 0x38
 8081fa0:	9301      	str	r3, [sp, #4]
 8081fa2:	bd08      	pop	{r3, pc}
 8081fa4:	080401cc 	.word	0x080401cc

08081fa8 <spark_set_random_seed_from_cloud_handler>:
DYNALIB_FN(15, system_cloud, spark_set_random_seed_from_cloud_handler, int(void (*handler)(unsigned int), void*))
 8081fa8:	b508      	push	{r3, lr}
 8081faa:	4b02      	ldr	r3, [pc, #8]	; (8081fb4 <spark_set_random_seed_from_cloud_handler+0xc>)
 8081fac:	681b      	ldr	r3, [r3, #0]
 8081fae:	6bdb      	ldr	r3, [r3, #60]	; 0x3c
 8081fb0:	9301      	str	r3, [sp, #4]
 8081fb2:	bd08      	pop	{r3, pc}
 8081fb4:	080401cc 	.word	0x080401cc

08081fb8 <malloc>:
#include "hal_platform.h"
#endif // defined(DYNALIB_EXPORT) || (defined(DYNALIB_IMPORT) && !defined(RT_DYNALIB_NO_DEPENDENCY_BREAKING_IMPORTS))

DYNALIB_BEGIN(rt)

DYNALIB_FN(0, rt, malloc, void*(size_t))
 8081fb8:	b508      	push	{r3, lr}
 8081fba:	4b02      	ldr	r3, [pc, #8]	; (8081fc4 <malloc+0xc>)
 8081fbc:	681b      	ldr	r3, [r3, #0]
 8081fbe:	681b      	ldr	r3, [r3, #0]
 8081fc0:	9301      	str	r3, [sp, #4]
 8081fc2:	bd08      	pop	{r3, pc}
 8081fc4:	080401a0 	.word	0x080401a0

08081fc8 <free>:
DYNALIB_FN(1, rt, free, void(void*))
 8081fc8:	b508      	push	{r3, lr}
 8081fca:	4b02      	ldr	r3, [pc, #8]	; (8081fd4 <free+0xc>)
 8081fcc:	681b      	ldr	r3, [r3, #0]
 8081fce:	685b      	ldr	r3, [r3, #4]
 8081fd0:	9301      	str	r3, [sp, #4]
 8081fd2:	bd08      	pop	{r3, pc}
 8081fd4:	080401a0 	.word	0x080401a0

08081fd8 <realloc>:
DYNALIB_FN(2, rt, realloc, void*(void*, size_t))
 8081fd8:	b508      	push	{r3, lr}
 8081fda:	4b02      	ldr	r3, [pc, #8]	; (8081fe4 <realloc+0xc>)
 8081fdc:	681b      	ldr	r3, [r3, #0]
 8081fde:	689b      	ldr	r3, [r3, #8]
 8081fe0:	9301      	str	r3, [sp, #4]
 8081fe2:	bd08      	pop	{r3, pc}
 8081fe4:	080401a0 	.word	0x080401a0

08081fe8 <siprintf>:
DYNALIB_FN(3, rt, sprintf, int(char*, const char*, ...))
DYNALIB_FN(4, rt, siprintf, int(char*, const char*, ...))
 8081fe8:	b508      	push	{r3, lr}
 8081fea:	4b02      	ldr	r3, [pc, #8]	; (8081ff4 <siprintf+0xc>)
 8081fec:	681b      	ldr	r3, [r3, #0]
 8081fee:	691b      	ldr	r3, [r3, #16]
 8081ff0:	9301      	str	r3, [sp, #4]
 8081ff2:	bd08      	pop	{r3, pc}
 8081ff4:	080401a0 	.word	0x080401a0

08081ff8 <sscanf>:
DYNALIB_FN(5, rt, sscanf, int(const char*, const char*, ...))
 8081ff8:	b508      	push	{r3, lr}
 8081ffa:	4b02      	ldr	r3, [pc, #8]	; (8082004 <sscanf+0xc>)
 8081ffc:	681b      	ldr	r3, [r3, #0]
 8081ffe:	695b      	ldr	r3, [r3, #20]
 8082000:	9301      	str	r3, [sp, #4]
 8082002:	bd08      	pop	{r3, pc}
 8082004:	080401a0 	.word	0x080401a0

08082008 <snprintf>:
DYNALIB_FN(6, rt, siscanf, int(const char*, const char*, ...))
DYNALIB_FN(7, rt, snprintf, int(char*, size_t, const char*, ...))
 8082008:	b508      	push	{r3, lr}
 808200a:	4b02      	ldr	r3, [pc, #8]	; (8082014 <snprintf+0xc>)
 808200c:	681b      	ldr	r3, [r3, #0]
 808200e:	69db      	ldr	r3, [r3, #28]
 8082010:	9301      	str	r3, [sp, #4]
 8082012:	bd08      	pop	{r3, pc}
 8082014:	080401a0 	.word	0x080401a0

08082018 <vsnprintf>:
DYNALIB_FN(8, rt, sniprintf, int(char*, size_t, const char*, ...))
DYNALIB_FN(9, rt, vsnprintf, int(char*, size_t, const char*, va_list))
 8082018:	b508      	push	{r3, lr}
 808201a:	4b02      	ldr	r3, [pc, #8]	; (8082024 <vsnprintf+0xc>)
 808201c:	681b      	ldr	r3, [r3, #0]
 808201e:	6a5b      	ldr	r3, [r3, #36]	; 0x24
 8082020:	9301      	str	r3, [sp, #4]
 8082022:	bd08      	pop	{r3, pc}
 8082024:	080401a0 	.word	0x080401a0

08082028 <abort>:
DYNALIB_FN(10, rt, vsniprintf, int(char*, size_t, const char*, va_list))
DYNALIB_FN(11, rt, abort, void(void))
 8082028:	b508      	push	{r3, lr}
 808202a:	4b02      	ldr	r3, [pc, #8]	; (8082034 <abort+0xc>)
 808202c:	681b      	ldr	r3, [r3, #0]
 808202e:	6adb      	ldr	r3, [r3, #44]	; 0x2c
 8082030:	9301      	str	r3, [sp, #4]
 8082032:	bd08      	pop	{r3, pc}
 8082034:	080401a0 	.word	0x080401a0

08082038 <_malloc_r>:
DYNALIB_FN(12, rt, _malloc_r, void*(struct _reent*, size_t))
 8082038:	b508      	push	{r3, lr}
 808203a:	4b02      	ldr	r3, [pc, #8]	; (8082044 <_malloc_r+0xc>)
 808203c:	681b      	ldr	r3, [r3, #0]
 808203e:	6b1b      	ldr	r3, [r3, #48]	; 0x30
 8082040:	9301      	str	r3, [sp, #4]
 8082042:	bd08      	pop	{r3, pc}
 8082044:	080401a0 	.word	0x080401a0

08082048 <newlib_impure_ptr_callback>:
// RT is currently being imported into system-part1 from system-part2,
// which is the reverse direction.

#if defined(DYNALIB_EXPORT) || (defined(DYNALIB_IMPORT) && !defined(RT_DYNALIB_NO_DEPENDENCY_BREAKING_IMPORTS))
DYNALIB_FN(16, rt, __assert_func, void(const char*, int, const char*, const char*))
DYNALIB_FN(17, rt, newlib_impure_ptr_callback, void(void (*)(struct _reent*, size_t, uint32_t, void*), void*))
 8082048:	b508      	push	{r3, lr}
 808204a:	4b02      	ldr	r3, [pc, #8]	; (8082054 <newlib_impure_ptr_callback+0xc>)
 808204c:	681b      	ldr	r3, [r3, #0]
 808204e:	6c5b      	ldr	r3, [r3, #68]	; 0x44
 8082050:	9301      	str	r3, [sp, #4]
 8082052:	bd08      	pop	{r3, pc}
 8082054:	080401a0 	.word	0x080401a0

08082058 <_ZN8SPIClassC1E19hal_spi_interface_t>:
    }
    return particle::SPISettings(info->clock, info->bit_order, info->data_mode);
}
} // namespace

SPIClass::SPIClass(hal_spi_interface_t spi)
 8082058:	b570      	push	{r4, r5, r6, lr}
    /**
     * Creates a shared mutex.
     */
    RecursiveMutex(os_mutex_recursive_t handle) : handle_(handle) {}

    RecursiveMutex() : handle_(nullptr)
 808205a:	2600      	movs	r6, #0
 808205c:	4604      	mov	r4, r0
 808205e:	460d      	mov	r5, r1
 8082060:	f840 6f08 	str.w	r6, [r0, #8]!
    {
        os_mutex_recursive_create(&handle_);
 8082064:	f7ff fdaa 	bl	8081bbc <os_mutex_recursive_create>
{
    _spi = spi;
    hal_spi_init(_spi);
 8082068:	4628      	mov	r0, r5
    _spi = spi;
 808206a:	7025      	strb	r5, [r4, #0]
    hal_spi_init(_spi);
 808206c:	f7ff fe4e 	bl	8081d0c <hal_spi_init>
    _dividerReference = SPI_CLK_SYSTEM; // 0 indicates the system clock
}
 8082070:	4620      	mov	r0, r4
    _dividerReference = SPI_CLK_SYSTEM; // 0 indicates the system clock
 8082072:	6066      	str	r6, [r4, #4]
}
 8082074:	bd70      	pop	{r4, r5, r6, pc}

08082076 <_ZN17SystemSleepResult22freeWakeupSourceMemoryEv.isra.0>:
    operator SleepResult() {
        return toSleepResult();
    }

private:
    void freeWakeupSourceMemory() {
 8082076:	b510      	push	{r4, lr}
 8082078:	4604      	mov	r4, r0
        if (wakeupSource_) {
 808207a:	6800      	ldr	r0, [r0, #0]
 808207c:	b118      	cbz	r0, 8082086 <_ZN17SystemSleepResult22freeWakeupSourceMemoryEv.isra.0+0x10>
            free(wakeupSource_);
 808207e:	f7ff ffa3 	bl	8081fc8 <free>
            wakeupSource_ = nullptr;
 8082082:	2300      	movs	r3, #0
 8082084:	6023      	str	r3, [r4, #0]
        }
    }
 8082086:	bd10      	pop	{r4, pc}

08082088 <_ZN11SystemClassD1Ev>:
    system_error_t error_;
    SleepResult compatResult_;
};


class SystemClass {
 8082088:	b510      	push	{r4, lr}
 808208a:	4604      	mov	r4, r0
        freeWakeupSourceMemory();
 808208c:	f7ff fff3 	bl	8082076 <_ZN17SystemSleepResult22freeWakeupSourceMemoryEv.isra.0>
class SystemClass {
 8082090:	4620      	mov	r0, r4
 8082092:	bd10      	pop	{r4, pc}

08082094 <_ZN11SystemClass5resetEmN8particle5FlagsI19SystemResetFlagTypemEE>:
{
    reset(0, flags);
}

void SystemClass::reset(uint32_t data, SystemResetFlags flags)
{
 8082094:	b507      	push	{r0, r1, r2, lr}
 8082096:	460b      	mov	r3, r1
    system_reset(SYSTEM_RESET_MODE_NORMAL, RESET_REASON_USER, data, flags.value(), nullptr);
 8082098:	2100      	movs	r1, #0
{
 808209a:	4602      	mov	r2, r0
    system_reset(SYSTEM_RESET_MODE_NORMAL, RESET_REASON_USER, data, flags.value(), nullptr);
 808209c:	9100      	str	r1, [sp, #0]
 808209e:	2001      	movs	r0, #1
 80820a0:	218c      	movs	r1, #140	; 0x8c
 80820a2:	f7ff fed7 	bl	8081e54 <system_reset>
}
 80820a6:	b003      	add	sp, #12
 80820a8:	f85d fb04 	ldr.w	pc, [sp], #4

080820ac <_ZN11SystemClass5resetEN8particle5FlagsI19SystemResetFlagTypemEE>:
{
 80820ac:	4601      	mov	r1, r0
    reset(0, flags);
 80820ae:	2000      	movs	r0, #0
 80820b0:	f7ff bff0 	b.w	8082094 <_ZN11SystemClass5resetEmN8particle5FlagsI19SystemResetFlagTypemEE>

080820b4 <_ZN11SystemClass5resetEv>:
    reset(SystemResetFlags());
 80820b4:	2000      	movs	r0, #0
 80820b6:	f7ff bff9 	b.w	80820ac <_ZN11SystemClass5resetEN8particle5FlagsI19SystemResetFlagTypemEE>
	...

080820bc <_GLOBAL__sub_I_System>:
} // namespace particle

// particle::Flag<TagT, ValueT>
template<typename TagT, typename ValueT>
inline particle::Flag<TagT, ValueT>::Flag(ValueT val) :
        val_(val) {
 80820bc:	2202      	movs	r2, #2
              error_(SYSTEM_ERROR_NONE) {
 80820be:	2000      	movs	r0, #0
    return wokenUpByRtc();
}

system_error_t SleepResult::error() const {
    return err_;
 80820c0:	b510      	push	{r4, lr}
 80820c2:	4b08      	ldr	r3, [pc, #32]	; (80820e4 <_GLOBAL__sub_I_System+0x28>)
 80820c4:	4c08      	ldr	r4, [pc, #32]	; (80820e8 <_GLOBAL__sub_I_System+0x2c>)
 80820c6:	601a      	str	r2, [r3, #0]
    SleepResult() {}
 80820c8:	4b08      	ldr	r3, [pc, #32]	; (80820ec <_GLOBAL__sub_I_System+0x30>)
              error_(SYSTEM_ERROR_NONE) {
 80820ca:	6020      	str	r0, [r4, #0]
 80820cc:	80a0      	strh	r0, [r4, #4]
    SleepResult() {}
 80820ce:	71a0      	strb	r0, [r4, #6]
 80820d0:	60a3      	str	r3, [r4, #8]
public:

    SystemClass(System_Mode_TypeDef mode = DEFAULT) {
        set_system_mode(mode);
 80820d2:	f7ff fe83 	bl	8081ddc <set_system_mode>
SystemClass System;
 80820d6:	4620      	mov	r0, r4
 80820d8:	e8bd 4010 	ldmia.w	sp!, {r4, lr}
SystemClass System;
 80820dc:	4a04      	ldr	r2, [pc, #16]	; (80820f0 <_GLOBAL__sub_I_System+0x34>)
 80820de:	4905      	ldr	r1, [pc, #20]	; (80820f4 <_GLOBAL__sub_I_System+0x38>)
 80820e0:	f001 badc 	b.w	808369c <__aeabi_atexit>
 80820e4:	20000510 	.word	0x20000510
 80820e8:	20000504 	.word	0x20000504
 80820ec:	ffff0000 	.word	0xffff0000
 80820f0:	200001e8 	.word	0x200001e8
 80820f4:	08082089 	.word	0x08082089

080820f8 <_Z11str_reversePc>:

//------------------------------------------------------------------------------------------
#define BUFSIZE (sizeof(long) * 8 + 1)

//utility function used by ultoa()
__attribute__((weak)) void str_reverse(char* buffer){
 80820f8:	b510      	push	{r4, lr}
 80820fa:	4604      	mov	r4, r0
	char *i, *j;
	char c;
	i=buffer;
	j=buffer + strlen(buffer)-1;
 80820fc:	f002 f8f7 	bl	80842ee <strlen>
 8082100:	1e43      	subs	r3, r0, #1
 8082102:	4620      	mov	r0, r4
 8082104:	4423      	add	r3, r4
	while(i<j){
 8082106:	4283      	cmp	r3, r0
 8082108:	d906      	bls.n	8082118 <_Z11str_reversePc+0x20>
		c = *i;
 808210a:	7802      	ldrb	r2, [r0, #0]
		*i = *j;
 808210c:	7819      	ldrb	r1, [r3, #0]
 808210e:	f800 1b01 	strb.w	r1, [r0], #1
		*j = c;
 8082112:	f803 2901 	strb.w	r2, [r3], #-1
	while(i<j){
 8082116:	e7f6      	b.n	8082106 <_Z11str_reversePc+0xe>
		++i;
		--j;
	}
}
 8082118:	bd10      	pop	{r4, pc}

0808211a <ultoa>:
      memcpy(head, ++tail, i);
      return str;
}

//convert unsigned long to string
__attribute__((weak)) char* ultoa(unsigned long a, char* buffer, int radix, char pad){
 808211a:	b570      	push	{r4, r5, r6, lr}
 808211c:	460c      	mov	r4, r1
	if(radix<2 || radix>36){
 808211e:	1e91      	subs	r1, r2, #2
 8082120:	2922      	cmp	r1, #34	; 0x22
 8082122:	d822      	bhi.n	808216a <ultoa+0x50>
		return NULL;
	}
	char* ptr=buffer;
 8082124:	4625      	mov	r5, r4

	div_t result;
	while(a){
 8082126:	b168      	cbz	r0, 8082144 <ultoa+0x2a>
            /* toolchain bug??
            result = div(a, radix);
            */
            result.quot = a/radix;
 8082128:	fbb0 f6f2 	udiv	r6, r0, r2
            result.rem = a%radix;
 808212c:	fb02 0016 	mls	r0, r2, r6, r0
            *ptr = result.rem;
 8082130:	b2c1      	uxtb	r1, r0
            if(result.rem<10){
 8082132:	2809      	cmp	r0, #9
                *ptr += '0';
 8082134:	bf94      	ite	ls
 8082136:	3130      	addls	r1, #48	; 0x30
            }else{
                *ptr += 'a'-10;
 8082138:	3157      	addhi	r1, #87	; 0x57
 808213a:	b2c9      	uxtb	r1, r1
            }
            ++ptr;
            a = result.quot;
 808213c:	4630      	mov	r0, r6
 808213e:	f805 1b01 	strb.w	r1, [r5], #1
	while(a){
 8082142:	e7f0      	b.n	8082126 <ultoa+0xc>
 8082144:	462a      	mov	r2, r5
	}
        while (ptr < buffer+pad)
            *ptr++ = '0';
 8082146:	2130      	movs	r1, #48	; 0x30
        while (ptr < buffer+pad)
 8082148:	4423      	add	r3, r4
 808214a:	4293      	cmp	r3, r2
 808214c:	d902      	bls.n	8082154 <ultoa+0x3a>
            *ptr++ = '0';
 808214e:	f802 1b01 	strb.w	r1, [r2], #1
        while (ptr < buffer+pad)
 8082152:	e7fa      	b.n	808214a <ultoa+0x30>
 8082154:	1b5a      	subs	r2, r3, r5
 8082156:	42ab      	cmp	r3, r5
 8082158:	bf38      	it	cc
 808215a:	2200      	movcc	r2, #0

	*ptr = '\0';
 808215c:	2300      	movs	r3, #0
	str_reverse(buffer);
 808215e:	4620      	mov	r0, r4
	*ptr = '\0';
 8082160:	54ab      	strb	r3, [r5, r2]
	str_reverse(buffer);
 8082162:	f7ff ffc9 	bl	80820f8 <_Z11str_reversePc>
	return buffer;
 8082166:	4620      	mov	r0, r4
}
 8082168:	bd70      	pop	{r4, r5, r6, pc}
		return NULL;
 808216a:	2000      	movs	r0, #0
 808216c:	e7fc      	b.n	8082168 <ultoa+0x4e>

0808216e <itoa>:

__attribute__((weak)) char* itoa(int a, char* buffer, int radix){
 808216e:	b538      	push	{r3, r4, r5, lr}
	if(a<0){
 8082170:	1e03      	subs	r3, r0, #0
__attribute__((weak)) char* itoa(int a, char* buffer, int radix){
 8082172:	460c      	mov	r4, r1
 8082174:	4615      	mov	r5, r2
	if(a<0){
 8082176:	da0d      	bge.n	8082194 <itoa+0x26>
		*buffer = '-';
 8082178:	222d      	movs	r2, #45	; 0x2d
		unsigned v = a==INT_MIN ? ((unsigned)INT_MAX+1) : -a;
 808217a:	f1b3 4f00 	cmp.w	r3, #2147483648	; 0x80000000
 808217e:	bf0c      	ite	eq
 8082180:	4618      	moveq	r0, r3
 8082182:	4258      	negne	r0, r3
		ultoa((unsigned)v, buffer + 1, radix);
 8082184:	2301      	movs	r3, #1
		*buffer = '-';
 8082186:	700a      	strb	r2, [r1, #0]
		ultoa((unsigned)v, buffer + 1, radix);
 8082188:	462a      	mov	r2, r5
 808218a:	4419      	add	r1, r3
	}else{
		ultoa(a, buffer, radix);
 808218c:	f7ff ffc5 	bl	808211a <ultoa>
	}
	return buffer;
}
 8082190:	4620      	mov	r0, r4
 8082192:	bd38      	pop	{r3, r4, r5, pc}
		ultoa(a, buffer, radix);
 8082194:	2301      	movs	r3, #1
 8082196:	e7f9      	b.n	808218c <itoa+0x1e>

08082198 <_ZN6StringD1Ev>:
	init();
	char buf[33];
	dtoa(value, decimalPlaces, buf);
        *this = buf;
}
String::~String()
 8082198:	b510      	push	{r4, lr}
 808219a:	4604      	mov	r4, r0
{
	free(buffer);
 808219c:	6800      	ldr	r0, [r0, #0]
 808219e:	f7ff ff13 	bl	8081fc8 <free>
}
 80821a2:	4620      	mov	r0, r4
 80821a4:	bd10      	pop	{r4, pc}

080821a6 <_ZN6String10invalidateEv>:
	len = 0;
	flags = 0;
}

void String::invalidate(void)
{
 80821a6:	b510      	push	{r4, lr}
 80821a8:	4604      	mov	r4, r0
	if (buffer) free(buffer);
 80821aa:	6800      	ldr	r0, [r0, #0]
 80821ac:	b108      	cbz	r0, 80821b2 <_ZN6String10invalidateEv+0xc>
 80821ae:	f7ff ff0b 	bl	8081fc8 <free>
	buffer = NULL;
 80821b2:	2300      	movs	r3, #0
	capacity = len = 0;
 80821b4:	e9c4 3301 	strd	r3, r3, [r4, #4]
	buffer = NULL;
 80821b8:	6023      	str	r3, [r4, #0]
}
 80821ba:	bd10      	pop	{r4, pc}

080821bc <_ZN6String12changeBufferEj>:
	}
	return 0;
}

unsigned char String::changeBuffer(unsigned int maxStrLen)
{
 80821bc:	b538      	push	{r3, r4, r5, lr}
 80821be:	4604      	mov	r4, r0
 80821c0:	460d      	mov	r5, r1
	char *newbuffer = (char *)realloc(buffer, maxStrLen + 1);
 80821c2:	6800      	ldr	r0, [r0, #0]
 80821c4:	3101      	adds	r1, #1
 80821c6:	f7ff ff07 	bl	8081fd8 <realloc>
	if (newbuffer) {
 80821ca:	b110      	cbz	r0, 80821d2 <_ZN6String12changeBufferEj+0x16>
		buffer = newbuffer;
		capacity = maxStrLen;
 80821cc:	e9c4 0500 	strd	r0, r5, [r4]
		return 1;
 80821d0:	2001      	movs	r0, #1
	}
	return 0;
}
 80821d2:	bd38      	pop	{r3, r4, r5, pc}

080821d4 <_ZN6String7reserveEj>:
{
 80821d4:	b510      	push	{r4, lr}
	if (buffer && capacity >= size) return 1;
 80821d6:	6803      	ldr	r3, [r0, #0]
{
 80821d8:	4604      	mov	r4, r0
	if (buffer && capacity >= size) return 1;
 80821da:	b123      	cbz	r3, 80821e6 <_ZN6String7reserveEj+0x12>
 80821dc:	6843      	ldr	r3, [r0, #4]
 80821de:	428b      	cmp	r3, r1
 80821e0:	d301      	bcc.n	80821e6 <_ZN6String7reserveEj+0x12>
 80821e2:	2001      	movs	r0, #1
}
 80821e4:	bd10      	pop	{r4, pc}
	if (changeBuffer(size)) {
 80821e6:	4620      	mov	r0, r4
 80821e8:	f7ff ffe8 	bl	80821bc <_ZN6String12changeBufferEj>
 80821ec:	2800      	cmp	r0, #0
 80821ee:	d0f9      	beq.n	80821e4 <_ZN6String7reserveEj+0x10>
		if (len == 0) buffer[0] = 0;
 80821f0:	68a3      	ldr	r3, [r4, #8]
 80821f2:	2b00      	cmp	r3, #0
 80821f4:	d1f5      	bne.n	80821e2 <_ZN6String7reserveEj+0xe>
 80821f6:	6822      	ldr	r2, [r4, #0]
 80821f8:	7013      	strb	r3, [r2, #0]
 80821fa:	e7f2      	b.n	80821e2 <_ZN6String7reserveEj+0xe>

080821fc <_ZN6String4copyEPKcj>:
/*********************************************/
/*  Copy and Move                            */
/*********************************************/

String & String::copy(const char *cstr, unsigned int length)
{
 80821fc:	b570      	push	{r4, r5, r6, lr}
 80821fe:	460e      	mov	r6, r1
	if (!reserve(length)) {
 8082200:	4611      	mov	r1, r2
{
 8082202:	4604      	mov	r4, r0
 8082204:	4615      	mov	r5, r2
	if (!reserve(length)) {
 8082206:	f7ff ffe5 	bl	80821d4 <_ZN6String7reserveEj>
 808220a:	b920      	cbnz	r0, 8082216 <_ZN6String4copyEPKcj+0x1a>
		invalidate();
 808220c:	4620      	mov	r0, r4
 808220e:	f7ff ffca 	bl	80821a6 <_ZN6String10invalidateEv>
	}
	len = length;
	memcpy(buffer, cstr, length);
	buffer[len] = 0;
	return *this;
}
 8082212:	4620      	mov	r0, r4
 8082214:	bd70      	pop	{r4, r5, r6, pc}
	memcpy(buffer, cstr, length);
 8082216:	462a      	mov	r2, r5
 8082218:	4631      	mov	r1, r6
 808221a:	6820      	ldr	r0, [r4, #0]
	len = length;
 808221c:	60a5      	str	r5, [r4, #8]
	memcpy(buffer, cstr, length);
 808221e:	f001 fff1 	bl	8084204 <memcpy>
	buffer[len] = 0;
 8082222:	2100      	movs	r1, #0
 8082224:	6822      	ldr	r2, [r4, #0]
 8082226:	68a3      	ldr	r3, [r4, #8]
 8082228:	54d1      	strb	r1, [r2, r3]
	return *this;
 808222a:	e7f2      	b.n	8082212 <_ZN6String4copyEPKcj+0x16>

0808222c <_ZN6StringC1EPKc>:
String::String(const char *cstr)
 808222c:	b538      	push	{r3, r4, r5, lr}
	buffer = NULL;
 808222e:	2300      	movs	r3, #0
String::String(const char *cstr)
 8082230:	4604      	mov	r4, r0
	if (cstr) copy(cstr, strlen(cstr));
 8082232:	460d      	mov	r5, r1
	capacity = 0;
 8082234:	e9c0 3300 	strd	r3, r3, [r0]
	len = 0;
 8082238:	6083      	str	r3, [r0, #8]
	flags = 0;
 808223a:	7303      	strb	r3, [r0, #12]
	if (cstr) copy(cstr, strlen(cstr));
 808223c:	b139      	cbz	r1, 808224e <_ZN6StringC1EPKc+0x22>
 808223e:	4608      	mov	r0, r1
 8082240:	f002 f855 	bl	80842ee <strlen>
 8082244:	4629      	mov	r1, r5
 8082246:	4602      	mov	r2, r0
 8082248:	4620      	mov	r0, r4
 808224a:	f7ff ffd7 	bl	80821fc <_ZN6String4copyEPKcj>
}
 808224e:	4620      	mov	r0, r4
 8082250:	bd38      	pop	{r3, r4, r5, pc}

08082252 <_ZN6String4moveERS_>:
    return copy(reinterpret_cast<const char*>(pstr), length);
}

#ifdef __GXX_EXPERIMENTAL_CXX0X__
void String::move(String &rhs)
{
 8082252:	b538      	push	{r3, r4, r5, lr}
 8082254:	4605      	mov	r5, r0
	if (buffer) {
 8082256:	6800      	ldr	r0, [r0, #0]
{
 8082258:	460c      	mov	r4, r1
	if (buffer) {
 808225a:	b168      	cbz	r0, 8082278 <_ZN6String4moveERS_+0x26>
		if (capacity >= rhs.len) {
 808225c:	686a      	ldr	r2, [r5, #4]
 808225e:	688b      	ldr	r3, [r1, #8]
 8082260:	429a      	cmp	r2, r3
 8082262:	d307      	bcc.n	8082274 <_ZN6String4moveERS_+0x22>
			strcpy(buffer, rhs.buffer);
 8082264:	6809      	ldr	r1, [r1, #0]
 8082266:	f002 f81e 	bl	80842a6 <strcpy>
			len = rhs.len;
 808226a:	68a3      	ldr	r3, [r4, #8]
 808226c:	60ab      	str	r3, [r5, #8]
			rhs.len = 0;
 808226e:	2300      	movs	r3, #0
	buffer = rhs.buffer;
	capacity = rhs.capacity;
	len = rhs.len;
	rhs.buffer = NULL;
	rhs.capacity = 0;
	rhs.len = 0;
 8082270:	60a3      	str	r3, [r4, #8]
}
 8082272:	bd38      	pop	{r3, r4, r5, pc}
			free(buffer);
 8082274:	f7ff fea8 	bl	8081fc8 <free>
	buffer = rhs.buffer;
 8082278:	6823      	ldr	r3, [r4, #0]
 808227a:	602b      	str	r3, [r5, #0]
	capacity = rhs.capacity;
 808227c:	6863      	ldr	r3, [r4, #4]
 808227e:	606b      	str	r3, [r5, #4]
	len = rhs.len;
 8082280:	68a3      	ldr	r3, [r4, #8]
 8082282:	60ab      	str	r3, [r5, #8]
	rhs.buffer = NULL;
 8082284:	2300      	movs	r3, #0
	rhs.capacity = 0;
 8082286:	e9c4 3300 	strd	r3, r3, [r4]
 808228a:	e7f1      	b.n	8082270 <_ZN6String4moveERS_+0x1e>

0808228c <_ZN6StringaSERKS_>:
#endif

String & String::operator = (const String &rhs)
{
	if (this == &rhs) return *this;
 808228c:	4288      	cmp	r0, r1
{
 808228e:	b510      	push	{r4, lr}
 8082290:	460b      	mov	r3, r1
 8082292:	4604      	mov	r4, r0
	if (this == &rhs) return *this;
 8082294:	d004      	beq.n	80822a0 <_ZN6StringaSERKS_+0x14>

	if (rhs.buffer) copy(rhs.buffer, rhs.len);
 8082296:	6809      	ldr	r1, [r1, #0]
 8082298:	b121      	cbz	r1, 80822a4 <_ZN6StringaSERKS_+0x18>
 808229a:	689a      	ldr	r2, [r3, #8]
 808229c:	f7ff ffae 	bl	80821fc <_ZN6String4copyEPKcj>
	else invalidate();

	return *this;
}
 80822a0:	4620      	mov	r0, r4
 80822a2:	bd10      	pop	{r4, pc}
	else invalidate();
 80822a4:	f7ff ff7f 	bl	80821a6 <_ZN6String10invalidateEv>
 80822a8:	e7fa      	b.n	80822a0 <_ZN6StringaSERKS_+0x14>

080822aa <_ZN6StringC1ERKS_>:
	buffer = NULL;
 80822aa:	2300      	movs	r3, #0
String::String(const String &value)
 80822ac:	b510      	push	{r4, lr}
 80822ae:	4604      	mov	r4, r0
	capacity = 0;
 80822b0:	e9c0 3300 	strd	r3, r3, [r0]
	len = 0;
 80822b4:	6083      	str	r3, [r0, #8]
	flags = 0;
 80822b6:	7303      	strb	r3, [r0, #12]
	*this = value;
 80822b8:	f7ff ffe8 	bl	808228c <_ZN6StringaSERKS_>
}
 80822bc:	4620      	mov	r0, r4
 80822be:	bd10      	pop	{r4, pc}

080822c0 <_ZN6StringaSEOS_>:
}

#ifdef __GXX_EXPERIMENTAL_CXX0X__
String & String::operator = (String &&rval)
{
	if (this != &rval) move(rval);
 80822c0:	4288      	cmp	r0, r1
{
 80822c2:	b510      	push	{r4, lr}
 80822c4:	4604      	mov	r4, r0
	if (this != &rval) move(rval);
 80822c6:	d001      	beq.n	80822cc <_ZN6StringaSEOS_+0xc>
 80822c8:	f7ff ffc3 	bl	8082252 <_ZN6String4moveERS_>
	return *this;
}
 80822cc:	4620      	mov	r0, r4
 80822ce:	bd10      	pop	{r4, pc}

080822d0 <_ZN6StringaSEPKc>:
	return *this;
}
#endif

String & String::operator = (const char *cstr)
{
 80822d0:	b538      	push	{r3, r4, r5, lr}
 80822d2:	4605      	mov	r5, r0
	if (cstr) copy(cstr, strlen(cstr));
 80822d4:	460c      	mov	r4, r1
 80822d6:	b149      	cbz	r1, 80822ec <_ZN6StringaSEPKc+0x1c>
 80822d8:	4608      	mov	r0, r1
 80822da:	f002 f808 	bl	80842ee <strlen>
 80822de:	4621      	mov	r1, r4
 80822e0:	4602      	mov	r2, r0
 80822e2:	4628      	mov	r0, r5
 80822e4:	f7ff ff8a 	bl	80821fc <_ZN6String4copyEPKcj>
	else invalidate();

	return *this;
}
 80822e8:	4628      	mov	r0, r5
 80822ea:	bd38      	pop	{r3, r4, r5, pc}
	else invalidate();
 80822ec:	f7ff ff5b 	bl	80821a6 <_ZN6String10invalidateEv>
 80822f0:	e7fa      	b.n	80822e8 <_ZN6StringaSEPKc+0x18>

080822f2 <_ZN6StringC1Eih>:
String::String(int value, unsigned char base)
 80822f2:	b510      	push	{r4, lr}
	buffer = NULL;
 80822f4:	2300      	movs	r3, #0
String::String(int value, unsigned char base)
 80822f6:	4604      	mov	r4, r0
 80822f8:	b08a      	sub	sp, #40	; 0x28
	capacity = 0;
 80822fa:	e9c4 3300 	strd	r3, r3, [r4]
	len = 0;
 80822fe:	60a3      	str	r3, [r4, #8]
	flags = 0;
 8082300:	7323      	strb	r3, [r4, #12]
String::String(int value, unsigned char base)
 8082302:	4608      	mov	r0, r1
	itoa(value, buf, base);
 8082304:	a901      	add	r1, sp, #4
 8082306:	f7ff ff32 	bl	808216e <itoa>
	*this = buf;
 808230a:	4620      	mov	r0, r4
 808230c:	a901      	add	r1, sp, #4
 808230e:	f7ff ffdf 	bl	80822d0 <_ZN6StringaSEPKc>
}
 8082312:	4620      	mov	r0, r4
 8082314:	b00a      	add	sp, #40	; 0x28
 8082316:	bd10      	pop	{r4, pc}

08082318 <_ZN6String6concatEPKcj>:
{
	return concat(s.buffer, s.len);
}

unsigned char String::concat(const char *cstr, unsigned int length)
{
 8082318:	b570      	push	{r4, r5, r6, lr}
 808231a:	4605      	mov	r5, r0
	unsigned int newlen = len + length;
	if (!cstr) return 0;
 808231c:	460e      	mov	r6, r1
 808231e:	b909      	cbnz	r1, 8082324 <_ZN6String6concatEPKcj+0xc>
 8082320:	2000      	movs	r0, #0
	if (length == 0) return 1;
	if (!reserve(newlen)) return 0;
	strcpy(buffer + len, cstr);
	len = newlen;
	return 1;
}
 8082322:	bd70      	pop	{r4, r5, r6, pc}
	if (length == 0) return 1;
 8082324:	b16a      	cbz	r2, 8082342 <_ZN6String6concatEPKcj+0x2a>
	unsigned int newlen = len + length;
 8082326:	6884      	ldr	r4, [r0, #8]
 8082328:	4414      	add	r4, r2
	if (!reserve(newlen)) return 0;
 808232a:	4621      	mov	r1, r4
 808232c:	f7ff ff52 	bl	80821d4 <_ZN6String7reserveEj>
 8082330:	2800      	cmp	r0, #0
 8082332:	d0f5      	beq.n	8082320 <_ZN6String6concatEPKcj+0x8>
	strcpy(buffer + len, cstr);
 8082334:	6828      	ldr	r0, [r5, #0]
 8082336:	68ab      	ldr	r3, [r5, #8]
 8082338:	4631      	mov	r1, r6
 808233a:	4418      	add	r0, r3
 808233c:	f001 ffb3 	bl	80842a6 <strcpy>
	len = newlen;
 8082340:	60ac      	str	r4, [r5, #8]
	if (length == 0) return 1;
 8082342:	2001      	movs	r0, #1
 8082344:	e7ed      	b.n	8082322 <_ZN6String6concatEPKcj+0xa>

08082346 <_ZN6String6concatEPKc>:

unsigned char String::concat(const char *cstr)
{
 8082346:	b538      	push	{r3, r4, r5, lr}
 8082348:	4605      	mov	r5, r0
	if (!cstr) return 0;
 808234a:	460c      	mov	r4, r1
	return concat(cstr, strlen(cstr));
}
 808234c:	4608      	mov	r0, r1
	if (!cstr) return 0;
 808234e:	b141      	cbz	r1, 8082362 <_ZN6String6concatEPKc+0x1c>
	return concat(cstr, strlen(cstr));
 8082350:	f001 ffcd 	bl	80842ee <strlen>
 8082354:	4621      	mov	r1, r4
 8082356:	4602      	mov	r2, r0
 8082358:	4628      	mov	r0, r5
}
 808235a:	e8bd 4038 	ldmia.w	sp!, {r3, r4, r5, lr}
	return concat(cstr, strlen(cstr));
 808235e:	f7ff bfdb 	b.w	8082318 <_ZN6String6concatEPKcj>
}
 8082362:	bd38      	pop	{r3, r4, r5, pc}

08082364 <_ZN6String6concatEc>:

unsigned char String::concat(char c)
{
	char buf[2];
	buf[0] = c;
	buf[1] = 0;
 8082364:	2300      	movs	r3, #0
{
 8082366:	b507      	push	{r0, r1, r2, lr}
	return concat(buf, 1);
 8082368:	2201      	movs	r2, #1
	buf[0] = c;
 808236a:	f88d 1004 	strb.w	r1, [sp, #4]
	return concat(buf, 1);
 808236e:	a901      	add	r1, sp, #4
	buf[1] = 0;
 8082370:	f88d 3005 	strb.w	r3, [sp, #5]
	return concat(buf, 1);
 8082374:	f7ff ffd0 	bl	8082318 <_ZN6String6concatEPKcj>
}
 8082378:	b003      	add	sp, #12
 808237a:	f85d fb04 	ldr.w	pc, [sp], #4

0808237e <_ZplRK15StringSumHelperRK6String>:
/*********************************************/
/*  Concatenate                              */
/*********************************************/

StringSumHelper & operator + (const StringSumHelper &lhs, const String &rhs)
{
 808237e:	b510      	push	{r4, lr}
	StringSumHelper &a = const_cast<StringSumHelper&>(lhs);
	if (!a.concat(rhs.buffer, rhs.len)) a.invalidate();
 8082380:	688a      	ldr	r2, [r1, #8]
 8082382:	6809      	ldr	r1, [r1, #0]
{
 8082384:	4604      	mov	r4, r0
	if (!a.concat(rhs.buffer, rhs.len)) a.invalidate();
 8082386:	f7ff ffc7 	bl	8082318 <_ZN6String6concatEPKcj>
 808238a:	b910      	cbnz	r0, 8082392 <_ZplRK15StringSumHelperRK6String+0x14>
 808238c:	4620      	mov	r0, r4
 808238e:	f7ff ff0a 	bl	80821a6 <_ZN6String10invalidateEv>
	return a;
}
 8082392:	4620      	mov	r0, r4
 8082394:	bd10      	pop	{r4, pc}

08082396 <_ZplRK15StringSumHelperPKc>:

StringSumHelper & operator + (const StringSumHelper &lhs, const char *cstr)
{
 8082396:	b538      	push	{r3, r4, r5, lr}
 8082398:	4604      	mov	r4, r0
	StringSumHelper &a = const_cast<StringSumHelper&>(lhs);
	if (!cstr || !a.concat(cstr, strlen(cstr))) a.invalidate();
 808239a:	460d      	mov	r5, r1
 808239c:	b921      	cbnz	r1, 80823a8 <_ZplRK15StringSumHelperPKc+0x12>
 808239e:	4620      	mov	r0, r4
 80823a0:	f7ff ff01 	bl	80821a6 <_ZN6String10invalidateEv>
	return a;
}
 80823a4:	4620      	mov	r0, r4
 80823a6:	bd38      	pop	{r3, r4, r5, pc}
	if (!cstr || !a.concat(cstr, strlen(cstr))) a.invalidate();
 80823a8:	4608      	mov	r0, r1
 80823aa:	f001 ffa0 	bl	80842ee <strlen>
 80823ae:	4629      	mov	r1, r5
 80823b0:	4602      	mov	r2, r0
 80823b2:	4620      	mov	r0, r4
 80823b4:	f7ff ffb0 	bl	8082318 <_ZN6String6concatEPKcj>
 80823b8:	2800      	cmp	r0, #0
 80823ba:	d0f0      	beq.n	808239e <_ZplRK15StringSumHelperPKc+0x8>
 80823bc:	e7f2      	b.n	80823a4 <_ZplRK15StringSumHelperPKc+0xe>

080823be <_ZNK6String6equalsEPKc>:
{
	return (len == s2.len && compareTo(s2) == 0);
}

unsigned char String::equals(const char *cstr) const
{
 80823be:	b508      	push	{r3, lr}
	if (len == 0) return (cstr == NULL || *cstr == 0);
 80823c0:	6882      	ldr	r2, [r0, #8]
 80823c2:	b93a      	cbnz	r2, 80823d4 <_ZNK6String6equalsEPKc+0x16>
 80823c4:	b121      	cbz	r1, 80823d0 <_ZNK6String6equalsEPKc+0x12>
 80823c6:	7808      	ldrb	r0, [r1, #0]
	if (cstr == NULL) return buffer[0] == 0;
	return strcmp(buffer, cstr) == 0;
 80823c8:	fab0 f080 	clz	r0, r0
 80823cc:	0940      	lsrs	r0, r0, #5
 80823ce:	e000      	b.n	80823d2 <_ZNK6String6equalsEPKc+0x14>
	if (len == 0) return (cstr == NULL || *cstr == 0);
 80823d0:	2001      	movs	r0, #1
}
 80823d2:	bd08      	pop	{r3, pc}
	if (cstr == NULL) return buffer[0] == 0;
 80823d4:	6800      	ldr	r0, [r0, #0]
 80823d6:	b909      	cbnz	r1, 80823dc <_ZNK6String6equalsEPKc+0x1e>
 80823d8:	7800      	ldrb	r0, [r0, #0]
 80823da:	e7f5      	b.n	80823c8 <_ZNK6String6equalsEPKc+0xa>
	return strcmp(buffer, cstr) == 0;
 80823dc:	f001 ff59 	bl	8084292 <strcmp>
 80823e0:	e7f2      	b.n	80823c8 <_ZNK6String6equalsEPKc+0xa>
	...

080823e4 <_ZN6String6formatEPKcz>:
    StringPrintableHelper help(*this);
    printable.printTo(help);
}

String String::format(const char* fmt, ...)
{
 80823e4:	b40e      	push	{r1, r2, r3}
 80823e6:	b5ff      	push	{r0, r1, r2, r3, r4, r5, r6, r7, lr}
 80823e8:	ad09      	add	r5, sp, #36	; 0x24
 80823ea:	f855 7b04 	ldr.w	r7, [r5], #4
 80823ee:	4604      	mov	r4, r0
    va_list marker;
    va_start(marker, fmt);
    const int bufsize = 5;
    char test[bufsize];
    size_t n = vsnprintf(test, bufsize, fmt, marker);
 80823f0:	462b      	mov	r3, r5
 80823f2:	463a      	mov	r2, r7
 80823f4:	2105      	movs	r1, #5
 80823f6:	a802      	add	r0, sp, #8
    va_start(marker, fmt);
 80823f8:	9501      	str	r5, [sp, #4]
    size_t n = vsnprintf(test, bufsize, fmt, marker);
 80823fa:	f7ff fe0d 	bl	8082018 <vsnprintf>
 80823fe:	4606      	mov	r6, r0
    va_end(marker);

    String result;
 8082400:	490b      	ldr	r1, [pc, #44]	; (8082430 <_ZN6String6formatEPKcz+0x4c>)
 8082402:	4620      	mov	r0, r4
 8082404:	f7ff ff12 	bl	808222c <_ZN6StringC1EPKc>
    result.reserve(n);  // internally adds +1 for null terminator
 8082408:	4631      	mov	r1, r6
 808240a:	4620      	mov	r0, r4
 808240c:	f7ff fee2 	bl	80821d4 <_ZN6String7reserveEj>
    if (result.buffer) {
 8082410:	6820      	ldr	r0, [r4, #0]
 8082412:	b130      	cbz	r0, 8082422 <_ZN6String6formatEPKcz+0x3e>
        va_start(marker, fmt);
        n = vsnprintf(result.buffer, n+1, fmt, marker);
 8082414:	462b      	mov	r3, r5
 8082416:	463a      	mov	r2, r7
 8082418:	1c71      	adds	r1, r6, #1
        va_start(marker, fmt);
 808241a:	9501      	str	r5, [sp, #4]
        n = vsnprintf(result.buffer, n+1, fmt, marker);
 808241c:	f7ff fdfc 	bl	8082018 <vsnprintf>
        va_end(marker);
        result.len = n;
 8082420:	60a0      	str	r0, [r4, #8]
    }
    return result;
}
 8082422:	4620      	mov	r0, r4
 8082424:	b004      	add	sp, #16
 8082426:	e8bd 40f0 	ldmia.w	sp!, {r4, r5, r6, r7, lr}
 808242a:	b003      	add	sp, #12
 808242c:	4770      	bx	lr
 808242e:	bf00      	nop
 8082430:	08086459 	.word	0x08086459

08082434 <_ZN5Print5writeEPKhj>:

// Public Methods //////////////////////////////////////////////////////////////

/* default implementation: may be overridden */
size_t Print::write(const uint8_t *buffer, size_t size)
{
 8082434:	b5f8      	push	{r3, r4, r5, r6, r7, lr}
 8082436:	4606      	mov	r6, r0
 8082438:	460d      	mov	r5, r1
  size_t n = 0;
 808243a:	2400      	movs	r4, #0
 808243c:	188f      	adds	r7, r1, r2
  while (size--) {
 808243e:	42bd      	cmp	r5, r7
 8082440:	d00c      	beq.n	808245c <_ZN5Print5writeEPKhj+0x28>
     int chunk = write(*buffer++);
 8082442:	6833      	ldr	r3, [r6, #0]
 8082444:	4630      	mov	r0, r6
 8082446:	689b      	ldr	r3, [r3, #8]
 8082448:	f815 1b01 	ldrb.w	r1, [r5], #1
 808244c:	4798      	blx	r3
     if (chunk>=0)
 808244e:	1e03      	subs	r3, r0, #0
 8082450:	db01      	blt.n	8082456 <_ZN5Print5writeEPKhj+0x22>
         n += chunk;
 8082452:	441c      	add	r4, r3
  while (size--) {
 8082454:	e7f3      	b.n	808243e <_ZN5Print5writeEPKhj+0xa>
     int chunk = write(*buffer++);
 8082456:	2c00      	cmp	r4, #0
 8082458:	bf08      	it	eq
 808245a:	461c      	moveq	r4, r3
             n = chunk;
         break;
     }
  }
  return n;
}
 808245c:	4620      	mov	r0, r4
 808245e:	bdf8      	pop	{r3, r4, r5, r6, r7, pc}

08082460 <_ZN5Print5writeEPKc>:

    int getWriteError() { return write_error; }
    void clearWriteError() { setWriteError(0); }

    virtual size_t write(uint8_t) = 0;
    size_t write(const char *str) {
 8082460:	b570      	push	{r4, r5, r6, lr}
 8082462:	4605      	mov	r5, r0
      if (str == NULL) return 0;
 8082464:	460c      	mov	r4, r1
      return write((const uint8_t *)str, strlen(str));
    }
 8082466:	4608      	mov	r0, r1
      if (str == NULL) return 0;
 8082468:	b149      	cbz	r1, 808247e <_ZN5Print5writeEPKc+0x1e>
      return write((const uint8_t *)str, strlen(str));
 808246a:	f001 ff40 	bl	80842ee <strlen>
 808246e:	682b      	ldr	r3, [r5, #0]
 8082470:	4602      	mov	r2, r0
 8082472:	4621      	mov	r1, r4
 8082474:	4628      	mov	r0, r5
    }
 8082476:	e8bd 4070 	ldmia.w	sp!, {r4, r5, r6, lr}
      return write((const uint8_t *)str, strlen(str));
 808247a:	68db      	ldr	r3, [r3, #12]
 808247c:	4718      	bx	r3
    }
 808247e:	bd70      	pop	{r4, r5, r6, pc}

08082480 <_ZN5Print5printEc>:
  return write(str);
}

size_t Print::print(char c)
{
  return write(c);
 8082480:	6803      	ldr	r3, [r0, #0]
 8082482:	689b      	ldr	r3, [r3, #8]
 8082484:	4718      	bx	r3

08082486 <_ZN5Print7printlnEv>:
{
  return print(reinterpret_cast<const char*>(str));
}

size_t Print::println(void)
{
 8082486:	b538      	push	{r3, r4, r5, lr}
  size_t n = print('\r');
 8082488:	210d      	movs	r1, #13
{
 808248a:	4605      	mov	r5, r0
  size_t n = print('\r');
 808248c:	f7ff fff8 	bl	8082480 <_ZN5Print5printEc>
  n += print('\n');
 8082490:	210a      	movs	r1, #10
  size_t n = print('\r');
 8082492:	4604      	mov	r4, r0
  n += print('\n');
 8082494:	4628      	mov	r0, r5
 8082496:	f7ff fff3 	bl	8082480 <_ZN5Print5printEc>
  return n;
}
 808249a:	4420      	add	r0, r4
 808249c:	bd38      	pop	{r3, r4, r5, pc}

0808249e <_ZN5Print11printNumberEmh>:

size_t Print::printNumber(unsigned long n, uint8_t base) {
  char buf[8 * sizeof(n) + 1]; // Assumes 8-bit chars plus zero byte.
  char *str = &buf[sizeof(buf) - 1];

  *str = '\0';
 808249e:	2300      	movs	r3, #0

  // prevent crash if called with base == 1
  if (base < 2) base = 10;
 80824a0:	2a01      	cmp	r2, #1
 80824a2:	bf98      	it	ls
 80824a4:	220a      	movls	r2, #10
size_t Print::printNumber(unsigned long n, uint8_t base) {
 80824a6:	b530      	push	{r4, r5, lr}
 80824a8:	b08b      	sub	sp, #44	; 0x2c
 80824aa:	460c      	mov	r4, r1
  *str = '\0';
 80824ac:	f88d 3024 	strb.w	r3, [sp, #36]	; 0x24
  if (base < 2) base = 10;
 80824b0:	a909      	add	r1, sp, #36	; 0x24

  do {
   decltype(n) m = n;
   n /= base;
 80824b2:	4625      	mov	r5, r4
 80824b4:	fbb4 f4f2 	udiv	r4, r4, r2
   char c = m - base * n;
 80824b8:	fb04 5312 	mls	r3, r4, r2, r5
 80824bc:	b2db      	uxtb	r3, r3
   *--str = c < 10 ? c + '0' : c + 'A' - 10;
 80824be:	2b09      	cmp	r3, #9
 80824c0:	bf94      	ite	ls
 80824c2:	3330      	addls	r3, #48	; 0x30
 80824c4:	3337      	addhi	r3, #55	; 0x37
 80824c6:	b2db      	uxtb	r3, r3
  } while(n);
 80824c8:	42aa      	cmp	r2, r5
   *--str = c < 10 ? c + '0' : c + 'A' - 10;
 80824ca:	f801 3d01 	strb.w	r3, [r1, #-1]!
  } while(n);
 80824ce:	d9f0      	bls.n	80824b2 <_ZN5Print11printNumberEmh+0x14>

  return write(str);
 80824d0:	f7ff ffc6 	bl	8082460 <_ZN5Print5writeEPKc>
}
 80824d4:	b00b      	add	sp, #44	; 0x2c
 80824d6:	bd30      	pop	{r4, r5, pc}

080824d8 <_ZN5Print7vprintfEbPKcSt9__va_list>:

  return n;
}

size_t Print::vprintf(bool newline, const char* format, va_list args)
{
 80824d8:	e92d 41f0 	stmdb	sp!, {r4, r5, r6, r7, r8, lr}
 80824dc:	b086      	sub	sp, #24
 80824de:	af00      	add	r7, sp, #0
 80824e0:	4605      	mov	r5, r0
 80824e2:	460e      	mov	r6, r1
    const int bufsize = 20;
    char test[bufsize];
    va_list args2;
    va_copy(args2, args);
    size_t n = vsnprintf(test, bufsize, format, args);
 80824e4:	1d38      	adds	r0, r7, #4
 80824e6:	2114      	movs	r1, #20
{
 80824e8:	4614      	mov	r4, r2
    va_copy(args2, args);
 80824ea:	603b      	str	r3, [r7, #0]
    size_t n = vsnprintf(test, bufsize, format, args);
 80824ec:	f7ff fd94 	bl	8082018 <vsnprintf>

    if (n<bufsize)
 80824f0:	2813      	cmp	r0, #19
 80824f2:	d80e      	bhi.n	8082512 <_ZN5Print7vprintfEbPKcSt9__va_list+0x3a>
  return write(str);
 80824f4:	4628      	mov	r0, r5
 80824f6:	1d39      	adds	r1, r7, #4
 80824f8:	f7ff ffb2 	bl	8082460 <_ZN5Print5writeEPKc>
 80824fc:	4604      	mov	r4, r0
    {
        char bigger[n+1];
        n = vsnprintf(bigger, n+1, format, args2);
        n = print(bigger);
    }
    if (newline)
 80824fe:	b11e      	cbz	r6, 8082508 <_ZN5Print7vprintfEbPKcSt9__va_list+0x30>
        n += println();
 8082500:	4628      	mov	r0, r5
 8082502:	f7ff ffc0 	bl	8082486 <_ZN5Print7printlnEv>
 8082506:	4404      	add	r4, r0

    va_end(args2);
    return n;
}
 8082508:	4620      	mov	r0, r4
 808250a:	3718      	adds	r7, #24
 808250c:	46bd      	mov	sp, r7
 808250e:	e8bd 81f0 	ldmia.w	sp!, {r4, r5, r6, r7, r8, pc}
        char bigger[n+1];
 8082512:	f100 0308 	add.w	r3, r0, #8
 8082516:	f023 0307 	bic.w	r3, r3, #7
        n = print(bigger);
 808251a:	46e8      	mov	r8, sp
        char bigger[n+1];
 808251c:	ebad 0d03 	sub.w	sp, sp, r3
        n = vsnprintf(bigger, n+1, format, args2);
 8082520:	4622      	mov	r2, r4
 8082522:	1c41      	adds	r1, r0, #1
 8082524:	683b      	ldr	r3, [r7, #0]
 8082526:	4668      	mov	r0, sp
 8082528:	f7ff fd76 	bl	8082018 <vsnprintf>
  return write(str);
 808252c:	4669      	mov	r1, sp
 808252e:	4628      	mov	r0, r5
 8082530:	f7ff ff96 	bl	8082460 <_ZN5Print5writeEPKc>
 8082534:	4604      	mov	r4, r0
 8082536:	46c5      	mov	sp, r8
 8082538:	e7e1      	b.n	80824fe <_ZN5Print7vprintfEbPKcSt9__va_list+0x26>

0808253a <_ZNSt14__shared_countILN9__gnu_cxx12_Lock_policyE0EEC1ERKS2_>:
      : _M_pi(__r._M_pi)
 808253a:	680b      	ldr	r3, [r1, #0]
 808253c:	6003      	str	r3, [r0, #0]
	if (_M_pi != 0)
 808253e:	b113      	cbz	r3, 8082546 <_ZNSt14__shared_countILN9__gnu_cxx12_Lock_policyE0EEC1ERKS2_+0xc>
    { ++_M_use_count; }
 8082540:	685a      	ldr	r2, [r3, #4]
 8082542:	3201      	adds	r2, #1
 8082544:	605a      	str	r2, [r3, #4]
      }
 8082546:	4770      	bx	lr

08082548 <_GLOBAL__sub_I__ZN5spark3LogE>:
    // This handler doesn't support direct logging
}

// spark::Logger
inline spark::Logger::Logger(const char *name) :
        name_(name) {
 8082548:	4b01      	ldr	r3, [pc, #4]	; (8082550 <_GLOBAL__sub_I__ZN5spark3LogE+0x8>)
 808254a:	4a02      	ldr	r2, [pc, #8]	; (8082554 <_GLOBAL__sub_I__ZN5spark3LogE+0xc>)
 808254c:	601a      	str	r2, [r3, #0]
#if Wiring_LogConfig

// spark::
void spark::logProcessControlRequest(ctrl_request* req) {
    JSONRequestHandler::process(req);
}
 808254e:	4770      	bx	lr
 8082550:	20000514 	.word	0x20000514
 8082554:	0808647c 	.word	0x0808647c

08082558 <_ZN10CloudClass12syncTimeDoneEv.isra.0>:
    bool syncTimePending(void)
    {
        return connected() && spark_sync_time_pending(nullptr);
    }

    bool syncTimeDone(void)
 8082558:	b508      	push	{r3, lr}
    {
        return !spark_sync_time_pending(nullptr) || disconnected();
 808255a:	2000      	movs	r0, #0
 808255c:	f7ff fd14 	bl	8081f88 <spark_sync_time_pending>
 8082560:	b128      	cbz	r0, 808256e <_ZN10CloudClass12syncTimeDoneEv.isra.0+0x16>
    static void sleep(Spark_Sleep_TypeDef sleepMode, long seconds=0) __attribute__ ((deprecated("Please use System.sleep() instead.")))
    { SystemClass::sleep(sleepMode, seconds); }
    static void sleep(uint16_t wakeUpPin, InterruptMode edgeTriggerMode, long seconds=0) __attribute__ ((deprecated("Please use System.sleep() instead.")))
    { SystemClass::sleep(wakeUpPin, edgeTriggerMode, seconds); }

    static bool connected(void) { return spark_cloud_flag_connected(); }
 8082562:	f7ff fcf9 	bl	8081f58 <spark_cloud_flag_connected>
        return !spark_sync_time_pending(nullptr) || disconnected();
 8082566:	f080 0001 	eor.w	r0, r0, #1
 808256a:	b2c0      	uxtb	r0, r0
    }
 808256c:	bd08      	pop	{r3, pc}
        return !spark_sync_time_pending(nullptr) || disconnected();
 808256e:	2001      	movs	r0, #1
 8082570:	e7fc      	b.n	808256c <_ZN10CloudClass12syncTimeDoneEv.isra.0+0x14>
	...

08082574 <_ZN9TimeClass7timeStrEx>:
    }
}

/* return string representation for the given time */
String TimeClass::timeStr(time_t t)
{
 8082574:	b530      	push	{r4, r5, lr}
 8082576:	4604      	mov	r4, r0
    t += time_zone_cache;
 8082578:	4818      	ldr	r0, [pc, #96]	; (80825dc <_ZN9TimeClass7timeStrEx+0x68>)
{
 808257a:	b093      	sub	sp, #76	; 0x4c
    t += time_zone_cache;
 808257c:	e9d0 1000 	ldrd	r1, r0, [r0]
 8082580:	1852      	adds	r2, r2, r1
 8082582:	eb40 0303 	adc.w	r3, r0, r3
    t += dst_current_cache;
 8082586:	4816      	ldr	r0, [pc, #88]	; (80825e0 <_ZN9TimeClass7timeStrEx+0x6c>)
    struct tm calendar_time = {};
    localtime_r(&t, &calendar_time);
    char ascstr[26] = {};
 8082588:	2500      	movs	r5, #0
    t += dst_current_cache;
 808258a:	e9d0 1000 	ldrd	r1, r0, [r0]
 808258e:	1852      	adds	r2, r2, r1
 8082590:	eb40 0303 	adc.w	r3, r0, r3
 8082594:	e9cd 2300 	strd	r2, r3, [sp]
    struct tm calendar_time = {};
 8082598:	2224      	movs	r2, #36	; 0x24
 808259a:	2100      	movs	r1, #0
 808259c:	eb0d 0002 	add.w	r0, sp, r2
 80825a0:	f001 fe3e 	bl	8084220 <memset>
    localtime_r(&t, &calendar_time);
 80825a4:	a909      	add	r1, sp, #36	; 0x24
 80825a6:	4668      	mov	r0, sp
 80825a8:	f7fd fd3a 	bl	8080020 <localtime_r>
    char ascstr[26] = {};
 80825ac:	2216      	movs	r2, #22
 80825ae:	4629      	mov	r1, r5
 80825b0:	a803      	add	r0, sp, #12
 80825b2:	9502      	str	r5, [sp, #8]
 80825b4:	f001 fe34 	bl	8084220 <memset>
    asctime_r(&calendar_time, ascstr);
 80825b8:	a902      	add	r1, sp, #8
 80825ba:	a809      	add	r0, sp, #36	; 0x24
 80825bc:	f001 fdea 	bl	8084194 <asctime_r>
    int len = strlen(ascstr);
 80825c0:	a802      	add	r0, sp, #8
 80825c2:	f001 fe94 	bl	80842ee <strlen>
    ascstr[len-1] = 0; // remove final newline
 80825c6:	ab12      	add	r3, sp, #72	; 0x48
 80825c8:	4418      	add	r0, r3
 80825ca:	f800 5c41 	strb.w	r5, [r0, #-65]
    return String(ascstr);
 80825ce:	a902      	add	r1, sp, #8
 80825d0:	4620      	mov	r0, r4
 80825d2:	f7ff fe2b 	bl	808222c <_ZN6StringC1EPKc>
}
 80825d6:	4620      	mov	r0, r4
 80825d8:	b013      	add	sp, #76	; 0x4c
 80825da:	bd30      	pop	{r4, r5, pc}
 80825dc:	20000528 	.word	0x20000528
 80825e0:	20000520 	.word	0x20000520

080825e4 <_ZN9TimeClass14timeFormatImplEP2tmPKci>:
    localtime_r(&t, &calendar_time);
    return timeFormatImpl(&calendar_time, format_spec, time_zone_cache + dst_current_cache);
}

String TimeClass::timeFormatImpl(tm* calendar_time, const char* format, int time_zone)
{
 80825e4:	e92d 4ff0 	stmdb	sp!, {r4, r5, r6, r7, r8, r9, sl, fp, lr}
 80825e8:	b0a5      	sub	sp, #148	; 0x94
 80825ea:	4607      	mov	r7, r0
 80825ec:	4688      	mov	r8, r1
    char format_str[64];
    // only copy up to n-1 to dest if no null terminator found
    strncpy(format_str, format, sizeof(format_str) - 1); // Flawfinder: ignore (ch42318)
 80825ee:	a814      	add	r0, sp, #80	; 0x50
{
 80825f0:	4611      	mov	r1, r2
    strncpy(format_str, format, sizeof(format_str) - 1); // Flawfinder: ignore (ch42318)
 80825f2:	223f      	movs	r2, #63	; 0x3f
{
 80825f4:	461d      	mov	r5, r3
    strncpy(format_str, format, sizeof(format_str) - 1); // Flawfinder: ignore (ch42318)
 80825f6:	f001 fe94 	bl	8084322 <strncpy>
    format_str[sizeof(format_str) - 1] = '\0'; // ensure null termination
 80825fa:	2300      	movs	r3, #0
    size_t len = strlen(format_str); // Flawfinder: ignore (ch42318)
 80825fc:	a814      	add	r0, sp, #80	; 0x50
    format_str[sizeof(format_str) - 1] = '\0'; // ensure null termination
 80825fe:	f88d 308f 	strb.w	r3, [sp, #143]	; 0x8f
    size_t len = strlen(format_str); // Flawfinder: ignore (ch42318)
 8082602:	f001 fe74 	bl	80842ee <strlen>
 8082606:	4604      	mov	r4, r0

    char time_zone_str[16];
    // while we are not using stdlib for managing the timezone, we have to do this manually
    if (!time_zone) {
 8082608:	bb5d      	cbnz	r5, 8082662 <_ZN9TimeClass14timeFormatImplEP2tmPKci+0x7e>
        strcpy(time_zone_str, "Z");
 808260a:	492a      	ldr	r1, [pc, #168]	; (80826b4 <_ZN9TimeClass14timeFormatImplEP2tmPKci+0xd0>)
 808260c:	a803      	add	r0, sp, #12
 808260e:	f001 fe4a 	bl	80842a6 <strcpy>
{
 8082612:	2500      	movs	r5, #0
 8082614:	ae14      	add	r6, sp, #80	; 0x50
    else {
        snprintf(time_zone_str, sizeof(time_zone_str), "%+03d:%02u", time_zone/3600, abs(time_zone/60)%60);
    }

    // replace %z with the timezone
    for (size_t i=0; i<len-1; i++)
 8082616:	f104 3bff 	add.w	fp, r4, #4294967295
 808261a:	45ab      	cmp	fp, r5
 808261c:	d936      	bls.n	808268c <_ZN9TimeClass14timeFormatImplEP2tmPKci+0xa8>
    {
        if (format_str[i]=='%' && format_str[i+1]=='z')
 808261e:	46b1      	mov	r9, r6
 8082620:	f819 3b01 	ldrb.w	r3, [r9], #1
 8082624:	f105 0a01 	add.w	sl, r5, #1
 8082628:	2b25      	cmp	r3, #37	; 0x25
 808262a:	d117      	bne.n	808265c <_ZN9TimeClass14timeFormatImplEP2tmPKci+0x78>
 808262c:	7873      	ldrb	r3, [r6, #1]
 808262e:	2b7a      	cmp	r3, #122	; 0x7a
 8082630:	d114      	bne.n	808265c <_ZN9TimeClass14timeFormatImplEP2tmPKci+0x78>
        {
            size_t tzlen = strlen(time_zone_str);
 8082632:	a803      	add	r0, sp, #12
 8082634:	f001 fe5b 	bl	80842ee <strlen>
 8082638:	4604      	mov	r4, r0
            memcpy(format_str+i+tzlen, format_str+i+2, len-i-1);    // +1 include the 0 char
 808263a:	ab14      	add	r3, sp, #80	; 0x50
 808263c:	1828      	adds	r0, r5, r0
 808263e:	4418      	add	r0, r3
 8082640:	ebab 0205 	sub.w	r2, fp, r5
 8082644:	1cb1      	adds	r1, r6, #2
 8082646:	f001 fddd 	bl	8084204 <memcpy>
            memcpy(format_str+i, time_zone_str, tzlen);
 808264a:	4622      	mov	r2, r4
 808264c:	a903      	add	r1, sp, #12
 808264e:	4630      	mov	r0, r6
 8082650:	f001 fdd8 	bl	8084204 <memcpy>
            len = strlen(format_str);
 8082654:	a814      	add	r0, sp, #80	; 0x50
 8082656:	f001 fe4a 	bl	80842ee <strlen>
 808265a:	4604      	mov	r4, r0
    for (size_t i=0; i<len-1; i++)
 808265c:	464e      	mov	r6, r9
 808265e:	4655      	mov	r5, sl
 8082660:	e7d9      	b.n	8082616 <_ZN9TimeClass14timeFormatImplEP2tmPKci+0x32>
        snprintf(time_zone_str, sizeof(time_zone_str), "%+03d:%02u", time_zone/3600, abs(time_zone/60)%60);
 8082662:	213c      	movs	r1, #60	; 0x3c
 8082664:	fb95 f3f1 	sdiv	r3, r5, r1
 8082668:	2b00      	cmp	r3, #0
 808266a:	bfb8      	it	lt
 808266c:	425b      	neglt	r3, r3
 808266e:	fbb3 f2f1 	udiv	r2, r3, r1
 8082672:	fb01 3312 	mls	r3, r1, r2, r3
 8082676:	9300      	str	r3, [sp, #0]
 8082678:	f44f 6361 	mov.w	r3, #3600	; 0xe10
 808267c:	2110      	movs	r1, #16
 808267e:	fb95 f3f3 	sdiv	r3, r5, r3
 8082682:	4a0d      	ldr	r2, [pc, #52]	; (80826b8 <_ZN9TimeClass14timeFormatImplEP2tmPKci+0xd4>)
 8082684:	a803      	add	r0, sp, #12
 8082686:	f7ff fcbf 	bl	8082008 <snprintf>
 808268a:	e7c2      	b.n	8082612 <_ZN9TimeClass14timeFormatImplEP2tmPKci+0x2e>
        }
    }

    char buf[50] = {};
 808268c:	2100      	movs	r1, #0
 808268e:	222e      	movs	r2, #46	; 0x2e
 8082690:	a808      	add	r0, sp, #32
 8082692:	9107      	str	r1, [sp, #28]
 8082694:	f001 fdc4 	bl	8084220 <memset>
    strftime(buf, sizeof(buf), format_str, calendar_time);
 8082698:	4643      	mov	r3, r8
 808269a:	aa14      	add	r2, sp, #80	; 0x50
 808269c:	2132      	movs	r1, #50	; 0x32
 808269e:	a807      	add	r0, sp, #28
 80826a0:	f7fd fcc6 	bl	8080030 <strftime>
    return String(buf);
 80826a4:	4638      	mov	r0, r7
 80826a6:	a907      	add	r1, sp, #28
 80826a8:	f7ff fdc0 	bl	808222c <_ZN6StringC1EPKc>
}
 80826ac:	4638      	mov	r0, r7
 80826ae:	b025      	add	sp, #148	; 0x94
 80826b0:	e8bd 8ff0 	ldmia.w	sp!, {r4, r5, r6, r7, r8, r9, sl, fp, pc}
 80826b4:	08086480 	.word	0x08086480
 80826b8:	08086482 	.word	0x08086482

080826bc <_ZN9TimeClass6formatExPKc>:
{
 80826bc:	b5f0      	push	{r4, r5, r6, r7, lr}
 80826be:	b08d      	sub	sp, #52	; 0x34
 80826c0:	9d12      	ldr	r5, [sp, #72]	; 0x48
 80826c2:	4604      	mov	r4, r0
 80826c4:	e9cd 2300 	strd	r2, r3, [sp]
    if (format_spec == nullptr)
 80826c8:	b915      	cbnz	r5, 80826d0 <_ZN9TimeClass6formatExPKc+0x14>
        format_spec = this->format_spec;
 80826ca:	4b19      	ldr	r3, [pc, #100]	; (8082730 <_ZN9TimeClass6formatExPKc+0x74>)
 80826cc:	681d      	ldr	r5, [r3, #0]
    if (!format_spec || !strcmp(format_spec, TIME_FORMAT_DEFAULT)) {
 80826ce:	b12d      	cbz	r5, 80826dc <_ZN9TimeClass6formatExPKc+0x20>
 80826d0:	4b18      	ldr	r3, [pc, #96]	; (8082734 <_ZN9TimeClass6formatExPKc+0x78>)
 80826d2:	4628      	mov	r0, r5
 80826d4:	6819      	ldr	r1, [r3, #0]
 80826d6:	f001 fddc 	bl	8084292 <strcmp>
 80826da:	b938      	cbnz	r0, 80826ec <_ZN9TimeClass6formatExPKc+0x30>
        return timeStr(t);
 80826dc:	e9dd 2300 	ldrd	r2, r3, [sp]
 80826e0:	4620      	mov	r0, r4
 80826e2:	f7ff ff47 	bl	8082574 <_ZN9TimeClass7timeStrEx>
}
 80826e6:	4620      	mov	r0, r4
 80826e8:	b00d      	add	sp, #52	; 0x34
 80826ea:	bdf0      	pop	{r4, r5, r6, r7, pc}
    t += time_zone_cache;
 80826ec:	9900      	ldr	r1, [sp, #0]
 80826ee:	4e12      	ldr	r6, [pc, #72]	; (8082738 <_ZN9TimeClass6formatExPKc+0x7c>)
    t += dst_current_cache;
 80826f0:	4f12      	ldr	r7, [pc, #72]	; (808273c <_ZN9TimeClass6formatExPKc+0x80>)
    t += time_zone_cache;
 80826f2:	e9d6 3200 	ldrd	r3, r2, [r6]
 80826f6:	185b      	adds	r3, r3, r1
 80826f8:	9901      	ldr	r1, [sp, #4]
 80826fa:	eb41 0202 	adc.w	r2, r1, r2
    t += dst_current_cache;
 80826fe:	e9d7 0100 	ldrd	r0, r1, [r7]
 8082702:	181b      	adds	r3, r3, r0
 8082704:	eb41 0202 	adc.w	r2, r1, r2
 8082708:	e9cd 3200 	strd	r3, r2, [sp]
    struct tm calendar_time = {};
 808270c:	2100      	movs	r1, #0
 808270e:	2224      	movs	r2, #36	; 0x24
 8082710:	a803      	add	r0, sp, #12
 8082712:	f001 fd85 	bl	8084220 <memset>
    localtime_r(&t, &calendar_time);
 8082716:	a903      	add	r1, sp, #12
 8082718:	4668      	mov	r0, sp
 808271a:	f7fd fc81 	bl	8080020 <localtime_r>
    return timeFormatImpl(&calendar_time, format_spec, time_zone_cache + dst_current_cache);
 808271e:	6832      	ldr	r2, [r6, #0]
 8082720:	683b      	ldr	r3, [r7, #0]
 8082722:	4620      	mov	r0, r4
 8082724:	4413      	add	r3, r2
 8082726:	a903      	add	r1, sp, #12
 8082728:	462a      	mov	r2, r5
 808272a:	f7ff ff5b 	bl	80825e4 <_ZN9TimeClass14timeFormatImplEP2tmPKci>
 808272e:	e7da      	b.n	80826e6 <_ZN9TimeClass6formatExPKc+0x2a>
 8082730:	2000051c 	.word	0x2000051c
 8082734:	2000000c 	.word	0x2000000c
 8082738:	20000528 	.word	0x20000528
 808273c:	20000520 	.word	0x20000520

08082740 <_ZN9TimeClass7isValidEv>:

bool TimeClass::isValid()
{
 8082740:	b510      	push	{r4, lr}
    bool rtcstate = hal_rtc_time_is_valid(nullptr);
 8082742:	2000      	movs	r0, #0
 8082744:	f7ff fa2a 	bl	8081b9c <hal_rtc_time_is_valid>
    if (rtcstate)
 8082748:	4604      	mov	r4, r0
 808274a:	b9a0      	cbnz	r0, 8082776 <_ZN9TimeClass7isValidEv+0x36>
    }

    static System_Mode_TypeDef mode(void) {
        return system_mode();
 808274c:	f7ff fb3e 	bl	8081dcc <system_mode>
        return rtcstate;
    if (System.mode() == AUTOMATIC && system_thread_get_state(nullptr) == spark::feature::DISABLED)
 8082750:	2801      	cmp	r0, #1
 8082752:	d110      	bne.n	8082776 <_ZN9TimeClass7isValidEv+0x36>
 8082754:	4620      	mov	r0, r4
 8082756:	f7ff fb61 	bl	8081e1c <system_thread_get_state>
 808275a:	b960      	cbnz	r0, 8082776 <_ZN9TimeClass7isValidEv+0x36>
    {
        waitUntil(Particle.syncTimeDone);
 808275c:	f7ff fefc 	bl	8082558 <_ZN10CloudClass12syncTimeDoneEv.isra.0>


    static uint32_t freeMemory();

    template<typename Condition, typename While> static bool waitConditionWhile(Condition _condition, While _while) {
        while (_while() && !_condition()) {
 8082760:	b910      	cbnz	r0, 8082768 <_ZN9TimeClass7isValidEv+0x28>
            spark_process();
 8082762:	f7ff fbe9 	bl	8081f38 <spark_process>
        while (_while() && !_condition()) {
 8082766:	e7f9      	b.n	808275c <_ZN9TimeClass7isValidEv+0x1c>
 8082768:	f7ff fef6 	bl	8082558 <_ZN10CloudClass12syncTimeDoneEv.isra.0>
        return hal_rtc_time_is_valid(nullptr);
    }
    return rtcstate;
}
 808276c:	e8bd 4010 	ldmia.w	sp!, {r4, lr}
        return hal_rtc_time_is_valid(nullptr);
 8082770:	2000      	movs	r0, #0
 8082772:	f7ff ba13 	b.w	8081b9c <hal_rtc_time_is_valid>
}
 8082776:	4620      	mov	r0, r4
 8082778:	bd10      	pop	{r4, pc}

0808277a <_ZN9TimeClass3nowEv>:
{
 808277a:	b51f      	push	{r0, r1, r2, r3, r4, lr}
    (void)isValid();
 808277c:	f7ff ffe0 	bl	8082740 <_ZN9TimeClass7isValidEv>
    struct timeval tv = {};
 8082780:	2210      	movs	r2, #16
 8082782:	2100      	movs	r1, #0
 8082784:	4668      	mov	r0, sp
 8082786:	f001 fd4b 	bl	8084220 <memset>
    hal_rtc_get_time(&tv, nullptr);
 808278a:	2100      	movs	r1, #0
 808278c:	4668      	mov	r0, sp
 808278e:	f7ff fa0d 	bl	8081bac <hal_rtc_get_time>
}
 8082792:	9800      	ldr	r0, [sp, #0]
 8082794:	b005      	add	sp, #20
 8082796:	f85d fb04 	ldr.w	pc, [sp], #4
	...

0808279c <_GLOBAL__sub_I_TIME_FORMAT_DEFAULT>:
const char* TimeClass::format_spec = TIME_FORMAT_DEFAULT;
 808279c:	4b02      	ldr	r3, [pc, #8]	; (80827a8 <_GLOBAL__sub_I_TIME_FORMAT_DEFAULT+0xc>)
 808279e:	681a      	ldr	r2, [r3, #0]
 80827a0:	4b02      	ldr	r3, [pc, #8]	; (80827ac <_GLOBAL__sub_I_TIME_FORMAT_DEFAULT+0x10>)
 80827a2:	601a      	str	r2, [r3, #0]
{
  return isValid();
}


TimeClass Time;
 80827a4:	4770      	bx	lr
 80827a6:	bf00      	nop
 80827a8:	2000000c 	.word	0x2000000c
 80827ac:	2000051c 	.word	0x2000051c

080827b0 <delay>:
    return (value - fromStart) * (toEnd - toStart) / (fromEnd - fromStart) + toStart;
}

void delay(unsigned long ms)
{
    system_delay_ms(ms, false);
 80827b0:	2100      	movs	r1, #0
 80827b2:	f7ff bb1b 	b.w	8081dec <system_delay_ms>

080827b6 <_ZNSt14_Function_baseD1Ev>:
	{ __functor._M_access<_Functor*>() = new _Functor(std::move(__f)); }
      };

    _Function_base() : _M_manager(nullptr) { }

    ~_Function_base()
 80827b6:	b510      	push	{r4, lr}
    {
      if (_M_manager)
 80827b8:	6883      	ldr	r3, [r0, #8]
    ~_Function_base()
 80827ba:	4604      	mov	r4, r0
      if (_M_manager)
 80827bc:	b113      	cbz	r3, 80827c4 <_ZNSt14_Function_baseD1Ev+0xe>
	_M_manager(_M_functor, _M_functor, __destroy_functor);
 80827be:	2203      	movs	r2, #3
 80827c0:	4601      	mov	r1, r0
 80827c2:	4798      	blx	r3
    }
 80827c4:	4620      	mov	r0, r4
 80827c6:	bd10      	pop	{r4, pc}

080827c8 <_ZN8RGBClassD1Ev>:
#include "rgbled.h"

typedef void (raw_rgb_change_handler_t)(uint8_t, uint8_t, uint8_t);
typedef std::function<raw_rgb_change_handler_t> wiring_rgb_change_handler_t;

class RGBClass {
 80827c8:	b510      	push	{r4, lr}
 80827ca:	4604      	mov	r4, r0
   *  @ingroup functors
   *
   *  Polymorphic function wrapper.
   */
  template<typename _Res, typename... _ArgTypes>
    class function<_Res(_ArgTypes...)>
 80827cc:	f7ff fff3 	bl	80827b6 <_ZNSt14_Function_baseD1Ev>
 80827d0:	4620      	mov	r0, r4
 80827d2:	bd10      	pop	{r4, pc}

080827d4 <_ZSt4swapISt9_Any_dataENSt9enable_ifIXsrSt6__and_IJSt6__not_ISt15__is_tuple_likeIT_EESt21is_move_constructibleIS5_ESt18is_move_assignableIS5_EEE5valueEvE4typeERS5_SF_>:
    inline
#if __cplusplus >= 201103L
    typename enable_if<__and_<__not_<__is_tuple_like<_Tp>>,
			      is_move_constructible<_Tp>,
			      is_move_assignable<_Tp>>::value>::type
    swap(_Tp& __a, _Tp& __b)
 80827d4:	b513      	push	{r0, r1, r4, lr}
#endif
    {
      // concept requirements
      __glibcxx_function_requires(_SGIAssignableConcept<_Tp>)

      _Tp __tmp = _GLIBCXX_MOVE(__a);
 80827d6:	466c      	mov	r4, sp
    swap(_Tp& __a, _Tp& __b)
 80827d8:	460b      	mov	r3, r1
 80827da:	4602      	mov	r2, r0
      _Tp __tmp = _GLIBCXX_MOVE(__a);
 80827dc:	c803      	ldmia	r0, {r0, r1}
 80827de:	e884 0003 	stmia.w	r4, {r0, r1}
      __a = _GLIBCXX_MOVE(__b);
 80827e2:	e893 0003 	ldmia.w	r3, {r0, r1}
 80827e6:	e882 0003 	stmia.w	r2, {r0, r1}
      __b = _GLIBCXX_MOVE(__tmp);
 80827ea:	e894 0003 	ldmia.w	r4, {r0, r1}
 80827ee:	e883 0003 	stmia.w	r3, {r0, r1}
    }
 80827f2:	b002      	add	sp, #8
 80827f4:	bd10      	pop	{r4, pc}
	...

080827f8 <_GLOBAL__sub_I_RGB>:
    _Function_base() : _M_manager(nullptr) { }
 80827f8:	2300      	movs	r3, #0
 80827fa:	4803      	ldr	r0, [pc, #12]	; (8082808 <_GLOBAL__sub_I_RGB+0x10>)
#include "spark_wiring_rgb.h"
#include "spark_wiring_interrupts.h"

#include "core_hal.h"

RGBClass RGB;
 80827fc:	4a03      	ldr	r2, [pc, #12]	; (808280c <_GLOBAL__sub_I_RGB+0x14>)
 80827fe:	4904      	ldr	r1, [pc, #16]	; (8082810 <_GLOBAL__sub_I_RGB+0x18>)
 8082800:	6083      	str	r3, [r0, #8]
 8082802:	f000 bf4b 	b.w	808369c <__aeabi_atexit>
 8082806:	bf00      	nop
 8082808:	20000530 	.word	0x20000530
 808280c:	200001e8 	.word	0x200001e8
 8082810:	080827c9 	.word	0x080827c9

08082814 <_ZZ21module_user_init_hookENUlP6_reentjmPvE_4_FUNES0_jmS1_>:

void module_user_init_hook()
{
#if HAL_PLATFORM_NEWLIB
    newlib_impure_ptr_callback([](struct _reent* r, size_t size, uint32_t version, void* ctx) -> void {
        _impure_ptr = r;
 8082814:	4b01      	ldr	r3, [pc, #4]	; (808281c <_ZZ21module_user_init_hookENUlP6_reentjmPvE_4_FUNES0_jmS1_+0x8>)
 8082816:	6018      	str	r0, [r3, #0]
    }, nullptr);
 8082818:	4770      	bx	lr
 808281a:	bf00      	nop
 808281c:	20000014 	.word	0x20000014

08082820 <serialEventRun>:
{
 8082820:	b508      	push	{r3, lr}
    if (serialEvent && Serial.available()>0)
 8082822:	4b17      	ldr	r3, [pc, #92]	; (8082880 <serialEventRun+0x60>)
 8082824:	b143      	cbz	r3, 8082838 <serialEventRun+0x18>
 8082826:	f000 fc13 	bl	8083050 <_Z16_fetch_usbserialv>
 808282a:	6803      	ldr	r3, [r0, #0]
 808282c:	691b      	ldr	r3, [r3, #16]
 808282e:	4798      	blx	r3
 8082830:	2800      	cmp	r0, #0
 8082832:	dd01      	ble.n	8082838 <serialEventRun+0x18>
        serialEvent();
 8082834:	f3af 8000 	nop.w
    if (serialEvent1 && Serial1.available()>0)
 8082838:	4b12      	ldr	r3, [pc, #72]	; (8082884 <serialEventRun+0x64>)
 808283a:	b143      	cbz	r3, 808284e <serialEventRun+0x2e>
 808283c:	f000 fd1c 	bl	8083278 <_Z22__fetch_global_Serial1v>
 8082840:	6803      	ldr	r3, [r0, #0]
 8082842:	691b      	ldr	r3, [r3, #16]
 8082844:	4798      	blx	r3
 8082846:	2800      	cmp	r0, #0
 8082848:	dd01      	ble.n	808284e <serialEventRun+0x2e>
        serialEvent1();
 808284a:	f3af 8000 	nop.w
    if (serialEventRun2) serialEventRun2();
 808284e:	4b0e      	ldr	r3, [pc, #56]	; (8082888 <serialEventRun+0x68>)
 8082850:	b10b      	cbz	r3, 8082856 <serialEventRun+0x36>
 8082852:	f3af 8000 	nop.w
    if (serialEventRun4) serialEventRun4();
 8082856:	4b0d      	ldr	r3, [pc, #52]	; (808288c <serialEventRun+0x6c>)
 8082858:	b10b      	cbz	r3, 808285e <serialEventRun+0x3e>
 808285a:	f3af 8000 	nop.w
    if (serialEventRun5) serialEventRun5();
 808285e:	4b0c      	ldr	r3, [pc, #48]	; (8082890 <serialEventRun+0x70>)
 8082860:	b10b      	cbz	r3, 8082866 <serialEventRun+0x46>
 8082862:	f3af 8000 	nop.w
    if (usbSerialEvent1 && USBSerial1.available()>0)
 8082866:	4b0b      	ldr	r3, [pc, #44]	; (8082894 <serialEventRun+0x74>)
 8082868:	b143      	cbz	r3, 808287c <serialEventRun+0x5c>
 808286a:	f000 fc21 	bl	80830b0 <_Z17_fetch_usbserial1v>
 808286e:	6803      	ldr	r3, [r0, #0]
 8082870:	691b      	ldr	r3, [r3, #16]
 8082872:	4798      	blx	r3
 8082874:	2800      	cmp	r0, #0
 8082876:	dd01      	ble.n	808287c <serialEventRun+0x5c>
        usbSerialEvent1();
 8082878:	f3af 8000 	nop.w
}
 808287c:	bd08      	pop	{r3, pc}
 808287e:	bf00      	nop
	...

08082898 <_post_loop>:
{
 8082898:	b508      	push	{r3, lr}
	serialEventRun();
 808289a:	f7ff ffc1 	bl	8082820 <serialEventRun>
		return !timeout_fn;
	}

	static inline system_tick_t current_time()
	{
		return HAL_Timer_Get_Milli_Seconds();
 808289e:	f7ff f975 	bl	8081b8c <HAL_Timer_Get_Milli_Seconds>
	/**
	 * Lifesign that the application is still working normally.
	 */
	static void checkin()
	{
		last_checkin = current_time();
 80828a2:	4b01      	ldr	r3, [pc, #4]	; (80828a8 <_post_loop+0x10>)
 80828a4:	6018      	str	r0, [r3, #0]
}
 80828a6:	bd08      	pop	{r3, pc}
 80828a8:	200005e0 	.word	0x200005e0

080828ac <_Z33system_initialize_user_backup_ramv>:
    memcpy(&link_global_retained_start, &link_global_retained_initial_values, len);
 80828ac:	4802      	ldr	r0, [pc, #8]	; (80828b8 <_Z33system_initialize_user_backup_ramv+0xc>)
 80828ae:	4a03      	ldr	r2, [pc, #12]	; (80828bc <_Z33system_initialize_user_backup_ramv+0x10>)
 80828b0:	4903      	ldr	r1, [pc, #12]	; (80828c0 <_Z33system_initialize_user_backup_ramv+0x14>)
 80828b2:	1a12      	subs	r2, r2, r0
 80828b4:	f001 bca6 	b.w	8084204 <memcpy>
 80828b8:	40024000 	.word	0x40024000
 80828bc:	40024004 	.word	0x40024004
 80828c0:	080868d0 	.word	0x080868d0

080828c4 <_Z27ctrl_request_custom_handlerP12ctrl_request>:
    system_ctrl_set_result(req, SYSTEM_ERROR_NOT_SUPPORTED, nullptr, nullptr, nullptr);
 80828c4:	2300      	movs	r3, #0
void __attribute((weak)) ctrl_request_custom_handler(ctrl_request* req) {
 80828c6:	b507      	push	{r0, r1, r2, lr}
    system_ctrl_set_result(req, SYSTEM_ERROR_NOT_SUPPORTED, nullptr, nullptr, nullptr);
 80828c8:	461a      	mov	r2, r3
 80828ca:	f06f 0177 	mvn.w	r1, #119	; 0x77
 80828ce:	9300      	str	r3, [sp, #0]
 80828d0:	f7ff fab6 	bl	8081e40 <system_ctrl_set_result>
}
 80828d4:	b003      	add	sp, #12
 80828d6:	f85d fb04 	ldr.w	pc, [sp], #4
	...

080828dc <_ZL20ctrl_request_handlerP12ctrl_request>:
static void ctrl_request_handler(ctrl_request* req) {
 80828dc:	b507      	push	{r0, r1, r2, lr}
    switch (req->type) {
 80828de:	8843      	ldrh	r3, [r0, #2]
 80828e0:	2b0a      	cmp	r3, #10
 80828e2:	d008      	beq.n	80828f6 <_ZL20ctrl_request_handlerP12ctrl_request+0x1a>
 80828e4:	2b50      	cmp	r3, #80	; 0x50
 80828e6:	d10b      	bne.n	8082900 <_ZL20ctrl_request_handlerP12ctrl_request+0x24>
        if (log_process_ctrl_request_callback) {
 80828e8:	4b09      	ldr	r3, [pc, #36]	; (8082910 <_ZL20ctrl_request_handlerP12ctrl_request+0x34>)
 80828ea:	681b      	ldr	r3, [r3, #0]
 80828ec:	b14b      	cbz	r3, 8082902 <_ZL20ctrl_request_handlerP12ctrl_request+0x26>
}
 80828ee:	b003      	add	sp, #12
 80828f0:	f85d eb04 	ldr.w	lr, [sp], #4
            log_process_ctrl_request_callback(req);
 80828f4:	4718      	bx	r3
        ctrl_request_custom_handler(req);
 80828f6:	f7ff ffe5 	bl	80828c4 <_Z27ctrl_request_custom_handlerP12ctrl_request>
}
 80828fa:	b003      	add	sp, #12
 80828fc:	f85d fb04 	ldr.w	pc, [sp], #4
        system_ctrl_set_result(req, SYSTEM_ERROR_NOT_SUPPORTED, nullptr, nullptr, nullptr);
 8082900:	2300      	movs	r3, #0
 8082902:	461a      	mov	r2, r3
 8082904:	f06f 0177 	mvn.w	r1, #119	; 0x77
 8082908:	9300      	str	r3, [sp, #0]
 808290a:	f7ff fa99 	bl	8081e40 <system_ctrl_set_result>
}
 808290e:	e7f4      	b.n	80828fa <_ZL20ctrl_request_handlerP12ctrl_request+0x1e>
 8082910:	20000544 	.word	0x20000544

08082914 <module_user_init_hook>:
{
 8082914:	b538      	push	{r3, r4, r5, lr}
#endif // HAL_PLATFORM_NEWLIB

#if HAL_PLATFORM_BACKUP_RAM
    backup_ram_was_valid_ =  __backup_sram_signature==signature;
 8082916:	4c12      	ldr	r4, [pc, #72]	; (8082960 <module_user_init_hook+0x4c>)
    newlib_impure_ptr_callback([](struct _reent* r, size_t size, uint32_t version, void* ctx) -> void {
 8082918:	2100      	movs	r1, #0
 808291a:	4812      	ldr	r0, [pc, #72]	; (8082964 <module_user_init_hook+0x50>)
 808291c:	f7ff fb94 	bl	8082048 <newlib_impure_ptr_callback>
    backup_ram_was_valid_ =  __backup_sram_signature==signature;
 8082920:	4d11      	ldr	r5, [pc, #68]	; (8082968 <module_user_init_hook+0x54>)
 8082922:	6823      	ldr	r3, [r4, #0]
 8082924:	42ab      	cmp	r3, r5
 8082926:	bf0c      	ite	eq
 8082928:	2201      	moveq	r2, #1
 808292a:	2200      	movne	r2, #0
 808292c:	4b0f      	ldr	r3, [pc, #60]	; (808296c <module_user_init_hook+0x58>)
 808292e:	701a      	strb	r2, [r3, #0]
    if (!backup_ram_was_valid_) {
 8082930:	d002      	beq.n	8082938 <module_user_init_hook+0x24>
        system_initialize_user_backup_ram();
 8082932:	f7ff ffbb 	bl	80828ac <_Z33system_initialize_user_backup_ramv>
        __backup_sram_signature = signature;
 8082936:	6025      	str	r5, [r4, #0]
    }
#endif

#if HAL_PLATFORM_RNG
    // Initialize the default stdlib PRNG using hardware RNG as a seed
    const uint32_t seed = HAL_RNG_GetRandomNumber();
 8082938:	f7ff f920 	bl	8081b7c <HAL_RNG_GetRandomNumber>
 808293c:	4604      	mov	r4, r0
    srand(seed);
 808293e:	f001 fc77 	bl	8084230 <srand>

    // If the user defines random_seed_from_cloud, call it with a seed value
    // generated by a hardware RNG as well.
    if (random_seed_from_cloud) {
 8082942:	4b0b      	ldr	r3, [pc, #44]	; (8082970 <module_user_init_hook+0x5c>)
 8082944:	b113      	cbz	r3, 808294c <module_user_init_hook+0x38>
        random_seed_from_cloud(seed);
 8082946:	4620      	mov	r0, r4
 8082948:	f3af 8000 	nop.w
    }
#endif
    // Register the random_seed_from_cloud handler
    spark_set_random_seed_from_cloud_handler(&random_seed_from_cloud, nullptr);
 808294c:	2100      	movs	r1, #0
 808294e:	4808      	ldr	r0, [pc, #32]	; (8082970 <module_user_init_hook+0x5c>)
 8082950:	f7ff fb2a 	bl	8081fa8 <spark_set_random_seed_from_cloud_handler>

    // Register application handler for the control requests
    system_ctrl_set_app_request_handler(ctrl_request_handler, nullptr);
}
 8082954:	e8bd 4038 	ldmia.w	sp!, {r3, r4, r5, lr}
    system_ctrl_set_app_request_handler(ctrl_request_handler, nullptr);
 8082958:	2100      	movs	r1, #0
 808295a:	4806      	ldr	r0, [pc, #24]	; (8082974 <module_user_init_hook+0x60>)
 808295c:	f7ff ba66 	b.w	8081e2c <system_ctrl_set_app_request_handler>
 8082960:	40024000 	.word	0x40024000
 8082964:	08082815 	.word	0x08082815
 8082968:	9a271c1e 	.word	0x9a271c1e
 808296c:	20000540 	.word	0x20000540
 8082970:	00000000 	.word	0x00000000
 8082974:	080828dd 	.word	0x080828dd

08082978 <_ZNSt15_Sp_counted_ptrIPN8particle6detail10FutureImplIbNS1_13FutureContextEEELN9__gnu_cxx12_Lock_policyE0EED1Ev>:
    class _Sp_counted_ptr final : public _Sp_counted_base<_Lp>
 8082978:	4770      	bx	lr

0808297a <_ZNSt15_Sp_counted_ptrIPN8particle6detail10FutureImplIbNS1_13FutureContextEEELN9__gnu_cxx12_Lock_policyE0EE14_M_get_deleterERKSt9type_info>:
      { return nullptr; }
 808297a:	2000      	movs	r0, #0
 808297c:	4770      	bx	lr

0808297e <_ZNSt15_Sp_counted_ptrIPN8particle6detail10FutureImplIbNS1_13FutureContextEEELN9__gnu_cxx12_Lock_policyE0EED0Ev>:
    class _Sp_counted_ptr final : public _Sp_counted_base<_Lp>
 808297e:	b510      	push	{r4, lr}
 8082980:	4604      	mov	r4, r0
 8082982:	2110      	movs	r1, #16
 8082984:	f000 fe8f 	bl	80836a6 <_ZdlPvj>
 8082988:	4620      	mov	r0, r4
 808298a:	bd10      	pop	{r4, pc}

0808298c <_ZNSt15_Sp_counted_ptrIPN8particle6detail10FutureImplIbNS1_13FutureContextEEELN9__gnu_cxx12_Lock_policyE0EE10_M_destroyEv>:
      _M_destroy() noexcept
 808298c:	b508      	push	{r3, lr}
      { delete this; }
 808298e:	f7ff fff6 	bl	808297e <_ZNSt15_Sp_counted_ptrIPN8particle6detail10FutureImplIbNS1_13FutureContextEEELN9__gnu_cxx12_Lock_policyE0EED0Ev>
 8082992:	bd08      	pop	{r3, pc}

08082994 <_ZN8particle5ErrorC1EOS0_>:

} // namespace particle

inline particle::Error::Error(Type type) :
        msg_(nullptr),
        type_(type) {
 8082994:	2200      	movs	r2, #0

inline particle::Error::Error(const Error& error) :
        Error(error.type_, error.msg_) {
}

inline particle::Error::Error(Error&& error) :
 8082996:	b530      	push	{r4, r5, lr}
        type_(type) {
 8082998:	f64f 749c 	movw	r4, #65436	; 0xff9c
 808299c:	6002      	str	r2, [r0, #0]
 808299e:	8084      	strh	r4, [r0, #4]
      __a = _GLIBCXX_MOVE(__b);
 80829a0:	888d      	ldrh	r5, [r1, #4]
      __b = _GLIBCXX_MOVE(__tmp);
 80829a2:	808c      	strh	r4, [r1, #4]
      __a = _GLIBCXX_MOVE(__b);
 80829a4:	680c      	ldr	r4, [r1, #0]
 80829a6:	8085      	strh	r5, [r0, #4]
 80829a8:	6004      	str	r4, [r0, #0]
      __b = _GLIBCXX_MOVE(__tmp);
 80829aa:	600a      	str	r2, [r1, #0]
        Error() {
    swap(*this, error);
}
 80829ac:	bd30      	pop	{r4, r5, pc}

080829ae <_ZN8particle5ErrorD1Ev>:

inline particle::Error::~Error() {
 80829ae:	b510      	push	{r4, lr}
 80829b0:	4604      	mov	r4, r0
    free((void*)msg_);
 80829b2:	6800      	ldr	r0, [r0, #0]
 80829b4:	f7ff fb08 	bl	8081fc8 <free>
}
 80829b8:	4620      	mov	r0, r4
 80829ba:	bd10      	pop	{r4, pc}

080829bc <_ZNSt15_Sp_counted_ptrIPN8particle6detail10FutureImplIbNS1_13FutureContextEEELN9__gnu_cxx12_Lock_policyE0EE10_M_disposeEv>:
      _M_dispose() noexcept
 80829bc:	b538      	push	{r3, r4, r5, lr}
      { delete _M_ptr; }
 80829be:	68c4      	ldr	r4, [r0, #12]
 80829c0:	b1f4      	cbz	r4, 8082a00 <_ZNSt15_Sp_counted_ptrIPN8particle6detail10FutureImplIbNS1_13FutureContextEEELN9__gnu_cxx12_Lock_policyE0EE10_M_disposeEv+0x44>
      _Tp
      load(memory_order __m = memory_order_seq_cst) const noexcept
      {
	alignas(_Tp) unsigned char __buf[sizeof(_Tp)];
	_Tp* __ptr = reinterpret_cast<_Tp*>(__buf);
	__atomic_load(std::__addressof(_M_i), __ptr, int(__m));
 80829c2:	7823      	ldrb	r3, [r4, #0]
    ~FutureImpl() {
        // Call destructor of the appropriate unnamed enum's field
        const State s = this->state();
        if (s == State::SUCCEEDED) {
            result_.~ResultT();
        } else if (s == State::FAILED) {
 80829c4:	2b02      	cmp	r3, #2
 80829c6:	d103      	bne.n	80829d0 <_ZNSt15_Sp_counted_ptrIPN8particle6detail10FutureImplIbNS1_13FutureContextEEELN9__gnu_cxx12_Lock_policyE0EE10_M_disposeEv+0x14>
            error_.~Error();
 80829c8:	f104 000c 	add.w	r0, r4, #12
 80829cc:	f7ff ffef 	bl	80829ae <_ZN8particle5ErrorD1Ev>
      {
	memory_order __b = __m & __memory_order_mask;
	__glibcxx_assert(__b != memory_order_release);
	__glibcxx_assert(__b != memory_order_acq_rel);

	return __atomic_load_n(&_M_p, int(__m));
 80829d0:	6865      	ldr	r5, [r4, #4]
        delete onSuccess_.load(std::memory_order_relaxed);
 80829d2:	b135      	cbz	r5, 80829e2 <_ZNSt15_Sp_counted_ptrIPN8particle6detail10FutureImplIbNS1_13FutureContextEEELN9__gnu_cxx12_Lock_policyE0EE10_M_disposeEv+0x26>
    class function<_Res(_ArgTypes...)>
 80829d4:	4628      	mov	r0, r5
 80829d6:	f7ff feee 	bl	80827b6 <_ZNSt14_Function_baseD1Ev>
 80829da:	2110      	movs	r1, #16
 80829dc:	4628      	mov	r0, r5
 80829de:	f000 fe62 	bl	80836a6 <_ZdlPvj>
 80829e2:	68a5      	ldr	r5, [r4, #8]
        delete onError_.load(std::memory_order_relaxed);
 80829e4:	b135      	cbz	r5, 80829f4 <_ZNSt15_Sp_counted_ptrIPN8particle6detail10FutureImplIbNS1_13FutureContextEEELN9__gnu_cxx12_Lock_policyE0EE10_M_disposeEv+0x38>
 80829e6:	4628      	mov	r0, r5
 80829e8:	f7ff fee5 	bl	80827b6 <_ZNSt14_Function_baseD1Ev>
 80829ec:	2110      	movs	r1, #16
 80829ee:	4628      	mov	r0, r5
 80829f0:	f000 fe59 	bl	80836a6 <_ZdlPvj>
 80829f4:	4620      	mov	r0, r4
 80829f6:	e8bd 4038 	ldmia.w	sp!, {r3, r4, r5, lr}
 80829fa:	2114      	movs	r1, #20
 80829fc:	f000 be53 	b.w	80836a6 <_ZdlPvj>
 8082a00:	bd38      	pop	{r3, r4, r5, pc}

08082a02 <_ZN10CloudClass22call_raw_user_functionEPvPKcS0_>:
    }
    return CloudDisconnectOptions(options->flags, options->timeout, options->graceful, clearSession);
}

int CloudClass::call_raw_user_function(void* data, const char* param, void* reserved)
{
 8082a02:	b510      	push	{r4, lr}
 8082a04:	b088      	sub	sp, #32
 8082a06:	4604      	mov	r4, r0
    user_function_int_str_t* fn = (user_function_int_str_t*)(data);
    String p(param);
 8082a08:	4668      	mov	r0, sp
 8082a0a:	f7ff fc0f 	bl	808222c <_ZN6StringC1EPKc>
    return (*fn)(p);
 8082a0e:	4669      	mov	r1, sp
 8082a10:	a804      	add	r0, sp, #16
 8082a12:	f7ff fc4a 	bl	80822aa <_ZN6StringC1ERKS_>
 8082a16:	a804      	add	r0, sp, #16
 8082a18:	47a0      	blx	r4
 8082a1a:	4604      	mov	r4, r0
 8082a1c:	a804      	add	r0, sp, #16
 8082a1e:	f7ff fbbb 	bl	8082198 <_ZN6StringD1Ev>
    String p(param);
 8082a22:	4668      	mov	r0, sp
 8082a24:	f7ff fbb8 	bl	8082198 <_ZN6StringD1Ev>
}
 8082a28:	4620      	mov	r0, r4
 8082a2a:	b008      	add	sp, #32
 8082a2c:	bd10      	pop	{r4, pc}

08082a2e <_ZN10CloudClass17register_functionEPFiPvPKcS0_ES0_S2_>:
    wiring_event_handler_t* fn = (wiring_event_handler_t*)(handler_data);
    (*fn)(event_name, data);
}

bool CloudClass::register_function(cloud_function_t fn, void* data, const char* funcKey)
{
 8082a2e:	b51f      	push	{r0, r1, r2, r3, r4, lr}
    const char *funcKey;
    cloud_function_t fn;
    void* data;

     cloud_function_descriptor() {
         memset(this, 0, sizeof(*this));
 8082a30:	2300      	movs	r3, #0
         size = sizeof(*this);
 8082a32:	2410      	movs	r4, #16
    cloud_function_descriptor desc = {};
    desc.size = sizeof(desc);
    desc.fn = fn;
    desc.data = (void*)data;
 8082a34:	e9cd 0102 	strd	r0, r1, [sp, #8]
    desc.funcKey = funcKey;
 8082a38:	9201      	str	r2, [sp, #4]
    return spark_function(NULL, (user_function_int_str_t*)&desc, NULL);
 8082a3a:	4669      	mov	r1, sp
 8082a3c:	461a      	mov	r2, r3
 8082a3e:	4618      	mov	r0, r3
         memset(this, 0, sizeof(*this));
 8082a40:	f8ad 3002 	strh.w	r3, [sp, #2]
         size = sizeof(*this);
 8082a44:	f8ad 4000 	strh.w	r4, [sp]
 8082a48:	f7ff fa6e 	bl	8081f28 <spark_function>
}
 8082a4c:	b004      	add	sp, #16
 8082a4e:	bd10      	pop	{r4, pc}

08082a50 <_ZN8particle11PromiseBaseIbNS_6detail13FutureContextEE11fromDataPtrEPv>:
        // TODO: Use custom reference counting object to avoid unnecessary memory allocation
        return new detail::FutureImplPtr<ResultT, ContextT>(p_);
    }

    // Unwraps promise from an object pointer created via dataPtr() method
    static Promise<ResultT, ContextT> fromDataPtr(void* data) {
 8082a50:	b573      	push	{r0, r1, r4, r5, r6, lr}
      __shared_ptr(const __shared_ptr&) noexcept = default;
 8082a52:	460e      	mov	r6, r1
 8082a54:	4604      	mov	r4, r0
 8082a56:	f856 3b04 	ldr.w	r3, [r6], #4
 8082a5a:	460d      	mov	r5, r1
 8082a5c:	a801      	add	r0, sp, #4
 8082a5e:	4631      	mov	r1, r6
 8082a60:	9300      	str	r3, [sp, #0]
 8082a62:	f7ff fd6a 	bl	808253a <_ZNSt14__shared_countILN9__gnu_cxx12_Lock_policyE0EEC1ERKS2_>
	__shared_ptr(const __shared_ptr<_Yp, _Lp>& __r) noexcept
	: _M_ptr(__r._M_ptr), _M_refcount(__r._M_refcount)
	{ }

      __shared_ptr(__shared_ptr&& __r) noexcept
      : _M_ptr(__r._M_ptr), _M_refcount()
 8082a66:	9b00      	ldr	r3, [sp, #0]
	_Sp_counted_base<_Lp>* __tmp = __r._M_pi;
 8082a68:	9a01      	ldr	r2, [sp, #4]
      : _M_ptr(__r._M_ptr), _M_refcount()
 8082a6a:	6023      	str	r3, [r4, #0]
	__r._M_pi = _M_pi;
 8082a6c:	2300      	movs	r3, #0
	_M_pi = __tmp;
 8082a6e:	6062      	str	r2, [r4, #4]
      ~__shared_ptr() = default;
 8082a70:	a801      	add	r0, sp, #4
	__r._M_pi = _M_pi;
 8082a72:	9301      	str	r3, [sp, #4]
      {
	_M_refcount._M_swap(__r._M_refcount);
	__r._M_ptr = 0;
 8082a74:	9300      	str	r3, [sp, #0]
      ~__shared_ptr() = default;
 8082a76:	f7fd fbc6 	bl	8080206 <_ZNSt14__shared_countILN9__gnu_cxx12_Lock_policyE0EED1Ev>
 8082a7a:	4630      	mov	r0, r6
 8082a7c:	f7fd fbc3 	bl	8080206 <_ZNSt14__shared_countILN9__gnu_cxx12_Lock_policyE0EED1Ev>
        auto d = static_cast<detail::FutureImplPtr<ResultT, ContextT>*>(data);
        const Promise<ResultT, ContextT> p(*d);
        delete d;
 8082a80:	4628      	mov	r0, r5
 8082a82:	2108      	movs	r1, #8
 8082a84:	f000 fe0f 	bl	80836a6 <_ZdlPvj>
        return p;
    }
 8082a88:	4620      	mov	r0, r4
 8082a8a:	b002      	add	sp, #8
 8082a8c:	bd70      	pop	{r4, r5, r6, pc}

08082a8e <_ZNKSt8functionIFvRKN8particle5ErrorEEEclES3_>:
  template<typename _Res, typename... _ArgTypes>
    _Res
    function<_Res(_ArgTypes...)>::
    operator()(_ArgTypes... __args) const
    {
      if (_M_empty())
 8082a8e:	6882      	ldr	r2, [r0, #8]
    function<_Res(_ArgTypes...)>::
 8082a90:	b510      	push	{r4, lr}
      if (_M_empty())
 8082a92:	b90a      	cbnz	r2, 8082a98 <_ZNKSt8functionIFvRKN8particle5ErrorEEEclES3_+0xa>
	__throw_bad_function_call();
 8082a94:	f000 fe0b 	bl	80836ae <_ZSt25__throw_bad_function_callv>
      return _M_invoker(_M_functor, std::forward<_ArgTypes>(__args)...);
 8082a98:	68c3      	ldr	r3, [r0, #12]
    }
 8082a9a:	e8bd 4010 	ldmia.w	sp!, {r4, lr}
      return _M_invoker(_M_functor, std::forward<_ArgTypes>(__args)...);
 8082a9e:	4718      	bx	r3

08082aa0 <_ZNSt17_Function_handlerIFvvESt5_BindIFSt8functionIFvRKN8particle5ErrorEEES4_EEE9_M_invokeERKSt9_Any_data>:
      _M_invoke(const _Any_data& __functor, _ArgTypes&&... __args)
 8082aa0:	b508      	push	{r3, lr}
	    return __source._M_access<_Functor*>();
 8082aa2:	6800      	ldr	r0, [r0, #0]
    { return static_cast<_Up&&>(__t); }

  template<typename _Res, typename _Fn, typename... _Args>
    constexpr _Res
    __invoke_impl(__invoke_other, _Fn&& __f, _Args&&... __args)
    { return std::forward<_Fn>(__f)(std::forward<_Args>(__args)...); }
 8082aa4:	f100 0110 	add.w	r1, r0, #16
 8082aa8:	f7ff fff1 	bl	8082a8e <_ZNKSt8functionIFvRKN8particle5ErrorEEEclES3_>
      }
 8082aac:	bd08      	pop	{r3, pc}

08082aae <_ZNKSt8functionIFvRKbEEclES1_>:
      if (_M_empty())
 8082aae:	6882      	ldr	r2, [r0, #8]
    function<_Res(_ArgTypes...)>::
 8082ab0:	b510      	push	{r4, lr}
      if (_M_empty())
 8082ab2:	b90a      	cbnz	r2, 8082ab8 <_ZNKSt8functionIFvRKbEEclES1_+0xa>
	__throw_bad_function_call();
 8082ab4:	f000 fdfb 	bl	80836ae <_ZSt25__throw_bad_function_callv>
      return _M_invoker(_M_functor, std::forward<_ArgTypes>(__args)...);
 8082ab8:	68c3      	ldr	r3, [r0, #12]
    }
 8082aba:	e8bd 4010 	ldmia.w	sp!, {r4, lr}
      return _M_invoker(_M_functor, std::forward<_ArgTypes>(__args)...);
 8082abe:	4718      	bx	r3

08082ac0 <_ZNSt17_Function_handlerIFvvESt5_BindIFSt8functionIFvRKbEEbEEE9_M_invokeERKSt9_Any_data>:
      _M_invoke(const _Any_data& __functor, _ArgTypes&&... __args)
 8082ac0:	b508      	push	{r3, lr}
	    return __source._M_access<_Functor*>();
 8082ac2:	6800      	ldr	r0, [r0, #0]
 8082ac4:	f100 0110 	add.w	r1, r0, #16
 8082ac8:	f7ff fff1 	bl	8082aae <_ZNKSt8functionIFvRKbEEclES1_>
      }
 8082acc:	bd08      	pop	{r3, pc}
	...

08082ad0 <_ZNSt14__shared_countILN9__gnu_cxx12_Lock_policyE0EEC1IPN8particle6detail10FutureImplIbNS5_13FutureContextEEEEET_>:
	__shared_count(_Ptr __p) : _M_pi(0)
 8082ad0:	b538      	push	{r3, r4, r5, lr}
 8082ad2:	2300      	movs	r3, #0
 8082ad4:	4604      	mov	r4, r0
 8082ad6:	6003      	str	r3, [r0, #0]
	      _M_pi = new _Sp_counted_ptr<_Ptr, _Lp>(__p);
 8082ad8:	2010      	movs	r0, #16
	__shared_count(_Ptr __p) : _M_pi(0)
 8082ada:	460d      	mov	r5, r1
	      _M_pi = new _Sp_counted_ptr<_Ptr, _Lp>(__p);
 8082adc:	f7fd faed 	bl	80800ba <_Znwj>
 8082ae0:	b128      	cbz	r0, 8082aee <_ZNSt14__shared_countILN9__gnu_cxx12_Lock_policyE0EEC1IPN8particle6detail10FutureImplIbNS5_13FutureContextEEEEET_+0x1e>
      : _M_use_count(1), _M_weak_count(1) { }
 8082ae2:	2301      	movs	r3, #1
 8082ae4:	e9c0 3301 	strd	r3, r3, [r0, #4]
      : _M_ptr(__p) { }
 8082ae8:	4b02      	ldr	r3, [pc, #8]	; (8082af4 <_ZNSt14__shared_countILN9__gnu_cxx12_Lock_policyE0EEC1IPN8particle6detail10FutureImplIbNS5_13FutureContextEEEEET_+0x24>)
 8082aea:	60c5      	str	r5, [r0, #12]
 8082aec:	6003      	str	r3, [r0, #0]
	      _M_pi = new _Sp_counted_ptr<_Ptr, _Lp>(__p);
 8082aee:	6020      	str	r0, [r4, #0]
	}
 8082af0:	4620      	mov	r0, r4
 8082af2:	bd38      	pop	{r3, r4, r5, pc}
 8082af4:	080864b4 	.word	0x080864b4

08082af8 <_ZNSt8functionIFvRKN8particle5ErrorEEEC1ERKS5_>:
    function<_Res(_ArgTypes...)>::
 8082af8:	b538      	push	{r3, r4, r5, lr}
    _Function_base() : _M_manager(nullptr) { }
 8082afa:	2300      	movs	r3, #0
 8082afc:	6083      	str	r3, [r0, #8]
      { return !_M_empty(); }
 8082afe:	688b      	ldr	r3, [r1, #8]
    function<_Res(_ArgTypes...)>::
 8082b00:	4604      	mov	r4, r0
 8082b02:	460d      	mov	r5, r1
      if (static_cast<bool>(__x))
 8082b04:	b12b      	cbz	r3, 8082b12 <_ZNSt8functionIFvRKN8particle5ErrorEEEC1ERKS5_+0x1a>
	  __x._M_manager(_M_functor, __x._M_functor, __clone_functor);
 8082b06:	2202      	movs	r2, #2
 8082b08:	4798      	blx	r3
	  _M_invoker = __x._M_invoker;
 8082b0a:	68eb      	ldr	r3, [r5, #12]
 8082b0c:	60e3      	str	r3, [r4, #12]
	  _M_manager = __x._M_manager;
 8082b0e:	68ab      	ldr	r3, [r5, #8]
 8082b10:	60a3      	str	r3, [r4, #8]
    }
 8082b12:	4620      	mov	r0, r4
 8082b14:	bd38      	pop	{r3, r4, r5, pc}
	...

08082b18 <_ZN8particle11PromiseBaseIbNS_6detail13FutureContextEE8setErrorENS_5ErrorE>:
    void setError(Error error) {
 8082b18:	b5f0      	push	{r4, r5, r6, r7, lr}
 8082b1a:	b089      	sub	sp, #36	; 0x24
      { return static_cast<const __shared_ptr<_Tp, _Lp>*>(this)->get(); }
 8082b1c:	6804      	ldr	r4, [r0, #0]
        p_->setError(std::move(error));
 8082b1e:	4668      	mov	r0, sp
 8082b20:	f7ff ff38 	bl	8082994 <_ZN8particle5ErrorC1EOS0_>

      bool
      compare_exchange_strong(_Tp& __e, _Tp __i, memory_order __s,
			      memory_order __f) noexcept
      {
	return __atomic_compare_exchange(std::__addressof(_M_i),
 8082b24:	f04f 0302 	mov.w	r3, #2
 8082b28:	e8d4 2f4f 	ldrexb	r2, [r4]
 8082b2c:	2a00      	cmp	r2, #0
 8082b2e:	d103      	bne.n	8082b38 <_ZN8particle11PromiseBaseIbNS_6detail13FutureContextEE8setErrorENS_5ErrorE+0x20>
 8082b30:	e8c4 3f41 	strexb	r1, r3, [r4]
 8082b34:	2900      	cmp	r1, #0
 8082b36:	d1f7      	bne.n	8082b28 <_ZN8particle11PromiseBaseIbNS_6detail13FutureContextEE8setErrorENS_5ErrorE+0x10>
        if (this->changeState(State::FAILED)) {
 8082b38:	d125      	bne.n	8082b86 <_ZN8particle11PromiseBaseIbNS_6detail13FutureContextEE8setErrorENS_5ErrorE+0x6e>
            new(&error_) Error(std::move(error));
 8082b3a:	f104 050c 	add.w	r5, r4, #12
 8082b3e:	4669      	mov	r1, sp
 8082b40:	4628      	mov	r0, r5
 8082b42:	f7ff ff27 	bl	8082994 <_ZN8particle5ErrorC1EOS0_>
	__atomic_store_n(&_M_i, __i, int(__m));
 8082b46:	2301      	movs	r3, #1
 8082b48:	f3bf 8f5b 	dmb	ish
 8082b4c:	7063      	strb	r3, [r4, #1]

      _GLIBCXX_ALWAYS_INLINE __pointer_type
      exchange(__pointer_type __p,
	       memory_order __m = memory_order_seq_cst) noexcept
      {
	return __atomic_exchange_n(&_M_p, __p, int(__m));
 8082b4e:	2000      	movs	r0, #0
 8082b50:	f3bf 8f5b 	dmb	ish
 8082b54:	f104 0308 	add.w	r3, r4, #8
 8082b58:	e853 6f00 	ldrex	r6, [r3]
 8082b5c:	e843 0200 	strex	r2, r0, [r3]
 8082b60:	2a00      	cmp	r2, #0
 8082b62:	d1f9      	bne.n	8082b58 <_ZN8particle11PromiseBaseIbNS_6detail13FutureContextEE8setErrorENS_5ErrorE+0x40>
 8082b64:	f3bf 8f5b 	dmb	ish
        if (callbackPtr) {
 8082b68:	b16e      	cbz	r6, 8082b86 <_ZN8particle11PromiseBaseIbNS_6detail13FutureContextEE8setErrorENS_5ErrorE+0x6e>
        return (application_thread_current(nullptr) != 0);
 8082b6a:	f7ff f947 	bl	8081dfc <application_thread_current>
        if (ContextT::isApplicationThreadCurrent()) {
 8082b6e:	b178      	cbz	r0, 8082b90 <_ZN8particle11PromiseBaseIbNS_6detail13FutureContextEE8setErrorENS_5ErrorE+0x78>
            callback(std::forward<ArgsT>(args)...); // Synchronous call
 8082b70:	4629      	mov	r1, r5
 8082b72:	4630      	mov	r0, r6
 8082b74:	f7ff ff8b 	bl	8082a8e <_ZNKSt8functionIFvRKN8particle5ErrorEEEclES3_>
    class function<_Res(_ArgTypes...)>
 8082b78:	4630      	mov	r0, r6
 8082b7a:	f7ff fe1c 	bl	80827b6 <_ZNSt14_Function_baseD1Ev>
            delete callbackPtr;
 8082b7e:	2110      	movs	r1, #16
 8082b80:	4630      	mov	r0, r6
 8082b82:	f000 fd90 	bl	80836a6 <_ZdlPvj>
        p_->setError(std::move(error));
 8082b86:	4668      	mov	r0, sp
 8082b88:	f7ff ff11 	bl	80829ae <_ZN8particle5ErrorD1Ev>
    }
 8082b8c:	b009      	add	sp, #36	; 0x24
 8082b8e:	bdf0      	pop	{r4, r5, r6, r7, pc}
	  typename __cv_quals<_Bound_args>::type...>;

     public:
      template<typename... _Args>
	explicit _Bind(const _Functor& __f, _Args&&... __args)
	: _M_f(__f), _M_bound_args(std::forward<_Args>(__args)...)
 8082b90:	4631      	mov	r1, r6
 8082b92:	a802      	add	r0, sp, #8
 8082b94:	f7ff ffb0 	bl	8082af8 <_ZNSt8functionIFvRKN8particle5ErrorEEEC1ERKS5_>
        Error(error.type_, error.msg_) {
 8082b98:	68e0      	ldr	r0, [r4, #12]
 8082b9a:	f9b4 5010 	ldrsh.w	r5, [r4, #16]
        msg_(msg ? (const char*)strdup(msg) : nullptr),
 8082b9e:	b108      	cbz	r0, 8082ba4 <_ZN8particle11PromiseBaseIbNS_6detail13FutureContextEE8setErrorENS_5ErrorE+0x8c>
 8082ba0:	f001 fb8a 	bl	80842b8 <strdup>
        type_(type) {
 8082ba4:	9006      	str	r0, [sp, #24]
            auto callbackPtr = new std::function<void()>(std::bind(callback, std::forward<ArgsT>(args)...));
 8082ba6:	2010      	movs	r0, #16
 8082ba8:	f8ad 501c 	strh.w	r5, [sp, #28]
 8082bac:	f7fd fa85 	bl	80800ba <_Znwj>
 8082bb0:	4605      	mov	r5, r0
 8082bb2:	b1e8      	cbz	r0, 8082bf0 <_ZN8particle11PromiseBaseIbNS_6detail13FutureContextEE8setErrorENS_5ErrorE+0xd8>
    _Function_base() : _M_manager(nullptr) { }
 8082bb4:	2700      	movs	r7, #0
 8082bb6:	6087      	str	r7, [r0, #8]
	{ __functor._M_access<_Functor*>() = new _Functor(std::move(__f)); }
 8082bb8:	2018      	movs	r0, #24
 8082bba:	f7fd fa7e 	bl	80800ba <_Znwj>
 8082bbe:	4604      	mov	r4, r0
 8082bc0:	b188      	cbz	r0, 8082be6 <_ZN8particle11PromiseBaseIbNS_6detail13FutureContextEE8setErrorENS_5ErrorE+0xce>
	std::swap(_M_functor, __x._M_functor);
 8082bc2:	4601      	mov	r1, r0
    _Function_base() : _M_manager(nullptr) { }
 8082bc4:	6087      	str	r7, [r0, #8]
	std::swap(_M_functor, __x._M_functor);
 8082bc6:	a802      	add	r0, sp, #8
 8082bc8:	f7ff fe04 	bl	80827d4 <_ZSt4swapISt9_Any_dataENSt9enable_ifIXsrSt6__and_IJSt6__not_ISt15__is_tuple_likeIT_EESt21is_move_constructibleIS5_ESt18is_move_assignableIS5_EEE5valueEvE4typeERS5_SF_>
      _Tp __tmp = _GLIBCXX_MOVE(__a);
 8082bcc:	9b04      	ldr	r3, [sp, #16]
      __a = _GLIBCXX_MOVE(__b);
 8082bce:	68a2      	ldr	r2, [r4, #8]
      __b = _GLIBCXX_MOVE(__tmp);
 8082bd0:	60a3      	str	r3, [r4, #8]
      _Tp __tmp = _GLIBCXX_MOVE(__a);
 8082bd2:	9b05      	ldr	r3, [sp, #20]
      __a = _GLIBCXX_MOVE(__b);
 8082bd4:	9204      	str	r2, [sp, #16]
 8082bd6:	68e2      	ldr	r2, [r4, #12]
      constexpr _Head_base(const _Head_base&) = default;
      constexpr _Head_base(_Head_base&&) = default;

      template<typename _UHead>
        constexpr _Head_base(_UHead&& __h)
	: _M_head_impl(std::forward<_UHead>(__h)) { }
 8082bd8:	a906      	add	r1, sp, #24
      __b = _GLIBCXX_MOVE(__tmp);
 8082bda:	60e3      	str	r3, [r4, #12]
 8082bdc:	f104 0010 	add.w	r0, r4, #16
      __a = _GLIBCXX_MOVE(__b);
 8082be0:	9205      	str	r2, [sp, #20]
 8082be2:	f7ff fed7 	bl	8082994 <_ZN8particle5ErrorC1EOS0_>
	    _M_invoker = &_My_handler::_M_invoke;
 8082be6:	4b08      	ldr	r3, [pc, #32]	; (8082c08 <_ZN8particle11PromiseBaseIbNS_6detail13FutureContextEE8setErrorENS_5ErrorE+0xf0>)
	{ __functor._M_access<_Functor*>() = new _Functor(std::move(__f)); }
 8082be8:	602c      	str	r4, [r5, #0]
	    _M_invoker = &_My_handler::_M_invoke;
 8082bea:	60eb      	str	r3, [r5, #12]
	    _M_manager = &_My_handler::_M_manager;
 8082bec:	4b07      	ldr	r3, [pc, #28]	; (8082c0c <_ZN8particle11PromiseBaseIbNS_6detail13FutureContextEE8setErrorENS_5ErrorE+0xf4>)
 8082bee:	60ab      	str	r3, [r5, #8]
    struct _Head_base<_Idx, _Head, false>
 8082bf0:	a806      	add	r0, sp, #24
 8082bf2:	f7ff fedc 	bl	80829ae <_ZN8particle5ErrorD1Ev>
    class function<_Res(_ArgTypes...)>
 8082bf6:	a802      	add	r0, sp, #8
 8082bf8:	f7ff fddd 	bl	80827b6 <_ZNSt14_Function_baseD1Ev>
        return (application_thread_invoke(callback, data, nullptr) == 0);
 8082bfc:	2200      	movs	r2, #0
 8082bfe:	4629      	mov	r1, r5
 8082c00:	4803      	ldr	r0, [pc, #12]	; (8082c10 <_ZN8particle11PromiseBaseIbNS_6detail13FutureContextEE8setErrorENS_5ErrorE+0xf8>)
 8082c02:	f7ff f903 	bl	8081e0c <application_thread_invoke>
 8082c06:	e7b7      	b.n	8082b78 <_ZN8particle11PromiseBaseIbNS_6detail13FutureContextEE8setErrorENS_5ErrorE+0x60>
 8082c08:	08082aa1 	.word	0x08082aa1
 8082c0c:	08082d39 	.word	0x08082d39
 8082c10:	080832fd 	.word	0x080832fd

08082c14 <_ZN10CloudClass13publish_eventEPKcS1_iN8particle5FlagsI15PublishFlagTypehEE>:

Future<bool> CloudClass::publish_event(const char *eventName, const char *eventData, int ttl, PublishFlags flags) {
 8082c14:	e92d 47f0 	stmdb	sp!, {r4, r5, r6, r7, r8, r9, sl, lr}
 8082c18:	b08a      	sub	sp, #40	; 0x28
 8082c1a:	4605      	mov	r5, r0
 8082c1c:	460c      	mov	r4, r1
 8082c1e:	4617      	mov	r7, r2
 8082c20:	4698      	mov	r8, r3
 8082c22:	f89d 9048 	ldrb.w	r9, [sp, #72]	; 0x48
    static bool connected(void) { return spark_cloud_flag_connected(); }
 8082c26:	f7ff f997 	bl	8081f58 <spark_cloud_flag_connected>
 8082c2a:	ae07      	add	r6, sp, #28
    if (!connected()) {
 8082c2c:	4682      	mov	sl, r0
 8082c2e:	bb38      	cbnz	r0, 8082c80 <_ZN10CloudClass13publish_eventEPKcS1_iN8particle5FlagsI15PublishFlagTypehEE+0x6c>
        type_(type) {
 8082c30:	f64f 732e 	movw	r3, #65326	; 0xff2e
 8082c34:	9005      	str	r0, [sp, #20]
    typedef typename detail::FutureImpl<ResultT, ContextT>::OnSuccessCallback OnSuccessCallback;
    typedef typename detail::FutureImpl<ResultT, ContextT>::OnErrorCallback OnErrorCallback;

    // Construct failed future
    explicit FutureBase(Error error) :
            p_(new detail::FutureImpl<ResultT, ContextT>(std::move(error))) {
 8082c36:	a905      	add	r1, sp, #20
 8082c38:	4630      	mov	r0, r6
 8082c3a:	f8ad 3018 	strh.w	r3, [sp, #24]
 8082c3e:	f7ff fea9 	bl	8082994 <_ZN8particle5ErrorC1EOS0_>
 8082c42:	2014      	movs	r0, #20
 8082c44:	f7fd fa39 	bl	80800ba <_Znwj>
 8082c48:	4604      	mov	r4, r0
 8082c4a:	b148      	cbz	r0, 8082c60 <_ZN10CloudClass13publish_eventEPKcS1_iN8particle5FlagsI15PublishFlagTypehEE+0x4c>
      constexpr atomic(_Tp __i) noexcept : _M_i(__i) { }
 8082c4c:	2302      	movs	r3, #2
 8082c4e:	7003      	strb	r3, [r0, #0]
      constexpr __atomic_base(__int_type __i) noexcept : _M_i (__i) { }
 8082c50:	2301      	movs	r3, #1
      constexpr __atomic_base(__pointer_type __p) noexcept : _M_p (__p) { }
 8082c52:	e9c0 aa01 	strd	sl, sl, [r0, #4]
      constexpr __atomic_base(__int_type __i) noexcept : _M_i (__i) { }
 8082c56:	7043      	strb	r3, [r0, #1]
            error_(std::move(error)) {
 8082c58:	4631      	mov	r1, r6
 8082c5a:	300c      	adds	r0, #12
 8082c5c:	f7ff fe9a 	bl	8082994 <_ZN8particle5ErrorC1EOS0_>
	: _M_ptr(__p), _M_refcount(__p, typename is_array<_Tp>::type())
 8082c60:	4628      	mov	r0, r5
	: __shared_count(__p)
 8082c62:	4621      	mov	r1, r4
	: _M_ptr(__p), _M_refcount(__p, typename is_array<_Tp>::type())
 8082c64:	f840 4b04 	str.w	r4, [r0], #4
	: __shared_count(__p)
 8082c68:	f7ff ff32 	bl	8082ad0 <_ZNSt14__shared_countILN9__gnu_cxx12_Lock_policyE0EEC1IPN8particle6detail10FutureImplIbNS5_13FutureContextEEEEET_>
            p_(new detail::FutureImpl<ResultT, ContextT>(std::move(error))) {
 8082c6c:	4630      	mov	r0, r6
 8082c6e:	f7ff fe9e 	bl	80829ae <_ZN8particle5ErrorD1Ev>
    }

    explicit FutureBase(Error::Type error) :
            FutureBase(Error(error)) {
 8082c72:	a805      	add	r0, sp, #20
 8082c74:	f7ff fe9b 	bl	80829ae <_ZN8particle5ErrorD1Ev>
        p.setError(Error::UNKNOWN);
        p.fromDataPtr(d.handler_data); // Free wrapper object
    }

    return p.future();
}
 8082c78:	4628      	mov	r0, r5
 8082c7a:	b00a      	add	sp, #40	; 0x28
 8082c7c:	e8bd 87f0 	ldmia.w	sp!, {r4, r5, r6, r7, r8, r9, sl, pc}
    spark_send_event_data d = { sizeof(spark_send_event_data) };
 8082c80:	230c      	movs	r3, #12
 8082c82:	f04f 0a00 	mov.w	sl, #0
            p_(new detail::FutureImpl<ResultT, ContextT>(State::RUNNING)) {
 8082c86:	2014      	movs	r0, #20
 8082c88:	e9cd aa08 	strd	sl, sl, [sp, #32]
 8082c8c:	9307      	str	r3, [sp, #28]
 8082c8e:	f7fd fa14 	bl	80800ba <_Znwj>
 8082c92:	4601      	mov	r1, r0
 8082c94:	b128      	cbz	r0, 8082ca2 <_ZN10CloudClass13publish_eventEPKcS1_iN8particle5FlagsI15PublishFlagTypehEE+0x8e>
      constexpr __atomic_base(__pointer_type __p) noexcept : _M_p (__p) { }
 8082c96:	e9c0 aa01 	strd	sl, sl, [r0, #4]
 8082c9a:	f880 a000 	strb.w	sl, [r0]
      constexpr __atomic_base(__int_type __i) noexcept : _M_i (__i) { }
 8082c9e:	f880 a001 	strb.w	sl, [r0, #1]
 8082ca2:	a804      	add	r0, sp, #16
	: _M_ptr(__p), _M_refcount(__p, typename is_array<_Tp>::type())
 8082ca4:	9103      	str	r1, [sp, #12]
	: __shared_count(__p)
 8082ca6:	f7ff ff13 	bl	8082ad0 <_ZNSt14__shared_countILN9__gnu_cxx12_Lock_policyE0EEC1IPN8particle6detail10FutureImplIbNS5_13FutureContextEEEEET_>
    d.handler_callback = publishCompletionCallback;
 8082caa:	4b22      	ldr	r3, [pc, #136]	; (8082d34 <_ZN10CloudClass13publish_eventEPKcS1_iN8particle5FlagsI15PublishFlagTypehEE+0x120>)
        return new detail::FutureImplPtr<ResultT, ContextT>(p_);
 8082cac:	2008      	movs	r0, #8
 8082cae:	9308      	str	r3, [sp, #32]
 8082cb0:	f7fd fa03 	bl	80800ba <_Znwj>
 8082cb4:	4682      	mov	sl, r0
 8082cb6:	b128      	cbz	r0, 8082cc4 <_ZN10CloudClass13publish_eventEPKcS1_iN8particle5FlagsI15PublishFlagTypehEE+0xb0>
      __shared_ptr(const __shared_ptr&) noexcept = default;
 8082cb8:	9b03      	ldr	r3, [sp, #12]
 8082cba:	a904      	add	r1, sp, #16
 8082cbc:	f840 3b04 	str.w	r3, [r0], #4
 8082cc0:	f7ff fc3b 	bl	808253a <_ZNSt14__shared_countILN9__gnu_cxx12_Lock_policyE0EEC1ERKS2_>
    if (!spark_send_event(eventName, eventData, ttl, flags.value(), &d) && !p.isDone()) {
 8082cc4:	4642      	mov	r2, r8
 8082cc6:	4639      	mov	r1, r7
 8082cc8:	4620      	mov	r0, r4
 8082cca:	9600      	str	r6, [sp, #0]
 8082ccc:	fa5f f389 	uxtb.w	r3, r9
    d.handler_data = p.dataPtr();
 8082cd0:	f8cd a024 	str.w	sl, [sp, #36]	; 0x24
    if (!spark_send_event(eventName, eventData, ttl, flags.value(), &d) && !p.isDone()) {
 8082cd4:	f7ff f948 	bl	8081f68 <spark_send_event>
 8082cd8:	b9b8      	cbnz	r0, 8082d0a <_ZN10CloudClass13publish_eventEPKcS1_iN8particle5FlagsI15PublishFlagTypehEE+0xf6>
	return __atomic_load_n(&_M_i, int(__m));
 8082cda:	9b03      	ldr	r3, [sp, #12]
 8082cdc:	785b      	ldrb	r3, [r3, #1]
 8082cde:	f003 02ff 	and.w	r2, r3, #255	; 0xff
 8082ce2:	b993      	cbnz	r3, 8082d0a <_ZN10CloudClass13publish_eventEPKcS1_iN8particle5FlagsI15PublishFlagTypehEE+0xf6>
 8082ce4:	f64f 739c 	movw	r3, #65436	; 0xff9c
        p.setError(Error::UNKNOWN);
 8082ce8:	a905      	add	r1, sp, #20
 8082cea:	a803      	add	r0, sp, #12
 8082cec:	9205      	str	r2, [sp, #20]
 8082cee:	f8ad 3018 	strh.w	r3, [sp, #24]
 8082cf2:	f7ff ff11 	bl	8082b18 <_ZN8particle11PromiseBaseIbNS_6detail13FutureContextEE8setErrorENS_5ErrorE>
 8082cf6:	a805      	add	r0, sp, #20
 8082cf8:	f7ff fe59 	bl	80829ae <_ZN8particle5ErrorD1Ev>
        p.fromDataPtr(d.handler_data); // Free wrapper object
 8082cfc:	a805      	add	r0, sp, #20
 8082cfe:	9909      	ldr	r1, [sp, #36]	; 0x24
 8082d00:	f7ff fea6 	bl	8082a50 <_ZN8particle11PromiseBaseIbNS_6detail13FutureContextEE11fromDataPtrEPv>
      ~__shared_ptr() = default;
 8082d04:	a806      	add	r0, sp, #24
 8082d06:	f7fd fa7e 	bl	8080206 <_ZNSt14__shared_countILN9__gnu_cxx12_Lock_policyE0EED1Ev>
      __shared_ptr(const __shared_ptr&) noexcept = default;
 8082d0a:	9b03      	ldr	r3, [sp, #12]
 8082d0c:	a904      	add	r1, sp, #16
 8082d0e:	a806      	add	r0, sp, #24
 8082d10:	9305      	str	r3, [sp, #20]
 8082d12:	f7ff fc12 	bl	808253a <_ZNSt14__shared_countILN9__gnu_cxx12_Lock_policyE0EEC1ERKS2_>
      : _M_ptr(__r._M_ptr), _M_refcount()
 8082d16:	9b05      	ldr	r3, [sp, #20]
	_Sp_counted_base<_Lp>* __tmp = __r._M_pi;
 8082d18:	9a06      	ldr	r2, [sp, #24]
      : _M_ptr(__r._M_ptr), _M_refcount()
 8082d1a:	602b      	str	r3, [r5, #0]
	__r._M_pi = _M_pi;
 8082d1c:	2300      	movs	r3, #0
	_M_pi = __tmp;
 8082d1e:	606a      	str	r2, [r5, #4]
      ~__shared_ptr() = default;
 8082d20:	a806      	add	r0, sp, #24
	__r._M_pi = _M_pi;
 8082d22:	9306      	str	r3, [sp, #24]
	__r._M_ptr = 0;
 8082d24:	9305      	str	r3, [sp, #20]
      ~__shared_ptr() = default;
 8082d26:	f7fd fa6e 	bl	8080206 <_ZNSt14__shared_countILN9__gnu_cxx12_Lock_policyE0EED1Ev>
 8082d2a:	a804      	add	r0, sp, #16
 8082d2c:	f7fd fa6b 	bl	8080206 <_ZNSt14__shared_countILN9__gnu_cxx12_Lock_policyE0EED1Ev>
class Promise: public PromiseBase<ResultT, ContextT> {
 8082d30:	e7a2      	b.n	8082c78 <_ZN10CloudClass13publish_eventEPKcS1_iN8particle5FlagsI15PublishFlagTypehEE+0x64>
 8082d32:	bf00      	nop
 8082d34:	08082dfd 	.word	0x08082dfd

08082d38 <_ZNSt14_Function_base13_Base_managerISt5_BindIFSt8functionIFvRKN8particle5ErrorEEES4_EEE10_M_managerERSt9_Any_dataRKSC_St18_Manager_operation>:
	  switch (__op)
 8082d38:	2a02      	cmp	r2, #2
	_M_manager(_Any_data& __dest, const _Any_data& __source,
 8082d3a:	b5f8      	push	{r3, r4, r5, r6, r7, lr}
 8082d3c:	4605      	mov	r5, r0
	  switch (__op)
 8082d3e:	d007      	beq.n	8082d50 <_ZNSt14_Function_base13_Base_managerISt5_BindIFSt8functionIFvRKN8particle5ErrorEEES4_EEE10_M_managerERSt9_Any_dataRKSC_St18_Manager_operation+0x18>
 8082d40:	2a03      	cmp	r2, #3
 8082d42:	d018      	beq.n	8082d76 <_ZNSt14_Function_base13_Base_managerISt5_BindIFSt8functionIFvRKN8particle5ErrorEEES4_EEE10_M_managerERSt9_Any_dataRKSC_St18_Manager_operation+0x3e>
 8082d44:	2a01      	cmp	r2, #1
 8082d46:	d101      	bne.n	8082d4c <_ZNSt14_Function_base13_Base_managerISt5_BindIFSt8functionIFvRKN8particle5ErrorEEES4_EEE10_M_managerERSt9_Any_dataRKSC_St18_Manager_operation+0x14>
	    return __source._M_access<_Functor*>();
 8082d48:	680b      	ldr	r3, [r1, #0]
	      __dest._M_access<_Functor*>() = _M_get_pointer(__source);
 8082d4a:	6003      	str	r3, [r0, #0]
	}
 8082d4c:	2000      	movs	r0, #0
 8082d4e:	bdf8      	pop	{r3, r4, r5, r6, r7, pc}
	    new _Functor(*__source._M_access<const _Functor*>());
 8082d50:	2018      	movs	r0, #24
	  __dest._M_access<_Functor*>() =
 8082d52:	680e      	ldr	r6, [r1, #0]
	    new _Functor(*__source._M_access<const _Functor*>());
 8082d54:	f7fd f9b1 	bl	80800ba <_Znwj>
 8082d58:	4604      	mov	r4, r0
 8082d5a:	b150      	cbz	r0, 8082d72 <_ZNSt14_Function_base13_Base_managerISt5_BindIFSt8functionIFvRKN8particle5ErrorEEES4_EEE10_M_managerERSt9_Any_dataRKSC_St18_Manager_operation+0x3a>
      template<typename... _Args>
	explicit _Bind(_Functor&& __f, _Args&&... __args)
	: _M_f(std::move(__f)), _M_bound_args(std::forward<_Args>(__args)...)
	{ }

      _Bind(const _Bind&) = default;
 8082d5c:	4631      	mov	r1, r6
 8082d5e:	f7ff fecb 	bl	8082af8 <_ZNSt8functionIFvRKN8particle5ErrorEEEC1ERKS5_>
        Error(error.type_, error.msg_) {
 8082d62:	6930      	ldr	r0, [r6, #16]
 8082d64:	f9b6 7014 	ldrsh.w	r7, [r6, #20]
        msg_(msg ? (const char*)strdup(msg) : nullptr),
 8082d68:	b108      	cbz	r0, 8082d6e <_ZNSt14_Function_base13_Base_managerISt5_BindIFSt8functionIFvRKN8particle5ErrorEEES4_EEE10_M_managerERSt9_Any_dataRKSC_St18_Manager_operation+0x36>
 8082d6a:	f001 faa5 	bl	80842b8 <strdup>
        type_(type) {
 8082d6e:	6120      	str	r0, [r4, #16]
 8082d70:	82a7      	strh	r7, [r4, #20]
	  __dest._M_access<_Functor*>() =
 8082d72:	602c      	str	r4, [r5, #0]
	}
 8082d74:	e7ea      	b.n	8082d4c <_ZNSt14_Function_base13_Base_managerISt5_BindIFSt8functionIFvRKN8particle5ErrorEEES4_EEE10_M_managerERSt9_Any_dataRKSC_St18_Manager_operation+0x14>
	  delete __victim._M_access<_Functor*>();
 8082d76:	6804      	ldr	r4, [r0, #0]
 8082d78:	2c00      	cmp	r4, #0
 8082d7a:	d0e7      	beq.n	8082d4c <_ZNSt14_Function_base13_Base_managerISt5_BindIFSt8functionIFvRKN8particle5ErrorEEES4_EEE10_M_managerERSt9_Any_dataRKSC_St18_Manager_operation+0x14>
 8082d7c:	f104 0010 	add.w	r0, r4, #16
 8082d80:	f7ff fe15 	bl	80829ae <_ZN8particle5ErrorD1Ev>
    class function<_Res(_ArgTypes...)>
 8082d84:	4620      	mov	r0, r4
 8082d86:	f7ff fd16 	bl	80827b6 <_ZNSt14_Function_baseD1Ev>
	  delete __victim._M_access<_Functor*>();
 8082d8a:	2118      	movs	r1, #24
 8082d8c:	4620      	mov	r0, r4
 8082d8e:	f000 fc8a 	bl	80836a6 <_ZdlPvj>
 8082d92:	e7db      	b.n	8082d4c <_ZNSt14_Function_base13_Base_managerISt5_BindIFSt8functionIFvRKN8particle5ErrorEEES4_EEE10_M_managerERSt9_Any_dataRKSC_St18_Manager_operation+0x14>

08082d94 <_ZNSt8functionIFvRKbEEC1ERKS3_>:
    function<_Res(_ArgTypes...)>::
 8082d94:	b538      	push	{r3, r4, r5, lr}
    _Function_base() : _M_manager(nullptr) { }
 8082d96:	2300      	movs	r3, #0
 8082d98:	6083      	str	r3, [r0, #8]
      { return !_M_empty(); }
 8082d9a:	688b      	ldr	r3, [r1, #8]
    function<_Res(_ArgTypes...)>::
 8082d9c:	4604      	mov	r4, r0
 8082d9e:	460d      	mov	r5, r1
      if (static_cast<bool>(__x))
 8082da0:	b12b      	cbz	r3, 8082dae <_ZNSt8functionIFvRKbEEC1ERKS3_+0x1a>
	  __x._M_manager(_M_functor, __x._M_functor, __clone_functor);
 8082da2:	2202      	movs	r2, #2
 8082da4:	4798      	blx	r3
	  _M_invoker = __x._M_invoker;
 8082da6:	68eb      	ldr	r3, [r5, #12]
 8082da8:	60e3      	str	r3, [r4, #12]
	  _M_manager = __x._M_manager;
 8082daa:	68ab      	ldr	r3, [r5, #8]
 8082dac:	60a3      	str	r3, [r4, #8]
    }
 8082dae:	4620      	mov	r0, r4
 8082db0:	bd38      	pop	{r3, r4, r5, pc}

08082db2 <_ZNSt14_Function_base13_Base_managerISt5_BindIFSt8functionIFvRKbEEbEEE10_M_managerERSt9_Any_dataRKSA_St18_Manager_operation>:
	  switch (__op)
 8082db2:	2a02      	cmp	r2, #2
	_M_manager(_Any_data& __dest, const _Any_data& __source,
 8082db4:	b570      	push	{r4, r5, r6, lr}
 8082db6:	4604      	mov	r4, r0
	  switch (__op)
 8082db8:	d007      	beq.n	8082dca <_ZNSt14_Function_base13_Base_managerISt5_BindIFSt8functionIFvRKbEEbEEE10_M_managerERSt9_Any_dataRKSA_St18_Manager_operation+0x18>
 8082dba:	2a03      	cmp	r2, #3
 8082dbc:	d012      	beq.n	8082de4 <_ZNSt14_Function_base13_Base_managerISt5_BindIFSt8functionIFvRKbEEbEEE10_M_managerERSt9_Any_dataRKSA_St18_Manager_operation+0x32>
 8082dbe:	2a01      	cmp	r2, #1
 8082dc0:	d101      	bne.n	8082dc6 <_ZNSt14_Function_base13_Base_managerISt5_BindIFSt8functionIFvRKbEEbEEE10_M_managerERSt9_Any_dataRKSA_St18_Manager_operation+0x14>
	    return __source._M_access<_Functor*>();
 8082dc2:	680b      	ldr	r3, [r1, #0]
	      __dest._M_access<_Functor*>() = _M_get_pointer(__source);
 8082dc4:	6003      	str	r3, [r0, #0]
	}
 8082dc6:	2000      	movs	r0, #0
 8082dc8:	bd70      	pop	{r4, r5, r6, pc}
	    new _Functor(*__source._M_access<const _Functor*>());
 8082dca:	2014      	movs	r0, #20
	  __dest._M_access<_Functor*>() =
 8082dcc:	680e      	ldr	r6, [r1, #0]
	    new _Functor(*__source._M_access<const _Functor*>());
 8082dce:	f7fd f974 	bl	80800ba <_Znwj>
 8082dd2:	4605      	mov	r5, r0
 8082dd4:	b120      	cbz	r0, 8082de0 <_ZNSt14_Function_base13_Base_managerISt5_BindIFSt8functionIFvRKbEEbEEE10_M_managerERSt9_Any_dataRKSA_St18_Manager_operation+0x2e>
 8082dd6:	4631      	mov	r1, r6
 8082dd8:	f7ff ffdc 	bl	8082d94 <_ZNSt8functionIFvRKbEEC1ERKS3_>
 8082ddc:	7c33      	ldrb	r3, [r6, #16]
 8082dde:	742b      	strb	r3, [r5, #16]
	  __dest._M_access<_Functor*>() =
 8082de0:	6025      	str	r5, [r4, #0]
	}
 8082de2:	e7f0      	b.n	8082dc6 <_ZNSt14_Function_base13_Base_managerISt5_BindIFSt8functionIFvRKbEEbEEE10_M_managerERSt9_Any_dataRKSA_St18_Manager_operation+0x14>
	  delete __victim._M_access<_Functor*>();
 8082de4:	6804      	ldr	r4, [r0, #0]
 8082de6:	2c00      	cmp	r4, #0
 8082de8:	d0ed      	beq.n	8082dc6 <_ZNSt14_Function_base13_Base_managerISt5_BindIFSt8functionIFvRKbEEbEEE10_M_managerERSt9_Any_dataRKSA_St18_Manager_operation+0x14>
    class function<_Res(_ArgTypes...)>
 8082dea:	4620      	mov	r0, r4
 8082dec:	f7ff fce3 	bl	80827b6 <_ZNSt14_Function_baseD1Ev>
	  delete __victim._M_access<_Functor*>();
 8082df0:	2114      	movs	r1, #20
 8082df2:	4620      	mov	r0, r4
 8082df4:	f000 fc57 	bl	80836a6 <_ZdlPvj>
 8082df8:	e7e5      	b.n	8082dc6 <_ZNSt14_Function_base13_Base_managerISt5_BindIFSt8functionIFvRKbEEbEEE10_M_managerERSt9_Any_dataRKSA_St18_Manager_operation+0x14>
	...

08082dfc <_ZN12_GLOBAL__N_125publishCompletionCallbackEiPKvPvS2_>:
void publishCompletionCallback(int error, const void* data, void* callbackData, void* reserved) {
 8082dfc:	b5f0      	push	{r4, r5, r6, r7, lr}
 8082dfe:	4604      	mov	r4, r0
 8082e00:	b089      	sub	sp, #36	; 0x24
 8082e02:	460d      	mov	r5, r1
    auto p = Promise<bool>::fromDataPtr(callbackData);
 8082e04:	a801      	add	r0, sp, #4
 8082e06:	4611      	mov	r1, r2
 8082e08:	f7ff fe22 	bl	8082a50 <_ZN8particle11PromiseBaseIbNS_6detail13FutureContextEE11fromDataPtrEPv>
    if (error != Error::NONE) {
 8082e0c:	b1a4      	cbz	r4, 8082e38 <_ZN12_GLOBAL__N_125publishCompletionCallbackEiPKvPvS2_+0x3c>
        p.setError(Error((Error::Type)error, (const char*)data));
 8082e0e:	b224      	sxth	r4, r4
        msg_(msg ? (const char*)strdup(msg) : nullptr),
 8082e10:	b11d      	cbz	r5, 8082e1a <_ZN12_GLOBAL__N_125publishCompletionCallbackEiPKvPvS2_+0x1e>
 8082e12:	4628      	mov	r0, r5
 8082e14:	f001 fa50 	bl	80842b8 <strdup>
 8082e18:	4605      	mov	r5, r0
 8082e1a:	a801      	add	r0, sp, #4
 8082e1c:	a903      	add	r1, sp, #12
        type_(type) {
 8082e1e:	9503      	str	r5, [sp, #12]
 8082e20:	f8ad 4010 	strh.w	r4, [sp, #16]
 8082e24:	f7ff fe78 	bl	8082b18 <_ZN8particle11PromiseBaseIbNS_6detail13FutureContextEE8setErrorENS_5ErrorE>
 8082e28:	a803      	add	r0, sp, #12
 8082e2a:	f7ff fdc0 	bl	80829ae <_ZN8particle5ErrorD1Ev>
 8082e2e:	a802      	add	r0, sp, #8
 8082e30:	f7fd f9e9 	bl	8080206 <_ZNSt14__shared_countILN9__gnu_cxx12_Lock_policyE0EED1Ev>
}
 8082e34:	b009      	add	sp, #36	; 0x24
 8082e36:	bdf0      	pop	{r4, r5, r6, r7, pc}
	return __atomic_compare_exchange(std::__addressof(_M_i),
 8082e38:	2301      	movs	r3, #1
      { return static_cast<const __shared_ptr<_Tp, _Lp>*>(this)->get(); }
 8082e3a:	9d01      	ldr	r5, [sp, #4]
 8082e3c:	e8d5 2f4f 	ldrexb	r2, [r5]
 8082e40:	2a00      	cmp	r2, #0
 8082e42:	d103      	bne.n	8082e4c <_ZN12_GLOBAL__N_125publishCompletionCallbackEiPKvPvS2_+0x50>
 8082e44:	e8c5 3f41 	strexb	r1, r3, [r5]
 8082e48:	2900      	cmp	r1, #0
 8082e4a:	d1f7      	bne.n	8082e3c <_ZN12_GLOBAL__N_125publishCompletionCallbackEiPKvPvS2_+0x40>
        if (this->changeState(State::SUCCEEDED)) {
 8082e4c:	d1ef      	bne.n	8082e2e <_ZN12_GLOBAL__N_125publishCompletionCallbackEiPKvPvS2_+0x32>
            new(&result_) ResultT(std::move(result));
 8082e4e:	732b      	strb	r3, [r5, #12]
	__atomic_store_n(&_M_i, __i, int(__m));
 8082e50:	f3bf 8f5b 	dmb	ish
 8082e54:	706b      	strb	r3, [r5, #1]
	return __atomic_exchange_n(&_M_p, __p, int(__m));
 8082e56:	f3bf 8f5b 	dmb	ish
 8082e5a:	1d2b      	adds	r3, r5, #4
 8082e5c:	e853 6f00 	ldrex	r6, [r3]
 8082e60:	e843 4200 	strex	r2, r4, [r3]
 8082e64:	2a00      	cmp	r2, #0
 8082e66:	d1f9      	bne.n	8082e5c <_ZN12_GLOBAL__N_125publishCompletionCallbackEiPKvPvS2_+0x60>
 8082e68:	f3bf 8f5b 	dmb	ish
        if (callbackPtr) {
 8082e6c:	2e00      	cmp	r6, #0
 8082e6e:	d0de      	beq.n	8082e2e <_ZN12_GLOBAL__N_125publishCompletionCallbackEiPKvPvS2_+0x32>
        return (application_thread_current(nullptr) != 0);
 8082e70:	4620      	mov	r0, r4
 8082e72:	f7fe ffc3 	bl	8081dfc <application_thread_current>
        if (ContextT::isApplicationThreadCurrent()) {
 8082e76:	4607      	mov	r7, r0
 8082e78:	b160      	cbz	r0, 8082e94 <_ZN12_GLOBAL__N_125publishCompletionCallbackEiPKvPvS2_+0x98>
            callback(std::forward<ArgsT>(args)...); // Synchronous call
 8082e7a:	4630      	mov	r0, r6
 8082e7c:	f105 010c 	add.w	r1, r5, #12
 8082e80:	f7ff fe15 	bl	8082aae <_ZNKSt8functionIFvRKbEEclES1_>
    class function<_Res(_ArgTypes...)>
 8082e84:	4630      	mov	r0, r6
 8082e86:	f7ff fc96 	bl	80827b6 <_ZNSt14_Function_baseD1Ev>
            delete callbackPtr;
 8082e8a:	2110      	movs	r1, #16
 8082e8c:	4630      	mov	r0, r6
 8082e8e:	f000 fc0a 	bl	80836a6 <_ZdlPvj>
 8082e92:	e7cc      	b.n	8082e2e <_ZN12_GLOBAL__N_125publishCompletionCallbackEiPKvPvS2_+0x32>
	: _M_f(__f), _M_bound_args(std::forward<_Args>(__args)...)
 8082e94:	4631      	mov	r1, r6
 8082e96:	a803      	add	r0, sp, #12
 8082e98:	f7ff ff7c 	bl	8082d94 <_ZNSt8functionIFvRKbEEC1ERKS3_>
	: _M_head_impl(std::forward<_UHead>(__h)) { }
 8082e9c:	7b2b      	ldrb	r3, [r5, #12]
            auto callbackPtr = new std::function<void()>(std::bind(callback, std::forward<ArgsT>(args)...));
 8082e9e:	2010      	movs	r0, #16
 8082ea0:	f88d 301c 	strb.w	r3, [sp, #28]
 8082ea4:	f7fd f909 	bl	80800ba <_Znwj>
 8082ea8:	4605      	mov	r5, r0
 8082eaa:	b1d0      	cbz	r0, 8082ee2 <_ZN12_GLOBAL__N_125publishCompletionCallbackEiPKvPvS2_+0xe6>
    _Function_base() : _M_manager(nullptr) { }
 8082eac:	6087      	str	r7, [r0, #8]
	{ __functor._M_access<_Functor*>() = new _Functor(std::move(__f)); }
 8082eae:	2014      	movs	r0, #20
 8082eb0:	f7fd f903 	bl	80800ba <_Znwj>
 8082eb4:	4604      	mov	r4, r0
 8082eb6:	b178      	cbz	r0, 8082ed8 <_ZN12_GLOBAL__N_125publishCompletionCallbackEiPKvPvS2_+0xdc>
	std::swap(_M_functor, __x._M_functor);
 8082eb8:	4601      	mov	r1, r0
    _Function_base() : _M_manager(nullptr) { }
 8082eba:	6087      	str	r7, [r0, #8]
	std::swap(_M_functor, __x._M_functor);
 8082ebc:	a803      	add	r0, sp, #12
 8082ebe:	f7ff fc89 	bl	80827d4 <_ZSt4swapISt9_Any_dataENSt9enable_ifIXsrSt6__and_IJSt6__not_ISt15__is_tuple_likeIT_EESt21is_move_constructibleIS5_ESt18is_move_assignableIS5_EEE5valueEvE4typeERS5_SF_>
      _Tp __tmp = _GLIBCXX_MOVE(__a);
 8082ec2:	9b05      	ldr	r3, [sp, #20]
      __a = _GLIBCXX_MOVE(__b);
 8082ec4:	68a2      	ldr	r2, [r4, #8]
      __b = _GLIBCXX_MOVE(__tmp);
 8082ec6:	60a3      	str	r3, [r4, #8]
      _Tp __tmp = _GLIBCXX_MOVE(__a);
 8082ec8:	9b06      	ldr	r3, [sp, #24]
      __a = _GLIBCXX_MOVE(__b);
 8082eca:	9205      	str	r2, [sp, #20]
 8082ecc:	68e2      	ldr	r2, [r4, #12]
      __b = _GLIBCXX_MOVE(__tmp);
 8082ece:	60e3      	str	r3, [r4, #12]
 8082ed0:	f89d 301c 	ldrb.w	r3, [sp, #28]
      __a = _GLIBCXX_MOVE(__b);
 8082ed4:	9206      	str	r2, [sp, #24]
 8082ed6:	7423      	strb	r3, [r4, #16]
	    _M_invoker = &_My_handler::_M_invoke;
 8082ed8:	4b06      	ldr	r3, [pc, #24]	; (8082ef4 <_ZN12_GLOBAL__N_125publishCompletionCallbackEiPKvPvS2_+0xf8>)
	{ __functor._M_access<_Functor*>() = new _Functor(std::move(__f)); }
 8082eda:	602c      	str	r4, [r5, #0]
	    _M_invoker = &_My_handler::_M_invoke;
 8082edc:	60eb      	str	r3, [r5, #12]
	    _M_manager = &_My_handler::_M_manager;
 8082ede:	4b06      	ldr	r3, [pc, #24]	; (8082ef8 <_ZN12_GLOBAL__N_125publishCompletionCallbackEiPKvPvS2_+0xfc>)
 8082ee0:	60ab      	str	r3, [r5, #8]
    class function<_Res(_ArgTypes...)>
 8082ee2:	a803      	add	r0, sp, #12
 8082ee4:	f7ff fc67 	bl	80827b6 <_ZNSt14_Function_baseD1Ev>
        return (application_thread_invoke(callback, data, nullptr) == 0);
 8082ee8:	2200      	movs	r2, #0
 8082eea:	4629      	mov	r1, r5
 8082eec:	4803      	ldr	r0, [pc, #12]	; (8082efc <_ZN12_GLOBAL__N_125publishCompletionCallbackEiPKvPvS2_+0x100>)
 8082eee:	f7fe ff8d 	bl	8081e0c <application_thread_invoke>
 8082ef2:	e7c7      	b.n	8082e84 <_ZN12_GLOBAL__N_125publishCompletionCallbackEiPKvPvS2_+0x88>
 8082ef4:	08082ac1 	.word	0x08082ac1
 8082ef8:	08082db3 	.word	0x08082db3
 8082efc:	080832fd 	.word	0x080832fd

08082f00 <_ZN9IPAddressD1Ev>:
    IPAddress(uint8_t first_octet, uint8_t second_octet, uint8_t third_octet, uint8_t fourth_octet);
    IPAddress(uint32_t address);
    IPAddress(const uint8_t* address);
    IPAddress(const HAL_IPAddress& address);

    virtual ~IPAddress() {}
 8082f00:	4770      	bx	lr

08082f02 <_ZN9IPAddressD0Ev>:
 8082f02:	b510      	push	{r4, lr}
 8082f04:	4604      	mov	r4, r0
 8082f06:	2108      	movs	r1, #8
 8082f08:	f000 fbcd 	bl	80836a6 <_ZdlPvj>
 8082f0c:	4620      	mov	r0, r4
 8082f0e:	bd10      	pop	{r4, pc}

08082f10 <_ZNK9IPAddress7printToER5Print>:
#endif // Wiring_IPv6
	return address.ipv4==that.address.ipv4;
}

size_t IPAddress::printTo(Print& p) const
{
 8082f10:	b5f8      	push	{r3, r4, r5, r6, r7, lr}
 8082f12:	460e      	mov	r6, r1
 8082f14:	2400      	movs	r4, #0
 8082f16:	f100 0708 	add.w	r7, r0, #8
 8082f1a:	1d05      	adds	r5, r0, #4
            val = n;
        }
#if __GNUC__ >= 9
#pragma GCC diagnostic pop
#endif // __GNUC__ >= 9
        return printNumber(val, base) + t;
 8082f1c:	f817 1d01 	ldrb.w	r1, [r7, #-1]!
 8082f20:	220a      	movs	r2, #10
 8082f22:	4630      	mov	r0, r6
 8082f24:	f7ff fabb 	bl	808249e <_ZN5Print11printNumberEmh>
#else
#pragma message "HAL_USE_INET_HAL_POSIX is required for IPv6 support in IPAddress::printTo()"
#endif // HAL_USE_INET_HAL_POSIX
#endif // Wiring_IPv6
    size_t n = 0;
    for (int i = 0; i < 4; i++)
 8082f28:	42af      	cmp	r7, r5
    {
        if (n)
            n += p.print('.');
        n += p.print((*this)[i], DEC);
 8082f2a:	4404      	add	r4, r0
    for (int i = 0; i < 4; i++)
 8082f2c:	d101      	bne.n	8082f32 <_ZNK9IPAddress7printToER5Print+0x22>
    }
    return n;
}
 8082f2e:	4620      	mov	r0, r4
 8082f30:	bdf8      	pop	{r3, r4, r5, r6, r7, pc}
        if (n)
 8082f32:	2c00      	cmp	r4, #0
 8082f34:	d0f2      	beq.n	8082f1c <_ZNK9IPAddress7printToER5Print+0xc>
            n += p.print('.');
 8082f36:	212e      	movs	r1, #46	; 0x2e
 8082f38:	4630      	mov	r0, r6
 8082f3a:	f7ff faa1 	bl	8082480 <_ZN5Print5printEc>
 8082f3e:	4404      	add	r4, r0
 8082f40:	e7ec      	b.n	8082f1c <_ZNK9IPAddress7printToER5Print+0xc>
	...

08082f44 <_ZN9IPAddressC1Ev>:
IPAddress::IPAddress()
 8082f44:	4a02      	ldr	r2, [pc, #8]	; (8082f50 <_ZN9IPAddressC1Ev+0xc>)
 8082f46:	6002      	str	r2, [r0, #0]
        return address;
    }

    virtual size_t printTo(Print& p) const;

    void clear() { memset(&address, 0, sizeof (address)); }
 8082f48:	2200      	movs	r2, #0
 8082f4a:	6042      	str	r2, [r0, #4]
}
 8082f4c:	4770      	bx	lr
 8082f4e:	bf00      	nop
 8082f50:	080864d0 	.word	0x080864d0

08082f54 <_ZN9IPAddressC1ERK16_HAL_IPAddress_t>:
IPAddress::IPAddress(const HAL_IPAddress& address)
 8082f54:	4a02      	ldr	r2, [pc, #8]	; (8082f60 <_ZN9IPAddressC1ERK16_HAL_IPAddress_t+0xc>)
 8082f56:	6002      	str	r2, [r0, #0]
    memcpy(&this->address, &address, sizeof(address));
 8082f58:	680a      	ldr	r2, [r1, #0]
 8082f5a:	6042      	str	r2, [r0, #4]
}
 8082f5c:	4770      	bx	lr
 8082f5e:	bf00      	nop
 8082f60:	080864d0 	.word	0x080864d0

08082f64 <_ZN9IPAddressC1Em>:
IPAddress::IPAddress(uint32_t address)
 8082f64:	4a01      	ldr	r2, [pc, #4]	; (8082f6c <_ZN9IPAddressC1Em+0x8>)
    address.ipv4 = ipv4;
 8082f66:	e9c0 2100 	strd	r2, r1, [r0]
}
 8082f6a:	4770      	bx	lr
 8082f6c:	080864d0 	.word	0x080864d0

08082f70 <_ZN9IPAddress8set_ipv4Ehhhh>:
{
 8082f70:	b510      	push	{r4, lr}
    address.ipv4 = b0<<24 | b1 << 16 | b2 << 8 | b3;
 8082f72:	f89d 4008 	ldrb.w	r4, [sp, #8]
 8082f76:	ea44 2403 	orr.w	r4, r4, r3, lsl #8
 8082f7a:	ea44 4402 	orr.w	r4, r4, r2, lsl #16
 8082f7e:	ea44 6401 	orr.w	r4, r4, r1, lsl #24
 8082f82:	6044      	str	r4, [r0, #4]
}
 8082f84:	bd10      	pop	{r4, pc}
	...

08082f88 <_ZN9IPAddressC1Ehhhh>:
IPAddress::IPAddress(uint8_t first_octet, uint8_t second_octet, uint8_t third_octet, uint8_t fourth_octet)
 8082f88:	b537      	push	{r0, r1, r2, r4, r5, lr}
 8082f8a:	4d04      	ldr	r5, [pc, #16]	; (8082f9c <_ZN9IPAddressC1Ehhhh+0x14>)
 8082f8c:	6005      	str	r5, [r0, #0]
    set_ipv4(first_octet, second_octet, third_octet, fourth_octet);
 8082f8e:	f89d 5018 	ldrb.w	r5, [sp, #24]
 8082f92:	9500      	str	r5, [sp, #0]
 8082f94:	f7ff ffec 	bl	8082f70 <_ZN9IPAddress8set_ipv4Ehhhh>
}
 8082f98:	b003      	add	sp, #12
 8082f9a:	bd30      	pop	{r4, r5, pc}
 8082f9c:	080864d0 	.word	0x080864d0

08082fa0 <_ZN9USBSerial14blockOnOverrunEb>:
  HAL_USB_USART_Flush_Data(_serial);
}

void USBSerial::blockOnOverrun(bool block)
{
  _blocking = block;
 8082fa0:	7441      	strb	r1, [r0, #17]
}
 8082fa2:	4770      	bx	lr

08082fa4 <_ZN9USBSerialD1Ev>:
#include "usb_hal.h"
#include "system_task.h"
#include "spark_wiring_startup.h"
#include "concurrent_hal.h"

class USBSerial : public Stream
 8082fa4:	4770      	bx	lr

08082fa6 <_ZN9USBSerial4readEv>:
{
 8082fa6:	b508      	push	{r3, lr}
	return std::max(-1, (int)HAL_USB_USART_Receive_Data(_serial, false));
 8082fa8:	2100      	movs	r1, #0
 8082faa:	7c00      	ldrb	r0, [r0, #16]
 8082fac:	f7fe feee 	bl	8081d8c <HAL_USB_USART_Receive_Data>
}
 8082fb0:	ea40 70e0 	orr.w	r0, r0, r0, asr #31
 8082fb4:	bd08      	pop	{r3, pc}

08082fb6 <_ZN9USBSerial4peekEv>:

int USBSerial::peek()
{
 8082fb6:	b508      	push	{r3, lr}
	return std::max(-1, (int)HAL_USB_USART_Receive_Data(_serial, true));
 8082fb8:	2101      	movs	r1, #1
 8082fba:	7c00      	ldrb	r0, [r0, #16]
 8082fbc:	f7fe fee6 	bl	8081d8c <HAL_USB_USART_Receive_Data>
}
 8082fc0:	ea40 70e0 	orr.w	r0, r0, r0, asr #31
 8082fc4:	bd08      	pop	{r3, pc}

08082fc6 <_ZN9USBSerial17availableForWriteEv>:
{
 8082fc6:	b508      	push	{r3, lr}
  return std::max(0, (int)HAL_USB_USART_Available_Data_For_Write(_serial));
 8082fc8:	7c00      	ldrb	r0, [r0, #16]
 8082fca:	f7fe fed7 	bl	8081d7c <HAL_USB_USART_Available_Data_For_Write>
}
 8082fce:	ea20 70e0 	bic.w	r0, r0, r0, asr #31
 8082fd2:	bd08      	pop	{r3, pc}

08082fd4 <_ZN9USBSerial9availableEv>:
{
 8082fd4:	b508      	push	{r3, lr}
	return std::max(0, (int)HAL_USB_USART_Available_Data(_serial));
 8082fd6:	7c00      	ldrb	r0, [r0, #16]
 8082fd8:	f7fe fec8 	bl	8081d6c <HAL_USB_USART_Available_Data>
}
 8082fdc:	ea20 70e0 	bic.w	r0, r0, r0, asr #31
 8082fe0:	bd08      	pop	{r3, pc}

08082fe2 <_ZN9USBSerial5writeEh>:
{
 8082fe2:	b538      	push	{r3, r4, r5, lr}
 8082fe4:	4604      	mov	r4, r0
  if (HAL_USB_USART_Available_Data_For_Write(_serial) > 0 || _blocking) {
 8082fe6:	7c00      	ldrb	r0, [r0, #16]
{
 8082fe8:	460d      	mov	r5, r1
  if (HAL_USB_USART_Available_Data_For_Write(_serial) > 0 || _blocking) {
 8082fea:	f7fe fec7 	bl	8081d7c <HAL_USB_USART_Available_Data_For_Write>
 8082fee:	2800      	cmp	r0, #0
 8082ff0:	dc01      	bgt.n	8082ff6 <_ZN9USBSerial5writeEh+0x14>
 8082ff2:	7c60      	ldrb	r0, [r4, #17]
 8082ff4:	b128      	cbz	r0, 8083002 <_ZN9USBSerial5writeEh+0x20>
    return std::max(0, (int)HAL_USB_USART_Send_Data(_serial, byte));
 8082ff6:	4629      	mov	r1, r5
 8082ff8:	7c20      	ldrb	r0, [r4, #16]
 8082ffa:	f7fe fecf 	bl	8081d9c <HAL_USB_USART_Send_Data>
 8082ffe:	ea20 70e0 	bic.w	r0, r0, r0, asr #31
}
 8083002:	bd38      	pop	{r3, r4, r5, pc}

08083004 <_ZN9USBSerial5flushEv>:
  HAL_USB_USART_Flush_Data(_serial);
 8083004:	7c00      	ldrb	r0, [r0, #16]
 8083006:	f7fe bed1 	b.w	8081dac <HAL_USB_USART_Flush_Data>

0808300a <_ZN9USBSerialD0Ev>:
 808300a:	b510      	push	{r4, lr}
 808300c:	4604      	mov	r4, r0
 808300e:	2114      	movs	r1, #20
 8083010:	f000 fb49 	bl	80836a6 <_ZdlPvj>
 8083014:	4620      	mov	r0, r4
 8083016:	bd10      	pop	{r4, pc}

08083018 <_ZN9USBSerialC1E20HAL_USB_USART_SerialRK20HAL_USB_USART_Config>:
USBSerial::USBSerial(HAL_USB_USART_Serial serial, const HAL_USB_USART_Config& conf)
 8083018:	b510      	push	{r4, lr}
    virtual int available() = 0;
    virtual int read() = 0;
    virtual int peek() = 0;
    virtual void flush() = 0;

    Stream() {_timeout=1000;}
 808301a:	f44f 737a 	mov.w	r3, #1000	; 0x3e8
 808301e:	4604      	mov	r4, r0
 8083020:	4608      	mov	r0, r1
 8083022:	2100      	movs	r1, #0
 8083024:	e9c4 1301 	strd	r1, r3, [r4, #4]
 8083028:	4b04      	ldr	r3, [pc, #16]	; (808303c <_ZN9USBSerialC1E20HAL_USB_USART_SerialRK20HAL_USB_USART_Config+0x24>)
  _serial = serial;
 808302a:	7420      	strb	r0, [r4, #16]
USBSerial::USBSerial(HAL_USB_USART_Serial serial, const HAL_USB_USART_Config& conf)
 808302c:	6023      	str	r3, [r4, #0]
  _blocking = true;
 808302e:	2301      	movs	r3, #1
  HAL_USB_USART_Init(_serial, &conf);
 8083030:	4611      	mov	r1, r2
  _blocking = true;
 8083032:	7463      	strb	r3, [r4, #17]
  HAL_USB_USART_Init(_serial, &conf);
 8083034:	f7fe fe92 	bl	8081d5c <HAL_USB_USART_Init>
}
 8083038:	4620      	mov	r0, r4
 808303a:	bd10      	pop	{r4, pc}
 808303c:	080864e4 	.word	0x080864e4

08083040 <_Z19acquireSerialBufferv>:

// Preinstantiate Objects //////////////////////////////////////////////////////
#ifdef SPARK_USB_SERIAL

HAL_USB_USART_Config __attribute__((weak)) acquireSerialBuffer()
{
 8083040:	b510      	push	{r4, lr}
 8083042:	4604      	mov	r4, r0
  HAL_USB_USART_Config conf = {0};
 8083044:	2214      	movs	r2, #20
 8083046:	2100      	movs	r1, #0
 8083048:	f001 f8ea 	bl	8084220 <memset>
  conf.rx_buffer_size = USB_RX_BUFFER_SIZE;
  conf.tx_buffer_size = USB_TX_BUFFER_SIZE;
#endif

  return conf;
}
 808304c:	4620      	mov	r0, r4
 808304e:	bd10      	pop	{r4, pc}

08083050 <_Z16_fetch_usbserialv>:

USBSerial& _fetch_usbserial()
{
 8083050:	b530      	push	{r4, r5, lr}
  HAL_USB_USART_Config conf = acquireSerialBuffer();
	static USBSerial _usbserial(HAL_USB_USART_SERIAL, conf);
 8083052:	4d0f      	ldr	r5, [pc, #60]	; (8083090 <_Z16_fetch_usbserialv+0x40>)
{
 8083054:	b087      	sub	sp, #28
  HAL_USB_USART_Config conf = acquireSerialBuffer();
 8083056:	a801      	add	r0, sp, #4
 8083058:	f7ff fff2 	bl	8083040 <_Z19acquireSerialBufferv>
	static USBSerial _usbserial(HAL_USB_USART_SERIAL, conf);
 808305c:	7829      	ldrb	r1, [r5, #0]
 808305e:	f3bf 8f5b 	dmb	ish
 8083062:	f011 0401 	ands.w	r4, r1, #1
 8083066:	d110      	bne.n	808308a <_Z16_fetch_usbserialv+0x3a>
 8083068:	4628      	mov	r0, r5
 808306a:	f7fd f82c 	bl	80800c6 <__cxa_guard_acquire>
 808306e:	b160      	cbz	r0, 808308a <_Z16_fetch_usbserialv+0x3a>
 8083070:	4621      	mov	r1, r4
 8083072:	aa01      	add	r2, sp, #4
 8083074:	4807      	ldr	r0, [pc, #28]	; (8083094 <_Z16_fetch_usbserialv+0x44>)
 8083076:	f7ff ffcf 	bl	8083018 <_ZN9USBSerialC1E20HAL_USB_USART_SerialRK20HAL_USB_USART_Config>
 808307a:	4628      	mov	r0, r5
 808307c:	f7fd f828 	bl	80800d0 <__cxa_guard_release>
 8083080:	4a05      	ldr	r2, [pc, #20]	; (8083098 <_Z16_fetch_usbserialv+0x48>)
 8083082:	4906      	ldr	r1, [pc, #24]	; (808309c <_Z16_fetch_usbserialv+0x4c>)
 8083084:	4803      	ldr	r0, [pc, #12]	; (8083094 <_Z16_fetch_usbserialv+0x44>)
 8083086:	f000 fb09 	bl	808369c <__aeabi_atexit>
	return _usbserial;
}
 808308a:	4802      	ldr	r0, [pc, #8]	; (8083094 <_Z16_fetch_usbserialv+0x44>)
 808308c:	b007      	add	sp, #28
 808308e:	bd30      	pop	{r4, r5, pc}
 8083090:	20000548 	.word	0x20000548
 8083094:	20000550 	.word	0x20000550
 8083098:	200001e8 	.word	0x200001e8
 808309c:	08082fa5 	.word	0x08082fa5

080830a0 <_Z23acquireUSBSerial1Bufferv>:
 80830a0:	b510      	push	{r4, lr}
 80830a2:	4604      	mov	r4, r0
 80830a4:	2214      	movs	r2, #20
 80830a6:	2100      	movs	r1, #0
 80830a8:	f001 f8ba 	bl	8084220 <memset>
 80830ac:	4620      	mov	r0, r4
 80830ae:	bd10      	pop	{r4, pc}

080830b0 <_Z17_fetch_usbserial1v>:

  return conf;
}

USBSerial& _fetch_usbserial1()
{
 80830b0:	b510      	push	{r4, lr}
  HAL_USB_USART_Config conf = acquireUSBSerial1Buffer();
  static USBSerial _usbserial1(HAL_USB_USART_SERIAL1, conf);
 80830b2:	4c0f      	ldr	r4, [pc, #60]	; (80830f0 <_Z17_fetch_usbserial1v+0x40>)
{
 80830b4:	b086      	sub	sp, #24
  HAL_USB_USART_Config conf = acquireUSBSerial1Buffer();
 80830b6:	a801      	add	r0, sp, #4
 80830b8:	f7ff fff2 	bl	80830a0 <_Z23acquireUSBSerial1Bufferv>
  static USBSerial _usbserial1(HAL_USB_USART_SERIAL1, conf);
 80830bc:	7823      	ldrb	r3, [r4, #0]
 80830be:	f3bf 8f5b 	dmb	ish
 80830c2:	07db      	lsls	r3, r3, #31
 80830c4:	d410      	bmi.n	80830e8 <_Z17_fetch_usbserial1v+0x38>
 80830c6:	4620      	mov	r0, r4
 80830c8:	f7fc fffd 	bl	80800c6 <__cxa_guard_acquire>
 80830cc:	b160      	cbz	r0, 80830e8 <_Z17_fetch_usbserial1v+0x38>
 80830ce:	2101      	movs	r1, #1
 80830d0:	aa01      	add	r2, sp, #4
 80830d2:	4808      	ldr	r0, [pc, #32]	; (80830f4 <_Z17_fetch_usbserial1v+0x44>)
 80830d4:	f7ff ffa0 	bl	8083018 <_ZN9USBSerialC1E20HAL_USB_USART_SerialRK20HAL_USB_USART_Config>
 80830d8:	4620      	mov	r0, r4
 80830da:	f7fc fff9 	bl	80800d0 <__cxa_guard_release>
 80830de:	4a06      	ldr	r2, [pc, #24]	; (80830f8 <_Z17_fetch_usbserial1v+0x48>)
 80830e0:	4906      	ldr	r1, [pc, #24]	; (80830fc <_Z17_fetch_usbserial1v+0x4c>)
 80830e2:	4804      	ldr	r0, [pc, #16]	; (80830f4 <_Z17_fetch_usbserial1v+0x44>)
 80830e4:	f000 fada 	bl	808369c <__aeabi_atexit>
  return _usbserial1;
}
 80830e8:	4802      	ldr	r0, [pc, #8]	; (80830f4 <_Z17_fetch_usbserial1v+0x44>)
 80830ea:	b006      	add	sp, #24
 80830ec:	bd10      	pop	{r4, pc}
 80830ee:	bf00      	nop
 80830f0:	2000054c 	.word	0x2000054c
 80830f4:	20000564 	.word	0x20000564
 80830f8:	200001e8 	.word	0x200001e8
 80830fc:	08082fa5 	.word	0x08082fa5

08083100 <_ZN5spark13CellularClass5readyEv>:
        return network_listening(*this, 0, NULL);
    }

    bool ready()
    {
        return network_ready(*this, 0,  NULL);
 8083100:	2200      	movs	r2, #0
 8083102:	6840      	ldr	r0, [r0, #4]
 8083104:	4611      	mov	r1, r2
 8083106:	f7fe bec7 	b.w	8081e98 <network_ready>

0808310a <_ZN5spark13CellularClass7resolveEPKc>:
    {
        return cellular_command((_CALLBACKPTR_MDM)cb, (void*)param, timeout_ms, format, Fargs...);
    }

#if !HAL_USE_INET_HAL_POSIX
    IPAddress resolve(const char* name)
 808310a:	b5f0      	push	{r4, r5, r6, r7, lr}
    {
        HAL_IPAddress ip = {0};
 808310c:	2600      	movs	r6, #0
    IPAddress resolve(const char* name)
 808310e:	b085      	sub	sp, #20
 8083110:	4604      	mov	r4, r0
        return (inet_gethostbyname(name, strlen(name), &ip, *this, NULL) != 0) ?
 8083112:	4610      	mov	r0, r2
    IPAddress resolve(const char* name)
 8083114:	460f      	mov	r7, r1
 8083116:	4615      	mov	r5, r2
        HAL_IPAddress ip = {0};
 8083118:	9603      	str	r6, [sp, #12]
        return (inet_gethostbyname(name, strlen(name), &ip, *this, NULL) != 0) ?
 808311a:	f001 f8e8 	bl	80842ee <strlen>
 808311e:	687b      	ldr	r3, [r7, #4]
 8083120:	b281      	uxth	r1, r0
 8083122:	9600      	str	r6, [sp, #0]
 8083124:	4628      	mov	r0, r5
 8083126:	aa03      	add	r2, sp, #12
 8083128:	f7fe fe08 	bl	8081d3c <inet_gethostbyname>
                IPAddress(uint32_t(0)) : IPAddress(ip);
 808312c:	b130      	cbz	r0, 808313c <_ZN5spark13CellularClass7resolveEPKc+0x32>
 808312e:	4631      	mov	r1, r6
 8083130:	4620      	mov	r0, r4
 8083132:	f7ff ff17 	bl	8082f64 <_ZN9IPAddressC1Em>
    }
 8083136:	4620      	mov	r0, r4
 8083138:	b005      	add	sp, #20
 808313a:	bdf0      	pop	{r4, r5, r6, r7, pc}
                IPAddress(uint32_t(0)) : IPAddress(ip);
 808313c:	4620      	mov	r0, r4
 808313e:	a903      	add	r1, sp, #12
 8083140:	f7ff ff08 	bl	8082f54 <_ZN9IPAddressC1ERK16_HAL_IPAddress_t>
 8083144:	e7f7      	b.n	8083136 <_ZN5spark13CellularClass7resolveEPKc+0x2c>

08083146 <_ZN5spark13CellularClass9listeningEv>:
        return network_listening(*this, 0, NULL);
 8083146:	2200      	movs	r2, #0
 8083148:	6840      	ldr	r0, [r0, #4]
 808314a:	4611      	mov	r1, r2
 808314c:	f7fe bec4 	b.w	8081ed8 <network_listening>

08083150 <_ZN5spark13CellularClass16getListenTimeoutEv>:
        return network_get_listen_timeout(*this, 0, NULL);
 8083150:	2200      	movs	r2, #0
 8083152:	6840      	ldr	r0, [r0, #4]
 8083154:	4611      	mov	r1, r2
 8083156:	f7fe becf 	b.w	8081ef8 <network_get_listen_timeout>

0808315a <_ZN5spark13CellularClass16setListenTimeoutEt>:
        network_set_listen_timeout(*this, timeout, NULL);
 808315a:	2200      	movs	r2, #0
 808315c:	6840      	ldr	r0, [r0, #4]
 808315e:	f7fe bec3 	b.w	8081ee8 <network_set_listen_timeout>

08083162 <_ZN5spark13CellularClass6listenEb>:
        network_listen(*this, begin ? 0 : 1, NULL);
 8083162:	2200      	movs	r2, #0
 8083164:	6840      	ldr	r0, [r0, #4]
 8083166:	f081 0101 	eor.w	r1, r1, #1
 808316a:	f7fe bead 	b.w	8081ec8 <network_listen>

0808316e <_ZN5spark13CellularClass3offEv>:
        network_off(*this, 0, 0, NULL);
 808316e:	2300      	movs	r3, #0
 8083170:	6840      	ldr	r0, [r0, #4]
 8083172:	461a      	mov	r2, r3
 8083174:	4619      	mov	r1, r3
 8083176:	f7fe be9f 	b.w	8081eb8 <network_off>

0808317a <_ZN5spark13CellularClass2onEv>:
        network_on(*this, 0, 0, NULL);
 808317a:	2300      	movs	r3, #0
 808317c:	6840      	ldr	r0, [r0, #4]
 808317e:	461a      	mov	r2, r3
 8083180:	4619      	mov	r1, r3
 8083182:	f7fe be91 	b.w	8081ea8 <network_on>

08083186 <_ZN5spark13CellularClass10connectingEv>:
        return network_connecting(*this, 0, NULL);
 8083186:	2200      	movs	r2, #0
 8083188:	6840      	ldr	r0, [r0, #4]
 808318a:	4611      	mov	r1, r2
 808318c:	f7fe be74 	b.w	8081e78 <network_connecting>

08083190 <_ZN5spark13CellularClass10disconnectEv>:
        network_disconnect(*this, NETWORK_DISCONNECT_REASON_USER, NULL);
 8083190:	2200      	movs	r2, #0
 8083192:	2102      	movs	r1, #2
 8083194:	6840      	ldr	r0, [r0, #4]
 8083196:	f7fe be77 	b.w	8081e88 <network_disconnect>

0808319a <_ZN5spark13CellularClass7connectEj>:
        network_connect(*this, flags, 0, NULL);
 808319a:	2300      	movs	r3, #0
 808319c:	6840      	ldr	r0, [r0, #4]
 808319e:	461a      	mov	r2, r3
 80831a0:	f7fe be62 	b.w	8081e68 <network_connect>

080831a4 <_GLOBAL__sub_I__ZN5spark13CellularClass4RSSIEv>:
        return (band_get.ok = true);
    }

    CellularClass Cellular;
    // NetworkClass& Network = Cellular;
}
 80831a4:	b510      	push	{r4, lr}
    int tx_total;
    int rx_total;

    CellularDataHal()
    {
        memset(this, 0, sizeof(*this));
 80831a6:	2428      	movs	r4, #40	; 0x28
 80831a8:	4b07      	ldr	r3, [pc, #28]	; (80831c8 <_GLOBAL__sub_I__ZN5spark13CellularClass4RSSIEv+0x24>)
 80831aa:	4622      	mov	r2, r4
 80831ac:	4618      	mov	r0, r3
 80831ae:	2100      	movs	r1, #0
 80831b0:	f001 f836 	bl	8084220 <memset>
        cid = -1;
 80831b4:	f04f 32ff 	mov.w	r2, #4294967295
 80831b8:	6042      	str	r2, [r0, #4]
    static NetworkClass& from(network_interface_t nif);

    virtual IPAddress resolve(const char* name);

    explicit NetworkClass(network_interface_t iface)
            : iface_(iface) {
 80831ba:	2204      	movs	r2, #4
 80831bc:	4b03      	ldr	r3, [pc, #12]	; (80831cc <_GLOBAL__sub_I__ZN5spark13CellularClass4RSSIEv+0x28>)
        size = sizeof(*this);
 80831be:	8004      	strh	r4, [r0, #0]
 80831c0:	605a      	str	r2, [r3, #4]
            NetworkClass(NETWORK_INTERFACE_CELLULAR) {
 80831c2:	4a03      	ldr	r2, [pc, #12]	; (80831d0 <_GLOBAL__sub_I__ZN5spark13CellularClass4RSSIEv+0x2c>)
 80831c4:	601a      	str	r2, [r3, #0]
 80831c6:	bd10      	pop	{r4, pc}
 80831c8:	20000580 	.word	0x20000580
 80831cc:	20000578 	.word	0x20000578
 80831d0:	08086514 	.word	0x08086514

080831d4 <_ZN11USARTSerialD1Ev>:
private:
  hal_usart_interface_t _serial;
  bool _blocking;
public:
  USARTSerial(hal_usart_interface_t serial, hal_usart_ring_buffer_t *rx_buffer, hal_usart_ring_buffer_t *tx_buffer);
  virtual ~USARTSerial() {};
 80831d4:	4770      	bx	lr

080831d6 <_ZN11USARTSerial14blockOnOverrunEb>:
    hal_usart_half_duplex(_serial, Enable);
}

void USARTSerial::blockOnOverrun(bool block)
{
  _blocking = block;
 80831d6:	7441      	strb	r1, [r0, #17]
}
 80831d8:	4770      	bx	lr

080831da <_ZN11USARTSerial17availableForWriteEv>:


int USARTSerial::availableForWrite(void)
{
 80831da:	b508      	push	{r3, lr}
  return std::max(0, (int)hal_usart_available_data_for_write(_serial));
 80831dc:	7c00      	ldrb	r0, [r0, #16]
 80831de:	f7fe fd35 	bl	8081c4c <hal_usart_available_data_for_write>
}
 80831e2:	ea20 70e0 	bic.w	r0, r0, r0, asr #31
 80831e6:	bd08      	pop	{r3, pc}

080831e8 <_ZN11USARTSerial9availableEv>:

int USARTSerial::available(void)
{
 80831e8:	b508      	push	{r3, lr}
  return std::max(0, (int)hal_usart_available(_serial));
 80831ea:	7c00      	ldrb	r0, [r0, #16]
 80831ec:	f7fe fd06 	bl	8081bfc <hal_usart_available>
}
 80831f0:	ea20 70e0 	bic.w	r0, r0, r0, asr #31
 80831f4:	bd08      	pop	{r3, pc}

080831f6 <_ZN11USARTSerial4peekEv>:

int USARTSerial::peek(void)
{
 80831f6:	b508      	push	{r3, lr}
  return std::max(-1, (int)hal_usart_peek(_serial));
 80831f8:	7c00      	ldrb	r0, [r0, #16]
 80831fa:	f7fe fd0f 	bl	8081c1c <hal_usart_peek>
}
 80831fe:	ea40 70e0 	orr.w	r0, r0, r0, asr #31
 8083202:	bd08      	pop	{r3, pc}

08083204 <_ZN11USARTSerial4readEv>:

int USARTSerial::read(void)
{
 8083204:	b508      	push	{r3, lr}
  return std::max(-1, (int)hal_usart_read(_serial));
 8083206:	7c00      	ldrb	r0, [r0, #16]
 8083208:	f7fe fd00 	bl	8081c0c <hal_usart_read>
}
 808320c:	ea40 70e0 	orr.w	r0, r0, r0, asr #31
 8083210:	bd08      	pop	{r3, pc}

08083212 <_ZN11USARTSerial5flushEv>:

void USARTSerial::flush()
{
  hal_usart_flush(_serial);
 8083212:	7c00      	ldrb	r0, [r0, #16]
 8083214:	f7fe bd0a 	b.w	8081c2c <hal_usart_flush>

08083218 <_ZN11USARTSerial5writeEh>:
}

size_t USARTSerial::write(uint8_t c)
{
 8083218:	b570      	push	{r4, r5, r6, lr}
  // attempt a write if blocking, or for non-blocking if there is room.
  if (_blocking || hal_usart_available_data_for_write(_serial) > 0) {
 808321a:	7c46      	ldrb	r6, [r0, #17]
{
 808321c:	4604      	mov	r4, r0
 808321e:	460d      	mov	r5, r1
  if (_blocking || hal_usart_available_data_for_write(_serial) > 0) {
 8083220:	b12e      	cbz	r6, 808322e <_ZN11USARTSerial5writeEh+0x16>
    // the HAL always blocks.
	  return hal_usart_write(_serial, c);
 8083222:	4629      	mov	r1, r5
 8083224:	7c20      	ldrb	r0, [r4, #16]
  }
  return 0;
}
 8083226:	e8bd 4070 	ldmia.w	sp!, {r4, r5, r6, lr}
	  return hal_usart_write(_serial, c);
 808322a:	f7fe bcdf 	b.w	8081bec <hal_usart_write>
  if (_blocking || hal_usart_available_data_for_write(_serial) > 0) {
 808322e:	7c00      	ldrb	r0, [r0, #16]
 8083230:	f7fe fd0c 	bl	8081c4c <hal_usart_available_data_for_write>
 8083234:	2800      	cmp	r0, #0
 8083236:	dcf4      	bgt.n	8083222 <_ZN11USARTSerial5writeEh+0xa>
}
 8083238:	4630      	mov	r0, r6
 808323a:	bd70      	pop	{r4, r5, r6, pc}

0808323c <_ZN11USARTSerialD0Ev>:
 808323c:	b510      	push	{r4, lr}
 808323e:	4604      	mov	r4, r0
 8083240:	2114      	movs	r1, #20
 8083242:	f000 fa30 	bl	80836a6 <_ZdlPvj>
 8083246:	4620      	mov	r0, r4
 8083248:	bd10      	pop	{r4, pc}
	...

0808324c <_ZN11USARTSerialC1E21hal_usart_interface_tP23hal_usart_ring_buffer_tS2_>:
 808324c:	f04f 0c00 	mov.w	ip, #0
USARTSerial::USARTSerial(hal_usart_interface_t serial, hal_usart_ring_buffer_t *rx_buffer, hal_usart_ring_buffer_t *tx_buffer)
 8083250:	b510      	push	{r4, lr}
 8083252:	4604      	mov	r4, r0
 8083254:	4608      	mov	r0, r1
 8083256:	4611      	mov	r1, r2
 8083258:	f44f 727a 	mov.w	r2, #1000	; 0x3e8
 808325c:	e9c4 c201 	strd	ip, r2, [r4, #4]
 8083260:	4a04      	ldr	r2, [pc, #16]	; (8083274 <_ZN11USARTSerialC1E21hal_usart_interface_tP23hal_usart_ring_buffer_tS2_+0x28>)
  _serial = serial;
 8083262:	7420      	strb	r0, [r4, #16]
USARTSerial::USARTSerial(hal_usart_interface_t serial, hal_usart_ring_buffer_t *rx_buffer, hal_usart_ring_buffer_t *tx_buffer)
 8083264:	6022      	str	r2, [r4, #0]
  _blocking = true;
 8083266:	2201      	movs	r2, #1
 8083268:	7462      	strb	r2, [r4, #17]
  hal_usart_init(serial, rx_buffer, tx_buffer);
 808326a:	461a      	mov	r2, r3
 808326c:	f7fe fcb6 	bl	8081bdc <hal_usart_init>
}
 8083270:	4620      	mov	r0, r4
 8083272:	bd10      	pop	{r4, pc}
 8083274:	08086550 	.word	0x08086550

08083278 <_Z22__fetch_global_Serial1v>:
static hal_usart_ring_buffer_t* serial1_rx_buffer = nullptr;
static hal_usart_ring_buffer_t* serial1_tx_buffer = nullptr;
#endif

USARTSerial& __fetch_global_Serial1()
{
 8083278:	b5f8      	push	{r3, r4, r5, r6, r7, lr}
#if ((MODULE_FUNCTION == MOD_FUNC_USER_PART) || (MODULE_FUNCTION == MOD_FUNC_MONO_FIRMWARE))
	static USARTSerial serial1(HAL_USART_SERIAL1, &serial1_rx_buffer, &serial1_tx_buffer);
#else
  if (!serial1_rx_buffer) {
 808327a:	4c1a      	ldr	r4, [pc, #104]	; (80832e4 <_Z22__fetch_global_Serial1v+0x6c>)
 808327c:	6826      	ldr	r6, [r4, #0]
 808327e:	b94e      	cbnz	r6, 8083294 <_Z22__fetch_global_Serial1v+0x1c>
    serial1_rx_buffer = new hal_usart_ring_buffer_t();
 8083280:	2084      	movs	r0, #132	; 0x84
 8083282:	f7fc ff1a 	bl	80800ba <_Znwj>
 8083286:	4605      	mov	r5, r0
 8083288:	b118      	cbz	r0, 8083292 <_Z22__fetch_global_Serial1v+0x1a>
 808328a:	2284      	movs	r2, #132	; 0x84
 808328c:	4631      	mov	r1, r6
 808328e:	f000 ffc7 	bl	8084220 <memset>
 8083292:	6025      	str	r5, [r4, #0]
  }
  if (!serial1_tx_buffer) {
 8083294:	4d14      	ldr	r5, [pc, #80]	; (80832e8 <_Z22__fetch_global_Serial1v+0x70>)
 8083296:	682f      	ldr	r7, [r5, #0]
 8083298:	b94f      	cbnz	r7, 80832ae <_Z22__fetch_global_Serial1v+0x36>
    serial1_tx_buffer = new hal_usart_ring_buffer_t();
 808329a:	2084      	movs	r0, #132	; 0x84
 808329c:	f7fc ff0d 	bl	80800ba <_Znwj>
 80832a0:	4606      	mov	r6, r0
 80832a2:	b118      	cbz	r0, 80832ac <_Z22__fetch_global_Serial1v+0x34>
 80832a4:	2284      	movs	r2, #132	; 0x84
 80832a6:	4639      	mov	r1, r7
 80832a8:	f000 ffba 	bl	8084220 <memset>
 80832ac:	602e      	str	r6, [r5, #0]
  }
  static USARTSerial serial1(HAL_USART_SERIAL1, serial1_rx_buffer, serial1_tx_buffer);
 80832ae:	4f0f      	ldr	r7, [pc, #60]	; (80832ec <_Z22__fetch_global_Serial1v+0x74>)
 80832b0:	7839      	ldrb	r1, [r7, #0]
 80832b2:	f3bf 8f5b 	dmb	ish
 80832b6:	f011 0601 	ands.w	r6, r1, #1
 80832ba:	d111      	bne.n	80832e0 <_Z22__fetch_global_Serial1v+0x68>
 80832bc:	4638      	mov	r0, r7
 80832be:	f7fc ff02 	bl	80800c6 <__cxa_guard_acquire>
 80832c2:	b168      	cbz	r0, 80832e0 <_Z22__fetch_global_Serial1v+0x68>
 80832c4:	4631      	mov	r1, r6
 80832c6:	6822      	ldr	r2, [r4, #0]
 80832c8:	682b      	ldr	r3, [r5, #0]
 80832ca:	4809      	ldr	r0, [pc, #36]	; (80832f0 <_Z22__fetch_global_Serial1v+0x78>)
 80832cc:	f7ff ffbe 	bl	808324c <_ZN11USARTSerialC1E21hal_usart_interface_tP23hal_usart_ring_buffer_tS2_>
 80832d0:	4638      	mov	r0, r7
 80832d2:	f7fc fefd 	bl	80800d0 <__cxa_guard_release>
 80832d6:	4a07      	ldr	r2, [pc, #28]	; (80832f4 <_Z22__fetch_global_Serial1v+0x7c>)
 80832d8:	4907      	ldr	r1, [pc, #28]	; (80832f8 <_Z22__fetch_global_Serial1v+0x80>)
 80832da:	4805      	ldr	r0, [pc, #20]	; (80832f0 <_Z22__fetch_global_Serial1v+0x78>)
 80832dc:	f000 f9de 	bl	808369c <__aeabi_atexit>
#endif
	return serial1;
}
 80832e0:	4803      	ldr	r0, [pc, #12]	; (80832f0 <_Z22__fetch_global_Serial1v+0x78>)
 80832e2:	bdf8      	pop	{r3, r4, r5, r6, r7, pc}
 80832e4:	200005ac 	.word	0x200005ac
 80832e8:	200005b0 	.word	0x200005b0
 80832ec:	200005a8 	.word	0x200005a8
 80832f0:	200005b4 	.word	0x200005b4
 80832f4:	200001e8 	.word	0x200001e8
 80832f8:	080831d5 	.word	0x080831d5

080832fc <_ZN8particle6detail21futureCallbackWrapperEPv>:
 * License along with this library; if not, see <http://www.gnu.org/licenses/>.
 */

#include "spark_wiring_async.h"

void particle::detail::futureCallbackWrapper(void* data) {
 80832fc:	b510      	push	{r4, lr}
      if (_M_empty())
 80832fe:	6883      	ldr	r3, [r0, #8]
 8083300:	4604      	mov	r4, r0
 8083302:	b90b      	cbnz	r3, 8083308 <_ZN8particle6detail21futureCallbackWrapperEPv+0xc>
	__throw_bad_function_call();
 8083304:	f000 f9d3 	bl	80836ae <_ZSt25__throw_bad_function_callv>
      return _M_invoker(_M_functor, std::forward<_ArgTypes>(__args)...);
 8083308:	68c3      	ldr	r3, [r0, #12]
 808330a:	4798      	blx	r3
      if (_M_manager)
 808330c:	68a3      	ldr	r3, [r4, #8]
 808330e:	b11b      	cbz	r3, 8083318 <_ZN8particle6detail21futureCallbackWrapperEPv+0x1c>
	_M_manager(_M_functor, _M_functor, __destroy_functor);
 8083310:	2203      	movs	r2, #3
 8083312:	4621      	mov	r1, r4
 8083314:	4620      	mov	r0, r4
 8083316:	4798      	blx	r3
    auto callbackPtr = static_cast<const std::function<void()>*>(data);
    (*callbackPtr)();
    delete callbackPtr;
 8083318:	4620      	mov	r0, r4
}
 808331a:	e8bd 4010 	ldmia.w	sp!, {r4, lr}
    delete callbackPtr;
 808331e:	2110      	movs	r1, #16
 8083320:	f000 b9c1 	b.w	80836a6 <_ZdlPvj>

08083324 <_ZN7TwoWireD1Ev>:
private:
  hal_i2c_interface_t _i2c;

public:
  TwoWire(hal_i2c_interface_t i2c, const hal_i2c_config_t& config);
  virtual ~TwoWire() {};
 8083324:	4770      	bx	lr

08083326 <_ZN7TwoWire5writeEPKhj>:

// must be called in:
// slave tx event callback
// or after beginTransmission(address)
size_t TwoWire::write(const uint8_t *data, size_t quantity)
{
 8083326:	b5f8      	push	{r3, r4, r5, r6, r7, lr}
 8083328:	4606      	mov	r6, r0
 808332a:	4615      	mov	r5, r2
 808332c:	460c      	mov	r4, r1
 808332e:	188f      	adds	r7, r1, r2
  // in master/slave transmitter mode
  for(size_t i = 0; i < quantity; ++i)
 8083330:	42bc      	cmp	r4, r7
 8083332:	d006      	beq.n	8083342 <_ZN7TwoWire5writeEPKhj+0x1c>
  {
    write(data[i]);
 8083334:	6833      	ldr	r3, [r6, #0]
 8083336:	4630      	mov	r0, r6
 8083338:	689b      	ldr	r3, [r3, #8]
 808333a:	f814 1b01 	ldrb.w	r1, [r4], #1
 808333e:	4798      	blx	r3
  for(size_t i = 0; i < quantity; ++i)
 8083340:	e7f6      	b.n	8083330 <_ZN7TwoWire5writeEPKhj+0xa>
  }

  return quantity;
}
 8083342:	4628      	mov	r0, r5
 8083344:	bdf8      	pop	{r3, r4, r5, r6, r7, pc}

08083346 <_ZN7TwoWire5writeEh>:
  return hal_i2c_write(_i2c, data, NULL);
 8083346:	2200      	movs	r2, #0
 8083348:	7c00      	ldrb	r0, [r0, #16]
 808334a:	f7fe bc9f 	b.w	8081c8c <hal_i2c_write>

0808334e <_ZN7TwoWire9availableEv>:
// must be called in:
// slave rx event callback
// or after requestFrom(address, numBytes)
int TwoWire::available(void)
{
  return hal_i2c_available(_i2c, NULL);
 808334e:	2100      	movs	r1, #0
 8083350:	7c00      	ldrb	r0, [r0, #16]
 8083352:	f7fe bca3 	b.w	8081c9c <hal_i2c_available>

08083356 <_ZN7TwoWire4readEv>:
// must be called in:
// slave rx event callback
// or after requestFrom(address, numBytes)
int TwoWire::read(void)
{
  return hal_i2c_read(_i2c, NULL);
 8083356:	2100      	movs	r1, #0
 8083358:	7c00      	ldrb	r0, [r0, #16]
 808335a:	f7fe bca7 	b.w	8081cac <hal_i2c_read>

0808335e <_ZN7TwoWire4peekEv>:
// must be called in:
// slave rx event callback
// or after requestFrom(address, numBytes)
int TwoWire::peek(void)
{
  return hal_i2c_peek(_i2c, NULL);
 808335e:	2100      	movs	r1, #0
 8083360:	7c00      	ldrb	r0, [r0, #16]
 8083362:	f7fe bcab 	b.w	8081cbc <hal_i2c_peek>

08083366 <_ZN7TwoWire5flushEv>:
}

void TwoWire::flush(void)
{
  hal_i2c_flush(_i2c, NULL);
 8083366:	2100      	movs	r1, #0
 8083368:	7c00      	ldrb	r0, [r0, #16]
 808336a:	f7fe bcaf 	b.w	8081ccc <hal_i2c_flush>

0808336e <_ZN7TwoWireD0Ev>:
 808336e:	b510      	push	{r4, lr}
 8083370:	4604      	mov	r4, r0
 8083372:	2114      	movs	r1, #20
 8083374:	f000 f997 	bl	80836a6 <_ZdlPvj>
 8083378:	4620      	mov	r0, r4
 808337a:	bd10      	pop	{r4, pc}

0808337c <_ZN7TwoWireC1E19hal_i2c_interface_tRK16hal_i2c_config_t>:
TwoWire::TwoWire(hal_i2c_interface_t i2c, const hal_i2c_config_t& conf)
 808337c:	b510      	push	{r4, lr}
 808337e:	f44f 737a 	mov.w	r3, #1000	; 0x3e8
 8083382:	4604      	mov	r4, r0
 8083384:	4608      	mov	r0, r1
 8083386:	2100      	movs	r1, #0
 8083388:	e9c4 1301 	strd	r1, r3, [r4, #4]
 808338c:	4b03      	ldr	r3, [pc, #12]	; (808339c <_ZN7TwoWireC1E19hal_i2c_interface_tRK16hal_i2c_config_t+0x20>)
  hal_i2c_init(_i2c, &conf);
 808338e:	4611      	mov	r1, r2
TwoWire::TwoWire(hal_i2c_interface_t i2c, const hal_i2c_config_t& conf)
 8083390:	6023      	str	r3, [r4, #0]
  _i2c = i2c;
 8083392:	7420      	strb	r0, [r4, #16]
  hal_i2c_init(_i2c, &conf);
 8083394:	f7fe fcaa 	bl	8081cec <hal_i2c_init>
}
 8083398:	4620      	mov	r0, r4
 808339a:	bd10      	pop	{r4, pc}
 808339c:	08086580 	.word	0x08086580

080833a0 <_ZN7TwoWire5beginEv>:
	hal_i2c_begin(_i2c, I2C_MODE_MASTER, 0x00, NULL);
 80833a0:	2300      	movs	r3, #0
 80833a2:	7c00      	ldrb	r0, [r0, #16]
 80833a4:	461a      	mov	r2, r3
 80833a6:	4619      	mov	r1, r3
 80833a8:	f7fe bc58 	b.w	8081c5c <hal_i2c_begin>

080833ac <_ZN7TwoWire11requestFromERK16WireTransmission>:
size_t TwoWire::requestFrom(const WireTransmission& transfer) {
 80833ac:	b57f      	push	{r0, r1, r2, r3, r4, r5, r6, lr}
    hal_i2c_transmission_config_t conf = {
 80833ae:	2200      	movs	r2, #0
 80833b0:	2314      	movs	r3, #20
 80833b2:	e9cd 2201 	strd	r2, r2, [sp, #4]
 80833b6:	f8ad 3004 	strh.w	r3, [sp, #4]
    };
 80833ba:	780b      	ldrb	r3, [r1, #0]
  return hal_i2c_request_ex(_i2c, &conf, nullptr);
 80833bc:	7c00      	ldrb	r0, [r0, #16]
 80833be:	f88d 3008 	strb.w	r3, [sp, #8]
 80833c2:	684b      	ldr	r3, [r1, #4]
 80833c4:	9303      	str	r3, [sp, #12]
 80833c6:	68cb      	ldr	r3, [r1, #12]
 80833c8:	9304      	str	r3, [sp, #16]
      .flags = (uint32_t)(stop_ ? HAL_I2C_TRANSMISSION_FLAG_STOP : 0)
 80833ca:	7a0b      	ldrb	r3, [r1, #8]
 80833cc:	a901      	add	r1, sp, #4
 80833ce:	9305      	str	r3, [sp, #20]
 80833d0:	f7fe fc94 	bl	8081cfc <hal_i2c_request_ex>
}
 80833d4:	b007      	add	sp, #28
 80833d6:	f85d fb04 	ldr.w	pc, [sp], #4

080833da <_ZN7TwoWire11requestFromEhjh>:
{
 80833da:	b51f      	push	{r0, r1, r2, r3, r4, lr}
  return requestFrom(WireTransmission(address).quantity(quantity).stop(sendStop));
 80833dc:	3b00      	subs	r3, #0
        timeout_{HAL_I2C_DEFAULT_TIMEOUT_MS} {
 80833de:	f88d 1000 	strb.w	r1, [sp]
 80833e2:	f04f 0164 	mov.w	r1, #100	; 0x64
 80833e6:	bf18      	it	ne
 80833e8:	2301      	movne	r3, #1
 80833ea:	9103      	str	r1, [sp, #12]
 80833ec:	4669      	mov	r1, sp
    size_ = size;
 80833ee:	9201      	str	r2, [sp, #4]
 80833f0:	f88d 3008 	strb.w	r3, [sp, #8]
 80833f4:	f7ff ffda 	bl	80833ac <_ZN7TwoWire11requestFromERK16WireTransmission>
}
 80833f8:	b005      	add	sp, #20
 80833fa:	f85d fb04 	ldr.w	pc, [sp], #4

080833fe <_ZN7TwoWire11requestFromEhj>:
  return requestFrom(address, quantity, (uint8_t)true);
 80833fe:	2301      	movs	r3, #1
 8083400:	f7ff bfeb 	b.w	80833da <_ZN7TwoWire11requestFromEhjh>

08083404 <_ZN7TwoWire17beginTransmissionEh>:
	hal_i2c_begin_transmission(_i2c, address, NULL);
 8083404:	2200      	movs	r2, #0
 8083406:	7c00      	ldrb	r0, [r0, #16]
 8083408:	f7fe bc30 	b.w	8081c6c <hal_i2c_begin_transmission>

0808340c <_ZN7TwoWire15endTransmissionEh>:
	return hal_i2c_end_transmission(_i2c, sendStop, NULL);
 808340c:	2200      	movs	r2, #0
 808340e:	7c00      	ldrb	r0, [r0, #16]
 8083410:	f7fe bc34 	b.w	8081c7c <hal_i2c_end_transmission>

08083414 <_ZN7TwoWire15endTransmissionEv>:
  return endTransmission(true);
 8083414:	2101      	movs	r1, #1
 8083416:	f7ff bff9 	b.w	808340c <_ZN7TwoWire15endTransmissionEh>

0808341a <_ZN5spark12NetworkClass7connectEj>:
        return Network;
    }
}

void NetworkClass::connect(unsigned flags) {
    network_connect(*this, flags, 0, nullptr);
 808341a:	2300      	movs	r3, #0
 808341c:	6840      	ldr	r0, [r0, #4]
 808341e:	461a      	mov	r2, r3
 8083420:	f7fe bd22 	b.w	8081e68 <network_connect>

08083424 <_ZN5spark12NetworkClass10disconnectEv>:
}

void NetworkClass::disconnect() {
    network_disconnect(*this, NETWORK_DISCONNECT_REASON_USER, nullptr);
 8083424:	2200      	movs	r2, #0
 8083426:	2102      	movs	r1, #2
 8083428:	6840      	ldr	r0, [r0, #4]
 808342a:	f7fe bd2d 	b.w	8081e88 <network_disconnect>

0808342e <_ZN5spark12NetworkClass10connectingEv>:
}

bool NetworkClass::connecting() {
    return network_connecting(*this, 0, nullptr);
 808342e:	2200      	movs	r2, #0
 8083430:	6840      	ldr	r0, [r0, #4]
 8083432:	4611      	mov	r1, r2
 8083434:	f7fe bd20 	b.w	8081e78 <network_connecting>

08083438 <_ZN5spark12NetworkClass5readyEv>:
}

bool NetworkClass::ready() {
    return network_ready(*this, 0, nullptr);
 8083438:	2200      	movs	r2, #0
 808343a:	6840      	ldr	r0, [r0, #4]
 808343c:	4611      	mov	r1, r2
 808343e:	f7fe bd2b 	b.w	8081e98 <network_ready>

08083442 <_ZN5spark12NetworkClass2onEv>:
}

void NetworkClass::on() {
    network_on(*this, 0, 0, nullptr);
 8083442:	2300      	movs	r3, #0
 8083444:	6840      	ldr	r0, [r0, #4]
 8083446:	461a      	mov	r2, r3
 8083448:	4619      	mov	r1, r3
 808344a:	f7fe bd2d 	b.w	8081ea8 <network_on>

0808344e <_ZN5spark12NetworkClass3offEv>:
}

void NetworkClass::off() {
    network_off(*this, 0, 0, nullptr);
 808344e:	2300      	movs	r3, #0
 8083450:	6840      	ldr	r0, [r0, #4]
 8083452:	461a      	mov	r2, r3
 8083454:	4619      	mov	r1, r3
 8083456:	f7fe bd2f 	b.w	8081eb8 <network_off>

0808345a <_ZN5spark12NetworkClass4isOnEv>:
}

bool NetworkClass::isOn() {
    return network_is_on(*this, nullptr);
 808345a:	2100      	movs	r1, #0
 808345c:	6840      	ldr	r0, [r0, #4]
 808345e:	f7fe bd53 	b.w	8081f08 <network_is_on>

08083462 <_ZN5spark12NetworkClass5isOffEv>:
}

bool NetworkClass::isOff() {
    return network_is_off(*this, nullptr);
 8083462:	2100      	movs	r1, #0
 8083464:	6840      	ldr	r0, [r0, #4]
 8083466:	f7fe bd57 	b.w	8081f18 <network_is_off>

0808346a <_ZN5spark12NetworkClass6listenEb>:
}

void NetworkClass::listen(bool begin) {
    network_listen(*this, begin ? 0 : 1, nullptr);
 808346a:	2200      	movs	r2, #0
 808346c:	6840      	ldr	r0, [r0, #4]
 808346e:	f081 0101 	eor.w	r1, r1, #1
 8083472:	f7fe bd29 	b.w	8081ec8 <network_listen>

08083476 <_ZN5spark12NetworkClass16setListenTimeoutEt>:
}

void NetworkClass::setListenTimeout(uint16_t timeout) {
    network_set_listen_timeout(*this, timeout, nullptr);
 8083476:	2200      	movs	r2, #0
 8083478:	6840      	ldr	r0, [r0, #4]
 808347a:	f7fe bd35 	b.w	8081ee8 <network_set_listen_timeout>

0808347e <_ZN5spark12NetworkClass16getListenTimeoutEv>:
}

uint16_t NetworkClass::getListenTimeout() {
    return network_get_listen_timeout(*this, 0, nullptr);
 808347e:	2200      	movs	r2, #0
 8083480:	6840      	ldr	r0, [r0, #4]
 8083482:	4611      	mov	r1, r2
 8083484:	f7fe bd38 	b.w	8081ef8 <network_get_listen_timeout>

08083488 <_ZN5spark12NetworkClass9listeningEv>:
}

bool NetworkClass::listening() {
    return network_listening(*this, 0, nullptr);
 8083488:	2200      	movs	r2, #0
 808348a:	6840      	ldr	r0, [r0, #4]
 808348c:	4611      	mov	r1, r2
 808348e:	f7fe bd23 	b.w	8081ed8 <network_listening>
	...

08083494 <_ZN5spark12NetworkClass7resolveEPKc>:
}

IPAddress NetworkClass::resolve(const char* name) {
 8083494:	b570      	push	{r4, r5, r6, lr}
 8083496:	4615      	mov	r5, r2
        HAL_IPAddress ip = {0};
 8083498:	2600      	movs	r6, #0
 808349a:	b086      	sub	sp, #24
 808349c:	4604      	mov	r4, r0
    IPAddress addr;
 808349e:	a804      	add	r0, sp, #16
 80834a0:	f7ff fd50 	bl	8082f44 <_ZN9IPAddressC1Ev>
        return (inet_gethostbyname(name, strlen(name), &ip, *this, NULL) != 0) ?
 80834a4:	4628      	mov	r0, r5
        HAL_IPAddress ip = {0};
 80834a6:	9603      	str	r6, [sp, #12]
        return (inet_gethostbyname(name, strlen(name), &ip, *this, NULL) != 0) ?
 80834a8:	f000 ff21 	bl	80842ee <strlen>
 80834ac:	4b0a      	ldr	r3, [pc, #40]	; (80834d8 <_ZN5spark12NetworkClass7resolveEPKc+0x44>)
 80834ae:	9600      	str	r6, [sp, #0]
 80834b0:	b281      	uxth	r1, r0
 80834b2:	685b      	ldr	r3, [r3, #4]
 80834b4:	4628      	mov	r0, r5
 80834b6:	aa03      	add	r2, sp, #12
 80834b8:	f7fe fc40 	bl	8081d3c <inet_gethostbyname>
                IPAddress(uint32_t(0)) : IPAddress(ip);
 80834bc:	b130      	cbz	r0, 80834cc <_ZN5spark12NetworkClass7resolveEPKc+0x38>
 80834be:	4631      	mov	r1, r6
 80834c0:	4620      	mov	r0, r4
 80834c2:	f7ff fd4f 	bl	8082f64 <_ZN9IPAddressC1Em>
    return Cellular.resolve(name);
#endif // Wiring_Cellular

#endif // HAL_USE_INET_HAL_POSIX
    return addr;
}
 80834c6:	4620      	mov	r0, r4
 80834c8:	b006      	add	sp, #24
 80834ca:	bd70      	pop	{r4, r5, r6, pc}
 80834cc:	4620      	mov	r0, r4
 80834ce:	a903      	add	r1, sp, #12
 80834d0:	f7ff fd40 	bl	8082f54 <_ZN9IPAddressC1ERK16_HAL_IPAddress_t>
    virtual ~IPAddress() {}
 80834d4:	e7f7      	b.n	80834c6 <_ZN5spark12NetworkClass7resolveEPKc+0x32>
 80834d6:	bf00      	nop
 80834d8:	20000578 	.word	0x20000578

080834dc <_GLOBAL__sub_I__ZN5spark7NetworkE>:
 80834dc:	4b02      	ldr	r3, [pc, #8]	; (80834e8 <_GLOBAL__sub_I__ZN5spark7NetworkE+0xc>)
 80834de:	4a03      	ldr	r2, [pc, #12]	; (80834ec <_GLOBAL__sub_I__ZN5spark7NetworkE+0x10>)
 80834e0:	601a      	str	r2, [r3, #0]
 80834e2:	2200      	movs	r2, #0
 80834e4:	605a      	str	r2, [r3, #4]

} // spark
 80834e6:	4770      	bx	lr
 80834e8:	200005c8 	.word	0x200005c8
 80834ec:	080865a8 	.word	0x080865a8

080834f0 <_ZN8SPIClassD1Ev>:
  RecursiveMutex _mutex;
#endif

public:
  SPIClass(hal_spi_interface_t spi);
  ~SPIClass() = default;
 80834f0:	b510      	push	{r4, lr}
 80834f2:	4604      	mov	r4, r0
        dispose();
    }

    void dispose()
    {
        if (handle_) {
 80834f4:	6880      	ldr	r0, [r0, #8]
 80834f6:	b108      	cbz	r0, 80834fc <_ZN8SPIClassD1Ev+0xc>
            os_mutex_recursive_destroy(handle_);
 80834f8:	f7fe fb68 	bl	8081bcc <os_mutex_recursive_destroy>
 80834fc:	4620      	mov	r0, r4
 80834fe:	bd10      	pop	{r4, pc}

08083500 <pinAvailable>:
/*
 * @brief Perform safety check on desired pin to see if it's already
 * being used.  Return 0 if used, otherwise return 1 if available.
 */
bool pinAvailable(uint16_t pin) {
  if (pin >= TOTAL_PINS) {
 8083500:	282e      	cmp	r0, #46	; 0x2e
bool pinAvailable(uint16_t pin) {
 8083502:	b570      	push	{r4, r5, r6, lr}
 8083504:	4604      	mov	r4, r0
  if (pin >= TOTAL_PINS) {
 8083506:	d901      	bls.n	808350c <pinAvailable+0xc>
    return false;
 8083508:	2000      	movs	r0, #0
    return false; // 'pin' is used
  }
#endif

  return true; // 'pin' is available
}
 808350a:	bd70      	pop	{r4, r5, r6, pc}
  if((pin == SCK || pin == MOSI || pin == MISO) && hal_spi_is_enabled(SPI.interface()) == true)
 808350c:	f1a0 030d 	sub.w	r3, r0, #13
 8083510:	2b02      	cmp	r3, #2
 8083512:	d90b      	bls.n	808352c <pinAvailable+0x2c>
  if((pin == SCL || pin == SDA) && hal_i2c_is_enabled(Wire.interface(), nullptr) == true)
 8083514:	2801      	cmp	r0, #1
 8083516:	d826      	bhi.n	8083566 <pinAvailable+0x66>
 8083518:	f000 f898 	bl	808364c <_Z19__fetch_global_Wirev>
 808351c:	2100      	movs	r1, #0
 808351e:	7c00      	ldrb	r0, [r0, #16]
 8083520:	f7fe fbdc 	bl	8081cdc <hal_i2c_is_enabled>
  if((pin == RX || pin == TX) && hal_usart_is_enabled(Serial1.interface()) == true)
 8083524:	f080 0001 	eor.w	r0, r0, #1
 8083528:	b2c0      	uxtb	r0, r0
 808352a:	e7ee      	b.n	808350a <pinAvailable+0xa>

template <hal_spi_interface_t Interface>
class SpiProxy {
public:
    static SPIClass& instance() {
        static SPIClass instance(Interface);
 808352c:	4e13      	ldr	r6, [pc, #76]	; (808357c <pinAvailable+0x7c>)
 808352e:	7831      	ldrb	r1, [r6, #0]
 8083530:	f3bf 8f5b 	dmb	ish
 8083534:	f011 0501 	ands.w	r5, r1, #1
 8083538:	d10f      	bne.n	808355a <pinAvailable+0x5a>
 808353a:	4630      	mov	r0, r6
 808353c:	f7fc fdc3 	bl	80800c6 <__cxa_guard_acquire>
 8083540:	b158      	cbz	r0, 808355a <pinAvailable+0x5a>
 8083542:	4629      	mov	r1, r5
 8083544:	480e      	ldr	r0, [pc, #56]	; (8083580 <pinAvailable+0x80>)
 8083546:	f7fe fd87 	bl	8082058 <_ZN8SPIClassC1E19hal_spi_interface_t>
 808354a:	4630      	mov	r0, r6
 808354c:	f7fc fdc0 	bl	80800d0 <__cxa_guard_release>
 8083550:	4a0c      	ldr	r2, [pc, #48]	; (8083584 <pinAvailable+0x84>)
 8083552:	490d      	ldr	r1, [pc, #52]	; (8083588 <pinAvailable+0x88>)
 8083554:	480a      	ldr	r0, [pc, #40]	; (8083580 <pinAvailable+0x80>)
 8083556:	f000 f8a1 	bl	808369c <__aeabi_atexit>
  if((pin == SCK || pin == MOSI || pin == MISO) && hal_spi_is_enabled(SPI.interface()) == true)
 808355a:	4b09      	ldr	r3, [pc, #36]	; (8083580 <pinAvailable+0x80>)
 808355c:	7818      	ldrb	r0, [r3, #0]
 808355e:	f7fe fbdd 	bl	8081d1c <hal_spi_is_enabled>
 8083562:	2800      	cmp	r0, #0
 8083564:	d1d0      	bne.n	8083508 <pinAvailable+0x8>
  if((pin == RX || pin == TX) && hal_usart_is_enabled(Serial1.interface()) == true)
 8083566:	3c12      	subs	r4, #18
 8083568:	2c01      	cmp	r4, #1
 808356a:	d805      	bhi.n	8083578 <pinAvailable+0x78>
 808356c:	f7ff fe84 	bl	8083278 <_Z22__fetch_global_Serial1v>
 8083570:	7c00      	ldrb	r0, [r0, #16]
 8083572:	f7fe fb63 	bl	8081c3c <hal_usart_is_enabled>
 8083576:	e7d5      	b.n	8083524 <pinAvailable+0x24>
  return true; // 'pin' is available
 8083578:	2001      	movs	r0, #1
 808357a:	e7c6      	b.n	808350a <pinAvailable+0xa>
 808357c:	200005d0 	.word	0x200005d0
 8083580:	200005d4 	.word	0x200005d4
 8083584:	200001e8 	.word	0x200001e8
 8083588:	080834f1 	.word	0x080834f1

0808358c <pinMode>:
  if(pin >= TOTAL_PINS || setMode == PIN_MODE_NONE )
 808358c:	282e      	cmp	r0, #46	; 0x2e
{
 808358e:	b538      	push	{r3, r4, r5, lr}
 8083590:	4604      	mov	r4, r0
 8083592:	460d      	mov	r5, r1
  if(pin >= TOTAL_PINS || setMode == PIN_MODE_NONE )
 8083594:	d80a      	bhi.n	80835ac <pinMode+0x20>
 8083596:	29ff      	cmp	r1, #255	; 0xff
 8083598:	d008      	beq.n	80835ac <pinMode+0x20>
  if( !pinAvailable(pin) ) {
 808359a:	f7ff ffb1 	bl	8083500 <pinAvailable>
 808359e:	b128      	cbz	r0, 80835ac <pinMode+0x20>
  HAL_Pin_Mode(pin, setMode);
 80835a0:	4629      	mov	r1, r5
 80835a2:	4620      	mov	r0, r4
}
 80835a4:	e8bd 4038 	ldmia.w	sp!, {r3, r4, r5, lr}
  HAL_Pin_Mode(pin, setMode);
 80835a8:	f7fe bad0 	b.w	8081b4c <HAL_Pin_Mode>
}
 80835ac:	bd38      	pop	{r3, r4, r5, pc}

080835ae <digitalWrite>:

/*
 * @brief Sets a GPIO pin to HIGH or LOW.
 */
void digitalWrite(pin_t pin, uint8_t value)
{
 80835ae:	b538      	push	{r3, r4, r5, lr}
 80835b0:	4604      	mov	r4, r0
 80835b2:	460d      	mov	r5, r1
    PinMode mode = HAL_Get_Pin_Mode(pin);
 80835b4:	f7fe fad2 	bl	8081b5c <HAL_Get_Pin_Mode>
    if (mode==PIN_MODE_NONE || is_input_mode(mode))
 80835b8:	28ff      	cmp	r0, #255	; 0xff
 80835ba:	d010      	beq.n	80835de <digitalWrite+0x30>
            mode == INPUT_PULLDOWN ||
 80835bc:	2806      	cmp	r0, #6
 80835be:	d804      	bhi.n	80835ca <digitalWrite+0x1c>
 80835c0:	234d      	movs	r3, #77	; 0x4d
 80835c2:	fa23 f000 	lsr.w	r0, r3, r0
 80835c6:	07c3      	lsls	r3, r0, #31
 80835c8:	d409      	bmi.n	80835de <digitalWrite+0x30>
        return;
  // Safety check
  if( !pinAvailable(pin) ) {
 80835ca:	4620      	mov	r0, r4
 80835cc:	f7ff ff98 	bl	8083500 <pinAvailable>
 80835d0:	b128      	cbz	r0, 80835de <digitalWrite+0x30>
    return;
  }

  HAL_GPIO_Write(pin, value);
 80835d2:	4629      	mov	r1, r5
 80835d4:	4620      	mov	r0, r4
}
 80835d6:	e8bd 4038 	ldmia.w	sp!, {r3, r4, r5, lr}
  HAL_GPIO_Write(pin, value);
 80835da:	f7fe bac7 	b.w	8081b6c <HAL_GPIO_Write>
}
 80835de:	bd38      	pop	{r3, r4, r5, pc}

080835e0 <_GLOBAL__sub_I_INADDR_NONE>:
#include "spark_wiring_ipaddress.h"

#if !HAL_USE_SOCKET_HAL_POSIX
const IPAddress INADDR_NONE(0, 0, 0, 0);
 80835e0:	2300      	movs	r3, #0
 80835e2:	b513      	push	{r0, r1, r4, lr}
 80835e4:	4c07      	ldr	r4, [pc, #28]	; (8083604 <_GLOBAL__sub_I_INADDR_NONE+0x24>)
 80835e6:	461a      	mov	r2, r3
 80835e8:	4619      	mov	r1, r3
 80835ea:	4620      	mov	r0, r4
 80835ec:	9300      	str	r3, [sp, #0]
 80835ee:	f7ff fccb 	bl	8082f88 <_ZN9IPAddressC1Ehhhh>
 80835f2:	4620      	mov	r0, r4
 80835f4:	4a04      	ldr	r2, [pc, #16]	; (8083608 <_GLOBAL__sub_I_INADDR_NONE+0x28>)
 80835f6:	4905      	ldr	r1, [pc, #20]	; (808360c <_GLOBAL__sub_I_INADDR_NONE+0x2c>)
 80835f8:	b002      	add	sp, #8
 80835fa:	e8bd 4010 	ldmia.w	sp!, {r4, lr}
 80835fe:	f000 b84d 	b.w	808369c <__aeabi_atexit>
 8083602:	bf00      	nop
 8083604:	200005e4 	.word	0x200005e4
 8083608:	200001e8 	.word	0x200001e8
 808360c:	08082f01 	.word	0x08082f01

08083610 <_ZN12_GLOBAL__N_117defaultWireConfigEv>:
#ifndef SPARK_WIRING_NO_I2C

namespace {

hal_i2c_config_t defaultWireConfig() {
	hal_i2c_config_t config = {
 8083610:	2300      	movs	r3, #0
hal_i2c_config_t defaultWireConfig() {
 8083612:	b570      	push	{r4, r5, r6, lr}
	hal_i2c_config_t config = {
 8083614:	2520      	movs	r5, #32
 8083616:	8043      	strh	r3, [r0, #2]
 8083618:	2314      	movs	r3, #20
		.size = sizeof(hal_i2c_config_t),
		.version = HAL_I2C_CONFIG_VERSION_1,
		.rx_buffer = new (std::nothrow) uint8_t[I2C_BUFFER_LENGTH],
 808361a:	4e08      	ldr	r6, [pc, #32]	; (808363c <_ZN12_GLOBAL__N_117defaultWireConfigEv+0x2c>)
hal_i2c_config_t defaultWireConfig() {
 808361c:	4604      	mov	r4, r0
	hal_i2c_config_t config = {
 808361e:	8003      	strh	r3, [r0, #0]
		.rx_buffer = new (std::nothrow) uint8_t[I2C_BUFFER_LENGTH],
 8083620:	4631      	mov	r1, r6
	hal_i2c_config_t config = {
 8083622:	6085      	str	r5, [r0, #8]
 8083624:	6105      	str	r5, [r0, #16]
		.rx_buffer = new (std::nothrow) uint8_t[I2C_BUFFER_LENGTH],
 8083626:	4628      	mov	r0, r5
 8083628:	f000 f83f 	bl	80836aa <_ZnajRKSt9nothrow_t>
		.rx_buffer_size = I2C_BUFFER_LENGTH,
		.tx_buffer = new (std::nothrow) uint8_t[I2C_BUFFER_LENGTH],
 808362c:	4631      	mov	r1, r6
		.tx_buffer_size = I2C_BUFFER_LENGTH
	};
 808362e:	6060      	str	r0, [r4, #4]
		.tx_buffer = new (std::nothrow) uint8_t[I2C_BUFFER_LENGTH],
 8083630:	4628      	mov	r0, r5
 8083632:	f000 f83a 	bl	80836aa <_ZnajRKSt9nothrow_t>
	};
 8083636:	60e0      	str	r0, [r4, #12]

	return config;
}
 8083638:	4620      	mov	r0, r4
 808363a:	bd70      	pop	{r4, r5, r6, pc}
 808363c:	080865dc 	.word	0x080865dc

08083640 <_Z17acquireWireBufferv>:

} // anonymous

hal_i2c_config_t __attribute__((weak)) acquireWireBuffer()
{
 8083640:	b510      	push	{r4, lr}
 8083642:	4604      	mov	r4, r0
	return defaultWireConfig();
 8083644:	f7ff ffe4 	bl	8083610 <_ZN12_GLOBAL__N_117defaultWireConfigEv>
}
 8083648:	4620      	mov	r0, r4
 808364a:	bd10      	pop	{r4, pc}

0808364c <_Z19__fetch_global_Wirev>:
	return defaultWireConfig();
}
#endif

TwoWire& __fetch_global_Wire()
{
 808364c:	b530      	push	{r4, r5, lr}
	static TwoWire wire(HAL_I2C_INTERFACE1, acquireWireBuffer());
 808364e:	4d0f      	ldr	r5, [pc, #60]	; (808368c <_Z19__fetch_global_Wirev+0x40>)
{
 8083650:	b087      	sub	sp, #28
	static TwoWire wire(HAL_I2C_INTERFACE1, acquireWireBuffer());
 8083652:	7829      	ldrb	r1, [r5, #0]
 8083654:	f3bf 8f5b 	dmb	ish
 8083658:	f011 0401 	ands.w	r4, r1, #1
 808365c:	d113      	bne.n	8083686 <_Z19__fetch_global_Wirev+0x3a>
 808365e:	4628      	mov	r0, r5
 8083660:	f7fc fd31 	bl	80800c6 <__cxa_guard_acquire>
 8083664:	b178      	cbz	r0, 8083686 <_Z19__fetch_global_Wirev+0x3a>
 8083666:	a801      	add	r0, sp, #4
 8083668:	f7ff ffea 	bl	8083640 <_Z17acquireWireBufferv>
 808366c:	4621      	mov	r1, r4
 808366e:	aa01      	add	r2, sp, #4
 8083670:	4807      	ldr	r0, [pc, #28]	; (8083690 <_Z19__fetch_global_Wirev+0x44>)
 8083672:	f7ff fe83 	bl	808337c <_ZN7TwoWireC1E19hal_i2c_interface_tRK16hal_i2c_config_t>
 8083676:	4628      	mov	r0, r5
 8083678:	f7fc fd2a 	bl	80800d0 <__cxa_guard_release>
 808367c:	4a05      	ldr	r2, [pc, #20]	; (8083694 <_Z19__fetch_global_Wirev+0x48>)
 808367e:	4906      	ldr	r1, [pc, #24]	; (8083698 <_Z19__fetch_global_Wirev+0x4c>)
 8083680:	4803      	ldr	r0, [pc, #12]	; (8083690 <_Z19__fetch_global_Wirev+0x44>)
 8083682:	f000 f80b 	bl	808369c <__aeabi_atexit>
	return wire;
}
 8083686:	4802      	ldr	r0, [pc, #8]	; (8083690 <_Z19__fetch_global_Wirev+0x44>)
 8083688:	b007      	add	sp, #28
 808368a:	bd30      	pop	{r4, r5, pc}
 808368c:	200005ec 	.word	0x200005ec
 8083690:	200005f0 	.word	0x200005f0
 8083694:	200001e8 	.word	0x200001e8
 8083698:	08083325 	.word	0x08083325

0808369c <__aeabi_atexit>:
 808369c:	460b      	mov	r3, r1
 808369e:	4601      	mov	r1, r0
 80836a0:	4618      	mov	r0, r3
 80836a2:	f000 bda1 	b.w	80841e8 <__cxa_atexit>

080836a6 <_ZdlPvj>:
 80836a6:	f7fc bd0c 	b.w	80800c2 <_ZdlPv>

080836aa <_ZnajRKSt9nothrow_t>:
 80836aa:	f7fc bd08 	b.w	80800be <_Znaj>

080836ae <_ZSt25__throw_bad_function_callv>:
 80836ae:	b508      	push	{r3, lr}
 80836b0:	f7fe fcba 	bl	8082028 <abort>

080836b4 <__aeabi_drsub>:
 80836b4:	f081 4100 	eor.w	r1, r1, #2147483648	; 0x80000000
 80836b8:	e002      	b.n	80836c0 <__adddf3>
 80836ba:	bf00      	nop

080836bc <__aeabi_dsub>:
 80836bc:	f083 4300 	eor.w	r3, r3, #2147483648	; 0x80000000

080836c0 <__adddf3>:
 80836c0:	b530      	push	{r4, r5, lr}
 80836c2:	ea4f 0441 	mov.w	r4, r1, lsl #1
 80836c6:	ea4f 0543 	mov.w	r5, r3, lsl #1
 80836ca:	ea94 0f05 	teq	r4, r5
 80836ce:	bf08      	it	eq
 80836d0:	ea90 0f02 	teqeq	r0, r2
 80836d4:	bf1f      	itttt	ne
 80836d6:	ea54 0c00 	orrsne.w	ip, r4, r0
 80836da:	ea55 0c02 	orrsne.w	ip, r5, r2
 80836de:	ea7f 5c64 	mvnsne.w	ip, r4, asr #21
 80836e2:	ea7f 5c65 	mvnsne.w	ip, r5, asr #21
 80836e6:	f000 80e2 	beq.w	80838ae <__adddf3+0x1ee>
 80836ea:	ea4f 5454 	mov.w	r4, r4, lsr #21
 80836ee:	ebd4 5555 	rsbs	r5, r4, r5, lsr #21
 80836f2:	bfb8      	it	lt
 80836f4:	426d      	neglt	r5, r5
 80836f6:	dd0c      	ble.n	8083712 <__adddf3+0x52>
 80836f8:	442c      	add	r4, r5
 80836fa:	ea80 0202 	eor.w	r2, r0, r2
 80836fe:	ea81 0303 	eor.w	r3, r1, r3
 8083702:	ea82 0000 	eor.w	r0, r2, r0
 8083706:	ea83 0101 	eor.w	r1, r3, r1
 808370a:	ea80 0202 	eor.w	r2, r0, r2
 808370e:	ea81 0303 	eor.w	r3, r1, r3
 8083712:	2d36      	cmp	r5, #54	; 0x36
 8083714:	bf88      	it	hi
 8083716:	bd30      	pophi	{r4, r5, pc}
 8083718:	f011 4f00 	tst.w	r1, #2147483648	; 0x80000000
 808371c:	ea4f 3101 	mov.w	r1, r1, lsl #12
 8083720:	f44f 1c80 	mov.w	ip, #1048576	; 0x100000
 8083724:	ea4c 3111 	orr.w	r1, ip, r1, lsr #12
 8083728:	d002      	beq.n	8083730 <__adddf3+0x70>
 808372a:	4240      	negs	r0, r0
 808372c:	eb61 0141 	sbc.w	r1, r1, r1, lsl #1
 8083730:	f013 4f00 	tst.w	r3, #2147483648	; 0x80000000
 8083734:	ea4f 3303 	mov.w	r3, r3, lsl #12
 8083738:	ea4c 3313 	orr.w	r3, ip, r3, lsr #12
 808373c:	d002      	beq.n	8083744 <__adddf3+0x84>
 808373e:	4252      	negs	r2, r2
 8083740:	eb63 0343 	sbc.w	r3, r3, r3, lsl #1
 8083744:	ea94 0f05 	teq	r4, r5
 8083748:	f000 80a7 	beq.w	808389a <__adddf3+0x1da>
 808374c:	f1a4 0401 	sub.w	r4, r4, #1
 8083750:	f1d5 0e20 	rsbs	lr, r5, #32
 8083754:	db0d      	blt.n	8083772 <__adddf3+0xb2>
 8083756:	fa02 fc0e 	lsl.w	ip, r2, lr
 808375a:	fa22 f205 	lsr.w	r2, r2, r5
 808375e:	1880      	adds	r0, r0, r2
 8083760:	f141 0100 	adc.w	r1, r1, #0
 8083764:	fa03 f20e 	lsl.w	r2, r3, lr
 8083768:	1880      	adds	r0, r0, r2
 808376a:	fa43 f305 	asr.w	r3, r3, r5
 808376e:	4159      	adcs	r1, r3
 8083770:	e00e      	b.n	8083790 <__adddf3+0xd0>
 8083772:	f1a5 0520 	sub.w	r5, r5, #32
 8083776:	f10e 0e20 	add.w	lr, lr, #32
 808377a:	2a01      	cmp	r2, #1
 808377c:	fa03 fc0e 	lsl.w	ip, r3, lr
 8083780:	bf28      	it	cs
 8083782:	f04c 0c02 	orrcs.w	ip, ip, #2
 8083786:	fa43 f305 	asr.w	r3, r3, r5
 808378a:	18c0      	adds	r0, r0, r3
 808378c:	eb51 71e3 	adcs.w	r1, r1, r3, asr #31
 8083790:	f001 4500 	and.w	r5, r1, #2147483648	; 0x80000000
 8083794:	d507      	bpl.n	80837a6 <__adddf3+0xe6>
 8083796:	f04f 0e00 	mov.w	lr, #0
 808379a:	f1dc 0c00 	rsbs	ip, ip, #0
 808379e:	eb7e 0000 	sbcs.w	r0, lr, r0
 80837a2:	eb6e 0101 	sbc.w	r1, lr, r1
 80837a6:	f5b1 1f80 	cmp.w	r1, #1048576	; 0x100000
 80837aa:	d31b      	bcc.n	80837e4 <__adddf3+0x124>
 80837ac:	f5b1 1f00 	cmp.w	r1, #2097152	; 0x200000
 80837b0:	d30c      	bcc.n	80837cc <__adddf3+0x10c>
 80837b2:	0849      	lsrs	r1, r1, #1
 80837b4:	ea5f 0030 	movs.w	r0, r0, rrx
 80837b8:	ea4f 0c3c 	mov.w	ip, ip, rrx
 80837bc:	f104 0401 	add.w	r4, r4, #1
 80837c0:	ea4f 5244 	mov.w	r2, r4, lsl #21
 80837c4:	f512 0f80 	cmn.w	r2, #4194304	; 0x400000
 80837c8:	f080 809a 	bcs.w	8083900 <__adddf3+0x240>
 80837cc:	f1bc 4f00 	cmp.w	ip, #2147483648	; 0x80000000
 80837d0:	bf08      	it	eq
 80837d2:	ea5f 0c50 	movseq.w	ip, r0, lsr #1
 80837d6:	f150 0000 	adcs.w	r0, r0, #0
 80837da:	eb41 5104 	adc.w	r1, r1, r4, lsl #20
 80837de:	ea41 0105 	orr.w	r1, r1, r5
 80837e2:	bd30      	pop	{r4, r5, pc}
 80837e4:	ea5f 0c4c 	movs.w	ip, ip, lsl #1
 80837e8:	4140      	adcs	r0, r0
 80837ea:	eb41 0101 	adc.w	r1, r1, r1
 80837ee:	3c01      	subs	r4, #1
 80837f0:	bf28      	it	cs
 80837f2:	f5b1 1f80 	cmpcs.w	r1, #1048576	; 0x100000
 80837f6:	d2e9      	bcs.n	80837cc <__adddf3+0x10c>
 80837f8:	f091 0f00 	teq	r1, #0
 80837fc:	bf04      	itt	eq
 80837fe:	4601      	moveq	r1, r0
 8083800:	2000      	moveq	r0, #0
 8083802:	fab1 f381 	clz	r3, r1
 8083806:	bf08      	it	eq
 8083808:	3320      	addeq	r3, #32
 808380a:	f1a3 030b 	sub.w	r3, r3, #11
 808380e:	f1b3 0220 	subs.w	r2, r3, #32
 8083812:	da0c      	bge.n	808382e <__adddf3+0x16e>
 8083814:	320c      	adds	r2, #12
 8083816:	dd08      	ble.n	808382a <__adddf3+0x16a>
 8083818:	f102 0c14 	add.w	ip, r2, #20
 808381c:	f1c2 020c 	rsb	r2, r2, #12
 8083820:	fa01 f00c 	lsl.w	r0, r1, ip
 8083824:	fa21 f102 	lsr.w	r1, r1, r2
 8083828:	e00c      	b.n	8083844 <__adddf3+0x184>
 808382a:	f102 0214 	add.w	r2, r2, #20
 808382e:	bfd8      	it	le
 8083830:	f1c2 0c20 	rsble	ip, r2, #32
 8083834:	fa01 f102 	lsl.w	r1, r1, r2
 8083838:	fa20 fc0c 	lsr.w	ip, r0, ip
 808383c:	bfdc      	itt	le
 808383e:	ea41 010c 	orrle.w	r1, r1, ip
 8083842:	4090      	lslle	r0, r2
 8083844:	1ae4      	subs	r4, r4, r3
 8083846:	bfa2      	ittt	ge
 8083848:	eb01 5104 	addge.w	r1, r1, r4, lsl #20
 808384c:	4329      	orrge	r1, r5
 808384e:	bd30      	popge	{r4, r5, pc}
 8083850:	ea6f 0404 	mvn.w	r4, r4
 8083854:	3c1f      	subs	r4, #31
 8083856:	da1c      	bge.n	8083892 <__adddf3+0x1d2>
 8083858:	340c      	adds	r4, #12
 808385a:	dc0e      	bgt.n	808387a <__adddf3+0x1ba>
 808385c:	f104 0414 	add.w	r4, r4, #20
 8083860:	f1c4 0220 	rsb	r2, r4, #32
 8083864:	fa20 f004 	lsr.w	r0, r0, r4
 8083868:	fa01 f302 	lsl.w	r3, r1, r2
 808386c:	ea40 0003 	orr.w	r0, r0, r3
 8083870:	fa21 f304 	lsr.w	r3, r1, r4
 8083874:	ea45 0103 	orr.w	r1, r5, r3
 8083878:	bd30      	pop	{r4, r5, pc}
 808387a:	f1c4 040c 	rsb	r4, r4, #12
 808387e:	f1c4 0220 	rsb	r2, r4, #32
 8083882:	fa20 f002 	lsr.w	r0, r0, r2
 8083886:	fa01 f304 	lsl.w	r3, r1, r4
 808388a:	ea40 0003 	orr.w	r0, r0, r3
 808388e:	4629      	mov	r1, r5
 8083890:	bd30      	pop	{r4, r5, pc}
 8083892:	fa21 f004 	lsr.w	r0, r1, r4
 8083896:	4629      	mov	r1, r5
 8083898:	bd30      	pop	{r4, r5, pc}
 808389a:	f094 0f00 	teq	r4, #0
 808389e:	f483 1380 	eor.w	r3, r3, #1048576	; 0x100000
 80838a2:	bf06      	itte	eq
 80838a4:	f481 1180 	eoreq.w	r1, r1, #1048576	; 0x100000
 80838a8:	3401      	addeq	r4, #1
 80838aa:	3d01      	subne	r5, #1
 80838ac:	e74e      	b.n	808374c <__adddf3+0x8c>
 80838ae:	ea7f 5c64 	mvns.w	ip, r4, asr #21
 80838b2:	bf18      	it	ne
 80838b4:	ea7f 5c65 	mvnsne.w	ip, r5, asr #21
 80838b8:	d029      	beq.n	808390e <__adddf3+0x24e>
 80838ba:	ea94 0f05 	teq	r4, r5
 80838be:	bf08      	it	eq
 80838c0:	ea90 0f02 	teqeq	r0, r2
 80838c4:	d005      	beq.n	80838d2 <__adddf3+0x212>
 80838c6:	ea54 0c00 	orrs.w	ip, r4, r0
 80838ca:	bf04      	itt	eq
 80838cc:	4619      	moveq	r1, r3
 80838ce:	4610      	moveq	r0, r2
 80838d0:	bd30      	pop	{r4, r5, pc}
 80838d2:	ea91 0f03 	teq	r1, r3
 80838d6:	bf1e      	ittt	ne
 80838d8:	2100      	movne	r1, #0
 80838da:	2000      	movne	r0, #0
 80838dc:	bd30      	popne	{r4, r5, pc}
 80838de:	ea5f 5c54 	movs.w	ip, r4, lsr #21
 80838e2:	d105      	bne.n	80838f0 <__adddf3+0x230>
 80838e4:	0040      	lsls	r0, r0, #1
 80838e6:	4149      	adcs	r1, r1
 80838e8:	bf28      	it	cs
 80838ea:	f041 4100 	orrcs.w	r1, r1, #2147483648	; 0x80000000
 80838ee:	bd30      	pop	{r4, r5, pc}
 80838f0:	f514 0480 	adds.w	r4, r4, #4194304	; 0x400000
 80838f4:	bf3c      	itt	cc
 80838f6:	f501 1180 	addcc.w	r1, r1, #1048576	; 0x100000
 80838fa:	bd30      	popcc	{r4, r5, pc}
 80838fc:	f001 4500 	and.w	r5, r1, #2147483648	; 0x80000000
 8083900:	f045 41fe 	orr.w	r1, r5, #2130706432	; 0x7f000000
 8083904:	f441 0170 	orr.w	r1, r1, #15728640	; 0xf00000
 8083908:	f04f 0000 	mov.w	r0, #0
 808390c:	bd30      	pop	{r4, r5, pc}
 808390e:	ea7f 5c64 	mvns.w	ip, r4, asr #21
 8083912:	bf1a      	itte	ne
 8083914:	4619      	movne	r1, r3
 8083916:	4610      	movne	r0, r2
 8083918:	ea7f 5c65 	mvnseq.w	ip, r5, asr #21
 808391c:	bf1c      	itt	ne
 808391e:	460b      	movne	r3, r1
 8083920:	4602      	movne	r2, r0
 8083922:	ea50 3401 	orrs.w	r4, r0, r1, lsl #12
 8083926:	bf06      	itte	eq
 8083928:	ea52 3503 	orrseq.w	r5, r2, r3, lsl #12
 808392c:	ea91 0f03 	teqeq	r1, r3
 8083930:	f441 2100 	orrne.w	r1, r1, #524288	; 0x80000
 8083934:	bd30      	pop	{r4, r5, pc}
 8083936:	bf00      	nop

08083938 <__aeabi_ui2d>:
 8083938:	f090 0f00 	teq	r0, #0
 808393c:	bf04      	itt	eq
 808393e:	2100      	moveq	r1, #0
 8083940:	4770      	bxeq	lr
 8083942:	b530      	push	{r4, r5, lr}
 8083944:	f44f 6480 	mov.w	r4, #1024	; 0x400
 8083948:	f104 0432 	add.w	r4, r4, #50	; 0x32
 808394c:	f04f 0500 	mov.w	r5, #0
 8083950:	f04f 0100 	mov.w	r1, #0
 8083954:	e750      	b.n	80837f8 <__adddf3+0x138>
 8083956:	bf00      	nop

08083958 <__aeabi_i2d>:
 8083958:	f090 0f00 	teq	r0, #0
 808395c:	bf04      	itt	eq
 808395e:	2100      	moveq	r1, #0
 8083960:	4770      	bxeq	lr
 8083962:	b530      	push	{r4, r5, lr}
 8083964:	f44f 6480 	mov.w	r4, #1024	; 0x400
 8083968:	f104 0432 	add.w	r4, r4, #50	; 0x32
 808396c:	f010 4500 	ands.w	r5, r0, #2147483648	; 0x80000000
 8083970:	bf48      	it	mi
 8083972:	4240      	negmi	r0, r0
 8083974:	f04f 0100 	mov.w	r1, #0
 8083978:	e73e      	b.n	80837f8 <__adddf3+0x138>
 808397a:	bf00      	nop

0808397c <__aeabi_f2d>:
 808397c:	0042      	lsls	r2, r0, #1
 808397e:	ea4f 01e2 	mov.w	r1, r2, asr #3
 8083982:	ea4f 0131 	mov.w	r1, r1, rrx
 8083986:	ea4f 7002 	mov.w	r0, r2, lsl #28
 808398a:	bf1f      	itttt	ne
 808398c:	f012 437f 	andsne.w	r3, r2, #4278190080	; 0xff000000
 8083990:	f093 4f7f 	teqne	r3, #4278190080	; 0xff000000
 8083994:	f081 5160 	eorne.w	r1, r1, #939524096	; 0x38000000
 8083998:	4770      	bxne	lr
 808399a:	f032 427f 	bics.w	r2, r2, #4278190080	; 0xff000000
 808399e:	bf08      	it	eq
 80839a0:	4770      	bxeq	lr
 80839a2:	f093 4f7f 	teq	r3, #4278190080	; 0xff000000
 80839a6:	bf04      	itt	eq
 80839a8:	f441 2100 	orreq.w	r1, r1, #524288	; 0x80000
 80839ac:	4770      	bxeq	lr
 80839ae:	b530      	push	{r4, r5, lr}
 80839b0:	f44f 7460 	mov.w	r4, #896	; 0x380
 80839b4:	f001 4500 	and.w	r5, r1, #2147483648	; 0x80000000
 80839b8:	f021 4100 	bic.w	r1, r1, #2147483648	; 0x80000000
 80839bc:	e71c      	b.n	80837f8 <__adddf3+0x138>
 80839be:	bf00      	nop

080839c0 <__aeabi_ul2d>:
 80839c0:	ea50 0201 	orrs.w	r2, r0, r1
 80839c4:	bf08      	it	eq
 80839c6:	4770      	bxeq	lr
 80839c8:	b530      	push	{r4, r5, lr}
 80839ca:	f04f 0500 	mov.w	r5, #0
 80839ce:	e00a      	b.n	80839e6 <__aeabi_l2d+0x16>

080839d0 <__aeabi_l2d>:
 80839d0:	ea50 0201 	orrs.w	r2, r0, r1
 80839d4:	bf08      	it	eq
 80839d6:	4770      	bxeq	lr
 80839d8:	b530      	push	{r4, r5, lr}
 80839da:	f011 4500 	ands.w	r5, r1, #2147483648	; 0x80000000
 80839de:	d502      	bpl.n	80839e6 <__aeabi_l2d+0x16>
 80839e0:	4240      	negs	r0, r0
 80839e2:	eb61 0141 	sbc.w	r1, r1, r1, lsl #1
 80839e6:	f44f 6480 	mov.w	r4, #1024	; 0x400
 80839ea:	f104 0432 	add.w	r4, r4, #50	; 0x32
 80839ee:	ea5f 5c91 	movs.w	ip, r1, lsr #22
 80839f2:	f43f aed8 	beq.w	80837a6 <__adddf3+0xe6>
 80839f6:	f04f 0203 	mov.w	r2, #3
 80839fa:	ea5f 0cdc 	movs.w	ip, ip, lsr #3
 80839fe:	bf18      	it	ne
 8083a00:	3203      	addne	r2, #3
 8083a02:	ea5f 0cdc 	movs.w	ip, ip, lsr #3
 8083a06:	bf18      	it	ne
 8083a08:	3203      	addne	r2, #3
 8083a0a:	eb02 02dc 	add.w	r2, r2, ip, lsr #3
 8083a0e:	f1c2 0320 	rsb	r3, r2, #32
 8083a12:	fa00 fc03 	lsl.w	ip, r0, r3
 8083a16:	fa20 f002 	lsr.w	r0, r0, r2
 8083a1a:	fa01 fe03 	lsl.w	lr, r1, r3
 8083a1e:	ea40 000e 	orr.w	r0, r0, lr
 8083a22:	fa21 f102 	lsr.w	r1, r1, r2
 8083a26:	4414      	add	r4, r2
 8083a28:	e6bd      	b.n	80837a6 <__adddf3+0xe6>
 8083a2a:	bf00      	nop

08083a2c <__aeabi_dmul>:
 8083a2c:	b570      	push	{r4, r5, r6, lr}
 8083a2e:	f04f 0cff 	mov.w	ip, #255	; 0xff
 8083a32:	f44c 6ce0 	orr.w	ip, ip, #1792	; 0x700
 8083a36:	ea1c 5411 	ands.w	r4, ip, r1, lsr #20
 8083a3a:	bf1d      	ittte	ne
 8083a3c:	ea1c 5513 	andsne.w	r5, ip, r3, lsr #20
 8083a40:	ea94 0f0c 	teqne	r4, ip
 8083a44:	ea95 0f0c 	teqne	r5, ip
 8083a48:	f000 f8de 	bleq	8083c08 <__aeabi_dmul+0x1dc>
 8083a4c:	442c      	add	r4, r5
 8083a4e:	ea81 0603 	eor.w	r6, r1, r3
 8083a52:	ea21 514c 	bic.w	r1, r1, ip, lsl #21
 8083a56:	ea23 534c 	bic.w	r3, r3, ip, lsl #21
 8083a5a:	ea50 3501 	orrs.w	r5, r0, r1, lsl #12
 8083a5e:	bf18      	it	ne
 8083a60:	ea52 3503 	orrsne.w	r5, r2, r3, lsl #12
 8083a64:	f441 1180 	orr.w	r1, r1, #1048576	; 0x100000
 8083a68:	f443 1380 	orr.w	r3, r3, #1048576	; 0x100000
 8083a6c:	d038      	beq.n	8083ae0 <__aeabi_dmul+0xb4>
 8083a6e:	fba0 ce02 	umull	ip, lr, r0, r2
 8083a72:	f04f 0500 	mov.w	r5, #0
 8083a76:	fbe1 e502 	umlal	lr, r5, r1, r2
 8083a7a:	f006 4200 	and.w	r2, r6, #2147483648	; 0x80000000
 8083a7e:	fbe0 e503 	umlal	lr, r5, r0, r3
 8083a82:	f04f 0600 	mov.w	r6, #0
 8083a86:	fbe1 5603 	umlal	r5, r6, r1, r3
 8083a8a:	f09c 0f00 	teq	ip, #0
 8083a8e:	bf18      	it	ne
 8083a90:	f04e 0e01 	orrne.w	lr, lr, #1
 8083a94:	f1a4 04ff 	sub.w	r4, r4, #255	; 0xff
 8083a98:	f5b6 7f00 	cmp.w	r6, #512	; 0x200
 8083a9c:	f564 7440 	sbc.w	r4, r4, #768	; 0x300
 8083aa0:	d204      	bcs.n	8083aac <__aeabi_dmul+0x80>
 8083aa2:	ea5f 0e4e 	movs.w	lr, lr, lsl #1
 8083aa6:	416d      	adcs	r5, r5
 8083aa8:	eb46 0606 	adc.w	r6, r6, r6
 8083aac:	ea42 21c6 	orr.w	r1, r2, r6, lsl #11
 8083ab0:	ea41 5155 	orr.w	r1, r1, r5, lsr #21
 8083ab4:	ea4f 20c5 	mov.w	r0, r5, lsl #11
 8083ab8:	ea40 505e 	orr.w	r0, r0, lr, lsr #21
 8083abc:	ea4f 2ece 	mov.w	lr, lr, lsl #11
 8083ac0:	f1b4 0cfd 	subs.w	ip, r4, #253	; 0xfd
 8083ac4:	bf88      	it	hi
 8083ac6:	f5bc 6fe0 	cmphi.w	ip, #1792	; 0x700
 8083aca:	d81e      	bhi.n	8083b0a <__aeabi_dmul+0xde>
 8083acc:	f1be 4f00 	cmp.w	lr, #2147483648	; 0x80000000
 8083ad0:	bf08      	it	eq
 8083ad2:	ea5f 0e50 	movseq.w	lr, r0, lsr #1
 8083ad6:	f150 0000 	adcs.w	r0, r0, #0
 8083ada:	eb41 5104 	adc.w	r1, r1, r4, lsl #20
 8083ade:	bd70      	pop	{r4, r5, r6, pc}
 8083ae0:	f006 4600 	and.w	r6, r6, #2147483648	; 0x80000000
 8083ae4:	ea46 0101 	orr.w	r1, r6, r1
 8083ae8:	ea40 0002 	orr.w	r0, r0, r2
 8083aec:	ea81 0103 	eor.w	r1, r1, r3
 8083af0:	ebb4 045c 	subs.w	r4, r4, ip, lsr #1
 8083af4:	bfc2      	ittt	gt
 8083af6:	ebd4 050c 	rsbsgt	r5, r4, ip
 8083afa:	ea41 5104 	orrgt.w	r1, r1, r4, lsl #20
 8083afe:	bd70      	popgt	{r4, r5, r6, pc}
 8083b00:	f441 1180 	orr.w	r1, r1, #1048576	; 0x100000
 8083b04:	f04f 0e00 	mov.w	lr, #0
 8083b08:	3c01      	subs	r4, #1
 8083b0a:	f300 80ab 	bgt.w	8083c64 <__aeabi_dmul+0x238>
 8083b0e:	f114 0f36 	cmn.w	r4, #54	; 0x36
 8083b12:	bfde      	ittt	le
 8083b14:	2000      	movle	r0, #0
 8083b16:	f001 4100 	andle.w	r1, r1, #2147483648	; 0x80000000
 8083b1a:	bd70      	pople	{r4, r5, r6, pc}
 8083b1c:	f1c4 0400 	rsb	r4, r4, #0
 8083b20:	3c20      	subs	r4, #32
 8083b22:	da35      	bge.n	8083b90 <__aeabi_dmul+0x164>
 8083b24:	340c      	adds	r4, #12
 8083b26:	dc1b      	bgt.n	8083b60 <__aeabi_dmul+0x134>
 8083b28:	f104 0414 	add.w	r4, r4, #20
 8083b2c:	f1c4 0520 	rsb	r5, r4, #32
 8083b30:	fa00 f305 	lsl.w	r3, r0, r5
 8083b34:	fa20 f004 	lsr.w	r0, r0, r4
 8083b38:	fa01 f205 	lsl.w	r2, r1, r5
 8083b3c:	ea40 0002 	orr.w	r0, r0, r2
 8083b40:	f001 4200 	and.w	r2, r1, #2147483648	; 0x80000000
 8083b44:	f021 4100 	bic.w	r1, r1, #2147483648	; 0x80000000
 8083b48:	eb10 70d3 	adds.w	r0, r0, r3, lsr #31
 8083b4c:	fa21 f604 	lsr.w	r6, r1, r4
 8083b50:	eb42 0106 	adc.w	r1, r2, r6
 8083b54:	ea5e 0e43 	orrs.w	lr, lr, r3, lsl #1
 8083b58:	bf08      	it	eq
 8083b5a:	ea20 70d3 	biceq.w	r0, r0, r3, lsr #31
 8083b5e:	bd70      	pop	{r4, r5, r6, pc}
 8083b60:	f1c4 040c 	rsb	r4, r4, #12
 8083b64:	f1c4 0520 	rsb	r5, r4, #32
 8083b68:	fa00 f304 	lsl.w	r3, r0, r4
 8083b6c:	fa20 f005 	lsr.w	r0, r0, r5
 8083b70:	fa01 f204 	lsl.w	r2, r1, r4
 8083b74:	ea40 0002 	orr.w	r0, r0, r2
 8083b78:	f001 4100 	and.w	r1, r1, #2147483648	; 0x80000000
 8083b7c:	eb10 70d3 	adds.w	r0, r0, r3, lsr #31
 8083b80:	f141 0100 	adc.w	r1, r1, #0
 8083b84:	ea5e 0e43 	orrs.w	lr, lr, r3, lsl #1
 8083b88:	bf08      	it	eq
 8083b8a:	ea20 70d3 	biceq.w	r0, r0, r3, lsr #31
 8083b8e:	bd70      	pop	{r4, r5, r6, pc}
 8083b90:	f1c4 0520 	rsb	r5, r4, #32
 8083b94:	fa00 f205 	lsl.w	r2, r0, r5
 8083b98:	ea4e 0e02 	orr.w	lr, lr, r2
 8083b9c:	fa20 f304 	lsr.w	r3, r0, r4
 8083ba0:	fa01 f205 	lsl.w	r2, r1, r5
 8083ba4:	ea43 0302 	orr.w	r3, r3, r2
 8083ba8:	fa21 f004 	lsr.w	r0, r1, r4
 8083bac:	f001 4100 	and.w	r1, r1, #2147483648	; 0x80000000
 8083bb0:	fa21 f204 	lsr.w	r2, r1, r4
 8083bb4:	ea20 0002 	bic.w	r0, r0, r2
 8083bb8:	eb00 70d3 	add.w	r0, r0, r3, lsr #31
 8083bbc:	ea5e 0e43 	orrs.w	lr, lr, r3, lsl #1
 8083bc0:	bf08      	it	eq
 8083bc2:	ea20 70d3 	biceq.w	r0, r0, r3, lsr #31
 8083bc6:	bd70      	pop	{r4, r5, r6, pc}
 8083bc8:	f094 0f00 	teq	r4, #0
 8083bcc:	d10f      	bne.n	8083bee <__aeabi_dmul+0x1c2>
 8083bce:	f001 4600 	and.w	r6, r1, #2147483648	; 0x80000000
 8083bd2:	0040      	lsls	r0, r0, #1
 8083bd4:	eb41 0101 	adc.w	r1, r1, r1
 8083bd8:	f411 1f80 	tst.w	r1, #1048576	; 0x100000
 8083bdc:	bf08      	it	eq
 8083bde:	3c01      	subeq	r4, #1
 8083be0:	d0f7      	beq.n	8083bd2 <__aeabi_dmul+0x1a6>
 8083be2:	ea41 0106 	orr.w	r1, r1, r6
 8083be6:	f095 0f00 	teq	r5, #0
 8083bea:	bf18      	it	ne
 8083bec:	4770      	bxne	lr
 8083bee:	f003 4600 	and.w	r6, r3, #2147483648	; 0x80000000
 8083bf2:	0052      	lsls	r2, r2, #1
 8083bf4:	eb43 0303 	adc.w	r3, r3, r3
 8083bf8:	f413 1f80 	tst.w	r3, #1048576	; 0x100000
 8083bfc:	bf08      	it	eq
 8083bfe:	3d01      	subeq	r5, #1
 8083c00:	d0f7      	beq.n	8083bf2 <__aeabi_dmul+0x1c6>
 8083c02:	ea43 0306 	orr.w	r3, r3, r6
 8083c06:	4770      	bx	lr
 8083c08:	ea94 0f0c 	teq	r4, ip
 8083c0c:	ea0c 5513 	and.w	r5, ip, r3, lsr #20
 8083c10:	bf18      	it	ne
 8083c12:	ea95 0f0c 	teqne	r5, ip
 8083c16:	d00c      	beq.n	8083c32 <__aeabi_dmul+0x206>
 8083c18:	ea50 0641 	orrs.w	r6, r0, r1, lsl #1
 8083c1c:	bf18      	it	ne
 8083c1e:	ea52 0643 	orrsne.w	r6, r2, r3, lsl #1
 8083c22:	d1d1      	bne.n	8083bc8 <__aeabi_dmul+0x19c>
 8083c24:	ea81 0103 	eor.w	r1, r1, r3
 8083c28:	f001 4100 	and.w	r1, r1, #2147483648	; 0x80000000
 8083c2c:	f04f 0000 	mov.w	r0, #0
 8083c30:	bd70      	pop	{r4, r5, r6, pc}
 8083c32:	ea50 0641 	orrs.w	r6, r0, r1, lsl #1
 8083c36:	bf06      	itte	eq
 8083c38:	4610      	moveq	r0, r2
 8083c3a:	4619      	moveq	r1, r3
 8083c3c:	ea52 0643 	orrsne.w	r6, r2, r3, lsl #1
 8083c40:	d019      	beq.n	8083c76 <__aeabi_dmul+0x24a>
 8083c42:	ea94 0f0c 	teq	r4, ip
 8083c46:	d102      	bne.n	8083c4e <__aeabi_dmul+0x222>
 8083c48:	ea50 3601 	orrs.w	r6, r0, r1, lsl #12
 8083c4c:	d113      	bne.n	8083c76 <__aeabi_dmul+0x24a>
 8083c4e:	ea95 0f0c 	teq	r5, ip
 8083c52:	d105      	bne.n	8083c60 <__aeabi_dmul+0x234>
 8083c54:	ea52 3603 	orrs.w	r6, r2, r3, lsl #12
 8083c58:	bf1c      	itt	ne
 8083c5a:	4610      	movne	r0, r2
 8083c5c:	4619      	movne	r1, r3
 8083c5e:	d10a      	bne.n	8083c76 <__aeabi_dmul+0x24a>
 8083c60:	ea81 0103 	eor.w	r1, r1, r3
 8083c64:	f001 4100 	and.w	r1, r1, #2147483648	; 0x80000000
 8083c68:	f041 41fe 	orr.w	r1, r1, #2130706432	; 0x7f000000
 8083c6c:	f441 0170 	orr.w	r1, r1, #15728640	; 0xf00000
 8083c70:	f04f 0000 	mov.w	r0, #0
 8083c74:	bd70      	pop	{r4, r5, r6, pc}
 8083c76:	f041 41fe 	orr.w	r1, r1, #2130706432	; 0x7f000000
 8083c7a:	f441 0178 	orr.w	r1, r1, #16252928	; 0xf80000
 8083c7e:	bd70      	pop	{r4, r5, r6, pc}

08083c80 <__aeabi_ddiv>:
 8083c80:	b570      	push	{r4, r5, r6, lr}
 8083c82:	f04f 0cff 	mov.w	ip, #255	; 0xff
 8083c86:	f44c 6ce0 	orr.w	ip, ip, #1792	; 0x700
 8083c8a:	ea1c 5411 	ands.w	r4, ip, r1, lsr #20
 8083c8e:	bf1d      	ittte	ne
 8083c90:	ea1c 5513 	andsne.w	r5, ip, r3, lsr #20
 8083c94:	ea94 0f0c 	teqne	r4, ip
 8083c98:	ea95 0f0c 	teqne	r5, ip
 8083c9c:	f000 f8a7 	bleq	8083dee <__aeabi_ddiv+0x16e>
 8083ca0:	eba4 0405 	sub.w	r4, r4, r5
 8083ca4:	ea81 0e03 	eor.w	lr, r1, r3
 8083ca8:	ea52 3503 	orrs.w	r5, r2, r3, lsl #12
 8083cac:	ea4f 3101 	mov.w	r1, r1, lsl #12
 8083cb0:	f000 8088 	beq.w	8083dc4 <__aeabi_ddiv+0x144>
 8083cb4:	ea4f 3303 	mov.w	r3, r3, lsl #12
 8083cb8:	f04f 5580 	mov.w	r5, #268435456	; 0x10000000
 8083cbc:	ea45 1313 	orr.w	r3, r5, r3, lsr #4
 8083cc0:	ea43 6312 	orr.w	r3, r3, r2, lsr #24
 8083cc4:	ea4f 2202 	mov.w	r2, r2, lsl #8
 8083cc8:	ea45 1511 	orr.w	r5, r5, r1, lsr #4
 8083ccc:	ea45 6510 	orr.w	r5, r5, r0, lsr #24
 8083cd0:	ea4f 2600 	mov.w	r6, r0, lsl #8
 8083cd4:	f00e 4100 	and.w	r1, lr, #2147483648	; 0x80000000
 8083cd8:	429d      	cmp	r5, r3
 8083cda:	bf08      	it	eq
 8083cdc:	4296      	cmpeq	r6, r2
 8083cde:	f144 04fd 	adc.w	r4, r4, #253	; 0xfd
 8083ce2:	f504 7440 	add.w	r4, r4, #768	; 0x300
 8083ce6:	d202      	bcs.n	8083cee <__aeabi_ddiv+0x6e>
 8083ce8:	085b      	lsrs	r3, r3, #1
 8083cea:	ea4f 0232 	mov.w	r2, r2, rrx
 8083cee:	1ab6      	subs	r6, r6, r2
 8083cf0:	eb65 0503 	sbc.w	r5, r5, r3
 8083cf4:	085b      	lsrs	r3, r3, #1
 8083cf6:	ea4f 0232 	mov.w	r2, r2, rrx
 8083cfa:	f44f 1080 	mov.w	r0, #1048576	; 0x100000
 8083cfe:	f44f 2c00 	mov.w	ip, #524288	; 0x80000
 8083d02:	ebb6 0e02 	subs.w	lr, r6, r2
 8083d06:	eb75 0e03 	sbcs.w	lr, r5, r3
 8083d0a:	bf22      	ittt	cs
 8083d0c:	1ab6      	subcs	r6, r6, r2
 8083d0e:	4675      	movcs	r5, lr
 8083d10:	ea40 000c 	orrcs.w	r0, r0, ip
 8083d14:	085b      	lsrs	r3, r3, #1
 8083d16:	ea4f 0232 	mov.w	r2, r2, rrx
 8083d1a:	ebb6 0e02 	subs.w	lr, r6, r2
 8083d1e:	eb75 0e03 	sbcs.w	lr, r5, r3
 8083d22:	bf22      	ittt	cs
 8083d24:	1ab6      	subcs	r6, r6, r2
 8083d26:	4675      	movcs	r5, lr
 8083d28:	ea40 005c 	orrcs.w	r0, r0, ip, lsr #1
 8083d2c:	085b      	lsrs	r3, r3, #1
 8083d2e:	ea4f 0232 	mov.w	r2, r2, rrx
 8083d32:	ebb6 0e02 	subs.w	lr, r6, r2
 8083d36:	eb75 0e03 	sbcs.w	lr, r5, r3
 8083d3a:	bf22      	ittt	cs
 8083d3c:	1ab6      	subcs	r6, r6, r2
 8083d3e:	4675      	movcs	r5, lr
 8083d40:	ea40 009c 	orrcs.w	r0, r0, ip, lsr #2
 8083d44:	085b      	lsrs	r3, r3, #1
 8083d46:	ea4f 0232 	mov.w	r2, r2, rrx
 8083d4a:	ebb6 0e02 	subs.w	lr, r6, r2
 8083d4e:	eb75 0e03 	sbcs.w	lr, r5, r3
 8083d52:	bf22      	ittt	cs
 8083d54:	1ab6      	subcs	r6, r6, r2
 8083d56:	4675      	movcs	r5, lr
 8083d58:	ea40 00dc 	orrcs.w	r0, r0, ip, lsr #3
 8083d5c:	ea55 0e06 	orrs.w	lr, r5, r6
 8083d60:	d018      	beq.n	8083d94 <__aeabi_ddiv+0x114>
 8083d62:	ea4f 1505 	mov.w	r5, r5, lsl #4
 8083d66:	ea45 7516 	orr.w	r5, r5, r6, lsr #28
 8083d6a:	ea4f 1606 	mov.w	r6, r6, lsl #4
 8083d6e:	ea4f 03c3 	mov.w	r3, r3, lsl #3
 8083d72:	ea43 7352 	orr.w	r3, r3, r2, lsr #29
 8083d76:	ea4f 02c2 	mov.w	r2, r2, lsl #3
 8083d7a:	ea5f 1c1c 	movs.w	ip, ip, lsr #4
 8083d7e:	d1c0      	bne.n	8083d02 <__aeabi_ddiv+0x82>
 8083d80:	f411 1f80 	tst.w	r1, #1048576	; 0x100000
 8083d84:	d10b      	bne.n	8083d9e <__aeabi_ddiv+0x11e>
 8083d86:	ea41 0100 	orr.w	r1, r1, r0
 8083d8a:	f04f 0000 	mov.w	r0, #0
 8083d8e:	f04f 4c00 	mov.w	ip, #2147483648	; 0x80000000
 8083d92:	e7b6      	b.n	8083d02 <__aeabi_ddiv+0x82>
 8083d94:	f411 1f80 	tst.w	r1, #1048576	; 0x100000
 8083d98:	bf04      	itt	eq
 8083d9a:	4301      	orreq	r1, r0
 8083d9c:	2000      	moveq	r0, #0
 8083d9e:	f1b4 0cfd 	subs.w	ip, r4, #253	; 0xfd
 8083da2:	bf88      	it	hi
 8083da4:	f5bc 6fe0 	cmphi.w	ip, #1792	; 0x700
 8083da8:	f63f aeaf 	bhi.w	8083b0a <__aeabi_dmul+0xde>
 8083dac:	ebb5 0c03 	subs.w	ip, r5, r3
 8083db0:	bf04      	itt	eq
 8083db2:	ebb6 0c02 	subseq.w	ip, r6, r2
 8083db6:	ea5f 0c50 	movseq.w	ip, r0, lsr #1
 8083dba:	f150 0000 	adcs.w	r0, r0, #0
 8083dbe:	eb41 5104 	adc.w	r1, r1, r4, lsl #20
 8083dc2:	bd70      	pop	{r4, r5, r6, pc}
 8083dc4:	f00e 4e00 	and.w	lr, lr, #2147483648	; 0x80000000
 8083dc8:	ea4e 3111 	orr.w	r1, lr, r1, lsr #12
 8083dcc:	eb14 045c 	adds.w	r4, r4, ip, lsr #1
 8083dd0:	bfc2      	ittt	gt
 8083dd2:	ebd4 050c 	rsbsgt	r5, r4, ip
 8083dd6:	ea41 5104 	orrgt.w	r1, r1, r4, lsl #20
 8083dda:	bd70      	popgt	{r4, r5, r6, pc}
 8083ddc:	f441 1180 	orr.w	r1, r1, #1048576	; 0x100000
 8083de0:	f04f 0e00 	mov.w	lr, #0
 8083de4:	3c01      	subs	r4, #1
 8083de6:	e690      	b.n	8083b0a <__aeabi_dmul+0xde>
 8083de8:	ea45 0e06 	orr.w	lr, r5, r6
 8083dec:	e68d      	b.n	8083b0a <__aeabi_dmul+0xde>
 8083dee:	ea0c 5513 	and.w	r5, ip, r3, lsr #20
 8083df2:	ea94 0f0c 	teq	r4, ip
 8083df6:	bf08      	it	eq
 8083df8:	ea95 0f0c 	teqeq	r5, ip
 8083dfc:	f43f af3b 	beq.w	8083c76 <__aeabi_dmul+0x24a>
 8083e00:	ea94 0f0c 	teq	r4, ip
 8083e04:	d10a      	bne.n	8083e1c <__aeabi_ddiv+0x19c>
 8083e06:	ea50 3401 	orrs.w	r4, r0, r1, lsl #12
 8083e0a:	f47f af34 	bne.w	8083c76 <__aeabi_dmul+0x24a>
 8083e0e:	ea95 0f0c 	teq	r5, ip
 8083e12:	f47f af25 	bne.w	8083c60 <__aeabi_dmul+0x234>
 8083e16:	4610      	mov	r0, r2
 8083e18:	4619      	mov	r1, r3
 8083e1a:	e72c      	b.n	8083c76 <__aeabi_dmul+0x24a>
 8083e1c:	ea95 0f0c 	teq	r5, ip
 8083e20:	d106      	bne.n	8083e30 <__aeabi_ddiv+0x1b0>
 8083e22:	ea52 3503 	orrs.w	r5, r2, r3, lsl #12
 8083e26:	f43f aefd 	beq.w	8083c24 <__aeabi_dmul+0x1f8>
 8083e2a:	4610      	mov	r0, r2
 8083e2c:	4619      	mov	r1, r3
 8083e2e:	e722      	b.n	8083c76 <__aeabi_dmul+0x24a>
 8083e30:	ea50 0641 	orrs.w	r6, r0, r1, lsl #1
 8083e34:	bf18      	it	ne
 8083e36:	ea52 0643 	orrsne.w	r6, r2, r3, lsl #1
 8083e3a:	f47f aec5 	bne.w	8083bc8 <__aeabi_dmul+0x19c>
 8083e3e:	ea50 0441 	orrs.w	r4, r0, r1, lsl #1
 8083e42:	f47f af0d 	bne.w	8083c60 <__aeabi_dmul+0x234>
 8083e46:	ea52 0543 	orrs.w	r5, r2, r3, lsl #1
 8083e4a:	f47f aeeb 	bne.w	8083c24 <__aeabi_dmul+0x1f8>
 8083e4e:	e712      	b.n	8083c76 <__aeabi_dmul+0x24a>

08083e50 <__gedf2>:
 8083e50:	f04f 3cff 	mov.w	ip, #4294967295
 8083e54:	e006      	b.n	8083e64 <__cmpdf2+0x4>
 8083e56:	bf00      	nop

08083e58 <__ledf2>:
 8083e58:	f04f 0c01 	mov.w	ip, #1
 8083e5c:	e002      	b.n	8083e64 <__cmpdf2+0x4>
 8083e5e:	bf00      	nop

08083e60 <__cmpdf2>:
 8083e60:	f04f 0c01 	mov.w	ip, #1
 8083e64:	f84d cd04 	str.w	ip, [sp, #-4]!
 8083e68:	ea4f 0c41 	mov.w	ip, r1, lsl #1
 8083e6c:	ea7f 5c6c 	mvns.w	ip, ip, asr #21
 8083e70:	ea4f 0c43 	mov.w	ip, r3, lsl #1
 8083e74:	bf18      	it	ne
 8083e76:	ea7f 5c6c 	mvnsne.w	ip, ip, asr #21
 8083e7a:	d01b      	beq.n	8083eb4 <__cmpdf2+0x54>
 8083e7c:	b001      	add	sp, #4
 8083e7e:	ea50 0c41 	orrs.w	ip, r0, r1, lsl #1
 8083e82:	bf0c      	ite	eq
 8083e84:	ea52 0c43 	orrseq.w	ip, r2, r3, lsl #1
 8083e88:	ea91 0f03 	teqne	r1, r3
 8083e8c:	bf02      	ittt	eq
 8083e8e:	ea90 0f02 	teqeq	r0, r2
 8083e92:	2000      	moveq	r0, #0
 8083e94:	4770      	bxeq	lr
 8083e96:	f110 0f00 	cmn.w	r0, #0
 8083e9a:	ea91 0f03 	teq	r1, r3
 8083e9e:	bf58      	it	pl
 8083ea0:	4299      	cmppl	r1, r3
 8083ea2:	bf08      	it	eq
 8083ea4:	4290      	cmpeq	r0, r2
 8083ea6:	bf2c      	ite	cs
 8083ea8:	17d8      	asrcs	r0, r3, #31
 8083eaa:	ea6f 70e3 	mvncc.w	r0, r3, asr #31
 8083eae:	f040 0001 	orr.w	r0, r0, #1
 8083eb2:	4770      	bx	lr
 8083eb4:	ea4f 0c41 	mov.w	ip, r1, lsl #1
 8083eb8:	ea7f 5c6c 	mvns.w	ip, ip, asr #21
 8083ebc:	d102      	bne.n	8083ec4 <__cmpdf2+0x64>
 8083ebe:	ea50 3c01 	orrs.w	ip, r0, r1, lsl #12
 8083ec2:	d107      	bne.n	8083ed4 <__cmpdf2+0x74>
 8083ec4:	ea4f 0c43 	mov.w	ip, r3, lsl #1
 8083ec8:	ea7f 5c6c 	mvns.w	ip, ip, asr #21
 8083ecc:	d1d6      	bne.n	8083e7c <__cmpdf2+0x1c>
 8083ece:	ea52 3c03 	orrs.w	ip, r2, r3, lsl #12
 8083ed2:	d0d3      	beq.n	8083e7c <__cmpdf2+0x1c>
 8083ed4:	f85d 0b04 	ldr.w	r0, [sp], #4
 8083ed8:	4770      	bx	lr
 8083eda:	bf00      	nop

08083edc <__aeabi_cdrcmple>:
 8083edc:	4684      	mov	ip, r0
 8083ede:	4610      	mov	r0, r2
 8083ee0:	4662      	mov	r2, ip
 8083ee2:	468c      	mov	ip, r1
 8083ee4:	4619      	mov	r1, r3
 8083ee6:	4663      	mov	r3, ip
 8083ee8:	e000      	b.n	8083eec <__aeabi_cdcmpeq>
 8083eea:	bf00      	nop

08083eec <__aeabi_cdcmpeq>:
 8083eec:	b501      	push	{r0, lr}
 8083eee:	f7ff ffb7 	bl	8083e60 <__cmpdf2>
 8083ef2:	2800      	cmp	r0, #0
 8083ef4:	bf48      	it	mi
 8083ef6:	f110 0f00 	cmnmi.w	r0, #0
 8083efa:	bd01      	pop	{r0, pc}

08083efc <__aeabi_dcmpeq>:
 8083efc:	f84d ed08 	str.w	lr, [sp, #-8]!
 8083f00:	f7ff fff4 	bl	8083eec <__aeabi_cdcmpeq>
 8083f04:	bf0c      	ite	eq
 8083f06:	2001      	moveq	r0, #1
 8083f08:	2000      	movne	r0, #0
 8083f0a:	f85d fb08 	ldr.w	pc, [sp], #8
 8083f0e:	bf00      	nop

08083f10 <__aeabi_dcmplt>:
 8083f10:	f84d ed08 	str.w	lr, [sp, #-8]!
 8083f14:	f7ff ffea 	bl	8083eec <__aeabi_cdcmpeq>
 8083f18:	bf34      	ite	cc
 8083f1a:	2001      	movcc	r0, #1
 8083f1c:	2000      	movcs	r0, #0
 8083f1e:	f85d fb08 	ldr.w	pc, [sp], #8
 8083f22:	bf00      	nop

08083f24 <__aeabi_dcmple>:
 8083f24:	f84d ed08 	str.w	lr, [sp, #-8]!
 8083f28:	f7ff ffe0 	bl	8083eec <__aeabi_cdcmpeq>
 8083f2c:	bf94      	ite	ls
 8083f2e:	2001      	movls	r0, #1
 8083f30:	2000      	movhi	r0, #0
 8083f32:	f85d fb08 	ldr.w	pc, [sp], #8
 8083f36:	bf00      	nop

08083f38 <__aeabi_dcmpge>:
 8083f38:	f84d ed08 	str.w	lr, [sp, #-8]!
 8083f3c:	f7ff ffce 	bl	8083edc <__aeabi_cdrcmple>
 8083f40:	bf94      	ite	ls
 8083f42:	2001      	movls	r0, #1
 8083f44:	2000      	movhi	r0, #0
 8083f46:	f85d fb08 	ldr.w	pc, [sp], #8
 8083f4a:	bf00      	nop

08083f4c <__aeabi_dcmpgt>:
 8083f4c:	f84d ed08 	str.w	lr, [sp, #-8]!
 8083f50:	f7ff ffc4 	bl	8083edc <__aeabi_cdrcmple>
 8083f54:	bf34      	ite	cc
 8083f56:	2001      	movcc	r0, #1
 8083f58:	2000      	movcs	r0, #0
 8083f5a:	f85d fb08 	ldr.w	pc, [sp], #8
 8083f5e:	bf00      	nop

08083f60 <__aeabi_dcmpun>:
 8083f60:	ea4f 0c41 	mov.w	ip, r1, lsl #1
 8083f64:	ea7f 5c6c 	mvns.w	ip, ip, asr #21
 8083f68:	d102      	bne.n	8083f70 <__aeabi_dcmpun+0x10>
 8083f6a:	ea50 3c01 	orrs.w	ip, r0, r1, lsl #12
 8083f6e:	d10a      	bne.n	8083f86 <__aeabi_dcmpun+0x26>
 8083f70:	ea4f 0c43 	mov.w	ip, r3, lsl #1
 8083f74:	ea7f 5c6c 	mvns.w	ip, ip, asr #21
 8083f78:	d102      	bne.n	8083f80 <__aeabi_dcmpun+0x20>
 8083f7a:	ea52 3c03 	orrs.w	ip, r2, r3, lsl #12
 8083f7e:	d102      	bne.n	8083f86 <__aeabi_dcmpun+0x26>
 8083f80:	f04f 0000 	mov.w	r0, #0
 8083f84:	4770      	bx	lr
 8083f86:	f04f 0001 	mov.w	r0, #1
 8083f8a:	4770      	bx	lr

08083f8c <__aeabi_d2uiz>:
 8083f8c:	004a      	lsls	r2, r1, #1
 8083f8e:	d211      	bcs.n	8083fb4 <__aeabi_d2uiz+0x28>
 8083f90:	f512 1200 	adds.w	r2, r2, #2097152	; 0x200000
 8083f94:	d211      	bcs.n	8083fba <__aeabi_d2uiz+0x2e>
 8083f96:	d50d      	bpl.n	8083fb4 <__aeabi_d2uiz+0x28>
 8083f98:	f46f 7378 	mvn.w	r3, #992	; 0x3e0
 8083f9c:	ebb3 5262 	subs.w	r2, r3, r2, asr #21
 8083fa0:	d40e      	bmi.n	8083fc0 <__aeabi_d2uiz+0x34>
 8083fa2:	ea4f 23c1 	mov.w	r3, r1, lsl #11
 8083fa6:	f043 4300 	orr.w	r3, r3, #2147483648	; 0x80000000
 8083faa:	ea43 5350 	orr.w	r3, r3, r0, lsr #21
 8083fae:	fa23 f002 	lsr.w	r0, r3, r2
 8083fb2:	4770      	bx	lr
 8083fb4:	f04f 0000 	mov.w	r0, #0
 8083fb8:	4770      	bx	lr
 8083fba:	ea50 3001 	orrs.w	r0, r0, r1, lsl #12
 8083fbe:	d102      	bne.n	8083fc6 <__aeabi_d2uiz+0x3a>
 8083fc0:	f04f 30ff 	mov.w	r0, #4294967295
 8083fc4:	4770      	bx	lr
 8083fc6:	f04f 0000 	mov.w	r0, #0
 8083fca:	4770      	bx	lr

08083fcc <__aeabi_d2f>:
 8083fcc:	ea4f 0241 	mov.w	r2, r1, lsl #1
 8083fd0:	f1b2 43e0 	subs.w	r3, r2, #1879048192	; 0x70000000
 8083fd4:	bf24      	itt	cs
 8083fd6:	f5b3 1c00 	subscs.w	ip, r3, #2097152	; 0x200000
 8083fda:	f1dc 5cfe 	rsbscs	ip, ip, #532676608	; 0x1fc00000
 8083fde:	d90d      	bls.n	8083ffc <__aeabi_d2f+0x30>
 8083fe0:	f001 4c00 	and.w	ip, r1, #2147483648	; 0x80000000
 8083fe4:	ea4f 02c0 	mov.w	r2, r0, lsl #3
 8083fe8:	ea4c 7050 	orr.w	r0, ip, r0, lsr #29
 8083fec:	f1b2 4f00 	cmp.w	r2, #2147483648	; 0x80000000
 8083ff0:	eb40 0083 	adc.w	r0, r0, r3, lsl #2
 8083ff4:	bf08      	it	eq
 8083ff6:	f020 0001 	biceq.w	r0, r0, #1
 8083ffa:	4770      	bx	lr
 8083ffc:	f011 4f80 	tst.w	r1, #1073741824	; 0x40000000
 8084000:	d121      	bne.n	8084046 <__aeabi_d2f+0x7a>
 8084002:	f113 7238 	adds.w	r2, r3, #48234496	; 0x2e00000
 8084006:	bfbc      	itt	lt
 8084008:	f001 4000 	andlt.w	r0, r1, #2147483648	; 0x80000000
 808400c:	4770      	bxlt	lr
 808400e:	f441 1180 	orr.w	r1, r1, #1048576	; 0x100000
 8084012:	ea4f 5252 	mov.w	r2, r2, lsr #21
 8084016:	f1c2 0218 	rsb	r2, r2, #24
 808401a:	f1c2 0c20 	rsb	ip, r2, #32
 808401e:	fa10 f30c 	lsls.w	r3, r0, ip
 8084022:	fa20 f002 	lsr.w	r0, r0, r2
 8084026:	bf18      	it	ne
 8084028:	f040 0001 	orrne.w	r0, r0, #1
 808402c:	ea4f 23c1 	mov.w	r3, r1, lsl #11
 8084030:	ea4f 23d3 	mov.w	r3, r3, lsr #11
 8084034:	fa03 fc0c 	lsl.w	ip, r3, ip
 8084038:	ea40 000c 	orr.w	r0, r0, ip
 808403c:	fa23 f302 	lsr.w	r3, r3, r2
 8084040:	ea4f 0343 	mov.w	r3, r3, lsl #1
 8084044:	e7cc      	b.n	8083fe0 <__aeabi_d2f+0x14>
 8084046:	ea7f 5362 	mvns.w	r3, r2, asr #21
 808404a:	d107      	bne.n	808405c <__aeabi_d2f+0x90>
 808404c:	ea50 3301 	orrs.w	r3, r0, r1, lsl #12
 8084050:	bf1e      	ittt	ne
 8084052:	f04f 40fe 	movne.w	r0, #2130706432	; 0x7f000000
 8084056:	f440 0040 	orrne.w	r0, r0, #12582912	; 0xc00000
 808405a:	4770      	bxne	lr
 808405c:	f001 4000 	and.w	r0, r1, #2147483648	; 0x80000000
 8084060:	f040 40fe 	orr.w	r0, r0, #2130706432	; 0x7f000000
 8084064:	f440 0000 	orr.w	r0, r0, #8388608	; 0x800000
 8084068:	4770      	bx	lr
 808406a:	bf00      	nop

0808406c <__gesf2>:
 808406c:	f04f 3cff 	mov.w	ip, #4294967295
 8084070:	e006      	b.n	8084080 <__cmpsf2+0x4>
 8084072:	bf00      	nop

08084074 <__lesf2>:
 8084074:	f04f 0c01 	mov.w	ip, #1
 8084078:	e002      	b.n	8084080 <__cmpsf2+0x4>
 808407a:	bf00      	nop

0808407c <__cmpsf2>:
 808407c:	f04f 0c01 	mov.w	ip, #1
 8084080:	f84d cd04 	str.w	ip, [sp, #-4]!
 8084084:	ea4f 0240 	mov.w	r2, r0, lsl #1
 8084088:	ea4f 0341 	mov.w	r3, r1, lsl #1
 808408c:	ea7f 6c22 	mvns.w	ip, r2, asr #24
 8084090:	bf18      	it	ne
 8084092:	ea7f 6c23 	mvnsne.w	ip, r3, asr #24
 8084096:	d011      	beq.n	80840bc <__cmpsf2+0x40>
 8084098:	b001      	add	sp, #4
 808409a:	ea52 0c53 	orrs.w	ip, r2, r3, lsr #1
 808409e:	bf18      	it	ne
 80840a0:	ea90 0f01 	teqne	r0, r1
 80840a4:	bf58      	it	pl
 80840a6:	ebb2 0003 	subspl.w	r0, r2, r3
 80840aa:	bf88      	it	hi
 80840ac:	17c8      	asrhi	r0, r1, #31
 80840ae:	bf38      	it	cc
 80840b0:	ea6f 70e1 	mvncc.w	r0, r1, asr #31
 80840b4:	bf18      	it	ne
 80840b6:	f040 0001 	orrne.w	r0, r0, #1
 80840ba:	4770      	bx	lr
 80840bc:	ea7f 6c22 	mvns.w	ip, r2, asr #24
 80840c0:	d102      	bne.n	80840c8 <__cmpsf2+0x4c>
 80840c2:	ea5f 2c40 	movs.w	ip, r0, lsl #9
 80840c6:	d105      	bne.n	80840d4 <__cmpsf2+0x58>
 80840c8:	ea7f 6c23 	mvns.w	ip, r3, asr #24
 80840cc:	d1e4      	bne.n	8084098 <__cmpsf2+0x1c>
 80840ce:	ea5f 2c41 	movs.w	ip, r1, lsl #9
 80840d2:	d0e1      	beq.n	8084098 <__cmpsf2+0x1c>
 80840d4:	f85d 0b04 	ldr.w	r0, [sp], #4
 80840d8:	4770      	bx	lr
 80840da:	bf00      	nop

080840dc <__aeabi_cfrcmple>:
 80840dc:	4684      	mov	ip, r0
 80840de:	4608      	mov	r0, r1
 80840e0:	4661      	mov	r1, ip
 80840e2:	e7ff      	b.n	80840e4 <__aeabi_cfcmpeq>

080840e4 <__aeabi_cfcmpeq>:
 80840e4:	b50f      	push	{r0, r1, r2, r3, lr}
 80840e6:	f7ff ffc9 	bl	808407c <__cmpsf2>
 80840ea:	2800      	cmp	r0, #0
 80840ec:	bf48      	it	mi
 80840ee:	f110 0f00 	cmnmi.w	r0, #0
 80840f2:	bd0f      	pop	{r0, r1, r2, r3, pc}

080840f4 <__aeabi_fcmpeq>:
 80840f4:	f84d ed08 	str.w	lr, [sp, #-8]!
 80840f8:	f7ff fff4 	bl	80840e4 <__aeabi_cfcmpeq>
 80840fc:	bf0c      	ite	eq
 80840fe:	2001      	moveq	r0, #1
 8084100:	2000      	movne	r0, #0
 8084102:	f85d fb08 	ldr.w	pc, [sp], #8
 8084106:	bf00      	nop

08084108 <__aeabi_fcmplt>:
 8084108:	f84d ed08 	str.w	lr, [sp, #-8]!
 808410c:	f7ff ffea 	bl	80840e4 <__aeabi_cfcmpeq>
 8084110:	bf34      	ite	cc
 8084112:	2001      	movcc	r0, #1
 8084114:	2000      	movcs	r0, #0
 8084116:	f85d fb08 	ldr.w	pc, [sp], #8
 808411a:	bf00      	nop

0808411c <__aeabi_fcmple>:
 808411c:	f84d ed08 	str.w	lr, [sp, #-8]!
 8084120:	f7ff ffe0 	bl	80840e4 <__aeabi_cfcmpeq>
 8084124:	bf94      	ite	ls
 8084126:	2001      	movls	r0, #1
 8084128:	2000      	movhi	r0, #0
 808412a:	f85d fb08 	ldr.w	pc, [sp], #8
 808412e:	bf00      	nop

08084130 <__aeabi_fcmpge>:
 8084130:	f84d ed08 	str.w	lr, [sp, #-8]!
 8084134:	f7ff ffd2 	bl	80840dc <__aeabi_cfrcmple>
 8084138:	bf94      	ite	ls
 808413a:	2001      	movls	r0, #1
 808413c:	2000      	movhi	r0, #0
 808413e:	f85d fb08 	ldr.w	pc, [sp], #8
 8084142:	bf00      	nop

08084144 <__aeabi_fcmpgt>:
 8084144:	f84d ed08 	str.w	lr, [sp, #-8]!
 8084148:	f7ff ffc8 	bl	80840dc <__aeabi_cfrcmple>
 808414c:	bf34      	ite	cc
 808414e:	2001      	movcc	r0, #1
 8084150:	2000      	movcs	r0, #0
 8084152:	f85d fb08 	ldr.w	pc, [sp], #8
 8084156:	bf00      	nop

08084158 <__aeabi_d2ulz>:
 8084158:	b5d0      	push	{r4, r6, r7, lr}
 808415a:	2200      	movs	r2, #0
 808415c:	4b0b      	ldr	r3, [pc, #44]	; (808418c <__aeabi_d2ulz+0x34>)
 808415e:	4606      	mov	r6, r0
 8084160:	460f      	mov	r7, r1
 8084162:	f7ff fc63 	bl	8083a2c <__aeabi_dmul>
 8084166:	f7ff ff11 	bl	8083f8c <__aeabi_d2uiz>
 808416a:	4604      	mov	r4, r0
 808416c:	f7ff fbe4 	bl	8083938 <__aeabi_ui2d>
 8084170:	2200      	movs	r2, #0
 8084172:	4b07      	ldr	r3, [pc, #28]	; (8084190 <__aeabi_d2ulz+0x38>)
 8084174:	f7ff fc5a 	bl	8083a2c <__aeabi_dmul>
 8084178:	4602      	mov	r2, r0
 808417a:	460b      	mov	r3, r1
 808417c:	4630      	mov	r0, r6
 808417e:	4639      	mov	r1, r7
 8084180:	f7ff fa9c 	bl	80836bc <__aeabi_dsub>
 8084184:	f7ff ff02 	bl	8083f8c <__aeabi_d2uiz>
 8084188:	4621      	mov	r1, r4
 808418a:	bdd0      	pop	{r4, r6, r7, pc}
 808418c:	3df00000 	.word	0x3df00000
 8084190:	41f00000 	.word	0x41f00000

08084194 <asctime_r>:
 8084194:	b510      	push	{r4, lr}
 8084196:	460c      	mov	r4, r1
 8084198:	6941      	ldr	r1, [r0, #20]
 808419a:	b086      	sub	sp, #24
 808419c:	f201 716c 	addw	r1, r1, #1900	; 0x76c
 80841a0:	6903      	ldr	r3, [r0, #16]
 80841a2:	6982      	ldr	r2, [r0, #24]
 80841a4:	9104      	str	r1, [sp, #16]
 80841a6:	6801      	ldr	r1, [r0, #0]
 80841a8:	eb03 0343 	add.w	r3, r3, r3, lsl #1
 80841ac:	9103      	str	r1, [sp, #12]
 80841ae:	6841      	ldr	r1, [r0, #4]
 80841b0:	eb02 0242 	add.w	r2, r2, r2, lsl #1
 80841b4:	9102      	str	r1, [sp, #8]
 80841b6:	6881      	ldr	r1, [r0, #8]
 80841b8:	9101      	str	r1, [sp, #4]
 80841ba:	68c1      	ldr	r1, [r0, #12]
 80841bc:	4620      	mov	r0, r4
 80841be:	9100      	str	r1, [sp, #0]
 80841c0:	4904      	ldr	r1, [pc, #16]	; (80841d4 <asctime_r+0x40>)
 80841c2:	440b      	add	r3, r1
 80841c4:	4904      	ldr	r1, [pc, #16]	; (80841d8 <asctime_r+0x44>)
 80841c6:	440a      	add	r2, r1
 80841c8:	4904      	ldr	r1, [pc, #16]	; (80841dc <asctime_r+0x48>)
 80841ca:	f7fd ff0d 	bl	8081fe8 <siprintf>
 80841ce:	4620      	mov	r0, r4
 80841d0:	b006      	add	sp, #24
 80841d2:	bd10      	pop	{r4, pc}
 80841d4:	08086612 	.word	0x08086612
 80841d8:	080865fd 	.word	0x080865fd
 80841dc:	080865dd 	.word	0x080865dd

080841e0 <atol>:
 80841e0:	220a      	movs	r2, #10
 80841e2:	2100      	movs	r1, #0
 80841e4:	f000 bfa8 	b.w	8085138 <strtol>

080841e8 <__cxa_atexit>:
 80841e8:	b510      	push	{r4, lr}
 80841ea:	4604      	mov	r4, r0
 80841ec:	4804      	ldr	r0, [pc, #16]	; (8084200 <__cxa_atexit+0x18>)
 80841ee:	4613      	mov	r3, r2
 80841f0:	b120      	cbz	r0, 80841fc <__cxa_atexit+0x14>
 80841f2:	460a      	mov	r2, r1
 80841f4:	2002      	movs	r0, #2
 80841f6:	4621      	mov	r1, r4
 80841f8:	f3af 8000 	nop.w
 80841fc:	bd10      	pop	{r4, pc}
 80841fe:	bf00      	nop
 8084200:	00000000 	.word	0x00000000

08084204 <memcpy>:
 8084204:	440a      	add	r2, r1
 8084206:	4291      	cmp	r1, r2
 8084208:	f100 33ff 	add.w	r3, r0, #4294967295
 808420c:	d100      	bne.n	8084210 <memcpy+0xc>
 808420e:	4770      	bx	lr
 8084210:	b510      	push	{r4, lr}
 8084212:	f811 4b01 	ldrb.w	r4, [r1], #1
 8084216:	4291      	cmp	r1, r2
 8084218:	f803 4f01 	strb.w	r4, [r3, #1]!
 808421c:	d1f9      	bne.n	8084212 <memcpy+0xe>
 808421e:	bd10      	pop	{r4, pc}

08084220 <memset>:
 8084220:	4603      	mov	r3, r0
 8084222:	4402      	add	r2, r0
 8084224:	4293      	cmp	r3, r2
 8084226:	d100      	bne.n	808422a <memset+0xa>
 8084228:	4770      	bx	lr
 808422a:	f803 1b01 	strb.w	r1, [r3], #1
 808422e:	e7f9      	b.n	8084224 <memset+0x4>

08084230 <srand>:
 8084230:	b538      	push	{r3, r4, r5, lr}
 8084232:	4b0d      	ldr	r3, [pc, #52]	; (8084268 <srand+0x38>)
 8084234:	4604      	mov	r4, r0
 8084236:	681d      	ldr	r5, [r3, #0]
 8084238:	6bab      	ldr	r3, [r5, #56]	; 0x38
 808423a:	b97b      	cbnz	r3, 808425c <srand+0x2c>
 808423c:	2018      	movs	r0, #24
 808423e:	f7fd febb 	bl	8081fb8 <malloc>
 8084242:	4a0a      	ldr	r2, [pc, #40]	; (808426c <srand+0x3c>)
 8084244:	4b0a      	ldr	r3, [pc, #40]	; (8084270 <srand+0x40>)
 8084246:	63a8      	str	r0, [r5, #56]	; 0x38
 8084248:	e9c0 2300 	strd	r2, r3, [r0]
 808424c:	4b09      	ldr	r3, [pc, #36]	; (8084274 <srand+0x44>)
 808424e:	2201      	movs	r2, #1
 8084250:	6083      	str	r3, [r0, #8]
 8084252:	230b      	movs	r3, #11
 8084254:	8183      	strh	r3, [r0, #12]
 8084256:	2300      	movs	r3, #0
 8084258:	e9c0 2304 	strd	r2, r3, [r0, #16]
 808425c:	2200      	movs	r2, #0
 808425e:	6bab      	ldr	r3, [r5, #56]	; 0x38
 8084260:	611c      	str	r4, [r3, #16]
 8084262:	615a      	str	r2, [r3, #20]
 8084264:	bd38      	pop	{r3, r4, r5, pc}
 8084266:	bf00      	nop
 8084268:	20000014 	.word	0x20000014
 808426c:	abcd330e 	.word	0xabcd330e
 8084270:	e66d1234 	.word	0xe66d1234
 8084274:	0005deec 	.word	0x0005deec

08084278 <strchr>:
 8084278:	4603      	mov	r3, r0
 808427a:	b2c9      	uxtb	r1, r1
 808427c:	4618      	mov	r0, r3
 808427e:	f813 2b01 	ldrb.w	r2, [r3], #1
 8084282:	b112      	cbz	r2, 808428a <strchr+0x12>
 8084284:	428a      	cmp	r2, r1
 8084286:	d1f9      	bne.n	808427c <strchr+0x4>
 8084288:	4770      	bx	lr
 808428a:	2900      	cmp	r1, #0
 808428c:	bf18      	it	ne
 808428e:	2000      	movne	r0, #0
 8084290:	4770      	bx	lr

08084292 <strcmp>:
 8084292:	f810 2b01 	ldrb.w	r2, [r0], #1
 8084296:	f811 3b01 	ldrb.w	r3, [r1], #1
 808429a:	2a01      	cmp	r2, #1
 808429c:	bf28      	it	cs
 808429e:	429a      	cmpcs	r2, r3
 80842a0:	d0f7      	beq.n	8084292 <strcmp>
 80842a2:	1ad0      	subs	r0, r2, r3
 80842a4:	4770      	bx	lr

080842a6 <strcpy>:
 80842a6:	4603      	mov	r3, r0
 80842a8:	f811 2b01 	ldrb.w	r2, [r1], #1
 80842ac:	f803 2b01 	strb.w	r2, [r3], #1
 80842b0:	2a00      	cmp	r2, #0
 80842b2:	d1f9      	bne.n	80842a8 <strcpy+0x2>
 80842b4:	4770      	bx	lr
	...

080842b8 <strdup>:
 80842b8:	4b02      	ldr	r3, [pc, #8]	; (80842c4 <strdup+0xc>)
 80842ba:	4601      	mov	r1, r0
 80842bc:	6818      	ldr	r0, [r3, #0]
 80842be:	f000 b803 	b.w	80842c8 <_strdup_r>
 80842c2:	bf00      	nop
 80842c4:	20000014 	.word	0x20000014

080842c8 <_strdup_r>:
 80842c8:	b570      	push	{r4, r5, r6, lr}
 80842ca:	4604      	mov	r4, r0
 80842cc:	4608      	mov	r0, r1
 80842ce:	460d      	mov	r5, r1
 80842d0:	f000 f80d 	bl	80842ee <strlen>
 80842d4:	1c46      	adds	r6, r0, #1
 80842d6:	4631      	mov	r1, r6
 80842d8:	4620      	mov	r0, r4
 80842da:	f7fd fead 	bl	8082038 <_malloc_r>
 80842de:	4604      	mov	r4, r0
 80842e0:	b118      	cbz	r0, 80842ea <_strdup_r+0x22>
 80842e2:	4632      	mov	r2, r6
 80842e4:	4629      	mov	r1, r5
 80842e6:	f7ff ff8d 	bl	8084204 <memcpy>
 80842ea:	4620      	mov	r0, r4
 80842ec:	bd70      	pop	{r4, r5, r6, pc}

080842ee <strlen>:
 80842ee:	4603      	mov	r3, r0
 80842f0:	f813 2b01 	ldrb.w	r2, [r3], #1
 80842f4:	2a00      	cmp	r2, #0
 80842f6:	d1fb      	bne.n	80842f0 <strlen+0x2>
 80842f8:	1a18      	subs	r0, r3, r0
 80842fa:	3801      	subs	r0, #1
 80842fc:	4770      	bx	lr

080842fe <strncmp>:
 80842fe:	b510      	push	{r4, lr}
 8084300:	b16a      	cbz	r2, 808431e <strncmp+0x20>
 8084302:	3901      	subs	r1, #1
 8084304:	1884      	adds	r4, r0, r2
 8084306:	f810 3b01 	ldrb.w	r3, [r0], #1
 808430a:	f811 2f01 	ldrb.w	r2, [r1, #1]!
 808430e:	4293      	cmp	r3, r2
 8084310:	d103      	bne.n	808431a <strncmp+0x1c>
 8084312:	42a0      	cmp	r0, r4
 8084314:	d001      	beq.n	808431a <strncmp+0x1c>
 8084316:	2b00      	cmp	r3, #0
 8084318:	d1f5      	bne.n	8084306 <strncmp+0x8>
 808431a:	1a98      	subs	r0, r3, r2
 808431c:	bd10      	pop	{r4, pc}
 808431e:	4610      	mov	r0, r2
 8084320:	e7fc      	b.n	808431c <strncmp+0x1e>

08084322 <strncpy>:
 8084322:	4603      	mov	r3, r0
 8084324:	b510      	push	{r4, lr}
 8084326:	3901      	subs	r1, #1
 8084328:	b132      	cbz	r2, 8084338 <strncpy+0x16>
 808432a:	f811 4f01 	ldrb.w	r4, [r1, #1]!
 808432e:	3a01      	subs	r2, #1
 8084330:	f803 4b01 	strb.w	r4, [r3], #1
 8084334:	2c00      	cmp	r4, #0
 8084336:	d1f7      	bne.n	8084328 <strncpy+0x6>
 8084338:	2100      	movs	r1, #0
 808433a:	441a      	add	r2, r3
 808433c:	4293      	cmp	r3, r2
 808433e:	d100      	bne.n	8084342 <strncpy+0x20>
 8084340:	bd10      	pop	{r4, pc}
 8084342:	f803 1b01 	strb.w	r1, [r3], #1
 8084346:	e7f9      	b.n	808433c <strncpy+0x1a>

08084348 <strstr>:
 8084348:	b5f0      	push	{r4, r5, r6, r7, lr}
 808434a:	780c      	ldrb	r4, [r1, #0]
 808434c:	b164      	cbz	r4, 8084368 <strstr+0x20>
 808434e:	4603      	mov	r3, r0
 8084350:	781a      	ldrb	r2, [r3, #0]
 8084352:	4618      	mov	r0, r3
 8084354:	1c5e      	adds	r6, r3, #1
 8084356:	b90a      	cbnz	r2, 808435c <strstr+0x14>
 8084358:	4610      	mov	r0, r2
 808435a:	e005      	b.n	8084368 <strstr+0x20>
 808435c:	4294      	cmp	r4, r2
 808435e:	d108      	bne.n	8084372 <strstr+0x2a>
 8084360:	460d      	mov	r5, r1
 8084362:	f815 2f01 	ldrb.w	r2, [r5, #1]!
 8084366:	b902      	cbnz	r2, 808436a <strstr+0x22>
 8084368:	bdf0      	pop	{r4, r5, r6, r7, pc}
 808436a:	f813 7f01 	ldrb.w	r7, [r3, #1]!
 808436e:	4297      	cmp	r7, r2
 8084370:	d0f7      	beq.n	8084362 <strstr+0x1a>
 8084372:	4633      	mov	r3, r6
 8084374:	e7ec      	b.n	8084350 <strstr+0x8>

08084376 <sulp>:
 8084376:	e92d 41f0 	stmdb	sp!, {r4, r5, r6, r7, r8, lr}
 808437a:	460f      	mov	r7, r1
 808437c:	4690      	mov	r8, r2
 808437e:	f001 fd49 	bl	8085e14 <__ulp>
 8084382:	4604      	mov	r4, r0
 8084384:	460d      	mov	r5, r1
 8084386:	f1b8 0f00 	cmp.w	r8, #0
 808438a:	d011      	beq.n	80843b0 <sulp+0x3a>
 808438c:	f3c7 530a 	ubfx	r3, r7, #20, #11
 8084390:	f1c3 036b 	rsb	r3, r3, #107	; 0x6b
 8084394:	2b00      	cmp	r3, #0
 8084396:	dd0b      	ble.n	80843b0 <sulp+0x3a>
 8084398:	2400      	movs	r4, #0
 808439a:	051b      	lsls	r3, r3, #20
 808439c:	f103 557f 	add.w	r5, r3, #1069547520	; 0x3fc00000
 80843a0:	f505 1540 	add.w	r5, r5, #3145728	; 0x300000
 80843a4:	4622      	mov	r2, r4
 80843a6:	462b      	mov	r3, r5
 80843a8:	f7ff fb40 	bl	8083a2c <__aeabi_dmul>
 80843ac:	4604      	mov	r4, r0
 80843ae:	460d      	mov	r5, r1
 80843b0:	4620      	mov	r0, r4
 80843b2:	4629      	mov	r1, r5
 80843b4:	e8bd 81f0 	ldmia.w	sp!, {r4, r5, r6, r7, r8, pc}

080843b8 <_strtod_l>:
 80843b8:	e92d 4ff0 	stmdb	sp!, {r4, r5, r6, r7, r8, r9, sl, fp, lr}
 80843bc:	469b      	mov	fp, r3
 80843be:	2300      	movs	r3, #0
 80843c0:	b0a1      	sub	sp, #132	; 0x84
 80843c2:	931c      	str	r3, [sp, #112]	; 0x70
 80843c4:	4ba1      	ldr	r3, [pc, #644]	; (808464c <_strtod_l+0x294>)
 80843c6:	4682      	mov	sl, r0
 80843c8:	681f      	ldr	r7, [r3, #0]
 80843ca:	460e      	mov	r6, r1
 80843cc:	4638      	mov	r0, r7
 80843ce:	9217      	str	r2, [sp, #92]	; 0x5c
 80843d0:	f7ff ff8d 	bl	80842ee <strlen>
 80843d4:	f04f 0800 	mov.w	r8, #0
 80843d8:	4604      	mov	r4, r0
 80843da:	f04f 0900 	mov.w	r9, #0
 80843de:	961b      	str	r6, [sp, #108]	; 0x6c
 80843e0:	9b1b      	ldr	r3, [sp, #108]	; 0x6c
 80843e2:	781a      	ldrb	r2, [r3, #0]
 80843e4:	2a2b      	cmp	r2, #43	; 0x2b
 80843e6:	d04c      	beq.n	8084482 <_strtod_l+0xca>
 80843e8:	d83a      	bhi.n	8084460 <_strtod_l+0xa8>
 80843ea:	2a0d      	cmp	r2, #13
 80843ec:	d833      	bhi.n	8084456 <_strtod_l+0x9e>
 80843ee:	2a08      	cmp	r2, #8
 80843f0:	d833      	bhi.n	808445a <_strtod_l+0xa2>
 80843f2:	2a00      	cmp	r2, #0
 80843f4:	d03d      	beq.n	8084472 <_strtod_l+0xba>
 80843f6:	2300      	movs	r3, #0
 80843f8:	930c      	str	r3, [sp, #48]	; 0x30
 80843fa:	9d1b      	ldr	r5, [sp, #108]	; 0x6c
 80843fc:	782b      	ldrb	r3, [r5, #0]
 80843fe:	2b30      	cmp	r3, #48	; 0x30
 8084400:	f040 80af 	bne.w	8084562 <_strtod_l+0x1aa>
 8084404:	786b      	ldrb	r3, [r5, #1]
 8084406:	f003 03df 	and.w	r3, r3, #223	; 0xdf
 808440a:	2b58      	cmp	r3, #88	; 0x58
 808440c:	d16c      	bne.n	80844e8 <_strtod_l+0x130>
 808440e:	9b0c      	ldr	r3, [sp, #48]	; 0x30
 8084410:	4650      	mov	r0, sl
 8084412:	9301      	str	r3, [sp, #4]
 8084414:	ab1c      	add	r3, sp, #112	; 0x70
 8084416:	9300      	str	r3, [sp, #0]
 8084418:	4a8d      	ldr	r2, [pc, #564]	; (8084650 <_strtod_l+0x298>)
 808441a:	f8cd b008 	str.w	fp, [sp, #8]
 808441e:	ab1d      	add	r3, sp, #116	; 0x74
 8084420:	a91b      	add	r1, sp, #108	; 0x6c
 8084422:	f000 fefb 	bl	808521c <__gethex>
 8084426:	f010 0607 	ands.w	r6, r0, #7
 808442a:	4604      	mov	r4, r0
 808442c:	d005      	beq.n	808443a <_strtod_l+0x82>
 808442e:	2e06      	cmp	r6, #6
 8084430:	d129      	bne.n	8084486 <_strtod_l+0xce>
 8084432:	2300      	movs	r3, #0
 8084434:	3501      	adds	r5, #1
 8084436:	951b      	str	r5, [sp, #108]	; 0x6c
 8084438:	930c      	str	r3, [sp, #48]	; 0x30
 808443a:	9b17      	ldr	r3, [sp, #92]	; 0x5c
 808443c:	2b00      	cmp	r3, #0
 808443e:	f040 8596 	bne.w	8084f6e <_strtod_l+0xbb6>
 8084442:	9b0c      	ldr	r3, [sp, #48]	; 0x30
 8084444:	b1d3      	cbz	r3, 808447c <_strtod_l+0xc4>
 8084446:	4642      	mov	r2, r8
 8084448:	f109 4300 	add.w	r3, r9, #2147483648	; 0x80000000
 808444c:	4610      	mov	r0, r2
 808444e:	4619      	mov	r1, r3
 8084450:	b021      	add	sp, #132	; 0x84
 8084452:	e8bd 8ff0 	ldmia.w	sp!, {r4, r5, r6, r7, r8, r9, sl, fp, pc}
 8084456:	2a20      	cmp	r2, #32
 8084458:	d1cd      	bne.n	80843f6 <_strtod_l+0x3e>
 808445a:	3301      	adds	r3, #1
 808445c:	931b      	str	r3, [sp, #108]	; 0x6c
 808445e:	e7bf      	b.n	80843e0 <_strtod_l+0x28>
 8084460:	2a2d      	cmp	r2, #45	; 0x2d
 8084462:	d1c8      	bne.n	80843f6 <_strtod_l+0x3e>
 8084464:	2201      	movs	r2, #1
 8084466:	920c      	str	r2, [sp, #48]	; 0x30
 8084468:	1c5a      	adds	r2, r3, #1
 808446a:	921b      	str	r2, [sp, #108]	; 0x6c
 808446c:	785b      	ldrb	r3, [r3, #1]
 808446e:	2b00      	cmp	r3, #0
 8084470:	d1c3      	bne.n	80843fa <_strtod_l+0x42>
 8084472:	9b17      	ldr	r3, [sp, #92]	; 0x5c
 8084474:	961b      	str	r6, [sp, #108]	; 0x6c
 8084476:	2b00      	cmp	r3, #0
 8084478:	f040 8577 	bne.w	8084f6a <_strtod_l+0xbb2>
 808447c:	4642      	mov	r2, r8
 808447e:	464b      	mov	r3, r9
 8084480:	e7e4      	b.n	808444c <_strtod_l+0x94>
 8084482:	2200      	movs	r2, #0
 8084484:	e7ef      	b.n	8084466 <_strtod_l+0xae>
 8084486:	9a1c      	ldr	r2, [sp, #112]	; 0x70
 8084488:	b13a      	cbz	r2, 808449a <_strtod_l+0xe2>
 808448a:	2135      	movs	r1, #53	; 0x35
 808448c:	a81e      	add	r0, sp, #120	; 0x78
 808448e:	f001 fdb8 	bl	8086002 <__copybits>
 8084492:	4650      	mov	r0, sl
 8084494:	991c      	ldr	r1, [sp, #112]	; 0x70
 8084496:	f001 f9f3 	bl	8085880 <_Bfree>
 808449a:	3e01      	subs	r6, #1
 808449c:	2e05      	cmp	r6, #5
 808449e:	d807      	bhi.n	80844b0 <_strtod_l+0xf8>
 80844a0:	e8df f006 	tbb	[pc, r6]
 80844a4:	1d180b0e 	.word	0x1d180b0e
 80844a8:	030e      	.short	0x030e
 80844aa:	f04f 0900 	mov.w	r9, #0
 80844ae:	46c8      	mov	r8, r9
 80844b0:	0721      	lsls	r1, r4, #28
 80844b2:	d5c2      	bpl.n	808443a <_strtod_l+0x82>
 80844b4:	f049 4900 	orr.w	r9, r9, #2147483648	; 0x80000000
 80844b8:	e7bf      	b.n	808443a <_strtod_l+0x82>
 80844ba:	e9dd 891e 	ldrd	r8, r9, [sp, #120]	; 0x78
 80844be:	e7f7      	b.n	80844b0 <_strtod_l+0xf8>
 80844c0:	9a1d      	ldr	r2, [sp, #116]	; 0x74
 80844c2:	e9dd 831e 	ldrd	r8, r3, [sp, #120]	; 0x78
 80844c6:	f202 4233 	addw	r2, r2, #1075	; 0x433
 80844ca:	f423 1380 	bic.w	r3, r3, #1048576	; 0x100000
 80844ce:	ea43 5902 	orr.w	r9, r3, r2, lsl #20
 80844d2:	e7ed      	b.n	80844b0 <_strtod_l+0xf8>
 80844d4:	f04f 0800 	mov.w	r8, #0
 80844d8:	f8df 9178 	ldr.w	r9, [pc, #376]	; 8084654 <_strtod_l+0x29c>
 80844dc:	e7e8      	b.n	80844b0 <_strtod_l+0xf8>
 80844de:	f06f 4900 	mvn.w	r9, #2147483648	; 0x80000000
 80844e2:	f04f 38ff 	mov.w	r8, #4294967295
 80844e6:	e7e3      	b.n	80844b0 <_strtod_l+0xf8>
 80844e8:	9b1b      	ldr	r3, [sp, #108]	; 0x6c
 80844ea:	1c5a      	adds	r2, r3, #1
 80844ec:	921b      	str	r2, [sp, #108]	; 0x6c
 80844ee:	785b      	ldrb	r3, [r3, #1]
 80844f0:	2b30      	cmp	r3, #48	; 0x30
 80844f2:	d0f9      	beq.n	80844e8 <_strtod_l+0x130>
 80844f4:	2b00      	cmp	r3, #0
 80844f6:	d0a0      	beq.n	808443a <_strtod_l+0x82>
 80844f8:	2301      	movs	r3, #1
 80844fa:	9307      	str	r3, [sp, #28]
 80844fc:	9b1b      	ldr	r3, [sp, #108]	; 0x6c
 80844fe:	220a      	movs	r2, #10
 8084500:	9308      	str	r3, [sp, #32]
 8084502:	2300      	movs	r3, #0
 8084504:	469b      	mov	fp, r3
 8084506:	e9cd 3305 	strd	r3, r3, [sp, #20]
 808450a:	981b      	ldr	r0, [sp, #108]	; 0x6c
 808450c:	7805      	ldrb	r5, [r0, #0]
 808450e:	f1a5 0330 	sub.w	r3, r5, #48	; 0x30
 8084512:	b2d9      	uxtb	r1, r3
 8084514:	2909      	cmp	r1, #9
 8084516:	d926      	bls.n	8084566 <_strtod_l+0x1ae>
 8084518:	4622      	mov	r2, r4
 808451a:	4639      	mov	r1, r7
 808451c:	f7ff feef 	bl	80842fe <strncmp>
 8084520:	2800      	cmp	r0, #0
 8084522:	d032      	beq.n	808458a <_strtod_l+0x1d2>
 8084524:	2000      	movs	r0, #0
 8084526:	462b      	mov	r3, r5
 8084528:	465c      	mov	r4, fp
 808452a:	4602      	mov	r2, r0
 808452c:	9004      	str	r0, [sp, #16]
 808452e:	2b65      	cmp	r3, #101	; 0x65
 8084530:	d001      	beq.n	8084536 <_strtod_l+0x17e>
 8084532:	2b45      	cmp	r3, #69	; 0x45
 8084534:	d113      	bne.n	808455e <_strtod_l+0x1a6>
 8084536:	b91c      	cbnz	r4, 8084540 <_strtod_l+0x188>
 8084538:	9b07      	ldr	r3, [sp, #28]
 808453a:	4303      	orrs	r3, r0
 808453c:	d099      	beq.n	8084472 <_strtod_l+0xba>
 808453e:	2400      	movs	r4, #0
 8084540:	9e1b      	ldr	r6, [sp, #108]	; 0x6c
 8084542:	1c73      	adds	r3, r6, #1
 8084544:	931b      	str	r3, [sp, #108]	; 0x6c
 8084546:	7873      	ldrb	r3, [r6, #1]
 8084548:	2b2b      	cmp	r3, #43	; 0x2b
 808454a:	d078      	beq.n	808463e <_strtod_l+0x286>
 808454c:	2b2d      	cmp	r3, #45	; 0x2d
 808454e:	d07b      	beq.n	8084648 <_strtod_l+0x290>
 8084550:	2700      	movs	r7, #0
 8084552:	f1a3 0130 	sub.w	r1, r3, #48	; 0x30
 8084556:	2909      	cmp	r1, #9
 8084558:	f240 8082 	bls.w	8084660 <_strtod_l+0x2a8>
 808455c:	961b      	str	r6, [sp, #108]	; 0x6c
 808455e:	2500      	movs	r5, #0
 8084560:	e09e      	b.n	80846a0 <_strtod_l+0x2e8>
 8084562:	2300      	movs	r3, #0
 8084564:	e7c9      	b.n	80844fa <_strtod_l+0x142>
 8084566:	f1bb 0f08 	cmp.w	fp, #8
 808456a:	bfd5      	itete	le
 808456c:	9906      	ldrle	r1, [sp, #24]
 808456e:	9905      	ldrgt	r1, [sp, #20]
 8084570:	fb02 3301 	mlale	r3, r2, r1, r3
 8084574:	fb02 3301 	mlagt	r3, r2, r1, r3
 8084578:	f100 0001 	add.w	r0, r0, #1
 808457c:	bfd4      	ite	le
 808457e:	9306      	strle	r3, [sp, #24]
 8084580:	9305      	strgt	r3, [sp, #20]
 8084582:	f10b 0b01 	add.w	fp, fp, #1
 8084586:	901b      	str	r0, [sp, #108]	; 0x6c
 8084588:	e7bf      	b.n	808450a <_strtod_l+0x152>
 808458a:	9b1b      	ldr	r3, [sp, #108]	; 0x6c
 808458c:	191a      	adds	r2, r3, r4
 808458e:	921b      	str	r2, [sp, #108]	; 0x6c
 8084590:	5d1b      	ldrb	r3, [r3, r4]
 8084592:	f1bb 0f00 	cmp.w	fp, #0
 8084596:	d036      	beq.n	8084606 <_strtod_l+0x24e>
 8084598:	465c      	mov	r4, fp
 808459a:	9004      	str	r0, [sp, #16]
 808459c:	f1a3 0230 	sub.w	r2, r3, #48	; 0x30
 80845a0:	2a09      	cmp	r2, #9
 80845a2:	d912      	bls.n	80845ca <_strtod_l+0x212>
 80845a4:	2201      	movs	r2, #1
 80845a6:	e7c2      	b.n	808452e <_strtod_l+0x176>
 80845a8:	9b1b      	ldr	r3, [sp, #108]	; 0x6c
 80845aa:	3001      	adds	r0, #1
 80845ac:	1c5a      	adds	r2, r3, #1
 80845ae:	921b      	str	r2, [sp, #108]	; 0x6c
 80845b0:	785b      	ldrb	r3, [r3, #1]
 80845b2:	2b30      	cmp	r3, #48	; 0x30
 80845b4:	d0f8      	beq.n	80845a8 <_strtod_l+0x1f0>
 80845b6:	f1a3 0231 	sub.w	r2, r3, #49	; 0x31
 80845ba:	2a08      	cmp	r2, #8
 80845bc:	f200 84dc 	bhi.w	8084f78 <_strtod_l+0xbc0>
 80845c0:	9004      	str	r0, [sp, #16]
 80845c2:	2000      	movs	r0, #0
 80845c4:	4604      	mov	r4, r0
 80845c6:	9a1b      	ldr	r2, [sp, #108]	; 0x6c
 80845c8:	9208      	str	r2, [sp, #32]
 80845ca:	3b30      	subs	r3, #48	; 0x30
 80845cc:	f100 0201 	add.w	r2, r0, #1
 80845d0:	d013      	beq.n	80845fa <_strtod_l+0x242>
 80845d2:	9904      	ldr	r1, [sp, #16]
 80845d4:	1905      	adds	r5, r0, r4
 80845d6:	4411      	add	r1, r2
 80845d8:	9104      	str	r1, [sp, #16]
 80845da:	4622      	mov	r2, r4
 80845dc:	210a      	movs	r1, #10
 80845de:	42aa      	cmp	r2, r5
 80845e0:	d113      	bne.n	808460a <_strtod_l+0x252>
 80845e2:	1822      	adds	r2, r4, r0
 80845e4:	2a08      	cmp	r2, #8
 80845e6:	f104 0401 	add.w	r4, r4, #1
 80845ea:	4404      	add	r4, r0
 80845ec:	dc1b      	bgt.n	8084626 <_strtod_l+0x26e>
 80845ee:	220a      	movs	r2, #10
 80845f0:	9906      	ldr	r1, [sp, #24]
 80845f2:	fb02 3301 	mla	r3, r2, r1, r3
 80845f6:	9306      	str	r3, [sp, #24]
 80845f8:	2200      	movs	r2, #0
 80845fa:	9b1b      	ldr	r3, [sp, #108]	; 0x6c
 80845fc:	4610      	mov	r0, r2
 80845fe:	1c59      	adds	r1, r3, #1
 8084600:	911b      	str	r1, [sp, #108]	; 0x6c
 8084602:	785b      	ldrb	r3, [r3, #1]
 8084604:	e7ca      	b.n	808459c <_strtod_l+0x1e4>
 8084606:	4658      	mov	r0, fp
 8084608:	e7d3      	b.n	80845b2 <_strtod_l+0x1fa>
 808460a:	2a08      	cmp	r2, #8
 808460c:	dc04      	bgt.n	8084618 <_strtod_l+0x260>
 808460e:	9f06      	ldr	r7, [sp, #24]
 8084610:	434f      	muls	r7, r1
 8084612:	9706      	str	r7, [sp, #24]
 8084614:	3201      	adds	r2, #1
 8084616:	e7e2      	b.n	80845de <_strtod_l+0x226>
 8084618:	1c57      	adds	r7, r2, #1
 808461a:	2f10      	cmp	r7, #16
 808461c:	bfde      	ittt	le
 808461e:	9f05      	ldrle	r7, [sp, #20]
 8084620:	434f      	mulle	r7, r1
 8084622:	9705      	strle	r7, [sp, #20]
 8084624:	e7f6      	b.n	8084614 <_strtod_l+0x25c>
 8084626:	2c10      	cmp	r4, #16
 8084628:	bfdf      	itttt	le
 808462a:	220a      	movle	r2, #10
 808462c:	9905      	ldrle	r1, [sp, #20]
 808462e:	fb02 3301 	mlale	r3, r2, r1, r3
 8084632:	9305      	strle	r3, [sp, #20]
 8084634:	e7e0      	b.n	80845f8 <_strtod_l+0x240>
 8084636:	2300      	movs	r3, #0
 8084638:	2201      	movs	r2, #1
 808463a:	9304      	str	r3, [sp, #16]
 808463c:	e77c      	b.n	8084538 <_strtod_l+0x180>
 808463e:	2700      	movs	r7, #0
 8084640:	1cb3      	adds	r3, r6, #2
 8084642:	931b      	str	r3, [sp, #108]	; 0x6c
 8084644:	78b3      	ldrb	r3, [r6, #2]
 8084646:	e784      	b.n	8084552 <_strtod_l+0x19a>
 8084648:	2701      	movs	r7, #1
 808464a:	e7f9      	b.n	8084640 <_strtod_l+0x288>
 808464c:	0808679c 	.word	0x0808679c
 8084650:	08086644 	.word	0x08086644
 8084654:	7ff00000 	.word	0x7ff00000
 8084658:	9b1b      	ldr	r3, [sp, #108]	; 0x6c
 808465a:	1c59      	adds	r1, r3, #1
 808465c:	911b      	str	r1, [sp, #108]	; 0x6c
 808465e:	785b      	ldrb	r3, [r3, #1]
 8084660:	2b30      	cmp	r3, #48	; 0x30
 8084662:	d0f9      	beq.n	8084658 <_strtod_l+0x2a0>
 8084664:	f1a3 0131 	sub.w	r1, r3, #49	; 0x31
 8084668:	2908      	cmp	r1, #8
 808466a:	f63f af78 	bhi.w	808455e <_strtod_l+0x1a6>
 808466e:	f04f 0e0a 	mov.w	lr, #10
 8084672:	f1a3 0c30 	sub.w	ip, r3, #48	; 0x30
 8084676:	9b1b      	ldr	r3, [sp, #108]	; 0x6c
 8084678:	9309      	str	r3, [sp, #36]	; 0x24
 808467a:	9b1b      	ldr	r3, [sp, #108]	; 0x6c
 808467c:	1c59      	adds	r1, r3, #1
 808467e:	911b      	str	r1, [sp, #108]	; 0x6c
 8084680:	785b      	ldrb	r3, [r3, #1]
 8084682:	f1a3 0530 	sub.w	r5, r3, #48	; 0x30
 8084686:	2d09      	cmp	r5, #9
 8084688:	d935      	bls.n	80846f6 <_strtod_l+0x33e>
 808468a:	9d09      	ldr	r5, [sp, #36]	; 0x24
 808468c:	1b49      	subs	r1, r1, r5
 808468e:	2908      	cmp	r1, #8
 8084690:	f644 651f 	movw	r5, #19999	; 0x4e1f
 8084694:	dc02      	bgt.n	808469c <_strtod_l+0x2e4>
 8084696:	4565      	cmp	r5, ip
 8084698:	bfa8      	it	ge
 808469a:	4665      	movge	r5, ip
 808469c:	b107      	cbz	r7, 80846a0 <_strtod_l+0x2e8>
 808469e:	426d      	negs	r5, r5
 80846a0:	2c00      	cmp	r4, #0
 80846a2:	d14c      	bne.n	808473e <_strtod_l+0x386>
 80846a4:	9907      	ldr	r1, [sp, #28]
 80846a6:	4301      	orrs	r1, r0
 80846a8:	f47f aec7 	bne.w	808443a <_strtod_l+0x82>
 80846ac:	2a00      	cmp	r2, #0
 80846ae:	f47f aee0 	bne.w	8084472 <_strtod_l+0xba>
 80846b2:	2b69      	cmp	r3, #105	; 0x69
 80846b4:	d026      	beq.n	8084704 <_strtod_l+0x34c>
 80846b6:	dc23      	bgt.n	8084700 <_strtod_l+0x348>
 80846b8:	2b49      	cmp	r3, #73	; 0x49
 80846ba:	d023      	beq.n	8084704 <_strtod_l+0x34c>
 80846bc:	2b4e      	cmp	r3, #78	; 0x4e
 80846be:	f47f aed8 	bne.w	8084472 <_strtod_l+0xba>
 80846c2:	499c      	ldr	r1, [pc, #624]	; (8084934 <_strtod_l+0x57c>)
 80846c4:	a81b      	add	r0, sp, #108	; 0x6c
 80846c6:	f000 ffe5 	bl	8085694 <__match>
 80846ca:	2800      	cmp	r0, #0
 80846cc:	f43f aed1 	beq.w	8084472 <_strtod_l+0xba>
 80846d0:	9b1b      	ldr	r3, [sp, #108]	; 0x6c
 80846d2:	781b      	ldrb	r3, [r3, #0]
 80846d4:	2b28      	cmp	r3, #40	; 0x28
 80846d6:	d12c      	bne.n	8084732 <_strtod_l+0x37a>
 80846d8:	4997      	ldr	r1, [pc, #604]	; (8084938 <_strtod_l+0x580>)
 80846da:	aa1e      	add	r2, sp, #120	; 0x78
 80846dc:	a81b      	add	r0, sp, #108	; 0x6c
 80846de:	f000 ffed 	bl	80856bc <__hexnan>
 80846e2:	2805      	cmp	r0, #5
 80846e4:	d125      	bne.n	8084732 <_strtod_l+0x37a>
 80846e6:	9b1f      	ldr	r3, [sp, #124]	; 0x7c
 80846e8:	f8dd 8078 	ldr.w	r8, [sp, #120]	; 0x78
 80846ec:	f043 49ff 	orr.w	r9, r3, #2139095040	; 0x7f800000
 80846f0:	f449 09e0 	orr.w	r9, r9, #7340032	; 0x700000
 80846f4:	e6a1      	b.n	808443a <_strtod_l+0x82>
 80846f6:	fb0e 3c0c 	mla	ip, lr, ip, r3
 80846fa:	f1ac 0c30 	sub.w	ip, ip, #48	; 0x30
 80846fe:	e7bc      	b.n	808467a <_strtod_l+0x2c2>
 8084700:	2b6e      	cmp	r3, #110	; 0x6e
 8084702:	e7dc      	b.n	80846be <_strtod_l+0x306>
 8084704:	498d      	ldr	r1, [pc, #564]	; (808493c <_strtod_l+0x584>)
 8084706:	a81b      	add	r0, sp, #108	; 0x6c
 8084708:	f000 ffc4 	bl	8085694 <__match>
 808470c:	2800      	cmp	r0, #0
 808470e:	f43f aeb0 	beq.w	8084472 <_strtod_l+0xba>
 8084712:	9b1b      	ldr	r3, [sp, #108]	; 0x6c
 8084714:	498a      	ldr	r1, [pc, #552]	; (8084940 <_strtod_l+0x588>)
 8084716:	3b01      	subs	r3, #1
 8084718:	a81b      	add	r0, sp, #108	; 0x6c
 808471a:	931b      	str	r3, [sp, #108]	; 0x6c
 808471c:	f000 ffba 	bl	8085694 <__match>
 8084720:	b910      	cbnz	r0, 8084728 <_strtod_l+0x370>
 8084722:	9b1b      	ldr	r3, [sp, #108]	; 0x6c
 8084724:	3301      	adds	r3, #1
 8084726:	931b      	str	r3, [sp, #108]	; 0x6c
 8084728:	f04f 0800 	mov.w	r8, #0
 808472c:	f8df 9220 	ldr.w	r9, [pc, #544]	; 8084950 <_strtod_l+0x598>
 8084730:	e683      	b.n	808443a <_strtod_l+0x82>
 8084732:	4884      	ldr	r0, [pc, #528]	; (8084944 <_strtod_l+0x58c>)
 8084734:	f001 fcb8 	bl	80860a8 <nan>
 8084738:	4680      	mov	r8, r0
 808473a:	4689      	mov	r9, r1
 808473c:	e67d      	b.n	808443a <_strtod_l+0x82>
 808473e:	9b04      	ldr	r3, [sp, #16]
 8084740:	f1bb 0f00 	cmp.w	fp, #0
 8084744:	bf08      	it	eq
 8084746:	46a3      	moveq	fp, r4
 8084748:	1aeb      	subs	r3, r5, r3
 808474a:	2c10      	cmp	r4, #16
 808474c:	9806      	ldr	r0, [sp, #24]
 808474e:	4626      	mov	r6, r4
 8084750:	9307      	str	r3, [sp, #28]
 8084752:	bfa8      	it	ge
 8084754:	2610      	movge	r6, #16
 8084756:	f7ff f8ef 	bl	8083938 <__aeabi_ui2d>
 808475a:	2c09      	cmp	r4, #9
 808475c:	4680      	mov	r8, r0
 808475e:	4689      	mov	r9, r1
 8084760:	dd13      	ble.n	808478a <_strtod_l+0x3d2>
 8084762:	4b79      	ldr	r3, [pc, #484]	; (8084948 <_strtod_l+0x590>)
 8084764:	eb03 03c6 	add.w	r3, r3, r6, lsl #3
 8084768:	e953 2312 	ldrd	r2, r3, [r3, #-72]	; 0x48
 808476c:	f7ff f95e 	bl	8083a2c <__aeabi_dmul>
 8084770:	4680      	mov	r8, r0
 8084772:	9805      	ldr	r0, [sp, #20]
 8084774:	4689      	mov	r9, r1
 8084776:	f7ff f8df 	bl	8083938 <__aeabi_ui2d>
 808477a:	4602      	mov	r2, r0
 808477c:	460b      	mov	r3, r1
 808477e:	4640      	mov	r0, r8
 8084780:	4649      	mov	r1, r9
 8084782:	f7fe ff9d 	bl	80836c0 <__adddf3>
 8084786:	4680      	mov	r8, r0
 8084788:	4689      	mov	r9, r1
 808478a:	2c0f      	cmp	r4, #15
 808478c:	dc36      	bgt.n	80847fc <_strtod_l+0x444>
 808478e:	9b07      	ldr	r3, [sp, #28]
 8084790:	2b00      	cmp	r3, #0
 8084792:	f43f ae52 	beq.w	808443a <_strtod_l+0x82>
 8084796:	dd22      	ble.n	80847de <_strtod_l+0x426>
 8084798:	2b16      	cmp	r3, #22
 808479a:	dc09      	bgt.n	80847b0 <_strtod_l+0x3f8>
 808479c:	4c6a      	ldr	r4, [pc, #424]	; (8084948 <_strtod_l+0x590>)
 808479e:	4642      	mov	r2, r8
 80847a0:	eb04 04c3 	add.w	r4, r4, r3, lsl #3
 80847a4:	464b      	mov	r3, r9
 80847a6:	e9d4 0100 	ldrd	r0, r1, [r4]
 80847aa:	f7ff f93f 	bl	8083a2c <__aeabi_dmul>
 80847ae:	e7c3      	b.n	8084738 <_strtod_l+0x380>
 80847b0:	9a07      	ldr	r2, [sp, #28]
 80847b2:	f1c4 0325 	rsb	r3, r4, #37	; 0x25
 80847b6:	4293      	cmp	r3, r2
 80847b8:	db20      	blt.n	80847fc <_strtod_l+0x444>
 80847ba:	4d63      	ldr	r5, [pc, #396]	; (8084948 <_strtod_l+0x590>)
 80847bc:	f1c4 040f 	rsb	r4, r4, #15
 80847c0:	eb05 01c4 	add.w	r1, r5, r4, lsl #3
 80847c4:	4642      	mov	r2, r8
 80847c6:	e9d1 0100 	ldrd	r0, r1, [r1]
 80847ca:	464b      	mov	r3, r9
 80847cc:	f7ff f92e 	bl	8083a2c <__aeabi_dmul>
 80847d0:	9b07      	ldr	r3, [sp, #28]
 80847d2:	1b1c      	subs	r4, r3, r4
 80847d4:	eb05 05c4 	add.w	r5, r5, r4, lsl #3
 80847d8:	e9d5 2300 	ldrd	r2, r3, [r5]
 80847dc:	e7e5      	b.n	80847aa <_strtod_l+0x3f2>
 80847de:	9b07      	ldr	r3, [sp, #28]
 80847e0:	3316      	adds	r3, #22
 80847e2:	db0b      	blt.n	80847fc <_strtod_l+0x444>
 80847e4:	9b04      	ldr	r3, [sp, #16]
 80847e6:	4a58      	ldr	r2, [pc, #352]	; (8084948 <_strtod_l+0x590>)
 80847e8:	1b5d      	subs	r5, r3, r5
 80847ea:	eb02 05c5 	add.w	r5, r2, r5, lsl #3
 80847ee:	4640      	mov	r0, r8
 80847f0:	e9d5 2300 	ldrd	r2, r3, [r5]
 80847f4:	4649      	mov	r1, r9
 80847f6:	f7ff fa43 	bl	8083c80 <__aeabi_ddiv>
 80847fa:	e79d      	b.n	8084738 <_strtod_l+0x380>
 80847fc:	9b07      	ldr	r3, [sp, #28]
 80847fe:	1ba6      	subs	r6, r4, r6
 8084800:	441e      	add	r6, r3
 8084802:	2e00      	cmp	r6, #0
 8084804:	dd71      	ble.n	80848ea <_strtod_l+0x532>
 8084806:	f016 030f 	ands.w	r3, r6, #15
 808480a:	d00a      	beq.n	8084822 <_strtod_l+0x46a>
 808480c:	494e      	ldr	r1, [pc, #312]	; (8084948 <_strtod_l+0x590>)
 808480e:	4642      	mov	r2, r8
 8084810:	eb01 01c3 	add.w	r1, r1, r3, lsl #3
 8084814:	e9d1 0100 	ldrd	r0, r1, [r1]
 8084818:	464b      	mov	r3, r9
 808481a:	f7ff f907 	bl	8083a2c <__aeabi_dmul>
 808481e:	4680      	mov	r8, r0
 8084820:	4689      	mov	r9, r1
 8084822:	f036 060f 	bics.w	r6, r6, #15
 8084826:	d050      	beq.n	80848ca <_strtod_l+0x512>
 8084828:	f5b6 7f9a 	cmp.w	r6, #308	; 0x134
 808482c:	dd27      	ble.n	808487e <_strtod_l+0x4c6>
 808482e:	f04f 0b00 	mov.w	fp, #0
 8084832:	f8cd b010 	str.w	fp, [sp, #16]
 8084836:	f8cd b020 	str.w	fp, [sp, #32]
 808483a:	f8cd b018 	str.w	fp, [sp, #24]
 808483e:	2322      	movs	r3, #34	; 0x22
 8084840:	f04f 0800 	mov.w	r8, #0
 8084844:	f8df 9108 	ldr.w	r9, [pc, #264]	; 8084950 <_strtod_l+0x598>
 8084848:	f8ca 3000 	str.w	r3, [sl]
 808484c:	9b08      	ldr	r3, [sp, #32]
 808484e:	2b00      	cmp	r3, #0
 8084850:	f43f adf3 	beq.w	808443a <_strtod_l+0x82>
 8084854:	4650      	mov	r0, sl
 8084856:	991c      	ldr	r1, [sp, #112]	; 0x70
 8084858:	f001 f812 	bl	8085880 <_Bfree>
 808485c:	4650      	mov	r0, sl
 808485e:	9906      	ldr	r1, [sp, #24]
 8084860:	f001 f80e 	bl	8085880 <_Bfree>
 8084864:	4650      	mov	r0, sl
 8084866:	9904      	ldr	r1, [sp, #16]
 8084868:	f001 f80a 	bl	8085880 <_Bfree>
 808486c:	4650      	mov	r0, sl
 808486e:	9908      	ldr	r1, [sp, #32]
 8084870:	f001 f806 	bl	8085880 <_Bfree>
 8084874:	4659      	mov	r1, fp
 8084876:	4650      	mov	r0, sl
 8084878:	f001 f802 	bl	8085880 <_Bfree>
 808487c:	e5dd      	b.n	808443a <_strtod_l+0x82>
 808487e:	2300      	movs	r3, #0
 8084880:	4640      	mov	r0, r8
 8084882:	4649      	mov	r1, r9
 8084884:	461f      	mov	r7, r3
 8084886:	1136      	asrs	r6, r6, #4
 8084888:	2e01      	cmp	r6, #1
 808488a:	dc21      	bgt.n	80848d0 <_strtod_l+0x518>
 808488c:	b10b      	cbz	r3, 8084892 <_strtod_l+0x4da>
 808488e:	4680      	mov	r8, r0
 8084890:	4689      	mov	r9, r1
 8084892:	4b2e      	ldr	r3, [pc, #184]	; (808494c <_strtod_l+0x594>)
 8084894:	f1a9 7954 	sub.w	r9, r9, #55574528	; 0x3500000
 8084898:	eb03 07c7 	add.w	r7, r3, r7, lsl #3
 808489c:	4642      	mov	r2, r8
 808489e:	e9d7 0100 	ldrd	r0, r1, [r7]
 80848a2:	464b      	mov	r3, r9
 80848a4:	f7ff f8c2 	bl	8083a2c <__aeabi_dmul>
 80848a8:	4b29      	ldr	r3, [pc, #164]	; (8084950 <_strtod_l+0x598>)
 80848aa:	460a      	mov	r2, r1
 80848ac:	400b      	ands	r3, r1
 80848ae:	4929      	ldr	r1, [pc, #164]	; (8084954 <_strtod_l+0x59c>)
 80848b0:	4680      	mov	r8, r0
 80848b2:	428b      	cmp	r3, r1
 80848b4:	d8bb      	bhi.n	808482e <_strtod_l+0x476>
 80848b6:	f5a1 1180 	sub.w	r1, r1, #1048576	; 0x100000
 80848ba:	428b      	cmp	r3, r1
 80848bc:	bf86      	itte	hi
 80848be:	f04f 38ff 	movhi.w	r8, #4294967295
 80848c2:	f8df 9094 	ldrhi.w	r9, [pc, #148]	; 8084958 <_strtod_l+0x5a0>
 80848c6:	f102 7954 	addls.w	r9, r2, #55574528	; 0x3500000
 80848ca:	2300      	movs	r3, #0
 80848cc:	9305      	str	r3, [sp, #20]
 80848ce:	e07e      	b.n	80849ce <_strtod_l+0x616>
 80848d0:	07f2      	lsls	r2, r6, #31
 80848d2:	d507      	bpl.n	80848e4 <_strtod_l+0x52c>
 80848d4:	4b1d      	ldr	r3, [pc, #116]	; (808494c <_strtod_l+0x594>)
 80848d6:	eb03 03c7 	add.w	r3, r3, r7, lsl #3
 80848da:	e9d3 2300 	ldrd	r2, r3, [r3]
 80848de:	f7ff f8a5 	bl	8083a2c <__aeabi_dmul>
 80848e2:	2301      	movs	r3, #1
 80848e4:	3701      	adds	r7, #1
 80848e6:	1076      	asrs	r6, r6, #1
 80848e8:	e7ce      	b.n	8084888 <_strtod_l+0x4d0>
 80848ea:	d0ee      	beq.n	80848ca <_strtod_l+0x512>
 80848ec:	4276      	negs	r6, r6
 80848ee:	f016 020f 	ands.w	r2, r6, #15
 80848f2:	d00a      	beq.n	808490a <_strtod_l+0x552>
 80848f4:	4b14      	ldr	r3, [pc, #80]	; (8084948 <_strtod_l+0x590>)
 80848f6:	4640      	mov	r0, r8
 80848f8:	eb03 03c2 	add.w	r3, r3, r2, lsl #3
 80848fc:	4649      	mov	r1, r9
 80848fe:	e9d3 2300 	ldrd	r2, r3, [r3]
 8084902:	f7ff f9bd 	bl	8083c80 <__aeabi_ddiv>
 8084906:	4680      	mov	r8, r0
 8084908:	4689      	mov	r9, r1
 808490a:	1136      	asrs	r6, r6, #4
 808490c:	d0dd      	beq.n	80848ca <_strtod_l+0x512>
 808490e:	2e1f      	cmp	r6, #31
 8084910:	dd24      	ble.n	808495c <_strtod_l+0x5a4>
 8084912:	f04f 0b00 	mov.w	fp, #0
 8084916:	f8cd b010 	str.w	fp, [sp, #16]
 808491a:	f8cd b020 	str.w	fp, [sp, #32]
 808491e:	f8cd b018 	str.w	fp, [sp, #24]
 8084922:	2322      	movs	r3, #34	; 0x22
 8084924:	f04f 0800 	mov.w	r8, #0
 8084928:	f04f 0900 	mov.w	r9, #0
 808492c:	f8ca 3000 	str.w	r3, [sl]
 8084930:	e78c      	b.n	808484c <_strtod_l+0x494>
 8084932:	bf00      	nop
 8084934:	0808663f 	.word	0x0808663f
 8084938:	08086658 	.word	0x08086658
 808493c:	08086636 	.word	0x08086636
 8084940:	08086639 	.word	0x08086639
 8084944:	08086459 	.word	0x08086459
 8084948:	080867d8 	.word	0x080867d8
 808494c:	080867b0 	.word	0x080867b0
 8084950:	7ff00000 	.word	0x7ff00000
 8084954:	7ca00000 	.word	0x7ca00000
 8084958:	7fefffff 	.word	0x7fefffff
 808495c:	f016 0310 	ands.w	r3, r6, #16
 8084960:	bf18      	it	ne
 8084962:	236a      	movne	r3, #106	; 0x6a
 8084964:	4640      	mov	r0, r8
 8084966:	9305      	str	r3, [sp, #20]
 8084968:	4649      	mov	r1, r9
 808496a:	2300      	movs	r3, #0
 808496c:	4fb2      	ldr	r7, [pc, #712]	; (8084c38 <_strtod_l+0x880>)
 808496e:	07f2      	lsls	r2, r6, #31
 8084970:	d504      	bpl.n	808497c <_strtod_l+0x5c4>
 8084972:	e9d7 2300 	ldrd	r2, r3, [r7]
 8084976:	f7ff f859 	bl	8083a2c <__aeabi_dmul>
 808497a:	2301      	movs	r3, #1
 808497c:	1076      	asrs	r6, r6, #1
 808497e:	f107 0708 	add.w	r7, r7, #8
 8084982:	d1f4      	bne.n	808496e <_strtod_l+0x5b6>
 8084984:	b10b      	cbz	r3, 808498a <_strtod_l+0x5d2>
 8084986:	4680      	mov	r8, r0
 8084988:	4689      	mov	r9, r1
 808498a:	9b05      	ldr	r3, [sp, #20]
 808498c:	b1bb      	cbz	r3, 80849be <_strtod_l+0x606>
 808498e:	f3c9 530a 	ubfx	r3, r9, #20, #11
 8084992:	f1c3 036b 	rsb	r3, r3, #107	; 0x6b
 8084996:	2b00      	cmp	r3, #0
 8084998:	4649      	mov	r1, r9
 808499a:	dd10      	ble.n	80849be <_strtod_l+0x606>
 808499c:	2b1f      	cmp	r3, #31
 808499e:	f340 812b 	ble.w	8084bf8 <_strtod_l+0x840>
 80849a2:	2b34      	cmp	r3, #52	; 0x34
 80849a4:	bfd8      	it	le
 80849a6:	f04f 32ff 	movle.w	r2, #4294967295
 80849aa:	f04f 0800 	mov.w	r8, #0
 80849ae:	bfcf      	iteee	gt
 80849b0:	f04f 795c 	movgt.w	r9, #57671680	; 0x3700000
 80849b4:	3b20      	suble	r3, #32
 80849b6:	fa02 f303 	lslle.w	r3, r2, r3
 80849ba:	ea03 0901 	andle.w	r9, r3, r1
 80849be:	2200      	movs	r2, #0
 80849c0:	2300      	movs	r3, #0
 80849c2:	4640      	mov	r0, r8
 80849c4:	4649      	mov	r1, r9
 80849c6:	f7ff fa99 	bl	8083efc <__aeabi_dcmpeq>
 80849ca:	2800      	cmp	r0, #0
 80849cc:	d1a1      	bne.n	8084912 <_strtod_l+0x55a>
 80849ce:	9b06      	ldr	r3, [sp, #24]
 80849d0:	465a      	mov	r2, fp
 80849d2:	9300      	str	r3, [sp, #0]
 80849d4:	4650      	mov	r0, sl
 80849d6:	4623      	mov	r3, r4
 80849d8:	9908      	ldr	r1, [sp, #32]
 80849da:	f000 ffa6 	bl	808592a <__s2b>
 80849de:	9008      	str	r0, [sp, #32]
 80849e0:	2800      	cmp	r0, #0
 80849e2:	f43f af24 	beq.w	808482e <_strtod_l+0x476>
 80849e6:	9b04      	ldr	r3, [sp, #16]
 80849e8:	f04f 0b00 	mov.w	fp, #0
 80849ec:	1b5d      	subs	r5, r3, r5
 80849ee:	9b07      	ldr	r3, [sp, #28]
 80849f0:	f8cd b010 	str.w	fp, [sp, #16]
 80849f4:	2b00      	cmp	r3, #0
 80849f6:	bfb4      	ite	lt
 80849f8:	462b      	movlt	r3, r5
 80849fa:	2300      	movge	r3, #0
 80849fc:	930e      	str	r3, [sp, #56]	; 0x38
 80849fe:	9b07      	ldr	r3, [sp, #28]
 8084a00:	ea23 73e3 	bic.w	r3, r3, r3, asr #31
 8084a04:	9316      	str	r3, [sp, #88]	; 0x58
 8084a06:	9b08      	ldr	r3, [sp, #32]
 8084a08:	4650      	mov	r0, sl
 8084a0a:	6859      	ldr	r1, [r3, #4]
 8084a0c:	f000 ff04 	bl	8085818 <_Balloc>
 8084a10:	9006      	str	r0, [sp, #24]
 8084a12:	2800      	cmp	r0, #0
 8084a14:	f43f af13 	beq.w	808483e <_strtod_l+0x486>
 8084a18:	9b08      	ldr	r3, [sp, #32]
 8084a1a:	300c      	adds	r0, #12
 8084a1c:	691a      	ldr	r2, [r3, #16]
 8084a1e:	f103 010c 	add.w	r1, r3, #12
 8084a22:	3202      	adds	r2, #2
 8084a24:	0092      	lsls	r2, r2, #2
 8084a26:	f7ff fbed 	bl	8084204 <memcpy>
 8084a2a:	ab1e      	add	r3, sp, #120	; 0x78
 8084a2c:	9301      	str	r3, [sp, #4]
 8084a2e:	ab1d      	add	r3, sp, #116	; 0x74
 8084a30:	9300      	str	r3, [sp, #0]
 8084a32:	4642      	mov	r2, r8
 8084a34:	464b      	mov	r3, r9
 8084a36:	4650      	mov	r0, sl
 8084a38:	e9cd 890a 	strd	r8, r9, [sp, #40]	; 0x28
 8084a3c:	f001 fa64 	bl	8085f08 <__d2b>
 8084a40:	901c      	str	r0, [sp, #112]	; 0x70
 8084a42:	2800      	cmp	r0, #0
 8084a44:	f43f aefb 	beq.w	808483e <_strtod_l+0x486>
 8084a48:	2101      	movs	r1, #1
 8084a4a:	4650      	mov	r0, sl
 8084a4c:	f000 fff9 	bl	8085a42 <__i2b>
 8084a50:	4603      	mov	r3, r0
 8084a52:	9004      	str	r0, [sp, #16]
 8084a54:	2800      	cmp	r0, #0
 8084a56:	f43f aef2 	beq.w	808483e <_strtod_l+0x486>
 8084a5a:	9d1d      	ldr	r5, [sp, #116]	; 0x74
 8084a5c:	9a1e      	ldr	r2, [sp, #120]	; 0x78
 8084a5e:	2d00      	cmp	r5, #0
 8084a60:	bfab      	itete	ge
 8084a62:	9b0e      	ldrge	r3, [sp, #56]	; 0x38
 8084a64:	9b16      	ldrlt	r3, [sp, #88]	; 0x58
 8084a66:	18ee      	addge	r6, r5, r3
 8084a68:	1b5c      	sublt	r4, r3, r5
 8084a6a:	9b05      	ldr	r3, [sp, #20]
 8084a6c:	bfa8      	it	ge
 8084a6e:	9c16      	ldrge	r4, [sp, #88]	; 0x58
 8084a70:	eba5 0503 	sub.w	r5, r5, r3
 8084a74:	4415      	add	r5, r2
 8084a76:	4b71      	ldr	r3, [pc, #452]	; (8084c3c <_strtod_l+0x884>)
 8084a78:	f105 35ff 	add.w	r5, r5, #4294967295
 8084a7c:	bfb8      	it	lt
 8084a7e:	9e0e      	ldrlt	r6, [sp, #56]	; 0x38
 8084a80:	429d      	cmp	r5, r3
 8084a82:	f1c2 0236 	rsb	r2, r2, #54	; 0x36
 8084a86:	f280 80c9 	bge.w	8084c1c <_strtod_l+0x864>
 8084a8a:	1b5b      	subs	r3, r3, r5
 8084a8c:	2b1f      	cmp	r3, #31
 8084a8e:	f04f 0701 	mov.w	r7, #1
 8084a92:	eba2 0203 	sub.w	r2, r2, r3
 8084a96:	f300 80b6 	bgt.w	8084c06 <_strtod_l+0x84e>
 8084a9a:	2500      	movs	r5, #0
 8084a9c:	fa07 f303 	lsl.w	r3, r7, r3
 8084aa0:	930f      	str	r3, [sp, #60]	; 0x3c
 8084aa2:	18b7      	adds	r7, r6, r2
 8084aa4:	9b05      	ldr	r3, [sp, #20]
 8084aa6:	42be      	cmp	r6, r7
 8084aa8:	4414      	add	r4, r2
 8084aaa:	441c      	add	r4, r3
 8084aac:	4633      	mov	r3, r6
 8084aae:	bfa8      	it	ge
 8084ab0:	463b      	movge	r3, r7
 8084ab2:	42a3      	cmp	r3, r4
 8084ab4:	bfa8      	it	ge
 8084ab6:	4623      	movge	r3, r4
 8084ab8:	2b00      	cmp	r3, #0
 8084aba:	bfc2      	ittt	gt
 8084abc:	1aff      	subgt	r7, r7, r3
 8084abe:	1ae4      	subgt	r4, r4, r3
 8084ac0:	1af6      	subgt	r6, r6, r3
 8084ac2:	9b0e      	ldr	r3, [sp, #56]	; 0x38
 8084ac4:	2b00      	cmp	r3, #0
 8084ac6:	dd17      	ble.n	8084af8 <_strtod_l+0x740>
 8084ac8:	461a      	mov	r2, r3
 8084aca:	4650      	mov	r0, sl
 8084acc:	9904      	ldr	r1, [sp, #16]
 8084ace:	f001 f85d 	bl	8085b8c <__pow5mult>
 8084ad2:	9004      	str	r0, [sp, #16]
 8084ad4:	2800      	cmp	r0, #0
 8084ad6:	f43f aeb2 	beq.w	808483e <_strtod_l+0x486>
 8084ada:	4601      	mov	r1, r0
 8084adc:	9a1c      	ldr	r2, [sp, #112]	; 0x70
 8084ade:	4650      	mov	r0, sl
 8084ae0:	f000 ffb8 	bl	8085a54 <__multiply>
 8084ae4:	9009      	str	r0, [sp, #36]	; 0x24
 8084ae6:	2800      	cmp	r0, #0
 8084ae8:	f43f aea9 	beq.w	808483e <_strtod_l+0x486>
 8084aec:	4650      	mov	r0, sl
 8084aee:	991c      	ldr	r1, [sp, #112]	; 0x70
 8084af0:	f000 fec6 	bl	8085880 <_Bfree>
 8084af4:	9b09      	ldr	r3, [sp, #36]	; 0x24
 8084af6:	931c      	str	r3, [sp, #112]	; 0x70
 8084af8:	2f00      	cmp	r7, #0
 8084afa:	f300 8093 	bgt.w	8084c24 <_strtod_l+0x86c>
 8084afe:	9b07      	ldr	r3, [sp, #28]
 8084b00:	2b00      	cmp	r3, #0
 8084b02:	dd08      	ble.n	8084b16 <_strtod_l+0x75e>
 8084b04:	4650      	mov	r0, sl
 8084b06:	9a16      	ldr	r2, [sp, #88]	; 0x58
 8084b08:	9906      	ldr	r1, [sp, #24]
 8084b0a:	f001 f83f 	bl	8085b8c <__pow5mult>
 8084b0e:	9006      	str	r0, [sp, #24]
 8084b10:	2800      	cmp	r0, #0
 8084b12:	f43f ae94 	beq.w	808483e <_strtod_l+0x486>
 8084b16:	2c00      	cmp	r4, #0
 8084b18:	dd08      	ble.n	8084b2c <_strtod_l+0x774>
 8084b1a:	4622      	mov	r2, r4
 8084b1c:	4650      	mov	r0, sl
 8084b1e:	9906      	ldr	r1, [sp, #24]
 8084b20:	f001 f882 	bl	8085c28 <__lshift>
 8084b24:	9006      	str	r0, [sp, #24]
 8084b26:	2800      	cmp	r0, #0
 8084b28:	f43f ae89 	beq.w	808483e <_strtod_l+0x486>
 8084b2c:	2e00      	cmp	r6, #0
 8084b2e:	dd08      	ble.n	8084b42 <_strtod_l+0x78a>
 8084b30:	4632      	mov	r2, r6
 8084b32:	4650      	mov	r0, sl
 8084b34:	9904      	ldr	r1, [sp, #16]
 8084b36:	f001 f877 	bl	8085c28 <__lshift>
 8084b3a:	9004      	str	r0, [sp, #16]
 8084b3c:	2800      	cmp	r0, #0
 8084b3e:	f43f ae7e 	beq.w	808483e <_strtod_l+0x486>
 8084b42:	4650      	mov	r0, sl
 8084b44:	9a06      	ldr	r2, [sp, #24]
 8084b46:	991c      	ldr	r1, [sp, #112]	; 0x70
 8084b48:	f001 f8e8 	bl	8085d1c <__mdiff>
 8084b4c:	4683      	mov	fp, r0
 8084b4e:	2800      	cmp	r0, #0
 8084b50:	f43f ae75 	beq.w	808483e <_strtod_l+0x486>
 8084b54:	2400      	movs	r4, #0
 8084b56:	68c3      	ldr	r3, [r0, #12]
 8084b58:	9904      	ldr	r1, [sp, #16]
 8084b5a:	60c4      	str	r4, [r0, #12]
 8084b5c:	930d      	str	r3, [sp, #52]	; 0x34
 8084b5e:	f001 f8c2 	bl	8085ce6 <__mcmp>
 8084b62:	42a0      	cmp	r0, r4
 8084b64:	da70      	bge.n	8084c48 <_strtod_l+0x890>
 8084b66:	9b0d      	ldr	r3, [sp, #52]	; 0x34
 8084b68:	ea53 0308 	orrs.w	r3, r3, r8
 8084b6c:	f040 8096 	bne.w	8084c9c <_strtod_l+0x8e4>
 8084b70:	f3c9 0313 	ubfx	r3, r9, #0, #20
 8084b74:	2b00      	cmp	r3, #0
 8084b76:	f040 8091 	bne.w	8084c9c <_strtod_l+0x8e4>
 8084b7a:	f029 4300 	bic.w	r3, r9, #2147483648	; 0x80000000
 8084b7e:	0d1b      	lsrs	r3, r3, #20
 8084b80:	051b      	lsls	r3, r3, #20
 8084b82:	f1b3 6fd6 	cmp.w	r3, #112197632	; 0x6b00000
 8084b86:	f240 8089 	bls.w	8084c9c <_strtod_l+0x8e4>
 8084b8a:	f8db 3014 	ldr.w	r3, [fp, #20]
 8084b8e:	b923      	cbnz	r3, 8084b9a <_strtod_l+0x7e2>
 8084b90:	f8db 3010 	ldr.w	r3, [fp, #16]
 8084b94:	2b01      	cmp	r3, #1
 8084b96:	f340 8081 	ble.w	8084c9c <_strtod_l+0x8e4>
 8084b9a:	4659      	mov	r1, fp
 8084b9c:	2201      	movs	r2, #1
 8084b9e:	4650      	mov	r0, sl
 8084ba0:	f001 f842 	bl	8085c28 <__lshift>
 8084ba4:	9904      	ldr	r1, [sp, #16]
 8084ba6:	4683      	mov	fp, r0
 8084ba8:	f001 f89d 	bl	8085ce6 <__mcmp>
 8084bac:	2800      	cmp	r0, #0
 8084bae:	dd75      	ble.n	8084c9c <_strtod_l+0x8e4>
 8084bb0:	9905      	ldr	r1, [sp, #20]
 8084bb2:	464b      	mov	r3, r9
 8084bb4:	4a22      	ldr	r2, [pc, #136]	; (8084c40 <_strtod_l+0x888>)
 8084bb6:	2900      	cmp	r1, #0
 8084bb8:	f000 8091 	beq.w	8084cde <_strtod_l+0x926>
 8084bbc:	ea02 0109 	and.w	r1, r2, r9
 8084bc0:	f1b1 6fd6 	cmp.w	r1, #112197632	; 0x6b00000
 8084bc4:	f300 808b 	bgt.w	8084cde <_strtod_l+0x926>
 8084bc8:	f1b1 7f5c 	cmp.w	r1, #57671680	; 0x3700000
 8084bcc:	f77f aea9 	ble.w	8084922 <_strtod_l+0x56a>
 8084bd0:	2300      	movs	r3, #0
 8084bd2:	4a1c      	ldr	r2, [pc, #112]	; (8084c44 <_strtod_l+0x88c>)
 8084bd4:	4640      	mov	r0, r8
 8084bd6:	e9cd 3214 	strd	r3, r2, [sp, #80]	; 0x50
 8084bda:	4649      	mov	r1, r9
 8084bdc:	e9dd 2314 	ldrd	r2, r3, [sp, #80]	; 0x50
 8084be0:	f7fe ff24 	bl	8083a2c <__aeabi_dmul>
 8084be4:	460b      	mov	r3, r1
 8084be6:	4303      	orrs	r3, r0
 8084be8:	bf08      	it	eq
 8084bea:	2322      	moveq	r3, #34	; 0x22
 8084bec:	4680      	mov	r8, r0
 8084bee:	4689      	mov	r9, r1
 8084bf0:	bf08      	it	eq
 8084bf2:	f8ca 3000 	streq.w	r3, [sl]
 8084bf6:	e62d      	b.n	8084854 <_strtod_l+0x49c>
 8084bf8:	f04f 32ff 	mov.w	r2, #4294967295
 8084bfc:	fa02 f303 	lsl.w	r3, r2, r3
 8084c00:	ea03 0808 	and.w	r8, r3, r8
 8084c04:	e6db      	b.n	80849be <_strtod_l+0x606>
 8084c06:	f1c5 457f 	rsb	r5, r5, #4278190080	; 0xff000000
 8084c0a:	f505 057f 	add.w	r5, r5, #16711680	; 0xff0000
 8084c0e:	f505 457b 	add.w	r5, r5, #64256	; 0xfb00
 8084c12:	35e2      	adds	r5, #226	; 0xe2
 8084c14:	fa07 f505 	lsl.w	r5, r7, r5
 8084c18:	970f      	str	r7, [sp, #60]	; 0x3c
 8084c1a:	e742      	b.n	8084aa2 <_strtod_l+0x6ea>
 8084c1c:	2301      	movs	r3, #1
 8084c1e:	2500      	movs	r5, #0
 8084c20:	930f      	str	r3, [sp, #60]	; 0x3c
 8084c22:	e73e      	b.n	8084aa2 <_strtod_l+0x6ea>
 8084c24:	463a      	mov	r2, r7
 8084c26:	4650      	mov	r0, sl
 8084c28:	991c      	ldr	r1, [sp, #112]	; 0x70
 8084c2a:	f000 fffd 	bl	8085c28 <__lshift>
 8084c2e:	901c      	str	r0, [sp, #112]	; 0x70
 8084c30:	2800      	cmp	r0, #0
 8084c32:	f47f af64 	bne.w	8084afe <_strtod_l+0x746>
 8084c36:	e602      	b.n	808483e <_strtod_l+0x486>
 8084c38:	08086670 	.word	0x08086670
 8084c3c:	fffffc02 	.word	0xfffffc02
 8084c40:	7ff00000 	.word	0x7ff00000
 8084c44:	39500000 	.word	0x39500000
 8084c48:	f8cd 9024 	str.w	r9, [sp, #36]	; 0x24
 8084c4c:	d166      	bne.n	8084d1c <_strtod_l+0x964>
 8084c4e:	9a0d      	ldr	r2, [sp, #52]	; 0x34
 8084c50:	f3c9 0313 	ubfx	r3, r9, #0, #20
 8084c54:	b35a      	cbz	r2, 8084cae <_strtod_l+0x8f6>
 8084c56:	4a9c      	ldr	r2, [pc, #624]	; (8084ec8 <_strtod_l+0xb10>)
 8084c58:	4293      	cmp	r3, r2
 8084c5a:	d12c      	bne.n	8084cb6 <_strtod_l+0x8fe>
 8084c5c:	9b05      	ldr	r3, [sp, #20]
 8084c5e:	4640      	mov	r0, r8
 8084c60:	b303      	cbz	r3, 8084ca4 <_strtod_l+0x8ec>
 8084c62:	464b      	mov	r3, r9
 8084c64:	4a99      	ldr	r2, [pc, #612]	; (8084ecc <_strtod_l+0xb14>)
 8084c66:	f04f 31ff 	mov.w	r1, #4294967295
 8084c6a:	401a      	ands	r2, r3
 8084c6c:	f1b2 6fd4 	cmp.w	r2, #111149056	; 0x6a00000
 8084c70:	d81b      	bhi.n	8084caa <_strtod_l+0x8f2>
 8084c72:	0d12      	lsrs	r2, r2, #20
 8084c74:	f1c2 036b 	rsb	r3, r2, #107	; 0x6b
 8084c78:	fa01 f303 	lsl.w	r3, r1, r3
 8084c7c:	4298      	cmp	r0, r3
 8084c7e:	d11a      	bne.n	8084cb6 <_strtod_l+0x8fe>
 8084c80:	4b93      	ldr	r3, [pc, #588]	; (8084ed0 <_strtod_l+0xb18>)
 8084c82:	9a09      	ldr	r2, [sp, #36]	; 0x24
 8084c84:	429a      	cmp	r2, r3
 8084c86:	d102      	bne.n	8084c8e <_strtod_l+0x8d6>
 8084c88:	3001      	adds	r0, #1
 8084c8a:	f43f add8 	beq.w	808483e <_strtod_l+0x486>
 8084c8e:	f04f 0800 	mov.w	r8, #0
 8084c92:	4b8e      	ldr	r3, [pc, #568]	; (8084ecc <_strtod_l+0xb14>)
 8084c94:	9a09      	ldr	r2, [sp, #36]	; 0x24
 8084c96:	401a      	ands	r2, r3
 8084c98:	f502 1980 	add.w	r9, r2, #1048576	; 0x100000
 8084c9c:	9b05      	ldr	r3, [sp, #20]
 8084c9e:	2b00      	cmp	r3, #0
 8084ca0:	d196      	bne.n	8084bd0 <_strtod_l+0x818>
 8084ca2:	e5d7      	b.n	8084854 <_strtod_l+0x49c>
 8084ca4:	f04f 33ff 	mov.w	r3, #4294967295
 8084ca8:	e7e8      	b.n	8084c7c <_strtod_l+0x8c4>
 8084caa:	460b      	mov	r3, r1
 8084cac:	e7e6      	b.n	8084c7c <_strtod_l+0x8c4>
 8084cae:	ea53 0308 	orrs.w	r3, r3, r8
 8084cb2:	f43f af7d 	beq.w	8084bb0 <_strtod_l+0x7f8>
 8084cb6:	b1e5      	cbz	r5, 8084cf2 <_strtod_l+0x93a>
 8084cb8:	9b09      	ldr	r3, [sp, #36]	; 0x24
 8084cba:	421d      	tst	r5, r3
 8084cbc:	d0ee      	beq.n	8084c9c <_strtod_l+0x8e4>
 8084cbe:	9b0d      	ldr	r3, [sp, #52]	; 0x34
 8084cc0:	4640      	mov	r0, r8
 8084cc2:	4649      	mov	r1, r9
 8084cc4:	9a05      	ldr	r2, [sp, #20]
 8084cc6:	b1c3      	cbz	r3, 8084cfa <_strtod_l+0x942>
 8084cc8:	f7ff fb55 	bl	8084376 <sulp>
 8084ccc:	4602      	mov	r2, r0
 8084cce:	460b      	mov	r3, r1
 8084cd0:	e9dd 010a 	ldrd	r0, r1, [sp, #40]	; 0x28
 8084cd4:	f7fe fcf4 	bl	80836c0 <__adddf3>
 8084cd8:	4680      	mov	r8, r0
 8084cda:	4689      	mov	r9, r1
 8084cdc:	e7de      	b.n	8084c9c <_strtod_l+0x8e4>
 8084cde:	4013      	ands	r3, r2
 8084ce0:	f5a3 1380 	sub.w	r3, r3, #1048576	; 0x100000
 8084ce4:	ea6f 5913 	mvn.w	r9, r3, lsr #20
 8084ce8:	f04f 38ff 	mov.w	r8, #4294967295
 8084cec:	ea6f 5909 	mvn.w	r9, r9, lsl #20
 8084cf0:	e7d4      	b.n	8084c9c <_strtod_l+0x8e4>
 8084cf2:	9b0f      	ldr	r3, [sp, #60]	; 0x3c
 8084cf4:	ea13 0f08 	tst.w	r3, r8
 8084cf8:	e7e0      	b.n	8084cbc <_strtod_l+0x904>
 8084cfa:	f7ff fb3c 	bl	8084376 <sulp>
 8084cfe:	4602      	mov	r2, r0
 8084d00:	460b      	mov	r3, r1
 8084d02:	e9dd 010a 	ldrd	r0, r1, [sp, #40]	; 0x28
 8084d06:	f7fe fcd9 	bl	80836bc <__aeabi_dsub>
 8084d0a:	2200      	movs	r2, #0
 8084d0c:	2300      	movs	r3, #0
 8084d0e:	4680      	mov	r8, r0
 8084d10:	4689      	mov	r9, r1
 8084d12:	f7ff f8f3 	bl	8083efc <__aeabi_dcmpeq>
 8084d16:	2800      	cmp	r0, #0
 8084d18:	d0c0      	beq.n	8084c9c <_strtod_l+0x8e4>
 8084d1a:	e602      	b.n	8084922 <_strtod_l+0x56a>
 8084d1c:	4658      	mov	r0, fp
 8084d1e:	9904      	ldr	r1, [sp, #16]
 8084d20:	f001 f941 	bl	8085fa6 <__ratio>
 8084d24:	2200      	movs	r2, #0
 8084d26:	f04f 4380 	mov.w	r3, #1073741824	; 0x40000000
 8084d2a:	4606      	mov	r6, r0
 8084d2c:	460f      	mov	r7, r1
 8084d2e:	f7ff f8f9 	bl	8083f24 <__aeabi_dcmple>
 8084d32:	2800      	cmp	r0, #0
 8084d34:	d075      	beq.n	8084e22 <_strtod_l+0xa6a>
 8084d36:	9b0d      	ldr	r3, [sp, #52]	; 0x34
 8084d38:	2b00      	cmp	r3, #0
 8084d3a:	d047      	beq.n	8084dcc <_strtod_l+0xa14>
 8084d3c:	2600      	movs	r6, #0
 8084d3e:	4f65      	ldr	r7, [pc, #404]	; (8084ed4 <_strtod_l+0xb1c>)
 8084d40:	4d64      	ldr	r5, [pc, #400]	; (8084ed4 <_strtod_l+0xb1c>)
 8084d42:	9b09      	ldr	r3, [sp, #36]	; 0x24
 8084d44:	f023 4300 	bic.w	r3, r3, #2147483648	; 0x80000000
 8084d48:	0d1b      	lsrs	r3, r3, #20
 8084d4a:	051b      	lsls	r3, r3, #20
 8084d4c:	930f      	str	r3, [sp, #60]	; 0x3c
 8084d4e:	9a0f      	ldr	r2, [sp, #60]	; 0x3c
 8084d50:	4b61      	ldr	r3, [pc, #388]	; (8084ed8 <_strtod_l+0xb20>)
 8084d52:	429a      	cmp	r2, r3
 8084d54:	f040 80c8 	bne.w	8084ee8 <_strtod_l+0xb30>
 8084d58:	e9dd 230a 	ldrd	r2, r3, [sp, #40]	; 0x28
 8084d5c:	e9cd 2314 	strd	r2, r3, [sp, #80]	; 0x50
 8084d60:	9b09      	ldr	r3, [sp, #36]	; 0x24
 8084d62:	4640      	mov	r0, r8
 8084d64:	f1a3 7954 	sub.w	r9, r3, #55574528	; 0x3500000
 8084d68:	4649      	mov	r1, r9
 8084d6a:	f001 f853 	bl	8085e14 <__ulp>
 8084d6e:	4602      	mov	r2, r0
 8084d70:	460b      	mov	r3, r1
 8084d72:	4630      	mov	r0, r6
 8084d74:	4639      	mov	r1, r7
 8084d76:	f7fe fe59 	bl	8083a2c <__aeabi_dmul>
 8084d7a:	4642      	mov	r2, r8
 8084d7c:	464b      	mov	r3, r9
 8084d7e:	f7fe fc9f 	bl	80836c0 <__adddf3>
 8084d82:	460b      	mov	r3, r1
 8084d84:	4951      	ldr	r1, [pc, #324]	; (8084ecc <_strtod_l+0xb14>)
 8084d86:	4a55      	ldr	r2, [pc, #340]	; (8084edc <_strtod_l+0xb24>)
 8084d88:	4019      	ands	r1, r3
 8084d8a:	4291      	cmp	r1, r2
 8084d8c:	4680      	mov	r8, r0
 8084d8e:	d95e      	bls.n	8084e4e <_strtod_l+0xa96>
 8084d90:	9b0b      	ldr	r3, [sp, #44]	; 0x2c
 8084d92:	f102 7254 	add.w	r2, r2, #55574528	; 0x3500000
 8084d96:	4293      	cmp	r3, r2
 8084d98:	d103      	bne.n	8084da2 <_strtod_l+0x9ea>
 8084d9a:	9b0a      	ldr	r3, [sp, #40]	; 0x28
 8084d9c:	3301      	adds	r3, #1
 8084d9e:	f43f ad4e 	beq.w	808483e <_strtod_l+0x486>
 8084da2:	f04f 38ff 	mov.w	r8, #4294967295
 8084da6:	f8df 9128 	ldr.w	r9, [pc, #296]	; 8084ed0 <_strtod_l+0xb18>
 8084daa:	4650      	mov	r0, sl
 8084dac:	991c      	ldr	r1, [sp, #112]	; 0x70
 8084dae:	f000 fd67 	bl	8085880 <_Bfree>
 8084db2:	4650      	mov	r0, sl
 8084db4:	9906      	ldr	r1, [sp, #24]
 8084db6:	f000 fd63 	bl	8085880 <_Bfree>
 8084dba:	4650      	mov	r0, sl
 8084dbc:	9904      	ldr	r1, [sp, #16]
 8084dbe:	f000 fd5f 	bl	8085880 <_Bfree>
 8084dc2:	4659      	mov	r1, fp
 8084dc4:	4650      	mov	r0, sl
 8084dc6:	f000 fd5b 	bl	8085880 <_Bfree>
 8084dca:	e61c      	b.n	8084a06 <_strtod_l+0x64e>
 8084dcc:	f1b8 0f00 	cmp.w	r8, #0
 8084dd0:	d119      	bne.n	8084e06 <_strtod_l+0xa4e>
 8084dd2:	9b09      	ldr	r3, [sp, #36]	; 0x24
 8084dd4:	f3c3 0313 	ubfx	r3, r3, #0, #20
 8084dd8:	b9e3      	cbnz	r3, 8084e14 <_strtod_l+0xa5c>
 8084dda:	2200      	movs	r2, #0
 8084ddc:	4630      	mov	r0, r6
 8084dde:	4639      	mov	r1, r7
 8084de0:	4b3c      	ldr	r3, [pc, #240]	; (8084ed4 <_strtod_l+0xb1c>)
 8084de2:	f7ff f895 	bl	8083f10 <__aeabi_dcmplt>
 8084de6:	b9c8      	cbnz	r0, 8084e1c <_strtod_l+0xa64>
 8084de8:	2200      	movs	r2, #0
 8084dea:	4630      	mov	r0, r6
 8084dec:	4639      	mov	r1, r7
 8084dee:	4b3c      	ldr	r3, [pc, #240]	; (8084ee0 <_strtod_l+0xb28>)
 8084df0:	f7fe fe1c 	bl	8083a2c <__aeabi_dmul>
 8084df4:	4604      	mov	r4, r0
 8084df6:	460d      	mov	r5, r1
 8084df8:	f105 4300 	add.w	r3, r5, #2147483648	; 0x80000000
 8084dfc:	9418      	str	r4, [sp, #96]	; 0x60
 8084dfe:	9319      	str	r3, [sp, #100]	; 0x64
 8084e00:	e9dd 6718 	ldrd	r6, r7, [sp, #96]	; 0x60
 8084e04:	e79d      	b.n	8084d42 <_strtod_l+0x98a>
 8084e06:	f1b8 0f01 	cmp.w	r8, #1
 8084e0a:	d103      	bne.n	8084e14 <_strtod_l+0xa5c>
 8084e0c:	9b09      	ldr	r3, [sp, #36]	; 0x24
 8084e0e:	2b00      	cmp	r3, #0
 8084e10:	f43f ad87 	beq.w	8084922 <_strtod_l+0x56a>
 8084e14:	2600      	movs	r6, #0
 8084e16:	2400      	movs	r4, #0
 8084e18:	4f32      	ldr	r7, [pc, #200]	; (8084ee4 <_strtod_l+0xb2c>)
 8084e1a:	e791      	b.n	8084d40 <_strtod_l+0x988>
 8084e1c:	9c0d      	ldr	r4, [sp, #52]	; 0x34
 8084e1e:	4d30      	ldr	r5, [pc, #192]	; (8084ee0 <_strtod_l+0xb28>)
 8084e20:	e7ea      	b.n	8084df8 <_strtod_l+0xa40>
 8084e22:	4b2f      	ldr	r3, [pc, #188]	; (8084ee0 <_strtod_l+0xb28>)
 8084e24:	2200      	movs	r2, #0
 8084e26:	4630      	mov	r0, r6
 8084e28:	4639      	mov	r1, r7
 8084e2a:	f7fe fdff 	bl	8083a2c <__aeabi_dmul>
 8084e2e:	9b0d      	ldr	r3, [sp, #52]	; 0x34
 8084e30:	4604      	mov	r4, r0
 8084e32:	460d      	mov	r5, r1
 8084e34:	b933      	cbnz	r3, 8084e44 <_strtod_l+0xa8c>
 8084e36:	f101 4300 	add.w	r3, r1, #2147483648	; 0x80000000
 8084e3a:	9010      	str	r0, [sp, #64]	; 0x40
 8084e3c:	9311      	str	r3, [sp, #68]	; 0x44
 8084e3e:	e9dd 6710 	ldrd	r6, r7, [sp, #64]	; 0x40
 8084e42:	e77e      	b.n	8084d42 <_strtod_l+0x98a>
 8084e44:	4602      	mov	r2, r0
 8084e46:	460b      	mov	r3, r1
 8084e48:	e9cd 2310 	strd	r2, r3, [sp, #64]	; 0x40
 8084e4c:	e7f7      	b.n	8084e3e <_strtod_l+0xa86>
 8084e4e:	f103 7954 	add.w	r9, r3, #55574528	; 0x3500000
 8084e52:	9b05      	ldr	r3, [sp, #20]
 8084e54:	2b00      	cmp	r3, #0
 8084e56:	d1a8      	bne.n	8084daa <_strtod_l+0x9f2>
 8084e58:	f029 4300 	bic.w	r3, r9, #2147483648	; 0x80000000
 8084e5c:	9a0f      	ldr	r2, [sp, #60]	; 0x3c
 8084e5e:	0d1b      	lsrs	r3, r3, #20
 8084e60:	051b      	lsls	r3, r3, #20
 8084e62:	429a      	cmp	r2, r3
 8084e64:	d1a1      	bne.n	8084daa <_strtod_l+0x9f2>
 8084e66:	4620      	mov	r0, r4
 8084e68:	4629      	mov	r1, r5
 8084e6a:	f001 f94b 	bl	8086104 <__aeabi_d2lz>
 8084e6e:	f7fe fdaf 	bl	80839d0 <__aeabi_l2d>
 8084e72:	4602      	mov	r2, r0
 8084e74:	460b      	mov	r3, r1
 8084e76:	4620      	mov	r0, r4
 8084e78:	4629      	mov	r1, r5
 8084e7a:	f7fe fc1f 	bl	80836bc <__aeabi_dsub>
 8084e7e:	9a0d      	ldr	r2, [sp, #52]	; 0x34
 8084e80:	f3c9 0313 	ubfx	r3, r9, #0, #20
 8084e84:	ea43 0308 	orr.w	r3, r3, r8
 8084e88:	4313      	orrs	r3, r2
 8084e8a:	4604      	mov	r4, r0
 8084e8c:	460d      	mov	r5, r1
 8084e8e:	d066      	beq.n	8084f5e <_strtod_l+0xba6>
 8084e90:	a309      	add	r3, pc, #36	; (adr r3, 8084eb8 <_strtod_l+0xb00>)
 8084e92:	e9d3 2300 	ldrd	r2, r3, [r3]
 8084e96:	f7ff f83b 	bl	8083f10 <__aeabi_dcmplt>
 8084e9a:	2800      	cmp	r0, #0
 8084e9c:	f47f acda 	bne.w	8084854 <_strtod_l+0x49c>
 8084ea0:	a307      	add	r3, pc, #28	; (adr r3, 8084ec0 <_strtod_l+0xb08>)
 8084ea2:	e9d3 2300 	ldrd	r2, r3, [r3]
 8084ea6:	4620      	mov	r0, r4
 8084ea8:	4629      	mov	r1, r5
 8084eaa:	f7ff f84f 	bl	8083f4c <__aeabi_dcmpgt>
 8084eae:	2800      	cmp	r0, #0
 8084eb0:	f43f af7b 	beq.w	8084daa <_strtod_l+0x9f2>
 8084eb4:	e4ce      	b.n	8084854 <_strtod_l+0x49c>
 8084eb6:	bf00      	nop
 8084eb8:	94a03595 	.word	0x94a03595
 8084ebc:	3fdfffff 	.word	0x3fdfffff
 8084ec0:	35afe535 	.word	0x35afe535
 8084ec4:	3fe00000 	.word	0x3fe00000
 8084ec8:	000fffff 	.word	0x000fffff
 8084ecc:	7ff00000 	.word	0x7ff00000
 8084ed0:	7fefffff 	.word	0x7fefffff
 8084ed4:	3ff00000 	.word	0x3ff00000
 8084ed8:	7fe00000 	.word	0x7fe00000
 8084edc:	7c9fffff 	.word	0x7c9fffff
 8084ee0:	3fe00000 	.word	0x3fe00000
 8084ee4:	bff00000 	.word	0xbff00000
 8084ee8:	9b05      	ldr	r3, [sp, #20]
 8084eea:	b313      	cbz	r3, 8084f32 <_strtod_l+0xb7a>
 8084eec:	9b0f      	ldr	r3, [sp, #60]	; 0x3c
 8084eee:	f1b3 6fd4 	cmp.w	r3, #111149056	; 0x6a00000
 8084ef2:	d81e      	bhi.n	8084f32 <_strtod_l+0xb7a>
 8084ef4:	a326      	add	r3, pc, #152	; (adr r3, 8084f90 <_strtod_l+0xbd8>)
 8084ef6:	e9d3 2300 	ldrd	r2, r3, [r3]
 8084efa:	4620      	mov	r0, r4
 8084efc:	4629      	mov	r1, r5
 8084efe:	f7ff f811 	bl	8083f24 <__aeabi_dcmple>
 8084f02:	b190      	cbz	r0, 8084f2a <_strtod_l+0xb72>
 8084f04:	4629      	mov	r1, r5
 8084f06:	4620      	mov	r0, r4
 8084f08:	f7ff f840 	bl	8083f8c <__aeabi_d2uiz>
 8084f0c:	2801      	cmp	r0, #1
 8084f0e:	bf38      	it	cc
 8084f10:	2001      	movcc	r0, #1
 8084f12:	f7fe fd11 	bl	8083938 <__aeabi_ui2d>
 8084f16:	9b0d      	ldr	r3, [sp, #52]	; 0x34
 8084f18:	4604      	mov	r4, r0
 8084f1a:	460d      	mov	r5, r1
 8084f1c:	b9d3      	cbnz	r3, 8084f54 <_strtod_l+0xb9c>
 8084f1e:	f101 4300 	add.w	r3, r1, #2147483648	; 0x80000000
 8084f22:	9012      	str	r0, [sp, #72]	; 0x48
 8084f24:	9313      	str	r3, [sp, #76]	; 0x4c
 8084f26:	e9dd 6712 	ldrd	r6, r7, [sp, #72]	; 0x48
 8084f2a:	9a0f      	ldr	r2, [sp, #60]	; 0x3c
 8084f2c:	f107 63d6 	add.w	r3, r7, #112197632	; 0x6b00000
 8084f30:	1a9f      	subs	r7, r3, r2
 8084f32:	e9dd 010a 	ldrd	r0, r1, [sp, #40]	; 0x28
 8084f36:	f000 ff6d 	bl	8085e14 <__ulp>
 8084f3a:	4602      	mov	r2, r0
 8084f3c:	460b      	mov	r3, r1
 8084f3e:	4630      	mov	r0, r6
 8084f40:	4639      	mov	r1, r7
 8084f42:	f7fe fd73 	bl	8083a2c <__aeabi_dmul>
 8084f46:	e9dd 230a 	ldrd	r2, r3, [sp, #40]	; 0x28
 8084f4a:	f7fe fbb9 	bl	80836c0 <__adddf3>
 8084f4e:	4680      	mov	r8, r0
 8084f50:	4689      	mov	r9, r1
 8084f52:	e77e      	b.n	8084e52 <_strtod_l+0xa9a>
 8084f54:	4602      	mov	r2, r0
 8084f56:	460b      	mov	r3, r1
 8084f58:	e9cd 2312 	strd	r2, r3, [sp, #72]	; 0x48
 8084f5c:	e7e3      	b.n	8084f26 <_strtod_l+0xb6e>
 8084f5e:	a30e      	add	r3, pc, #56	; (adr r3, 8084f98 <_strtod_l+0xbe0>)
 8084f60:	e9d3 2300 	ldrd	r2, r3, [r3]
 8084f64:	f7fe ffd4 	bl	8083f10 <__aeabi_dcmplt>
 8084f68:	e7a1      	b.n	8084eae <_strtod_l+0xaf6>
 8084f6a:	2300      	movs	r3, #0
 8084f6c:	930c      	str	r3, [sp, #48]	; 0x30
 8084f6e:	9b1b      	ldr	r3, [sp, #108]	; 0x6c
 8084f70:	9a17      	ldr	r2, [sp, #92]	; 0x5c
 8084f72:	6013      	str	r3, [r2, #0]
 8084f74:	f7ff ba65 	b.w	8084442 <_strtod_l+0x8a>
 8084f78:	2b65      	cmp	r3, #101	; 0x65
 8084f7a:	f43f ab5c 	beq.w	8084636 <_strtod_l+0x27e>
 8084f7e:	2b45      	cmp	r3, #69	; 0x45
 8084f80:	f43f ab59 	beq.w	8084636 <_strtod_l+0x27e>
 8084f84:	2201      	movs	r2, #1
 8084f86:	f7ff bb8d 	b.w	80846a4 <_strtod_l+0x2ec>
 8084f8a:	bf00      	nop
 8084f8c:	f3af 8000 	nop.w
 8084f90:	ffc00000 	.word	0xffc00000
 8084f94:	41dfffff 	.word	0x41dfffff
 8084f98:	94a03595 	.word	0x94a03595
 8084f9c:	3fcfffff 	.word	0x3fcfffff

08084fa0 <strtof>:
 8084fa0:	e92d 41f0 	stmdb	sp!, {r4, r5, r6, r7, r8, lr}
 8084fa4:	4f22      	ldr	r7, [pc, #136]	; (8085030 <strtof+0x90>)
 8084fa6:	460a      	mov	r2, r1
 8084fa8:	4b22      	ldr	r3, [pc, #136]	; (8085034 <strtof+0x94>)
 8084faa:	4601      	mov	r1, r0
 8084fac:	6838      	ldr	r0, [r7, #0]
 8084fae:	f7ff fa03 	bl	80843b8 <_strtod_l>
 8084fb2:	4602      	mov	r2, r0
 8084fb4:	460b      	mov	r3, r1
 8084fb6:	4606      	mov	r6, r0
 8084fb8:	460c      	mov	r4, r1
 8084fba:	f7fe ffd1 	bl	8083f60 <__aeabi_dcmpun>
 8084fbe:	b168      	cbz	r0, 8084fdc <strtof+0x3c>
 8084fc0:	2c00      	cmp	r4, #0
 8084fc2:	481d      	ldr	r0, [pc, #116]	; (8085038 <strtof+0x98>)
 8084fc4:	da06      	bge.n	8084fd4 <strtof+0x34>
 8084fc6:	f001 f875 	bl	80860b4 <nanf>
 8084fca:	f100 4500 	add.w	r5, r0, #2147483648	; 0x80000000
 8084fce:	4628      	mov	r0, r5
 8084fd0:	e8bd 81f0 	ldmia.w	sp!, {r4, r5, r6, r7, r8, pc}
 8084fd4:	e8bd 41f0 	ldmia.w	sp!, {r4, r5, r6, r7, r8, lr}
 8084fd8:	f001 b86c 	b.w	80860b4 <nanf>
 8084fdc:	4621      	mov	r1, r4
 8084fde:	4630      	mov	r0, r6
 8084fe0:	f7fe fff4 	bl	8083fcc <__aeabi_d2f>
 8084fe4:	f020 4800 	bic.w	r8, r0, #2147483648	; 0x80000000
 8084fe8:	4605      	mov	r5, r0
 8084fea:	4914      	ldr	r1, [pc, #80]	; (808503c <strtof+0x9c>)
 8084fec:	4640      	mov	r0, r8
 8084fee:	f001 f873 	bl	80860d8 <__aeabi_fcmpun>
 8084ff2:	2800      	cmp	r0, #0
 8084ff4:	d1eb      	bne.n	8084fce <strtof+0x2e>
 8084ff6:	4640      	mov	r0, r8
 8084ff8:	4910      	ldr	r1, [pc, #64]	; (808503c <strtof+0x9c>)
 8084ffa:	f7ff f88f 	bl	808411c <__aeabi_fcmple>
 8084ffe:	2800      	cmp	r0, #0
 8085000:	d1e5      	bne.n	8084fce <strtof+0x2e>
 8085002:	f024 4400 	bic.w	r4, r4, #2147483648	; 0x80000000
 8085006:	f04f 32ff 	mov.w	r2, #4294967295
 808500a:	4630      	mov	r0, r6
 808500c:	4621      	mov	r1, r4
 808500e:	4b0c      	ldr	r3, [pc, #48]	; (8085040 <strtof+0xa0>)
 8085010:	f7fe ffa6 	bl	8083f60 <__aeabi_dcmpun>
 8085014:	b940      	cbnz	r0, 8085028 <strtof+0x88>
 8085016:	f04f 32ff 	mov.w	r2, #4294967295
 808501a:	4630      	mov	r0, r6
 808501c:	4621      	mov	r1, r4
 808501e:	4b08      	ldr	r3, [pc, #32]	; (8085040 <strtof+0xa0>)
 8085020:	f7fe ff80 	bl	8083f24 <__aeabi_dcmple>
 8085024:	2800      	cmp	r0, #0
 8085026:	d0d2      	beq.n	8084fce <strtof+0x2e>
 8085028:	2222      	movs	r2, #34	; 0x22
 808502a:	683b      	ldr	r3, [r7, #0]
 808502c:	601a      	str	r2, [r3, #0]
 808502e:	e7ce      	b.n	8084fce <strtof+0x2e>
 8085030:	20000014 	.word	0x20000014
 8085034:	2000007c 	.word	0x2000007c
 8085038:	08086459 	.word	0x08086459
 808503c:	7f7fffff 	.word	0x7f7fffff
 8085040:	7fefffff 	.word	0x7fefffff

08085044 <_strtol_l.isra.0>:
 8085044:	e92d 47f0 	stmdb	sp!, {r4, r5, r6, r7, r8, r9, sl, lr}
 8085048:	468c      	mov	ip, r1
 808504a:	4686      	mov	lr, r0
 808504c:	4e39      	ldr	r6, [pc, #228]	; (8085134 <_strtol_l.isra.0+0xf0>)
 808504e:	4660      	mov	r0, ip
 8085050:	f81c 4b01 	ldrb.w	r4, [ip], #1
 8085054:	5da5      	ldrb	r5, [r4, r6]
 8085056:	f015 0508 	ands.w	r5, r5, #8
 808505a:	d1f8      	bne.n	808504e <_strtol_l.isra.0+0xa>
 808505c:	2c2d      	cmp	r4, #45	; 0x2d
 808505e:	d133      	bne.n	80850c8 <_strtol_l.isra.0+0x84>
 8085060:	f04f 0801 	mov.w	r8, #1
 8085064:	f89c 4000 	ldrb.w	r4, [ip]
 8085068:	f100 0c02 	add.w	ip, r0, #2
 808506c:	2b00      	cmp	r3, #0
 808506e:	d05c      	beq.n	808512a <_strtol_l.isra.0+0xe6>
 8085070:	2b10      	cmp	r3, #16
 8085072:	d10c      	bne.n	808508e <_strtol_l.isra.0+0x4a>
 8085074:	2c30      	cmp	r4, #48	; 0x30
 8085076:	d10a      	bne.n	808508e <_strtol_l.isra.0+0x4a>
 8085078:	f89c 0000 	ldrb.w	r0, [ip]
 808507c:	f000 00df 	and.w	r0, r0, #223	; 0xdf
 8085080:	2858      	cmp	r0, #88	; 0x58
 8085082:	d14d      	bne.n	8085120 <_strtol_l.isra.0+0xdc>
 8085084:	2310      	movs	r3, #16
 8085086:	f89c 4001 	ldrb.w	r4, [ip, #1]
 808508a:	f10c 0c02 	add.w	ip, ip, #2
 808508e:	2600      	movs	r6, #0
 8085090:	f108 4700 	add.w	r7, r8, #2147483648	; 0x80000000
 8085094:	3f01      	subs	r7, #1
 8085096:	fbb7 f9f3 	udiv	r9, r7, r3
 808509a:	4630      	mov	r0, r6
 808509c:	fb03 7a19 	mls	sl, r3, r9, r7
 80850a0:	f1a4 0530 	sub.w	r5, r4, #48	; 0x30
 80850a4:	2d09      	cmp	r5, #9
 80850a6:	d818      	bhi.n	80850da <_strtol_l.isra.0+0x96>
 80850a8:	462c      	mov	r4, r5
 80850aa:	42a3      	cmp	r3, r4
 80850ac:	dd24      	ble.n	80850f8 <_strtol_l.isra.0+0xb4>
 80850ae:	1c75      	adds	r5, r6, #1
 80850b0:	d007      	beq.n	80850c2 <_strtol_l.isra.0+0x7e>
 80850b2:	4581      	cmp	r9, r0
 80850b4:	d31d      	bcc.n	80850f2 <_strtol_l.isra.0+0xae>
 80850b6:	d101      	bne.n	80850bc <_strtol_l.isra.0+0x78>
 80850b8:	45a2      	cmp	sl, r4
 80850ba:	db1a      	blt.n	80850f2 <_strtol_l.isra.0+0xae>
 80850bc:	2601      	movs	r6, #1
 80850be:	fb00 4003 	mla	r0, r0, r3, r4
 80850c2:	f81c 4b01 	ldrb.w	r4, [ip], #1
 80850c6:	e7eb      	b.n	80850a0 <_strtol_l.isra.0+0x5c>
 80850c8:	2c2b      	cmp	r4, #43	; 0x2b
 80850ca:	bf08      	it	eq
 80850cc:	f89c 4000 	ldrbeq.w	r4, [ip]
 80850d0:	46a8      	mov	r8, r5
 80850d2:	bf08      	it	eq
 80850d4:	f100 0c02 	addeq.w	ip, r0, #2
 80850d8:	e7c8      	b.n	808506c <_strtol_l.isra.0+0x28>
 80850da:	f1a4 0541 	sub.w	r5, r4, #65	; 0x41
 80850de:	2d19      	cmp	r5, #25
 80850e0:	d801      	bhi.n	80850e6 <_strtol_l.isra.0+0xa2>
 80850e2:	3c37      	subs	r4, #55	; 0x37
 80850e4:	e7e1      	b.n	80850aa <_strtol_l.isra.0+0x66>
 80850e6:	f1a4 0561 	sub.w	r5, r4, #97	; 0x61
 80850ea:	2d19      	cmp	r5, #25
 80850ec:	d804      	bhi.n	80850f8 <_strtol_l.isra.0+0xb4>
 80850ee:	3c57      	subs	r4, #87	; 0x57
 80850f0:	e7db      	b.n	80850aa <_strtol_l.isra.0+0x66>
 80850f2:	f04f 36ff 	mov.w	r6, #4294967295
 80850f6:	e7e4      	b.n	80850c2 <_strtol_l.isra.0+0x7e>
 80850f8:	1c73      	adds	r3, r6, #1
 80850fa:	d106      	bne.n	808510a <_strtol_l.isra.0+0xc6>
 80850fc:	2322      	movs	r3, #34	; 0x22
 80850fe:	4638      	mov	r0, r7
 8085100:	f8ce 3000 	str.w	r3, [lr]
 8085104:	b942      	cbnz	r2, 8085118 <_strtol_l.isra.0+0xd4>
 8085106:	e8bd 87f0 	ldmia.w	sp!, {r4, r5, r6, r7, r8, r9, sl, pc}
 808510a:	f1b8 0f00 	cmp.w	r8, #0
 808510e:	d000      	beq.n	8085112 <_strtol_l.isra.0+0xce>
 8085110:	4240      	negs	r0, r0
 8085112:	2a00      	cmp	r2, #0
 8085114:	d0f7      	beq.n	8085106 <_strtol_l.isra.0+0xc2>
 8085116:	b10e      	cbz	r6, 808511c <_strtol_l.isra.0+0xd8>
 8085118:	f10c 31ff 	add.w	r1, ip, #4294967295
 808511c:	6011      	str	r1, [r2, #0]
 808511e:	e7f2      	b.n	8085106 <_strtol_l.isra.0+0xc2>
 8085120:	2430      	movs	r4, #48	; 0x30
 8085122:	2b00      	cmp	r3, #0
 8085124:	d1b3      	bne.n	808508e <_strtol_l.isra.0+0x4a>
 8085126:	2308      	movs	r3, #8
 8085128:	e7b1      	b.n	808508e <_strtol_l.isra.0+0x4a>
 808512a:	2c30      	cmp	r4, #48	; 0x30
 808512c:	d0a4      	beq.n	8085078 <_strtol_l.isra.0+0x34>
 808512e:	230a      	movs	r3, #10
 8085130:	e7ad      	b.n	808508e <_strtol_l.isra.0+0x4a>
 8085132:	bf00      	nop
 8085134:	08086699 	.word	0x08086699

08085138 <strtol>:
 8085138:	4613      	mov	r3, r2
 808513a:	460a      	mov	r2, r1
 808513c:	4601      	mov	r1, r0
 808513e:	4802      	ldr	r0, [pc, #8]	; (8085148 <strtol+0x10>)
 8085140:	6800      	ldr	r0, [r0, #0]
 8085142:	f7ff bf7f 	b.w	8085044 <_strtol_l.isra.0>
 8085146:	bf00      	nop
 8085148:	20000014 	.word	0x20000014

0808514c <rshift>:
 808514c:	6903      	ldr	r3, [r0, #16]
 808514e:	e92d 43f0 	stmdb	sp!, {r4, r5, r6, r7, r8, r9, lr}
 8085152:	ebb3 1f61 	cmp.w	r3, r1, asr #5
 8085156:	f100 0414 	add.w	r4, r0, #20
 808515a:	ea4f 1261 	mov.w	r2, r1, asr #5
 808515e:	dd46      	ble.n	80851ee <rshift+0xa2>
 8085160:	f011 011f 	ands.w	r1, r1, #31
 8085164:	eb04 0683 	add.w	r6, r4, r3, lsl #2
 8085168:	eb04 0582 	add.w	r5, r4, r2, lsl #2
 808516c:	d10c      	bne.n	8085188 <rshift+0x3c>
 808516e:	4629      	mov	r1, r5
 8085170:	f100 0710 	add.w	r7, r0, #16
 8085174:	42b1      	cmp	r1, r6
 8085176:	d335      	bcc.n	80851e4 <rshift+0x98>
 8085178:	1a9b      	subs	r3, r3, r2
 808517a:	009b      	lsls	r3, r3, #2
 808517c:	1eea      	subs	r2, r5, #3
 808517e:	4296      	cmp	r6, r2
 8085180:	bf38      	it	cc
 8085182:	2300      	movcc	r3, #0
 8085184:	4423      	add	r3, r4
 8085186:	e015      	b.n	80851b4 <rshift+0x68>
 8085188:	46a1      	mov	r9, r4
 808518a:	f854 7022 	ldr.w	r7, [r4, r2, lsl #2]
 808518e:	f1c1 0820 	rsb	r8, r1, #32
 8085192:	40cf      	lsrs	r7, r1
 8085194:	f105 0e04 	add.w	lr, r5, #4
 8085198:	4576      	cmp	r6, lr
 808519a:	46f4      	mov	ip, lr
 808519c:	d816      	bhi.n	80851cc <rshift+0x80>
 808519e:	1a9b      	subs	r3, r3, r2
 80851a0:	009a      	lsls	r2, r3, #2
 80851a2:	3a04      	subs	r2, #4
 80851a4:	3501      	adds	r5, #1
 80851a6:	42ae      	cmp	r6, r5
 80851a8:	bf38      	it	cc
 80851aa:	2200      	movcc	r2, #0
 80851ac:	18a3      	adds	r3, r4, r2
 80851ae:	50a7      	str	r7, [r4, r2]
 80851b0:	b107      	cbz	r7, 80851b4 <rshift+0x68>
 80851b2:	3304      	adds	r3, #4
 80851b4:	42a3      	cmp	r3, r4
 80851b6:	eba3 0204 	sub.w	r2, r3, r4
 80851ba:	bf08      	it	eq
 80851bc:	2300      	moveq	r3, #0
 80851be:	ea4f 02a2 	mov.w	r2, r2, asr #2
 80851c2:	6102      	str	r2, [r0, #16]
 80851c4:	bf08      	it	eq
 80851c6:	6143      	streq	r3, [r0, #20]
 80851c8:	e8bd 83f0 	ldmia.w	sp!, {r4, r5, r6, r7, r8, r9, pc}
 80851cc:	f8dc c000 	ldr.w	ip, [ip]
 80851d0:	fa0c fc08 	lsl.w	ip, ip, r8
 80851d4:	ea4c 0707 	orr.w	r7, ip, r7
 80851d8:	f849 7b04 	str.w	r7, [r9], #4
 80851dc:	f85e 7b04 	ldr.w	r7, [lr], #4
 80851e0:	40cf      	lsrs	r7, r1
 80851e2:	e7d9      	b.n	8085198 <rshift+0x4c>
 80851e4:	f851 cb04 	ldr.w	ip, [r1], #4
 80851e8:	f847 cf04 	str.w	ip, [r7, #4]!
 80851ec:	e7c2      	b.n	8085174 <rshift+0x28>
 80851ee:	4623      	mov	r3, r4
 80851f0:	e7e0      	b.n	80851b4 <rshift+0x68>

080851f2 <__hexdig_fun>:
 80851f2:	f1a0 0330 	sub.w	r3, r0, #48	; 0x30
 80851f6:	2b09      	cmp	r3, #9
 80851f8:	d802      	bhi.n	8085200 <__hexdig_fun+0xe>
 80851fa:	3820      	subs	r0, #32
 80851fc:	b2c0      	uxtb	r0, r0
 80851fe:	4770      	bx	lr
 8085200:	f1a0 0361 	sub.w	r3, r0, #97	; 0x61
 8085204:	2b05      	cmp	r3, #5
 8085206:	d801      	bhi.n	808520c <__hexdig_fun+0x1a>
 8085208:	3847      	subs	r0, #71	; 0x47
 808520a:	e7f7      	b.n	80851fc <__hexdig_fun+0xa>
 808520c:	f1a0 0341 	sub.w	r3, r0, #65	; 0x41
 8085210:	2b05      	cmp	r3, #5
 8085212:	d801      	bhi.n	8085218 <__hexdig_fun+0x26>
 8085214:	3827      	subs	r0, #39	; 0x27
 8085216:	e7f1      	b.n	80851fc <__hexdig_fun+0xa>
 8085218:	2000      	movs	r0, #0
 808521a:	4770      	bx	lr

0808521c <__gethex>:
 808521c:	e92d 4ff0 	stmdb	sp!, {r4, r5, r6, r7, r8, r9, sl, fp, lr}
 8085220:	b08b      	sub	sp, #44	; 0x2c
 8085222:	9306      	str	r3, [sp, #24]
 8085224:	4bba      	ldr	r3, [pc, #744]	; (8085510 <__gethex+0x2f4>)
 8085226:	9002      	str	r0, [sp, #8]
 8085228:	681b      	ldr	r3, [r3, #0]
 808522a:	468b      	mov	fp, r1
 808522c:	4618      	mov	r0, r3
 808522e:	4690      	mov	r8, r2
 8085230:	9303      	str	r3, [sp, #12]
 8085232:	f7ff f85c 	bl	80842ee <strlen>
 8085236:	4682      	mov	sl, r0
 8085238:	9b03      	ldr	r3, [sp, #12]
 808523a:	f8db 2000 	ldr.w	r2, [fp]
 808523e:	4403      	add	r3, r0
 8085240:	f813 3c01 	ldrb.w	r3, [r3, #-1]
 8085244:	9307      	str	r3, [sp, #28]
 8085246:	1c93      	adds	r3, r2, #2
 8085248:	f1c2 22ff 	rsb	r2, r2, #4278255360	; 0xff00ff00
 808524c:	f502 027f 	add.w	r2, r2, #16711680	; 0xff0000
 8085250:	32fe      	adds	r2, #254	; 0xfe
 8085252:	18d1      	adds	r1, r2, r3
 8085254:	461f      	mov	r7, r3
 8085256:	f813 0b01 	ldrb.w	r0, [r3], #1
 808525a:	9101      	str	r1, [sp, #4]
 808525c:	2830      	cmp	r0, #48	; 0x30
 808525e:	d0f8      	beq.n	8085252 <__gethex+0x36>
 8085260:	f7ff ffc7 	bl	80851f2 <__hexdig_fun>
 8085264:	4604      	mov	r4, r0
 8085266:	2800      	cmp	r0, #0
 8085268:	d13a      	bne.n	80852e0 <__gethex+0xc4>
 808526a:	4652      	mov	r2, sl
 808526c:	4638      	mov	r0, r7
 808526e:	9903      	ldr	r1, [sp, #12]
 8085270:	f7ff f845 	bl	80842fe <strncmp>
 8085274:	4605      	mov	r5, r0
 8085276:	2800      	cmp	r0, #0
 8085278:	d166      	bne.n	8085348 <__gethex+0x12c>
 808527a:	f817 000a 	ldrb.w	r0, [r7, sl]
 808527e:	eb07 060a 	add.w	r6, r7, sl
 8085282:	f7ff ffb6 	bl	80851f2 <__hexdig_fun>
 8085286:	2800      	cmp	r0, #0
 8085288:	d060      	beq.n	808534c <__gethex+0x130>
 808528a:	4633      	mov	r3, r6
 808528c:	7818      	ldrb	r0, [r3, #0]
 808528e:	461f      	mov	r7, r3
 8085290:	2830      	cmp	r0, #48	; 0x30
 8085292:	f103 0301 	add.w	r3, r3, #1
 8085296:	d0f9      	beq.n	808528c <__gethex+0x70>
 8085298:	f7ff ffab 	bl	80851f2 <__hexdig_fun>
 808529c:	2301      	movs	r3, #1
 808529e:	fab0 f480 	clz	r4, r0
 80852a2:	4635      	mov	r5, r6
 80852a4:	0964      	lsrs	r4, r4, #5
 80852a6:	9301      	str	r3, [sp, #4]
 80852a8:	463a      	mov	r2, r7
 80852aa:	4616      	mov	r6, r2
 80852ac:	7830      	ldrb	r0, [r6, #0]
 80852ae:	3201      	adds	r2, #1
 80852b0:	f7ff ff9f 	bl	80851f2 <__hexdig_fun>
 80852b4:	2800      	cmp	r0, #0
 80852b6:	d1f8      	bne.n	80852aa <__gethex+0x8e>
 80852b8:	4652      	mov	r2, sl
 80852ba:	4630      	mov	r0, r6
 80852bc:	9903      	ldr	r1, [sp, #12]
 80852be:	f7ff f81e 	bl	80842fe <strncmp>
 80852c2:	b980      	cbnz	r0, 80852e6 <__gethex+0xca>
 80852c4:	b94d      	cbnz	r5, 80852da <__gethex+0xbe>
 80852c6:	eb06 050a 	add.w	r5, r6, sl
 80852ca:	462a      	mov	r2, r5
 80852cc:	4616      	mov	r6, r2
 80852ce:	7830      	ldrb	r0, [r6, #0]
 80852d0:	3201      	adds	r2, #1
 80852d2:	f7ff ff8e 	bl	80851f2 <__hexdig_fun>
 80852d6:	2800      	cmp	r0, #0
 80852d8:	d1f8      	bne.n	80852cc <__gethex+0xb0>
 80852da:	1bad      	subs	r5, r5, r6
 80852dc:	00ad      	lsls	r5, r5, #2
 80852de:	e004      	b.n	80852ea <__gethex+0xce>
 80852e0:	2400      	movs	r4, #0
 80852e2:	4625      	mov	r5, r4
 80852e4:	e7e0      	b.n	80852a8 <__gethex+0x8c>
 80852e6:	2d00      	cmp	r5, #0
 80852e8:	d1f7      	bne.n	80852da <__gethex+0xbe>
 80852ea:	7833      	ldrb	r3, [r6, #0]
 80852ec:	f003 03df 	and.w	r3, r3, #223	; 0xdf
 80852f0:	2b50      	cmp	r3, #80	; 0x50
 80852f2:	d139      	bne.n	8085368 <__gethex+0x14c>
 80852f4:	7873      	ldrb	r3, [r6, #1]
 80852f6:	2b2b      	cmp	r3, #43	; 0x2b
 80852f8:	d02a      	beq.n	8085350 <__gethex+0x134>
 80852fa:	2b2d      	cmp	r3, #45	; 0x2d
 80852fc:	d02c      	beq.n	8085358 <__gethex+0x13c>
 80852fe:	f04f 0900 	mov.w	r9, #0
 8085302:	1c71      	adds	r1, r6, #1
 8085304:	7808      	ldrb	r0, [r1, #0]
 8085306:	f7ff ff74 	bl	80851f2 <__hexdig_fun>
 808530a:	1e43      	subs	r3, r0, #1
 808530c:	b2db      	uxtb	r3, r3
 808530e:	2b18      	cmp	r3, #24
 8085310:	d82a      	bhi.n	8085368 <__gethex+0x14c>
 8085312:	f1a0 0210 	sub.w	r2, r0, #16
 8085316:	f811 0f01 	ldrb.w	r0, [r1, #1]!
 808531a:	f7ff ff6a 	bl	80851f2 <__hexdig_fun>
 808531e:	1e43      	subs	r3, r0, #1
 8085320:	b2db      	uxtb	r3, r3
 8085322:	2b18      	cmp	r3, #24
 8085324:	d91b      	bls.n	808535e <__gethex+0x142>
 8085326:	f1b9 0f00 	cmp.w	r9, #0
 808532a:	d000      	beq.n	808532e <__gethex+0x112>
 808532c:	4252      	negs	r2, r2
 808532e:	4415      	add	r5, r2
 8085330:	f8cb 1000 	str.w	r1, [fp]
 8085334:	b1d4      	cbz	r4, 808536c <__gethex+0x150>
 8085336:	9b01      	ldr	r3, [sp, #4]
 8085338:	2b00      	cmp	r3, #0
 808533a:	bf14      	ite	ne
 808533c:	2700      	movne	r7, #0
 808533e:	2706      	moveq	r7, #6
 8085340:	4638      	mov	r0, r7
 8085342:	b00b      	add	sp, #44	; 0x2c
 8085344:	e8bd 8ff0 	ldmia.w	sp!, {r4, r5, r6, r7, r8, r9, sl, fp, pc}
 8085348:	463e      	mov	r6, r7
 808534a:	4625      	mov	r5, r4
 808534c:	2401      	movs	r4, #1
 808534e:	e7cc      	b.n	80852ea <__gethex+0xce>
 8085350:	f04f 0900 	mov.w	r9, #0
 8085354:	1cb1      	adds	r1, r6, #2
 8085356:	e7d5      	b.n	8085304 <__gethex+0xe8>
 8085358:	f04f 0901 	mov.w	r9, #1
 808535c:	e7fa      	b.n	8085354 <__gethex+0x138>
 808535e:	230a      	movs	r3, #10
 8085360:	fb03 0202 	mla	r2, r3, r2, r0
 8085364:	3a10      	subs	r2, #16
 8085366:	e7d6      	b.n	8085316 <__gethex+0xfa>
 8085368:	4631      	mov	r1, r6
 808536a:	e7e1      	b.n	8085330 <__gethex+0x114>
 808536c:	4621      	mov	r1, r4
 808536e:	1bf3      	subs	r3, r6, r7
 8085370:	3b01      	subs	r3, #1
 8085372:	2b07      	cmp	r3, #7
 8085374:	dc50      	bgt.n	8085418 <__gethex+0x1fc>
 8085376:	9802      	ldr	r0, [sp, #8]
 8085378:	f000 fa4e 	bl	8085818 <_Balloc>
 808537c:	f04f 0b00 	mov.w	fp, #0
 8085380:	4604      	mov	r4, r0
 8085382:	f100 0914 	add.w	r9, r0, #20
 8085386:	f1ca 0301 	rsb	r3, sl, #1
 808538a:	f8cd 9010 	str.w	r9, [sp, #16]
 808538e:	f8cd b004 	str.w	fp, [sp, #4]
 8085392:	9308      	str	r3, [sp, #32]
 8085394:	42b7      	cmp	r7, r6
 8085396:	d342      	bcc.n	808541e <__gethex+0x202>
 8085398:	9f04      	ldr	r7, [sp, #16]
 808539a:	9b01      	ldr	r3, [sp, #4]
 808539c:	f847 3b04 	str.w	r3, [r7], #4
 80853a0:	eba7 0709 	sub.w	r7, r7, r9
 80853a4:	10bf      	asrs	r7, r7, #2
 80853a6:	6127      	str	r7, [r4, #16]
 80853a8:	4618      	mov	r0, r3
 80853aa:	f000 fafc 	bl	80859a6 <__hi0bits>
 80853ae:	017f      	lsls	r7, r7, #5
 80853b0:	f8d8 6000 	ldr.w	r6, [r8]
 80853b4:	1a3f      	subs	r7, r7, r0
 80853b6:	42b7      	cmp	r7, r6
 80853b8:	dd65      	ble.n	8085486 <__gethex+0x26a>
 80853ba:	1bbf      	subs	r7, r7, r6
 80853bc:	4639      	mov	r1, r7
 80853be:	4620      	mov	r0, r4
 80853c0:	f000 fe42 	bl	8086048 <__any_on>
 80853c4:	4682      	mov	sl, r0
 80853c6:	b1a8      	cbz	r0, 80853f4 <__gethex+0x1d8>
 80853c8:	f04f 0a01 	mov.w	sl, #1
 80853cc:	1e7b      	subs	r3, r7, #1
 80853ce:	1159      	asrs	r1, r3, #5
 80853d0:	f859 1021 	ldr.w	r1, [r9, r1, lsl #2]
 80853d4:	f003 021f 	and.w	r2, r3, #31
 80853d8:	fa0a f202 	lsl.w	r2, sl, r2
 80853dc:	420a      	tst	r2, r1
 80853de:	d009      	beq.n	80853f4 <__gethex+0x1d8>
 80853e0:	4553      	cmp	r3, sl
 80853e2:	dd05      	ble.n	80853f0 <__gethex+0x1d4>
 80853e4:	4620      	mov	r0, r4
 80853e6:	1eb9      	subs	r1, r7, #2
 80853e8:	f000 fe2e 	bl	8086048 <__any_on>
 80853ec:	2800      	cmp	r0, #0
 80853ee:	d147      	bne.n	8085480 <__gethex+0x264>
 80853f0:	f04f 0a02 	mov.w	sl, #2
 80853f4:	4639      	mov	r1, r7
 80853f6:	4620      	mov	r0, r4
 80853f8:	f7ff fea8 	bl	808514c <rshift>
 80853fc:	443d      	add	r5, r7
 80853fe:	f8d8 3008 	ldr.w	r3, [r8, #8]
 8085402:	42ab      	cmp	r3, r5
 8085404:	da4d      	bge.n	80854a2 <__gethex+0x286>
 8085406:	4621      	mov	r1, r4
 8085408:	9802      	ldr	r0, [sp, #8]
 808540a:	f000 fa39 	bl	8085880 <_Bfree>
 808540e:	2300      	movs	r3, #0
 8085410:	9a14      	ldr	r2, [sp, #80]	; 0x50
 8085412:	27a3      	movs	r7, #163	; 0xa3
 8085414:	6013      	str	r3, [r2, #0]
 8085416:	e793      	b.n	8085340 <__gethex+0x124>
 8085418:	3101      	adds	r1, #1
 808541a:	105b      	asrs	r3, r3, #1
 808541c:	e7a9      	b.n	8085372 <__gethex+0x156>
 808541e:	1e73      	subs	r3, r6, #1
 8085420:	9a07      	ldr	r2, [sp, #28]
 8085422:	9305      	str	r3, [sp, #20]
 8085424:	f816 3c01 	ldrb.w	r3, [r6, #-1]
 8085428:	4293      	cmp	r3, r2
 808542a:	d019      	beq.n	8085460 <__gethex+0x244>
 808542c:	f1bb 0f20 	cmp.w	fp, #32
 8085430:	d107      	bne.n	8085442 <__gethex+0x226>
 8085432:	9b04      	ldr	r3, [sp, #16]
 8085434:	9a01      	ldr	r2, [sp, #4]
 8085436:	f843 2b04 	str.w	r2, [r3], #4
 808543a:	9304      	str	r3, [sp, #16]
 808543c:	2300      	movs	r3, #0
 808543e:	469b      	mov	fp, r3
 8085440:	9301      	str	r3, [sp, #4]
 8085442:	f816 0c01 	ldrb.w	r0, [r6, #-1]
 8085446:	f7ff fed4 	bl	80851f2 <__hexdig_fun>
 808544a:	9b01      	ldr	r3, [sp, #4]
 808544c:	f000 000f 	and.w	r0, r0, #15
 8085450:	fa00 f00b 	lsl.w	r0, r0, fp
 8085454:	4303      	orrs	r3, r0
 8085456:	9301      	str	r3, [sp, #4]
 8085458:	f10b 0b04 	add.w	fp, fp, #4
 808545c:	9b05      	ldr	r3, [sp, #20]
 808545e:	e00d      	b.n	808547c <__gethex+0x260>
 8085460:	9b05      	ldr	r3, [sp, #20]
 8085462:	9a08      	ldr	r2, [sp, #32]
 8085464:	4413      	add	r3, r2
 8085466:	42bb      	cmp	r3, r7
 8085468:	d3e0      	bcc.n	808542c <__gethex+0x210>
 808546a:	4618      	mov	r0, r3
 808546c:	4652      	mov	r2, sl
 808546e:	9903      	ldr	r1, [sp, #12]
 8085470:	9309      	str	r3, [sp, #36]	; 0x24
 8085472:	f7fe ff44 	bl	80842fe <strncmp>
 8085476:	9b09      	ldr	r3, [sp, #36]	; 0x24
 8085478:	2800      	cmp	r0, #0
 808547a:	d1d7      	bne.n	808542c <__gethex+0x210>
 808547c:	461e      	mov	r6, r3
 808547e:	e789      	b.n	8085394 <__gethex+0x178>
 8085480:	f04f 0a03 	mov.w	sl, #3
 8085484:	e7b6      	b.n	80853f4 <__gethex+0x1d8>
 8085486:	da09      	bge.n	808549c <__gethex+0x280>
 8085488:	1bf7      	subs	r7, r6, r7
 808548a:	4621      	mov	r1, r4
 808548c:	463a      	mov	r2, r7
 808548e:	9802      	ldr	r0, [sp, #8]
 8085490:	f000 fbca 	bl	8085c28 <__lshift>
 8085494:	4604      	mov	r4, r0
 8085496:	1bed      	subs	r5, r5, r7
 8085498:	f100 0914 	add.w	r9, r0, #20
 808549c:	f04f 0a00 	mov.w	sl, #0
 80854a0:	e7ad      	b.n	80853fe <__gethex+0x1e2>
 80854a2:	f8d8 0004 	ldr.w	r0, [r8, #4]
 80854a6:	42a8      	cmp	r0, r5
 80854a8:	dd6e      	ble.n	8085588 <__gethex+0x36c>
 80854aa:	1b45      	subs	r5, r0, r5
 80854ac:	42ae      	cmp	r6, r5
 80854ae:	dc31      	bgt.n	8085514 <__gethex+0x2f8>
 80854b0:	f8d8 300c 	ldr.w	r3, [r8, #12]
 80854b4:	2b02      	cmp	r3, #2
 80854b6:	d022      	beq.n	80854fe <__gethex+0x2e2>
 80854b8:	2b03      	cmp	r3, #3
 80854ba:	d024      	beq.n	8085506 <__gethex+0x2ea>
 80854bc:	2b01      	cmp	r3, #1
 80854be:	d115      	bne.n	80854ec <__gethex+0x2d0>
 80854c0:	42ae      	cmp	r6, r5
 80854c2:	d113      	bne.n	80854ec <__gethex+0x2d0>
 80854c4:	2e01      	cmp	r6, #1
 80854c6:	d10b      	bne.n	80854e0 <__gethex+0x2c4>
 80854c8:	f8d8 3004 	ldr.w	r3, [r8, #4]
 80854cc:	9a06      	ldr	r2, [sp, #24]
 80854ce:	2762      	movs	r7, #98	; 0x62
 80854d0:	6013      	str	r3, [r2, #0]
 80854d2:	2301      	movs	r3, #1
 80854d4:	6123      	str	r3, [r4, #16]
 80854d6:	f8c9 3000 	str.w	r3, [r9]
 80854da:	9b14      	ldr	r3, [sp, #80]	; 0x50
 80854dc:	601c      	str	r4, [r3, #0]
 80854de:	e72f      	b.n	8085340 <__gethex+0x124>
 80854e0:	4620      	mov	r0, r4
 80854e2:	1e71      	subs	r1, r6, #1
 80854e4:	f000 fdb0 	bl	8086048 <__any_on>
 80854e8:	2800      	cmp	r0, #0
 80854ea:	d1ed      	bne.n	80854c8 <__gethex+0x2ac>
 80854ec:	4621      	mov	r1, r4
 80854ee:	9802      	ldr	r0, [sp, #8]
 80854f0:	f000 f9c6 	bl	8085880 <_Bfree>
 80854f4:	2300      	movs	r3, #0
 80854f6:	9a14      	ldr	r2, [sp, #80]	; 0x50
 80854f8:	2750      	movs	r7, #80	; 0x50
 80854fa:	6013      	str	r3, [r2, #0]
 80854fc:	e720      	b.n	8085340 <__gethex+0x124>
 80854fe:	9b15      	ldr	r3, [sp, #84]	; 0x54
 8085500:	2b00      	cmp	r3, #0
 8085502:	d1f3      	bne.n	80854ec <__gethex+0x2d0>
 8085504:	e7e0      	b.n	80854c8 <__gethex+0x2ac>
 8085506:	9b15      	ldr	r3, [sp, #84]	; 0x54
 8085508:	2b00      	cmp	r3, #0
 808550a:	d1dd      	bne.n	80854c8 <__gethex+0x2ac>
 808550c:	e7ee      	b.n	80854ec <__gethex+0x2d0>
 808550e:	bf00      	nop
 8085510:	0808679c 	.word	0x0808679c
 8085514:	1e6f      	subs	r7, r5, #1
 8085516:	f1ba 0f00 	cmp.w	sl, #0
 808551a:	d132      	bne.n	8085582 <__gethex+0x366>
 808551c:	b127      	cbz	r7, 8085528 <__gethex+0x30c>
 808551e:	4639      	mov	r1, r7
 8085520:	4620      	mov	r0, r4
 8085522:	f000 fd91 	bl	8086048 <__any_on>
 8085526:	4682      	mov	sl, r0
 8085528:	2101      	movs	r1, #1
 808552a:	117b      	asrs	r3, r7, #5
 808552c:	f859 3023 	ldr.w	r3, [r9, r3, lsl #2]
 8085530:	f007 071f 	and.w	r7, r7, #31
 8085534:	fa01 f707 	lsl.w	r7, r1, r7
 8085538:	421f      	tst	r7, r3
 808553a:	f04f 0702 	mov.w	r7, #2
 808553e:	4629      	mov	r1, r5
 8085540:	4620      	mov	r0, r4
 8085542:	bf18      	it	ne
 8085544:	f04a 0a02 	orrne.w	sl, sl, #2
 8085548:	1b76      	subs	r6, r6, r5
 808554a:	f7ff fdff 	bl	808514c <rshift>
 808554e:	f8d8 5004 	ldr.w	r5, [r8, #4]
 8085552:	f1ba 0f00 	cmp.w	sl, #0
 8085556:	d048      	beq.n	80855ea <__gethex+0x3ce>
 8085558:	f8d8 300c 	ldr.w	r3, [r8, #12]
 808555c:	2b02      	cmp	r3, #2
 808555e:	d015      	beq.n	808558c <__gethex+0x370>
 8085560:	2b03      	cmp	r3, #3
 8085562:	d017      	beq.n	8085594 <__gethex+0x378>
 8085564:	2b01      	cmp	r3, #1
 8085566:	d109      	bne.n	808557c <__gethex+0x360>
 8085568:	f01a 0f02 	tst.w	sl, #2
 808556c:	d006      	beq.n	808557c <__gethex+0x360>
 808556e:	f8d9 0000 	ldr.w	r0, [r9]
 8085572:	ea4a 0a00 	orr.w	sl, sl, r0
 8085576:	f01a 0f01 	tst.w	sl, #1
 808557a:	d10e      	bne.n	808559a <__gethex+0x37e>
 808557c:	f047 0710 	orr.w	r7, r7, #16
 8085580:	e033      	b.n	80855ea <__gethex+0x3ce>
 8085582:	f04f 0a01 	mov.w	sl, #1
 8085586:	e7cf      	b.n	8085528 <__gethex+0x30c>
 8085588:	2701      	movs	r7, #1
 808558a:	e7e2      	b.n	8085552 <__gethex+0x336>
 808558c:	9b15      	ldr	r3, [sp, #84]	; 0x54
 808558e:	f1c3 0301 	rsb	r3, r3, #1
 8085592:	9315      	str	r3, [sp, #84]	; 0x54
 8085594:	9b15      	ldr	r3, [sp, #84]	; 0x54
 8085596:	2b00      	cmp	r3, #0
 8085598:	d0f0      	beq.n	808557c <__gethex+0x360>
 808559a:	f04f 0c00 	mov.w	ip, #0
 808559e:	f8d4 9010 	ldr.w	r9, [r4, #16]
 80855a2:	f104 0314 	add.w	r3, r4, #20
 80855a6:	ea4f 0b89 	mov.w	fp, r9, lsl #2
 80855aa:	eb03 0189 	add.w	r1, r3, r9, lsl #2
 80855ae:	4618      	mov	r0, r3
 80855b0:	f853 2b04 	ldr.w	r2, [r3], #4
 80855b4:	f1b2 3fff 	cmp.w	r2, #4294967295
 80855b8:	d01c      	beq.n	80855f4 <__gethex+0x3d8>
 80855ba:	3201      	adds	r2, #1
 80855bc:	6002      	str	r2, [r0, #0]
 80855be:	2f02      	cmp	r7, #2
 80855c0:	f104 0314 	add.w	r3, r4, #20
 80855c4:	d138      	bne.n	8085638 <__gethex+0x41c>
 80855c6:	f8d8 2000 	ldr.w	r2, [r8]
 80855ca:	3a01      	subs	r2, #1
 80855cc:	42b2      	cmp	r2, r6
 80855ce:	d10a      	bne.n	80855e6 <__gethex+0x3ca>
 80855d0:	2201      	movs	r2, #1
 80855d2:	1171      	asrs	r1, r6, #5
 80855d4:	f853 3021 	ldr.w	r3, [r3, r1, lsl #2]
 80855d8:	f006 061f 	and.w	r6, r6, #31
 80855dc:	fa02 f606 	lsl.w	r6, r2, r6
 80855e0:	421e      	tst	r6, r3
 80855e2:	bf18      	it	ne
 80855e4:	4617      	movne	r7, r2
 80855e6:	f047 0720 	orr.w	r7, r7, #32
 80855ea:	9b14      	ldr	r3, [sp, #80]	; 0x50
 80855ec:	601c      	str	r4, [r3, #0]
 80855ee:	9b06      	ldr	r3, [sp, #24]
 80855f0:	601d      	str	r5, [r3, #0]
 80855f2:	e6a5      	b.n	8085340 <__gethex+0x124>
 80855f4:	4299      	cmp	r1, r3
 80855f6:	f843 cc04 	str.w	ip, [r3, #-4]
 80855fa:	d8d8      	bhi.n	80855ae <__gethex+0x392>
 80855fc:	68a3      	ldr	r3, [r4, #8]
 80855fe:	4599      	cmp	r9, r3
 8085600:	db12      	blt.n	8085628 <__gethex+0x40c>
 8085602:	6861      	ldr	r1, [r4, #4]
 8085604:	9802      	ldr	r0, [sp, #8]
 8085606:	3101      	adds	r1, #1
 8085608:	f000 f906 	bl	8085818 <_Balloc>
 808560c:	4682      	mov	sl, r0
 808560e:	6922      	ldr	r2, [r4, #16]
 8085610:	f104 010c 	add.w	r1, r4, #12
 8085614:	3202      	adds	r2, #2
 8085616:	0092      	lsls	r2, r2, #2
 8085618:	300c      	adds	r0, #12
 808561a:	f7fe fdf3 	bl	8084204 <memcpy>
 808561e:	4621      	mov	r1, r4
 8085620:	9802      	ldr	r0, [sp, #8]
 8085622:	f000 f92d 	bl	8085880 <_Bfree>
 8085626:	4654      	mov	r4, sl
 8085628:	6923      	ldr	r3, [r4, #16]
 808562a:	1c5a      	adds	r2, r3, #1
 808562c:	6122      	str	r2, [r4, #16]
 808562e:	2201      	movs	r2, #1
 8085630:	eb04 0383 	add.w	r3, r4, r3, lsl #2
 8085634:	615a      	str	r2, [r3, #20]
 8085636:	e7c2      	b.n	80855be <__gethex+0x3a2>
 8085638:	6922      	ldr	r2, [r4, #16]
 808563a:	454a      	cmp	r2, r9
 808563c:	dd0b      	ble.n	8085656 <__gethex+0x43a>
 808563e:	2101      	movs	r1, #1
 8085640:	4620      	mov	r0, r4
 8085642:	f7ff fd83 	bl	808514c <rshift>
 8085646:	f8d8 3008 	ldr.w	r3, [r8, #8]
 808564a:	3501      	adds	r5, #1
 808564c:	42ab      	cmp	r3, r5
 808564e:	f6ff aeda 	blt.w	8085406 <__gethex+0x1ea>
 8085652:	2701      	movs	r7, #1
 8085654:	e7c7      	b.n	80855e6 <__gethex+0x3ca>
 8085656:	f016 061f 	ands.w	r6, r6, #31
 808565a:	d0fa      	beq.n	8085652 <__gethex+0x436>
 808565c:	449b      	add	fp, r3
 808565e:	f85b 0c04 	ldr.w	r0, [fp, #-4]
 8085662:	f000 f9a0 	bl	80859a6 <__hi0bits>
 8085666:	f1c6 0620 	rsb	r6, r6, #32
 808566a:	42b0      	cmp	r0, r6
 808566c:	dbe7      	blt.n	808563e <__gethex+0x422>
 808566e:	e7f0      	b.n	8085652 <__gethex+0x436>

08085670 <L_shift>:
 8085670:	f1c2 0208 	rsb	r2, r2, #8
 8085674:	0092      	lsls	r2, r2, #2
 8085676:	b570      	push	{r4, r5, r6, lr}
 8085678:	f1c2 0620 	rsb	r6, r2, #32
 808567c:	6843      	ldr	r3, [r0, #4]
 808567e:	6804      	ldr	r4, [r0, #0]
 8085680:	fa03 f506 	lsl.w	r5, r3, r6
 8085684:	432c      	orrs	r4, r5
 8085686:	40d3      	lsrs	r3, r2
 8085688:	6004      	str	r4, [r0, #0]
 808568a:	f840 3f04 	str.w	r3, [r0, #4]!
 808568e:	4288      	cmp	r0, r1
 8085690:	d3f4      	bcc.n	808567c <L_shift+0xc>
 8085692:	bd70      	pop	{r4, r5, r6, pc}

08085694 <__match>:
 8085694:	b530      	push	{r4, r5, lr}
 8085696:	6803      	ldr	r3, [r0, #0]
 8085698:	3301      	adds	r3, #1
 808569a:	f811 4b01 	ldrb.w	r4, [r1], #1
 808569e:	b914      	cbnz	r4, 80856a6 <__match+0x12>
 80856a0:	6003      	str	r3, [r0, #0]
 80856a2:	2001      	movs	r0, #1
 80856a4:	bd30      	pop	{r4, r5, pc}
 80856a6:	f813 2b01 	ldrb.w	r2, [r3], #1
 80856aa:	f1a2 0541 	sub.w	r5, r2, #65	; 0x41
 80856ae:	2d19      	cmp	r5, #25
 80856b0:	bf98      	it	ls
 80856b2:	3220      	addls	r2, #32
 80856b4:	42a2      	cmp	r2, r4
 80856b6:	d0f0      	beq.n	808569a <__match+0x6>
 80856b8:	2000      	movs	r0, #0
 80856ba:	e7f3      	b.n	80856a4 <__match+0x10>

080856bc <__hexnan>:
 80856bc:	e92d 4ff0 	stmdb	sp!, {r4, r5, r6, r7, r8, r9, sl, fp, lr}
 80856c0:	2500      	movs	r5, #0
 80856c2:	680b      	ldr	r3, [r1, #0]
 80856c4:	4682      	mov	sl, r0
 80856c6:	115e      	asrs	r6, r3, #5
 80856c8:	eb02 0686 	add.w	r6, r2, r6, lsl #2
 80856cc:	f013 031f 	ands.w	r3, r3, #31
 80856d0:	bf18      	it	ne
 80856d2:	3604      	addne	r6, #4
 80856d4:	1f37      	subs	r7, r6, #4
 80856d6:	4690      	mov	r8, r2
 80856d8:	46b9      	mov	r9, r7
 80856da:	463c      	mov	r4, r7
 80856dc:	46ab      	mov	fp, r5
 80856de:	b087      	sub	sp, #28
 80856e0:	6801      	ldr	r1, [r0, #0]
 80856e2:	9301      	str	r3, [sp, #4]
 80856e4:	f846 5c04 	str.w	r5, [r6, #-4]
 80856e8:	9502      	str	r5, [sp, #8]
 80856ea:	784a      	ldrb	r2, [r1, #1]
 80856ec:	1c4b      	adds	r3, r1, #1
 80856ee:	9303      	str	r3, [sp, #12]
 80856f0:	b342      	cbz	r2, 8085744 <__hexnan+0x88>
 80856f2:	4610      	mov	r0, r2
 80856f4:	9105      	str	r1, [sp, #20]
 80856f6:	9204      	str	r2, [sp, #16]
 80856f8:	f7ff fd7b 	bl	80851f2 <__hexdig_fun>
 80856fc:	2800      	cmp	r0, #0
 80856fe:	d14f      	bne.n	80857a0 <__hexnan+0xe4>
 8085700:	9a04      	ldr	r2, [sp, #16]
 8085702:	9905      	ldr	r1, [sp, #20]
 8085704:	2a20      	cmp	r2, #32
 8085706:	d818      	bhi.n	808573a <__hexnan+0x7e>
 8085708:	9b02      	ldr	r3, [sp, #8]
 808570a:	459b      	cmp	fp, r3
 808570c:	dd13      	ble.n	8085736 <__hexnan+0x7a>
 808570e:	454c      	cmp	r4, r9
 8085710:	d206      	bcs.n	8085720 <__hexnan+0x64>
 8085712:	2d07      	cmp	r5, #7
 8085714:	dc04      	bgt.n	8085720 <__hexnan+0x64>
 8085716:	462a      	mov	r2, r5
 8085718:	4649      	mov	r1, r9
 808571a:	4620      	mov	r0, r4
 808571c:	f7ff ffa8 	bl	8085670 <L_shift>
 8085720:	4544      	cmp	r4, r8
 8085722:	d950      	bls.n	80857c6 <__hexnan+0x10a>
 8085724:	2300      	movs	r3, #0
 8085726:	f1a4 0904 	sub.w	r9, r4, #4
 808572a:	f844 3c04 	str.w	r3, [r4, #-4]
 808572e:	461d      	mov	r5, r3
 8085730:	464c      	mov	r4, r9
 8085732:	f8cd b008 	str.w	fp, [sp, #8]
 8085736:	9903      	ldr	r1, [sp, #12]
 8085738:	e7d7      	b.n	80856ea <__hexnan+0x2e>
 808573a:	2a29      	cmp	r2, #41	; 0x29
 808573c:	d156      	bne.n	80857ec <__hexnan+0x130>
 808573e:	3102      	adds	r1, #2
 8085740:	f8ca 1000 	str.w	r1, [sl]
 8085744:	f1bb 0f00 	cmp.w	fp, #0
 8085748:	d050      	beq.n	80857ec <__hexnan+0x130>
 808574a:	454c      	cmp	r4, r9
 808574c:	d206      	bcs.n	808575c <__hexnan+0xa0>
 808574e:	2d07      	cmp	r5, #7
 8085750:	dc04      	bgt.n	808575c <__hexnan+0xa0>
 8085752:	462a      	mov	r2, r5
 8085754:	4649      	mov	r1, r9
 8085756:	4620      	mov	r0, r4
 8085758:	f7ff ff8a 	bl	8085670 <L_shift>
 808575c:	4544      	cmp	r4, r8
 808575e:	d934      	bls.n	80857ca <__hexnan+0x10e>
 8085760:	4623      	mov	r3, r4
 8085762:	f1a8 0204 	sub.w	r2, r8, #4
 8085766:	f853 1b04 	ldr.w	r1, [r3], #4
 808576a:	429f      	cmp	r7, r3
 808576c:	f842 1f04 	str.w	r1, [r2, #4]!
 8085770:	d2f9      	bcs.n	8085766 <__hexnan+0xaa>
 8085772:	1b3b      	subs	r3, r7, r4
 8085774:	f023 0303 	bic.w	r3, r3, #3
 8085778:	3304      	adds	r3, #4
 808577a:	3401      	adds	r4, #1
 808577c:	3e03      	subs	r6, #3
 808577e:	42b4      	cmp	r4, r6
 8085780:	bf88      	it	hi
 8085782:	2304      	movhi	r3, #4
 8085784:	2200      	movs	r2, #0
 8085786:	4443      	add	r3, r8
 8085788:	f843 2b04 	str.w	r2, [r3], #4
 808578c:	429f      	cmp	r7, r3
 808578e:	d2fb      	bcs.n	8085788 <__hexnan+0xcc>
 8085790:	683b      	ldr	r3, [r7, #0]
 8085792:	b91b      	cbnz	r3, 808579c <__hexnan+0xe0>
 8085794:	4547      	cmp	r7, r8
 8085796:	d127      	bne.n	80857e8 <__hexnan+0x12c>
 8085798:	2301      	movs	r3, #1
 808579a:	603b      	str	r3, [r7, #0]
 808579c:	2005      	movs	r0, #5
 808579e:	e026      	b.n	80857ee <__hexnan+0x132>
 80857a0:	3501      	adds	r5, #1
 80857a2:	2d08      	cmp	r5, #8
 80857a4:	f10b 0b01 	add.w	fp, fp, #1
 80857a8:	dd06      	ble.n	80857b8 <__hexnan+0xfc>
 80857aa:	4544      	cmp	r4, r8
 80857ac:	d9c3      	bls.n	8085736 <__hexnan+0x7a>
 80857ae:	2300      	movs	r3, #0
 80857b0:	2501      	movs	r5, #1
 80857b2:	f844 3c04 	str.w	r3, [r4, #-4]
 80857b6:	3c04      	subs	r4, #4
 80857b8:	6822      	ldr	r2, [r4, #0]
 80857ba:	f000 000f 	and.w	r0, r0, #15
 80857be:	ea40 1202 	orr.w	r2, r0, r2, lsl #4
 80857c2:	6022      	str	r2, [r4, #0]
 80857c4:	e7b7      	b.n	8085736 <__hexnan+0x7a>
 80857c6:	2508      	movs	r5, #8
 80857c8:	e7b5      	b.n	8085736 <__hexnan+0x7a>
 80857ca:	9b01      	ldr	r3, [sp, #4]
 80857cc:	2b00      	cmp	r3, #0
 80857ce:	d0df      	beq.n	8085790 <__hexnan+0xd4>
 80857d0:	f04f 32ff 	mov.w	r2, #4294967295
 80857d4:	f1c3 0320 	rsb	r3, r3, #32
 80857d8:	fa22 f303 	lsr.w	r3, r2, r3
 80857dc:	f856 2c04 	ldr.w	r2, [r6, #-4]
 80857e0:	401a      	ands	r2, r3
 80857e2:	f846 2c04 	str.w	r2, [r6, #-4]
 80857e6:	e7d3      	b.n	8085790 <__hexnan+0xd4>
 80857e8:	3f04      	subs	r7, #4
 80857ea:	e7d1      	b.n	8085790 <__hexnan+0xd4>
 80857ec:	2004      	movs	r0, #4
 80857ee:	b007      	add	sp, #28
 80857f0:	e8bd 8ff0 	ldmia.w	sp!, {r4, r5, r6, r7, r8, r9, sl, fp, pc}

080857f4 <__ascii_mbtowc>:
 80857f4:	b082      	sub	sp, #8
 80857f6:	b901      	cbnz	r1, 80857fa <__ascii_mbtowc+0x6>
 80857f8:	a901      	add	r1, sp, #4
 80857fa:	b142      	cbz	r2, 808580e <__ascii_mbtowc+0x1a>
 80857fc:	b14b      	cbz	r3, 8085812 <__ascii_mbtowc+0x1e>
 80857fe:	7813      	ldrb	r3, [r2, #0]
 8085800:	600b      	str	r3, [r1, #0]
 8085802:	7812      	ldrb	r2, [r2, #0]
 8085804:	1e10      	subs	r0, r2, #0
 8085806:	bf18      	it	ne
 8085808:	2001      	movne	r0, #1
 808580a:	b002      	add	sp, #8
 808580c:	4770      	bx	lr
 808580e:	4610      	mov	r0, r2
 8085810:	e7fb      	b.n	808580a <__ascii_mbtowc+0x16>
 8085812:	f06f 0001 	mvn.w	r0, #1
 8085816:	e7f8      	b.n	808580a <__ascii_mbtowc+0x16>

08085818 <_Balloc>:
 8085818:	b570      	push	{r4, r5, r6, lr}
 808581a:	6a46      	ldr	r6, [r0, #36]	; 0x24
 808581c:	4604      	mov	r4, r0
 808581e:	460d      	mov	r5, r1
 8085820:	b93e      	cbnz	r6, 8085832 <_Balloc+0x1a>
 8085822:	2010      	movs	r0, #16
 8085824:	f7fc fbc8 	bl	8081fb8 <malloc>
 8085828:	e9c0 6601 	strd	r6, r6, [r0, #4]
 808582c:	6260      	str	r0, [r4, #36]	; 0x24
 808582e:	6006      	str	r6, [r0, #0]
 8085830:	60c6      	str	r6, [r0, #12]
 8085832:	6a66      	ldr	r6, [r4, #36]	; 0x24
 8085834:	68f3      	ldr	r3, [r6, #12]
 8085836:	b183      	cbz	r3, 808585a <_Balloc+0x42>
 8085838:	6a63      	ldr	r3, [r4, #36]	; 0x24
 808583a:	68db      	ldr	r3, [r3, #12]
 808583c:	f853 0025 	ldr.w	r0, [r3, r5, lsl #2]
 8085840:	b9b8      	cbnz	r0, 8085872 <_Balloc+0x5a>
 8085842:	2101      	movs	r1, #1
 8085844:	fa01 f605 	lsl.w	r6, r1, r5
 8085848:	1d72      	adds	r2, r6, #5
 808584a:	4620      	mov	r0, r4
 808584c:	0092      	lsls	r2, r2, #2
 808584e:	f000 fc1c 	bl	808608a <_calloc_r>
 8085852:	b160      	cbz	r0, 808586e <_Balloc+0x56>
 8085854:	e9c0 5601 	strd	r5, r6, [r0, #4]
 8085858:	e00e      	b.n	8085878 <_Balloc+0x60>
 808585a:	2221      	movs	r2, #33	; 0x21
 808585c:	2104      	movs	r1, #4
 808585e:	4620      	mov	r0, r4
 8085860:	f000 fc13 	bl	808608a <_calloc_r>
 8085864:	6a63      	ldr	r3, [r4, #36]	; 0x24
 8085866:	60f0      	str	r0, [r6, #12]
 8085868:	68db      	ldr	r3, [r3, #12]
 808586a:	2b00      	cmp	r3, #0
 808586c:	d1e4      	bne.n	8085838 <_Balloc+0x20>
 808586e:	2000      	movs	r0, #0
 8085870:	bd70      	pop	{r4, r5, r6, pc}
 8085872:	6802      	ldr	r2, [r0, #0]
 8085874:	f843 2025 	str.w	r2, [r3, r5, lsl #2]
 8085878:	2300      	movs	r3, #0
 808587a:	e9c0 3303 	strd	r3, r3, [r0, #12]
 808587e:	e7f7      	b.n	8085870 <_Balloc+0x58>

08085880 <_Bfree>:
 8085880:	b570      	push	{r4, r5, r6, lr}
 8085882:	6a46      	ldr	r6, [r0, #36]	; 0x24
 8085884:	4605      	mov	r5, r0
 8085886:	460c      	mov	r4, r1
 8085888:	b93e      	cbnz	r6, 808589a <_Bfree+0x1a>
 808588a:	2010      	movs	r0, #16
 808588c:	f7fc fb94 	bl	8081fb8 <malloc>
 8085890:	e9c0 6601 	strd	r6, r6, [r0, #4]
 8085894:	6268      	str	r0, [r5, #36]	; 0x24
 8085896:	6006      	str	r6, [r0, #0]
 8085898:	60c6      	str	r6, [r0, #12]
 808589a:	b13c      	cbz	r4, 80858ac <_Bfree+0x2c>
 808589c:	6a6b      	ldr	r3, [r5, #36]	; 0x24
 808589e:	6862      	ldr	r2, [r4, #4]
 80858a0:	68db      	ldr	r3, [r3, #12]
 80858a2:	f853 1022 	ldr.w	r1, [r3, r2, lsl #2]
 80858a6:	6021      	str	r1, [r4, #0]
 80858a8:	f843 4022 	str.w	r4, [r3, r2, lsl #2]
 80858ac:	bd70      	pop	{r4, r5, r6, pc}

080858ae <__multadd>:
 80858ae:	e92d 41f0 	stmdb	sp!, {r4, r5, r6, r7, r8, lr}
 80858b2:	4698      	mov	r8, r3
 80858b4:	460c      	mov	r4, r1
 80858b6:	2300      	movs	r3, #0
 80858b8:	690e      	ldr	r6, [r1, #16]
 80858ba:	4607      	mov	r7, r0
 80858bc:	f101 0014 	add.w	r0, r1, #20
 80858c0:	6805      	ldr	r5, [r0, #0]
 80858c2:	3301      	adds	r3, #1
 80858c4:	b2a9      	uxth	r1, r5
 80858c6:	fb02 8101 	mla	r1, r2, r1, r8
 80858ca:	0c2d      	lsrs	r5, r5, #16
 80858cc:	ea4f 4c11 	mov.w	ip, r1, lsr #16
 80858d0:	fb02 c505 	mla	r5, r2, r5, ip
 80858d4:	b289      	uxth	r1, r1
 80858d6:	eb01 4105 	add.w	r1, r1, r5, lsl #16
 80858da:	429e      	cmp	r6, r3
 80858dc:	ea4f 4815 	mov.w	r8, r5, lsr #16
 80858e0:	f840 1b04 	str.w	r1, [r0], #4
 80858e4:	dcec      	bgt.n	80858c0 <__multadd+0x12>
 80858e6:	f1b8 0f00 	cmp.w	r8, #0
 80858ea:	d01b      	beq.n	8085924 <__multadd+0x76>
 80858ec:	68a3      	ldr	r3, [r4, #8]
 80858ee:	42b3      	cmp	r3, r6
 80858f0:	dc12      	bgt.n	8085918 <__multadd+0x6a>
 80858f2:	6861      	ldr	r1, [r4, #4]
 80858f4:	4638      	mov	r0, r7
 80858f6:	3101      	adds	r1, #1
 80858f8:	f7ff ff8e 	bl	8085818 <_Balloc>
 80858fc:	4605      	mov	r5, r0
 80858fe:	6922      	ldr	r2, [r4, #16]
 8085900:	f104 010c 	add.w	r1, r4, #12
 8085904:	3202      	adds	r2, #2
 8085906:	0092      	lsls	r2, r2, #2
 8085908:	300c      	adds	r0, #12
 808590a:	f7fe fc7b 	bl	8084204 <memcpy>
 808590e:	4621      	mov	r1, r4
 8085910:	4638      	mov	r0, r7
 8085912:	f7ff ffb5 	bl	8085880 <_Bfree>
 8085916:	462c      	mov	r4, r5
 8085918:	eb04 0386 	add.w	r3, r4, r6, lsl #2
 808591c:	3601      	adds	r6, #1
 808591e:	f8c3 8014 	str.w	r8, [r3, #20]
 8085922:	6126      	str	r6, [r4, #16]
 8085924:	4620      	mov	r0, r4
 8085926:	e8bd 81f0 	ldmia.w	sp!, {r4, r5, r6, r7, r8, pc}

0808592a <__s2b>:
 808592a:	e92d 43f8 	stmdb	sp!, {r3, r4, r5, r6, r7, r8, r9, lr}
 808592e:	4615      	mov	r5, r2
 8085930:	2209      	movs	r2, #9
 8085932:	461f      	mov	r7, r3
 8085934:	3308      	adds	r3, #8
 8085936:	460c      	mov	r4, r1
 8085938:	fb93 f3f2 	sdiv	r3, r3, r2
 808593c:	4606      	mov	r6, r0
 808593e:	2201      	movs	r2, #1
 8085940:	2100      	movs	r1, #0
 8085942:	429a      	cmp	r2, r3
 8085944:	db20      	blt.n	8085988 <__s2b+0x5e>
 8085946:	4630      	mov	r0, r6
 8085948:	f7ff ff66 	bl	8085818 <_Balloc>
 808594c:	9b08      	ldr	r3, [sp, #32]
 808594e:	2d09      	cmp	r5, #9
 8085950:	6143      	str	r3, [r0, #20]
 8085952:	f04f 0301 	mov.w	r3, #1
 8085956:	6103      	str	r3, [r0, #16]
 8085958:	dd19      	ble.n	808598e <__s2b+0x64>
 808595a:	f104 0909 	add.w	r9, r4, #9
 808595e:	46c8      	mov	r8, r9
 8085960:	442c      	add	r4, r5
 8085962:	f818 3b01 	ldrb.w	r3, [r8], #1
 8085966:	4601      	mov	r1, r0
 8085968:	220a      	movs	r2, #10
 808596a:	4630      	mov	r0, r6
 808596c:	3b30      	subs	r3, #48	; 0x30
 808596e:	f7ff ff9e 	bl	80858ae <__multadd>
 8085972:	45a0      	cmp	r8, r4
 8085974:	d1f5      	bne.n	8085962 <__s2b+0x38>
 8085976:	f1a5 0408 	sub.w	r4, r5, #8
 808597a:	444c      	add	r4, r9
 808597c:	1b2d      	subs	r5, r5, r4
 808597e:	1963      	adds	r3, r4, r5
 8085980:	42bb      	cmp	r3, r7
 8085982:	db07      	blt.n	8085994 <__s2b+0x6a>
 8085984:	e8bd 83f8 	ldmia.w	sp!, {r3, r4, r5, r6, r7, r8, r9, pc}
 8085988:	0052      	lsls	r2, r2, #1
 808598a:	3101      	adds	r1, #1
 808598c:	e7d9      	b.n	8085942 <__s2b+0x18>
 808598e:	2509      	movs	r5, #9
 8085990:	340a      	adds	r4, #10
 8085992:	e7f3      	b.n	808597c <__s2b+0x52>
 8085994:	f814 3b01 	ldrb.w	r3, [r4], #1
 8085998:	4601      	mov	r1, r0
 808599a:	220a      	movs	r2, #10
 808599c:	4630      	mov	r0, r6
 808599e:	3b30      	subs	r3, #48	; 0x30
 80859a0:	f7ff ff85 	bl	80858ae <__multadd>
 80859a4:	e7eb      	b.n	808597e <__s2b+0x54>

080859a6 <__hi0bits>:
 80859a6:	0c02      	lsrs	r2, r0, #16
 80859a8:	0412      	lsls	r2, r2, #16
 80859aa:	4603      	mov	r3, r0
 80859ac:	b9ca      	cbnz	r2, 80859e2 <__hi0bits+0x3c>
 80859ae:	0403      	lsls	r3, r0, #16
 80859b0:	2010      	movs	r0, #16
 80859b2:	f013 4f7f 	tst.w	r3, #4278190080	; 0xff000000
 80859b6:	bf04      	itt	eq
 80859b8:	021b      	lsleq	r3, r3, #8
 80859ba:	3008      	addeq	r0, #8
 80859bc:	f013 4f70 	tst.w	r3, #4026531840	; 0xf0000000
 80859c0:	bf04      	itt	eq
 80859c2:	011b      	lsleq	r3, r3, #4
 80859c4:	3004      	addeq	r0, #4
 80859c6:	f013 4f40 	tst.w	r3, #3221225472	; 0xc0000000
 80859ca:	bf04      	itt	eq
 80859cc:	009b      	lsleq	r3, r3, #2
 80859ce:	3002      	addeq	r0, #2
 80859d0:	2b00      	cmp	r3, #0
 80859d2:	db05      	blt.n	80859e0 <__hi0bits+0x3a>
 80859d4:	f013 4f80 	tst.w	r3, #1073741824	; 0x40000000
 80859d8:	f100 0001 	add.w	r0, r0, #1
 80859dc:	bf08      	it	eq
 80859de:	2020      	moveq	r0, #32
 80859e0:	4770      	bx	lr
 80859e2:	2000      	movs	r0, #0
 80859e4:	e7e5      	b.n	80859b2 <__hi0bits+0xc>

080859e6 <__lo0bits>:
 80859e6:	6803      	ldr	r3, [r0, #0]
 80859e8:	4602      	mov	r2, r0
 80859ea:	f013 0007 	ands.w	r0, r3, #7
 80859ee:	d00b      	beq.n	8085a08 <__lo0bits+0x22>
 80859f0:	07d9      	lsls	r1, r3, #31
 80859f2:	d422      	bmi.n	8085a3a <__lo0bits+0x54>
 80859f4:	0798      	lsls	r0, r3, #30
 80859f6:	bf49      	itett	mi
 80859f8:	085b      	lsrmi	r3, r3, #1
 80859fa:	089b      	lsrpl	r3, r3, #2
 80859fc:	2001      	movmi	r0, #1
 80859fe:	6013      	strmi	r3, [r2, #0]
 8085a00:	bf5c      	itt	pl
 8085a02:	2002      	movpl	r0, #2
 8085a04:	6013      	strpl	r3, [r2, #0]
 8085a06:	4770      	bx	lr
 8085a08:	b299      	uxth	r1, r3
 8085a0a:	b909      	cbnz	r1, 8085a10 <__lo0bits+0x2a>
 8085a0c:	2010      	movs	r0, #16
 8085a0e:	0c1b      	lsrs	r3, r3, #16
 8085a10:	f013 0fff 	tst.w	r3, #255	; 0xff
 8085a14:	bf04      	itt	eq
 8085a16:	0a1b      	lsreq	r3, r3, #8
 8085a18:	3008      	addeq	r0, #8
 8085a1a:	0719      	lsls	r1, r3, #28
 8085a1c:	bf04      	itt	eq
 8085a1e:	091b      	lsreq	r3, r3, #4
 8085a20:	3004      	addeq	r0, #4
 8085a22:	0799      	lsls	r1, r3, #30
 8085a24:	bf04      	itt	eq
 8085a26:	089b      	lsreq	r3, r3, #2
 8085a28:	3002      	addeq	r0, #2
 8085a2a:	07d9      	lsls	r1, r3, #31
 8085a2c:	d403      	bmi.n	8085a36 <__lo0bits+0x50>
 8085a2e:	085b      	lsrs	r3, r3, #1
 8085a30:	f100 0001 	add.w	r0, r0, #1
 8085a34:	d003      	beq.n	8085a3e <__lo0bits+0x58>
 8085a36:	6013      	str	r3, [r2, #0]
 8085a38:	4770      	bx	lr
 8085a3a:	2000      	movs	r0, #0
 8085a3c:	4770      	bx	lr
 8085a3e:	2020      	movs	r0, #32
 8085a40:	4770      	bx	lr

08085a42 <__i2b>:
 8085a42:	b510      	push	{r4, lr}
 8085a44:	460c      	mov	r4, r1
 8085a46:	2101      	movs	r1, #1
 8085a48:	f7ff fee6 	bl	8085818 <_Balloc>
 8085a4c:	2201      	movs	r2, #1
 8085a4e:	6144      	str	r4, [r0, #20]
 8085a50:	6102      	str	r2, [r0, #16]
 8085a52:	bd10      	pop	{r4, pc}

08085a54 <__multiply>:
 8085a54:	e92d 4ff0 	stmdb	sp!, {r4, r5, r6, r7, r8, r9, sl, fp, lr}
 8085a58:	4615      	mov	r5, r2
 8085a5a:	690a      	ldr	r2, [r1, #16]
 8085a5c:	692b      	ldr	r3, [r5, #16]
 8085a5e:	460c      	mov	r4, r1
 8085a60:	429a      	cmp	r2, r3
 8085a62:	bfbe      	ittt	lt
 8085a64:	460b      	movlt	r3, r1
 8085a66:	462c      	movlt	r4, r5
 8085a68:	461d      	movlt	r5, r3
 8085a6a:	6927      	ldr	r7, [r4, #16]
 8085a6c:	f8d5 9010 	ldr.w	r9, [r5, #16]
 8085a70:	68a3      	ldr	r3, [r4, #8]
 8085a72:	6861      	ldr	r1, [r4, #4]
 8085a74:	eb07 0609 	add.w	r6, r7, r9
 8085a78:	42b3      	cmp	r3, r6
 8085a7a:	bfb8      	it	lt
 8085a7c:	3101      	addlt	r1, #1
 8085a7e:	b085      	sub	sp, #20
 8085a80:	f7ff feca 	bl	8085818 <_Balloc>
 8085a84:	f100 0114 	add.w	r1, r0, #20
 8085a88:	460b      	mov	r3, r1
 8085a8a:	2200      	movs	r2, #0
 8085a8c:	eb01 0886 	add.w	r8, r1, r6, lsl #2
 8085a90:	4543      	cmp	r3, r8
 8085a92:	d31d      	bcc.n	8085ad0 <__multiply+0x7c>
 8085a94:	f104 0314 	add.w	r3, r4, #20
 8085a98:	f105 0214 	add.w	r2, r5, #20
 8085a9c:	eb03 0787 	add.w	r7, r3, r7, lsl #2
 8085aa0:	eb02 0389 	add.w	r3, r2, r9, lsl #2
 8085aa4:	9302      	str	r3, [sp, #8]
 8085aa6:	1b3b      	subs	r3, r7, r4
 8085aa8:	3b15      	subs	r3, #21
 8085aaa:	f023 0303 	bic.w	r3, r3, #3
 8085aae:	3304      	adds	r3, #4
 8085ab0:	f104 0515 	add.w	r5, r4, #21
 8085ab4:	42af      	cmp	r7, r5
 8085ab6:	bf38      	it	cc
 8085ab8:	2304      	movcc	r3, #4
 8085aba:	9301      	str	r3, [sp, #4]
 8085abc:	9b02      	ldr	r3, [sp, #8]
 8085abe:	9203      	str	r2, [sp, #12]
 8085ac0:	4293      	cmp	r3, r2
 8085ac2:	d808      	bhi.n	8085ad6 <__multiply+0x82>
 8085ac4:	2e00      	cmp	r6, #0
 8085ac6:	dc5a      	bgt.n	8085b7e <__multiply+0x12a>
 8085ac8:	6106      	str	r6, [r0, #16]
 8085aca:	b005      	add	sp, #20
 8085acc:	e8bd 8ff0 	ldmia.w	sp!, {r4, r5, r6, r7, r8, r9, sl, fp, pc}
 8085ad0:	f843 2b04 	str.w	r2, [r3], #4
 8085ad4:	e7dc      	b.n	8085a90 <__multiply+0x3c>
 8085ad6:	f8b2 a000 	ldrh.w	sl, [r2]
 8085ada:	f1ba 0f00 	cmp.w	sl, #0
 8085ade:	d024      	beq.n	8085b2a <__multiply+0xd6>
 8085ae0:	4689      	mov	r9, r1
 8085ae2:	f04f 0c00 	mov.w	ip, #0
 8085ae6:	f104 0e14 	add.w	lr, r4, #20
 8085aea:	f85e 5b04 	ldr.w	r5, [lr], #4
 8085aee:	f8d9 b000 	ldr.w	fp, [r9]
 8085af2:	b2ab      	uxth	r3, r5
 8085af4:	fa1f fb8b 	uxth.w	fp, fp
 8085af8:	fb0a b303 	mla	r3, sl, r3, fp
 8085afc:	ea4f 4b15 	mov.w	fp, r5, lsr #16
 8085b00:	f8d9 5000 	ldr.w	r5, [r9]
 8085b04:	4463      	add	r3, ip
 8085b06:	ea4f 4c15 	mov.w	ip, r5, lsr #16
 8085b0a:	fb0a c50b 	mla	r5, sl, fp, ip
 8085b0e:	eb05 4513 	add.w	r5, r5, r3, lsr #16
 8085b12:	b29b      	uxth	r3, r3
 8085b14:	ea43 4305 	orr.w	r3, r3, r5, lsl #16
 8085b18:	4577      	cmp	r7, lr
 8085b1a:	ea4f 4c15 	mov.w	ip, r5, lsr #16
 8085b1e:	f849 3b04 	str.w	r3, [r9], #4
 8085b22:	d8e2      	bhi.n	8085aea <__multiply+0x96>
 8085b24:	9b01      	ldr	r3, [sp, #4]
 8085b26:	f841 c003 	str.w	ip, [r1, r3]
 8085b2a:	9b03      	ldr	r3, [sp, #12]
 8085b2c:	3204      	adds	r2, #4
 8085b2e:	f8b3 9002 	ldrh.w	r9, [r3, #2]
 8085b32:	f1b9 0f00 	cmp.w	r9, #0
 8085b36:	d020      	beq.n	8085b7a <__multiply+0x126>
 8085b38:	468e      	mov	lr, r1
 8085b3a:	f04f 0a00 	mov.w	sl, #0
 8085b3e:	680b      	ldr	r3, [r1, #0]
 8085b40:	f104 0c14 	add.w	ip, r4, #20
 8085b44:	f8bc 5000 	ldrh.w	r5, [ip]
 8085b48:	f8be b002 	ldrh.w	fp, [lr, #2]
 8085b4c:	b29b      	uxth	r3, r3
 8085b4e:	fb09 b505 	mla	r5, r9, r5, fp
 8085b52:	44aa      	add	sl, r5
 8085b54:	ea43 430a 	orr.w	r3, r3, sl, lsl #16
 8085b58:	f84e 3b04 	str.w	r3, [lr], #4
 8085b5c:	f85c 3b04 	ldr.w	r3, [ip], #4
 8085b60:	f8be 5000 	ldrh.w	r5, [lr]
 8085b64:	0c1b      	lsrs	r3, r3, #16
 8085b66:	fb09 5303 	mla	r3, r9, r3, r5
 8085b6a:	4567      	cmp	r7, ip
 8085b6c:	eb03 431a 	add.w	r3, r3, sl, lsr #16
 8085b70:	ea4f 4a13 	mov.w	sl, r3, lsr #16
 8085b74:	d8e6      	bhi.n	8085b44 <__multiply+0xf0>
 8085b76:	9d01      	ldr	r5, [sp, #4]
 8085b78:	514b      	str	r3, [r1, r5]
 8085b7a:	3104      	adds	r1, #4
 8085b7c:	e79e      	b.n	8085abc <__multiply+0x68>
 8085b7e:	f858 3d04 	ldr.w	r3, [r8, #-4]!
 8085b82:	2b00      	cmp	r3, #0
 8085b84:	d1a0      	bne.n	8085ac8 <__multiply+0x74>
 8085b86:	3e01      	subs	r6, #1
 8085b88:	e79c      	b.n	8085ac4 <__multiply+0x70>
	...

08085b8c <__pow5mult>:
 8085b8c:	e92d 43f8 	stmdb	sp!, {r3, r4, r5, r6, r7, r8, r9, lr}
 8085b90:	4615      	mov	r5, r2
 8085b92:	f012 0203 	ands.w	r2, r2, #3
 8085b96:	4606      	mov	r6, r0
 8085b98:	460f      	mov	r7, r1
 8085b9a:	d007      	beq.n	8085bac <__pow5mult+0x20>
 8085b9c:	4c21      	ldr	r4, [pc, #132]	; (8085c24 <__pow5mult+0x98>)
 8085b9e:	3a01      	subs	r2, #1
 8085ba0:	2300      	movs	r3, #0
 8085ba2:	f854 2022 	ldr.w	r2, [r4, r2, lsl #2]
 8085ba6:	f7ff fe82 	bl	80858ae <__multadd>
 8085baa:	4607      	mov	r7, r0
 8085bac:	10ad      	asrs	r5, r5, #2
 8085bae:	d035      	beq.n	8085c1c <__pow5mult+0x90>
 8085bb0:	6a74      	ldr	r4, [r6, #36]	; 0x24
 8085bb2:	b93c      	cbnz	r4, 8085bc4 <__pow5mult+0x38>
 8085bb4:	2010      	movs	r0, #16
 8085bb6:	f7fc f9ff 	bl	8081fb8 <malloc>
 8085bba:	e9c0 4401 	strd	r4, r4, [r0, #4]
 8085bbe:	6270      	str	r0, [r6, #36]	; 0x24
 8085bc0:	6004      	str	r4, [r0, #0]
 8085bc2:	60c4      	str	r4, [r0, #12]
 8085bc4:	f8d6 8024 	ldr.w	r8, [r6, #36]	; 0x24
 8085bc8:	f8d8 4008 	ldr.w	r4, [r8, #8]
 8085bcc:	b94c      	cbnz	r4, 8085be2 <__pow5mult+0x56>
 8085bce:	f240 2171 	movw	r1, #625	; 0x271
 8085bd2:	4630      	mov	r0, r6
 8085bd4:	f7ff ff35 	bl	8085a42 <__i2b>
 8085bd8:	2300      	movs	r3, #0
 8085bda:	4604      	mov	r4, r0
 8085bdc:	f8c8 0008 	str.w	r0, [r8, #8]
 8085be0:	6003      	str	r3, [r0, #0]
 8085be2:	f04f 0900 	mov.w	r9, #0
 8085be6:	07eb      	lsls	r3, r5, #31
 8085be8:	d50a      	bpl.n	8085c00 <__pow5mult+0x74>
 8085bea:	4639      	mov	r1, r7
 8085bec:	4622      	mov	r2, r4
 8085bee:	4630      	mov	r0, r6
 8085bf0:	f7ff ff30 	bl	8085a54 <__multiply>
 8085bf4:	4680      	mov	r8, r0
 8085bf6:	4639      	mov	r1, r7
 8085bf8:	4630      	mov	r0, r6
 8085bfa:	f7ff fe41 	bl	8085880 <_Bfree>
 8085bfe:	4647      	mov	r7, r8
 8085c00:	106d      	asrs	r5, r5, #1
 8085c02:	d00b      	beq.n	8085c1c <__pow5mult+0x90>
 8085c04:	6820      	ldr	r0, [r4, #0]
 8085c06:	b938      	cbnz	r0, 8085c18 <__pow5mult+0x8c>
 8085c08:	4622      	mov	r2, r4
 8085c0a:	4621      	mov	r1, r4
 8085c0c:	4630      	mov	r0, r6
 8085c0e:	f7ff ff21 	bl	8085a54 <__multiply>
 8085c12:	6020      	str	r0, [r4, #0]
 8085c14:	f8c0 9000 	str.w	r9, [r0]
 8085c18:	4604      	mov	r4, r0
 8085c1a:	e7e4      	b.n	8085be6 <__pow5mult+0x5a>
 8085c1c:	4638      	mov	r0, r7
 8085c1e:	e8bd 83f8 	ldmia.w	sp!, {r3, r4, r5, r6, r7, r8, r9, pc}
 8085c22:	bf00      	nop
 8085c24:	080868a0 	.word	0x080868a0

08085c28 <__lshift>:
 8085c28:	e92d 47f0 	stmdb	sp!, {r4, r5, r6, r7, r8, r9, sl, lr}
 8085c2c:	460c      	mov	r4, r1
 8085c2e:	4607      	mov	r7, r0
 8085c30:	4691      	mov	r9, r2
 8085c32:	6923      	ldr	r3, [r4, #16]
 8085c34:	6849      	ldr	r1, [r1, #4]
 8085c36:	eb03 1862 	add.w	r8, r3, r2, asr #5
 8085c3a:	68a3      	ldr	r3, [r4, #8]
 8085c3c:	ea4f 1a62 	mov.w	sl, r2, asr #5
 8085c40:	f108 0601 	add.w	r6, r8, #1
 8085c44:	42b3      	cmp	r3, r6
 8085c46:	db3f      	blt.n	8085cc8 <__lshift+0xa0>
 8085c48:	4638      	mov	r0, r7
 8085c4a:	f7ff fde5 	bl	8085818 <_Balloc>
 8085c4e:	2300      	movs	r3, #0
 8085c50:	4605      	mov	r5, r0
 8085c52:	f100 0114 	add.w	r1, r0, #20
 8085c56:	f100 0210 	add.w	r2, r0, #16
 8085c5a:	4618      	mov	r0, r3
 8085c5c:	4553      	cmp	r3, sl
 8085c5e:	db36      	blt.n	8085cce <__lshift+0xa6>
 8085c60:	6920      	ldr	r0, [r4, #16]
 8085c62:	ea2a 7aea 	bic.w	sl, sl, sl, asr #31
 8085c66:	f104 0314 	add.w	r3, r4, #20
 8085c6a:	f019 091f 	ands.w	r9, r9, #31
 8085c6e:	eb01 018a 	add.w	r1, r1, sl, lsl #2
 8085c72:	eb03 0c80 	add.w	ip, r3, r0, lsl #2
 8085c76:	d02e      	beq.n	8085cd6 <__lshift+0xae>
 8085c78:	468a      	mov	sl, r1
 8085c7a:	2200      	movs	r2, #0
 8085c7c:	f1c9 0e20 	rsb	lr, r9, #32
 8085c80:	6818      	ldr	r0, [r3, #0]
 8085c82:	fa00 f009 	lsl.w	r0, r0, r9
 8085c86:	4302      	orrs	r2, r0
 8085c88:	f84a 2b04 	str.w	r2, [sl], #4
 8085c8c:	f853 2b04 	ldr.w	r2, [r3], #4
 8085c90:	459c      	cmp	ip, r3
 8085c92:	fa22 f20e 	lsr.w	r2, r2, lr
 8085c96:	d8f3      	bhi.n	8085c80 <__lshift+0x58>
 8085c98:	ebac 0304 	sub.w	r3, ip, r4
 8085c9c:	3b15      	subs	r3, #21
 8085c9e:	f023 0303 	bic.w	r3, r3, #3
 8085ca2:	3304      	adds	r3, #4
 8085ca4:	f104 0015 	add.w	r0, r4, #21
 8085ca8:	4560      	cmp	r0, ip
 8085caa:	bf88      	it	hi
 8085cac:	2304      	movhi	r3, #4
 8085cae:	50ca      	str	r2, [r1, r3]
 8085cb0:	b10a      	cbz	r2, 8085cb6 <__lshift+0x8e>
 8085cb2:	f108 0602 	add.w	r6, r8, #2
 8085cb6:	3e01      	subs	r6, #1
 8085cb8:	4638      	mov	r0, r7
 8085cba:	4621      	mov	r1, r4
 8085cbc:	612e      	str	r6, [r5, #16]
 8085cbe:	f7ff fddf 	bl	8085880 <_Bfree>
 8085cc2:	4628      	mov	r0, r5
 8085cc4:	e8bd 87f0 	ldmia.w	sp!, {r4, r5, r6, r7, r8, r9, sl, pc}
 8085cc8:	3101      	adds	r1, #1
 8085cca:	005b      	lsls	r3, r3, #1
 8085ccc:	e7ba      	b.n	8085c44 <__lshift+0x1c>
 8085cce:	f842 0f04 	str.w	r0, [r2, #4]!
 8085cd2:	3301      	adds	r3, #1
 8085cd4:	e7c2      	b.n	8085c5c <__lshift+0x34>
 8085cd6:	3904      	subs	r1, #4
 8085cd8:	f853 2b04 	ldr.w	r2, [r3], #4
 8085cdc:	459c      	cmp	ip, r3
 8085cde:	f841 2f04 	str.w	r2, [r1, #4]!
 8085ce2:	d8f9      	bhi.n	8085cd8 <__lshift+0xb0>
 8085ce4:	e7e7      	b.n	8085cb6 <__lshift+0x8e>

08085ce6 <__mcmp>:
 8085ce6:	4603      	mov	r3, r0
 8085ce8:	690a      	ldr	r2, [r1, #16]
 8085cea:	6900      	ldr	r0, [r0, #16]
 8085cec:	b530      	push	{r4, r5, lr}
 8085cee:	1a80      	subs	r0, r0, r2
 8085cf0:	d10d      	bne.n	8085d0e <__mcmp+0x28>
 8085cf2:	3314      	adds	r3, #20
 8085cf4:	3114      	adds	r1, #20
 8085cf6:	eb03 0482 	add.w	r4, r3, r2, lsl #2
 8085cfa:	eb01 0182 	add.w	r1, r1, r2, lsl #2
 8085cfe:	f854 5d04 	ldr.w	r5, [r4, #-4]!
 8085d02:	f851 2d04 	ldr.w	r2, [r1, #-4]!
 8085d06:	4295      	cmp	r5, r2
 8085d08:	d002      	beq.n	8085d10 <__mcmp+0x2a>
 8085d0a:	d304      	bcc.n	8085d16 <__mcmp+0x30>
 8085d0c:	2001      	movs	r0, #1
 8085d0e:	bd30      	pop	{r4, r5, pc}
 8085d10:	42a3      	cmp	r3, r4
 8085d12:	d3f4      	bcc.n	8085cfe <__mcmp+0x18>
 8085d14:	e7fb      	b.n	8085d0e <__mcmp+0x28>
 8085d16:	f04f 30ff 	mov.w	r0, #4294967295
 8085d1a:	e7f8      	b.n	8085d0e <__mcmp+0x28>

08085d1c <__mdiff>:
 8085d1c:	e92d 4ff8 	stmdb	sp!, {r3, r4, r5, r6, r7, r8, r9, sl, fp, lr}
 8085d20:	460c      	mov	r4, r1
 8085d22:	4606      	mov	r6, r0
 8085d24:	4611      	mov	r1, r2
 8085d26:	4620      	mov	r0, r4
 8085d28:	4692      	mov	sl, r2
 8085d2a:	f7ff ffdc 	bl	8085ce6 <__mcmp>
 8085d2e:	1e05      	subs	r5, r0, #0
 8085d30:	d108      	bne.n	8085d44 <__mdiff+0x28>
 8085d32:	4629      	mov	r1, r5
 8085d34:	4630      	mov	r0, r6
 8085d36:	f7ff fd6f 	bl	8085818 <_Balloc>
 8085d3a:	2301      	movs	r3, #1
 8085d3c:	e9c0 3504 	strd	r3, r5, [r0, #16]
 8085d40:	e8bd 8ff8 	ldmia.w	sp!, {r3, r4, r5, r6, r7, r8, r9, sl, fp, pc}
 8085d44:	bfa4      	itt	ge
 8085d46:	4653      	movge	r3, sl
 8085d48:	46a2      	movge	sl, r4
 8085d4a:	4630      	mov	r0, r6
 8085d4c:	f8da 1004 	ldr.w	r1, [sl, #4]
 8085d50:	bfa6      	itte	ge
 8085d52:	461c      	movge	r4, r3
 8085d54:	2500      	movge	r5, #0
 8085d56:	2501      	movlt	r5, #1
 8085d58:	f7ff fd5e 	bl	8085818 <_Balloc>
 8085d5c:	f100 0814 	add.w	r8, r0, #20
 8085d60:	f8da 7010 	ldr.w	r7, [sl, #16]
 8085d64:	60c5      	str	r5, [r0, #12]
 8085d66:	f10a 0210 	add.w	r2, sl, #16
 8085d6a:	f10a 0514 	add.w	r5, sl, #20
 8085d6e:	f04f 0c00 	mov.w	ip, #0
 8085d72:	46c2      	mov	sl, r8
 8085d74:	6926      	ldr	r6, [r4, #16]
 8085d76:	f104 0914 	add.w	r9, r4, #20
 8085d7a:	eb05 0e87 	add.w	lr, r5, r7, lsl #2
 8085d7e:	eb09 0686 	add.w	r6, r9, r6, lsl #2
 8085d82:	f852 bf04 	ldr.w	fp, [r2, #4]!
 8085d86:	f859 3b04 	ldr.w	r3, [r9], #4
 8085d8a:	fa1f f18b 	uxth.w	r1, fp
 8085d8e:	4461      	add	r1, ip
 8085d90:	fa1f fc83 	uxth.w	ip, r3
 8085d94:	0c1b      	lsrs	r3, r3, #16
 8085d96:	eba1 010c 	sub.w	r1, r1, ip
 8085d9a:	ebc3 431b 	rsb	r3, r3, fp, lsr #16
 8085d9e:	eb03 4321 	add.w	r3, r3, r1, asr #16
 8085da2:	b289      	uxth	r1, r1
 8085da4:	ea4f 4c23 	mov.w	ip, r3, asr #16
 8085da8:	454e      	cmp	r6, r9
 8085daa:	ea41 4303 	orr.w	r3, r1, r3, lsl #16
 8085dae:	f84a 3b04 	str.w	r3, [sl], #4
 8085db2:	d8e6      	bhi.n	8085d82 <__mdiff+0x66>
 8085db4:	1b33      	subs	r3, r6, r4
 8085db6:	3b15      	subs	r3, #21
 8085db8:	f023 0303 	bic.w	r3, r3, #3
 8085dbc:	3415      	adds	r4, #21
 8085dbe:	3304      	adds	r3, #4
 8085dc0:	42a6      	cmp	r6, r4
 8085dc2:	bf38      	it	cc
 8085dc4:	2304      	movcc	r3, #4
 8085dc6:	441d      	add	r5, r3
 8085dc8:	4443      	add	r3, r8
 8085dca:	461e      	mov	r6, r3
 8085dcc:	462c      	mov	r4, r5
 8085dce:	4574      	cmp	r4, lr
 8085dd0:	d30e      	bcc.n	8085df0 <__mdiff+0xd4>
 8085dd2:	f10e 0203 	add.w	r2, lr, #3
 8085dd6:	1b52      	subs	r2, r2, r5
 8085dd8:	f022 0203 	bic.w	r2, r2, #3
 8085ddc:	3d03      	subs	r5, #3
 8085dde:	45ae      	cmp	lr, r5
 8085de0:	bf38      	it	cc
 8085de2:	2200      	movcc	r2, #0
 8085de4:	441a      	add	r2, r3
 8085de6:	f852 3d04 	ldr.w	r3, [r2, #-4]!
 8085dea:	b18b      	cbz	r3, 8085e10 <__mdiff+0xf4>
 8085dec:	6107      	str	r7, [r0, #16]
 8085dee:	e7a7      	b.n	8085d40 <__mdiff+0x24>
 8085df0:	f854 8b04 	ldr.w	r8, [r4], #4
 8085df4:	fa1f f288 	uxth.w	r2, r8
 8085df8:	4462      	add	r2, ip
 8085dfa:	1411      	asrs	r1, r2, #16
 8085dfc:	eb01 4118 	add.w	r1, r1, r8, lsr #16
 8085e00:	b292      	uxth	r2, r2
 8085e02:	ea42 4201 	orr.w	r2, r2, r1, lsl #16
 8085e06:	ea4f 4c21 	mov.w	ip, r1, asr #16
 8085e0a:	f846 2b04 	str.w	r2, [r6], #4
 8085e0e:	e7de      	b.n	8085dce <__mdiff+0xb2>
 8085e10:	3f01      	subs	r7, #1
 8085e12:	e7e8      	b.n	8085de6 <__mdiff+0xca>

08085e14 <__ulp>:
 8085e14:	4b11      	ldr	r3, [pc, #68]	; (8085e5c <__ulp+0x48>)
 8085e16:	400b      	ands	r3, r1
 8085e18:	f1a3 7350 	sub.w	r3, r3, #54525952	; 0x3400000
 8085e1c:	2b00      	cmp	r3, #0
 8085e1e:	dd02      	ble.n	8085e26 <__ulp+0x12>
 8085e20:	2000      	movs	r0, #0
 8085e22:	4619      	mov	r1, r3
 8085e24:	4770      	bx	lr
 8085e26:	425b      	negs	r3, r3
 8085e28:	f1b3 7fa0 	cmp.w	r3, #20971520	; 0x1400000
 8085e2c:	f04f 0000 	mov.w	r0, #0
 8085e30:	f04f 0100 	mov.w	r1, #0
 8085e34:	ea4f 5223 	mov.w	r2, r3, asr #20
 8085e38:	da04      	bge.n	8085e44 <__ulp+0x30>
 8085e3a:	f44f 2300 	mov.w	r3, #524288	; 0x80000
 8085e3e:	fa43 f102 	asr.w	r1, r3, r2
 8085e42:	4770      	bx	lr
 8085e44:	f1a2 0314 	sub.w	r3, r2, #20
 8085e48:	2b1e      	cmp	r3, #30
 8085e4a:	bfd6      	itet	le
 8085e4c:	f04f 4200 	movle.w	r2, #2147483648	; 0x80000000
 8085e50:	2301      	movgt	r3, #1
 8085e52:	fa22 f303 	lsrle.w	r3, r2, r3
 8085e56:	4618      	mov	r0, r3
 8085e58:	4770      	bx	lr
 8085e5a:	bf00      	nop
 8085e5c:	7ff00000 	.word	0x7ff00000

08085e60 <__b2d>:
 8085e60:	e92d 43f8 	stmdb	sp!, {r3, r4, r5, r6, r7, r8, r9, lr}
 8085e64:	6907      	ldr	r7, [r0, #16]
 8085e66:	f100 0914 	add.w	r9, r0, #20
 8085e6a:	eb09 0787 	add.w	r7, r9, r7, lsl #2
 8085e6e:	f857 6c04 	ldr.w	r6, [r7, #-4]
 8085e72:	f1a7 0804 	sub.w	r8, r7, #4
 8085e76:	4630      	mov	r0, r6
 8085e78:	f7ff fd95 	bl	80859a6 <__hi0bits>
 8085e7c:	f1c0 0320 	rsb	r3, r0, #32
 8085e80:	280a      	cmp	r0, #10
 8085e82:	600b      	str	r3, [r1, #0]
 8085e84:	491f      	ldr	r1, [pc, #124]	; (8085f04 <__b2d+0xa4>)
 8085e86:	dc17      	bgt.n	8085eb8 <__b2d+0x58>
 8085e88:	45c1      	cmp	r9, r8
 8085e8a:	bf28      	it	cs
 8085e8c:	2200      	movcs	r2, #0
 8085e8e:	f1c0 0c0b 	rsb	ip, r0, #11
 8085e92:	fa26 f30c 	lsr.w	r3, r6, ip
 8085e96:	bf38      	it	cc
 8085e98:	f857 2c08 	ldrcc.w	r2, [r7, #-8]
 8085e9c:	ea43 0501 	orr.w	r5, r3, r1
 8085ea0:	f100 0315 	add.w	r3, r0, #21
 8085ea4:	fa06 f303 	lsl.w	r3, r6, r3
 8085ea8:	fa22 f20c 	lsr.w	r2, r2, ip
 8085eac:	ea43 0402 	orr.w	r4, r3, r2
 8085eb0:	4620      	mov	r0, r4
 8085eb2:	4629      	mov	r1, r5
 8085eb4:	e8bd 83f8 	ldmia.w	sp!, {r3, r4, r5, r6, r7, r8, r9, pc}
 8085eb8:	45c1      	cmp	r9, r8
 8085eba:	bf2e      	itee	cs
 8085ebc:	2200      	movcs	r2, #0
 8085ebe:	f857 2c08 	ldrcc.w	r2, [r7, #-8]
 8085ec2:	f1a7 0808 	subcc.w	r8, r7, #8
 8085ec6:	f1b0 030b 	subs.w	r3, r0, #11
 8085eca:	d016      	beq.n	8085efa <__b2d+0x9a>
 8085ecc:	f1c3 0720 	rsb	r7, r3, #32
 8085ed0:	fa22 f107 	lsr.w	r1, r2, r7
 8085ed4:	45c8      	cmp	r8, r9
 8085ed6:	fa06 f603 	lsl.w	r6, r6, r3
 8085eda:	ea46 0601 	orr.w	r6, r6, r1
 8085ede:	bf94      	ite	ls
 8085ee0:	2100      	movls	r1, #0
 8085ee2:	f858 1c04 	ldrhi.w	r1, [r8, #-4]
 8085ee6:	f046 557f 	orr.w	r5, r6, #1069547520	; 0x3fc00000
 8085eea:	fa02 f003 	lsl.w	r0, r2, r3
 8085eee:	40f9      	lsrs	r1, r7
 8085ef0:	f445 1540 	orr.w	r5, r5, #3145728	; 0x300000
 8085ef4:	ea40 0401 	orr.w	r4, r0, r1
 8085ef8:	e7da      	b.n	8085eb0 <__b2d+0x50>
 8085efa:	4614      	mov	r4, r2
 8085efc:	ea46 0501 	orr.w	r5, r6, r1
 8085f00:	e7d6      	b.n	8085eb0 <__b2d+0x50>
 8085f02:	bf00      	nop
 8085f04:	3ff00000 	.word	0x3ff00000

08085f08 <__d2b>:
 8085f08:	e92d 41f3 	stmdb	sp!, {r0, r1, r4, r5, r6, r7, r8, lr}
 8085f0c:	461c      	mov	r4, r3
 8085f0e:	e9dd 6508 	ldrd	r6, r5, [sp, #32]
 8085f12:	2101      	movs	r1, #1
 8085f14:	4690      	mov	r8, r2
 8085f16:	f7ff fc7f 	bl	8085818 <_Balloc>
 8085f1a:	f3c4 0313 	ubfx	r3, r4, #0, #20
 8085f1e:	f3c4 540a 	ubfx	r4, r4, #20, #11
 8085f22:	4607      	mov	r7, r0
 8085f24:	bb2c      	cbnz	r4, 8085f72 <__d2b+0x6a>
 8085f26:	9301      	str	r3, [sp, #4]
 8085f28:	f1b8 0300 	subs.w	r3, r8, #0
 8085f2c:	d026      	beq.n	8085f7c <__d2b+0x74>
 8085f2e:	4668      	mov	r0, sp
 8085f30:	9300      	str	r3, [sp, #0]
 8085f32:	f7ff fd58 	bl	80859e6 <__lo0bits>
 8085f36:	9900      	ldr	r1, [sp, #0]
 8085f38:	b1f0      	cbz	r0, 8085f78 <__d2b+0x70>
 8085f3a:	9a01      	ldr	r2, [sp, #4]
 8085f3c:	f1c0 0320 	rsb	r3, r0, #32
 8085f40:	fa02 f303 	lsl.w	r3, r2, r3
 8085f44:	430b      	orrs	r3, r1
 8085f46:	40c2      	lsrs	r2, r0
 8085f48:	617b      	str	r3, [r7, #20]
 8085f4a:	9201      	str	r2, [sp, #4]
 8085f4c:	9b01      	ldr	r3, [sp, #4]
 8085f4e:	2b00      	cmp	r3, #0
 8085f50:	bf14      	ite	ne
 8085f52:	2102      	movne	r1, #2
 8085f54:	2101      	moveq	r1, #1
 8085f56:	61bb      	str	r3, [r7, #24]
 8085f58:	6139      	str	r1, [r7, #16]
 8085f5a:	b1c4      	cbz	r4, 8085f8e <__d2b+0x86>
 8085f5c:	f2a4 4433 	subw	r4, r4, #1075	; 0x433
 8085f60:	4404      	add	r4, r0
 8085f62:	f1c0 0035 	rsb	r0, r0, #53	; 0x35
 8085f66:	6034      	str	r4, [r6, #0]
 8085f68:	6028      	str	r0, [r5, #0]
 8085f6a:	4638      	mov	r0, r7
 8085f6c:	b002      	add	sp, #8
 8085f6e:	e8bd 81f0 	ldmia.w	sp!, {r4, r5, r6, r7, r8, pc}
 8085f72:	f443 1380 	orr.w	r3, r3, #1048576	; 0x100000
 8085f76:	e7d6      	b.n	8085f26 <__d2b+0x1e>
 8085f78:	6179      	str	r1, [r7, #20]
 8085f7a:	e7e7      	b.n	8085f4c <__d2b+0x44>
 8085f7c:	a801      	add	r0, sp, #4
 8085f7e:	f7ff fd32 	bl	80859e6 <__lo0bits>
 8085f82:	2101      	movs	r1, #1
 8085f84:	9b01      	ldr	r3, [sp, #4]
 8085f86:	6139      	str	r1, [r7, #16]
 8085f88:	617b      	str	r3, [r7, #20]
 8085f8a:	3020      	adds	r0, #32
 8085f8c:	e7e5      	b.n	8085f5a <__d2b+0x52>
 8085f8e:	eb07 0381 	add.w	r3, r7, r1, lsl #2
 8085f92:	f2a0 4032 	subw	r0, r0, #1074	; 0x432
 8085f96:	6030      	str	r0, [r6, #0]
 8085f98:	6918      	ldr	r0, [r3, #16]
 8085f9a:	f7ff fd04 	bl	80859a6 <__hi0bits>
 8085f9e:	ebc0 1141 	rsb	r1, r0, r1, lsl #5
 8085fa2:	6029      	str	r1, [r5, #0]
 8085fa4:	e7e1      	b.n	8085f6a <__d2b+0x62>

08085fa6 <__ratio>:
 8085fa6:	e92d 4ff7 	stmdb	sp!, {r0, r1, r2, r4, r5, r6, r7, r8, r9, sl, fp, lr}
 8085faa:	4688      	mov	r8, r1
 8085fac:	4669      	mov	r1, sp
 8085fae:	4681      	mov	r9, r0
 8085fb0:	f7ff ff56 	bl	8085e60 <__b2d>
 8085fb4:	460f      	mov	r7, r1
 8085fb6:	4604      	mov	r4, r0
 8085fb8:	460d      	mov	r5, r1
 8085fba:	4640      	mov	r0, r8
 8085fbc:	a901      	add	r1, sp, #4
 8085fbe:	f7ff ff4f 	bl	8085e60 <__b2d>
 8085fc2:	f8d9 3010 	ldr.w	r3, [r9, #16]
 8085fc6:	f8d8 2010 	ldr.w	r2, [r8, #16]
 8085fca:	468b      	mov	fp, r1
 8085fcc:	eba3 0c02 	sub.w	ip, r3, r2
 8085fd0:	e9dd 3200 	ldrd	r3, r2, [sp]
 8085fd4:	1a9b      	subs	r3, r3, r2
 8085fd6:	eb03 134c 	add.w	r3, r3, ip, lsl #5
 8085fda:	2b00      	cmp	r3, #0
 8085fdc:	bfd5      	itete	le
 8085fde:	460a      	movle	r2, r1
 8085fe0:	462a      	movgt	r2, r5
 8085fe2:	ebc3 3303 	rsble	r3, r3, r3, lsl #12
 8085fe6:	eb02 5703 	addgt.w	r7, r2, r3, lsl #20
 8085fea:	bfd8      	it	le
 8085fec:	eb02 5b03 	addle.w	fp, r2, r3, lsl #20
 8085ff0:	465b      	mov	r3, fp
 8085ff2:	4602      	mov	r2, r0
 8085ff4:	4639      	mov	r1, r7
 8085ff6:	4620      	mov	r0, r4
 8085ff8:	f7fd fe42 	bl	8083c80 <__aeabi_ddiv>
 8085ffc:	b003      	add	sp, #12
 8085ffe:	e8bd 8ff0 	ldmia.w	sp!, {r4, r5, r6, r7, r8, r9, sl, fp, pc}

08086002 <__copybits>:
 8086002:	3901      	subs	r1, #1
 8086004:	b570      	push	{r4, r5, r6, lr}
 8086006:	1149      	asrs	r1, r1, #5
 8086008:	6914      	ldr	r4, [r2, #16]
 808600a:	3101      	adds	r1, #1
 808600c:	f102 0314 	add.w	r3, r2, #20
 8086010:	eb00 0181 	add.w	r1, r0, r1, lsl #2
 8086014:	eb03 0484 	add.w	r4, r3, r4, lsl #2
 8086018:	1f05      	subs	r5, r0, #4
 808601a:	42a3      	cmp	r3, r4
 808601c:	d30c      	bcc.n	8086038 <__copybits+0x36>
 808601e:	1aa3      	subs	r3, r4, r2
 8086020:	3b11      	subs	r3, #17
 8086022:	f023 0303 	bic.w	r3, r3, #3
 8086026:	3211      	adds	r2, #17
 8086028:	42a2      	cmp	r2, r4
 808602a:	bf88      	it	hi
 808602c:	2300      	movhi	r3, #0
 808602e:	4418      	add	r0, r3
 8086030:	2300      	movs	r3, #0
 8086032:	4288      	cmp	r0, r1
 8086034:	d305      	bcc.n	8086042 <__copybits+0x40>
 8086036:	bd70      	pop	{r4, r5, r6, pc}
 8086038:	f853 6b04 	ldr.w	r6, [r3], #4
 808603c:	f845 6f04 	str.w	r6, [r5, #4]!
 8086040:	e7eb      	b.n	808601a <__copybits+0x18>
 8086042:	f840 3b04 	str.w	r3, [r0], #4
 8086046:	e7f4      	b.n	8086032 <__copybits+0x30>

08086048 <__any_on>:
 8086048:	f100 0214 	add.w	r2, r0, #20
 808604c:	6900      	ldr	r0, [r0, #16]
 808604e:	114b      	asrs	r3, r1, #5
 8086050:	4298      	cmp	r0, r3
 8086052:	b510      	push	{r4, lr}
 8086054:	db11      	blt.n	808607a <__any_on+0x32>
 8086056:	dd0a      	ble.n	808606e <__any_on+0x26>
 8086058:	f011 011f 	ands.w	r1, r1, #31
 808605c:	d007      	beq.n	808606e <__any_on+0x26>
 808605e:	f852 4023 	ldr.w	r4, [r2, r3, lsl #2]
 8086062:	fa24 f001 	lsr.w	r0, r4, r1
 8086066:	fa00 f101 	lsl.w	r1, r0, r1
 808606a:	428c      	cmp	r4, r1
 808606c:	d10b      	bne.n	8086086 <__any_on+0x3e>
 808606e:	eb02 0383 	add.w	r3, r2, r3, lsl #2
 8086072:	4293      	cmp	r3, r2
 8086074:	d803      	bhi.n	808607e <__any_on+0x36>
 8086076:	2000      	movs	r0, #0
 8086078:	bd10      	pop	{r4, pc}
 808607a:	4603      	mov	r3, r0
 808607c:	e7f7      	b.n	808606e <__any_on+0x26>
 808607e:	f853 1d04 	ldr.w	r1, [r3, #-4]!
 8086082:	2900      	cmp	r1, #0
 8086084:	d0f5      	beq.n	8086072 <__any_on+0x2a>
 8086086:	2001      	movs	r0, #1
 8086088:	e7f6      	b.n	8086078 <__any_on+0x30>

0808608a <_calloc_r>:
 808608a:	b538      	push	{r3, r4, r5, lr}
 808608c:	fb02 f501 	mul.w	r5, r2, r1
 8086090:	4629      	mov	r1, r5
 8086092:	f7fb ffd1 	bl	8082038 <_malloc_r>
 8086096:	4604      	mov	r4, r0
 8086098:	b118      	cbz	r0, 80860a2 <_calloc_r+0x18>
 808609a:	462a      	mov	r2, r5
 808609c:	2100      	movs	r1, #0
 808609e:	f7fe f8bf 	bl	8084220 <memset>
 80860a2:	4620      	mov	r0, r4
 80860a4:	bd38      	pop	{r3, r4, r5, pc}
	...

080860a8 <nan>:
 80860a8:	2000      	movs	r0, #0
 80860aa:	4901      	ldr	r1, [pc, #4]	; (80860b0 <nan+0x8>)
 80860ac:	4770      	bx	lr
 80860ae:	bf00      	nop
 80860b0:	7ff80000 	.word	0x7ff80000

080860b4 <nanf>:
 80860b4:	4800      	ldr	r0, [pc, #0]	; (80860b8 <nanf+0x4>)
 80860b6:	4770      	bx	lr
 80860b8:	7fc00000 	.word	0x7fc00000

080860bc <__ascii_wctomb>:
 80860bc:	4603      	mov	r3, r0
 80860be:	4608      	mov	r0, r1
 80860c0:	b141      	cbz	r1, 80860d4 <__ascii_wctomb+0x18>
 80860c2:	2aff      	cmp	r2, #255	; 0xff
 80860c4:	d904      	bls.n	80860d0 <__ascii_wctomb+0x14>
 80860c6:	228a      	movs	r2, #138	; 0x8a
 80860c8:	f04f 30ff 	mov.w	r0, #4294967295
 80860cc:	601a      	str	r2, [r3, #0]
 80860ce:	4770      	bx	lr
 80860d0:	2001      	movs	r0, #1
 80860d2:	700a      	strb	r2, [r1, #0]
 80860d4:	4770      	bx	lr
	...

080860d8 <__aeabi_fcmpun>:
 80860d8:	ea4f 0240 	mov.w	r2, r0, lsl #1
 80860dc:	ea4f 0341 	mov.w	r3, r1, lsl #1
 80860e0:	ea7f 6c22 	mvns.w	ip, r2, asr #24
 80860e4:	d102      	bne.n	80860ec <__aeabi_fcmpun+0x14>
 80860e6:	ea5f 2c40 	movs.w	ip, r0, lsl #9
 80860ea:	d108      	bne.n	80860fe <__aeabi_fcmpun+0x26>
 80860ec:	ea7f 6c23 	mvns.w	ip, r3, asr #24
 80860f0:	d102      	bne.n	80860f8 <__aeabi_fcmpun+0x20>
 80860f2:	ea5f 2c41 	movs.w	ip, r1, lsl #9
 80860f6:	d102      	bne.n	80860fe <__aeabi_fcmpun+0x26>
 80860f8:	f04f 0000 	mov.w	r0, #0
 80860fc:	4770      	bx	lr
 80860fe:	f04f 0001 	mov.w	r0, #1
 8086102:	4770      	bx	lr

08086104 <__aeabi_d2lz>:
 8086104:	b538      	push	{r3, r4, r5, lr}
 8086106:	460c      	mov	r4, r1
 8086108:	4605      	mov	r5, r0
 808610a:	4621      	mov	r1, r4
 808610c:	4628      	mov	r0, r5
 808610e:	2200      	movs	r2, #0
 8086110:	2300      	movs	r3, #0
 8086112:	f7fd fefd 	bl	8083f10 <__aeabi_dcmplt>
 8086116:	b928      	cbnz	r0, 8086124 <__aeabi_d2lz+0x20>
 8086118:	4628      	mov	r0, r5
 808611a:	4621      	mov	r1, r4
 808611c:	e8bd 4038 	ldmia.w	sp!, {r3, r4, r5, lr}
 8086120:	f7fe b81a 	b.w	8084158 <__aeabi_d2ulz>
 8086124:	4628      	mov	r0, r5
 8086126:	f104 4100 	add.w	r1, r4, #2147483648	; 0x80000000
 808612a:	f7fe f815 	bl	8084158 <__aeabi_d2ulz>
 808612e:	4240      	negs	r0, r0
 8086130:	eb61 0141 	sbc.w	r1, r1, r1, lsl #1
 8086134:	bd38      	pop	{r3, r4, r5, pc}
 8086136:	bf00      	nop

08086138 <dynalib_user>:
 8086138:	0041 0808 0081 0808 00a9 0808 00ad 0808     A...............
 8086148:	0000 0000 6553 2074 655a 6f72 4620 6e75     ....Set Zero Fun
 8086158:	7463 6f69 206e 6163 6c6c 6465 6620 6f72     ction called fro
 8086168:	206d 6c63 756f 0064 6552 7473 7261 2074     m cloud.Restart 
 8086178:	7274 6769 6567 6572 0064 6f4c 706f 4420     triggered.Loop D
 8086188:	6c65 7961 7520 6470 7461 6465 7420 3a6f     elay updated to:
 8086198:	0020 7525 7b00 2200 6f4c 706f 6544 616c      .%u.{."LoopDela
 80861a8:	2279 003a 0022 7d22 4c00 6f6f 2070 6544     y":."."}.Loop De
 80861b8:	616c 2079 7075 6164 6574 0064 7453 7261     lay updated.Star
 80861c8:	7574 3a70 5220 6e75 696e 676e 5320 7465     tup: Running Set
 80861d8:	7075 4300 6f6c 6475 6552 6573 4674 6e75     up.CloudResetFun
 80861e8:	7463 6f69 006e 6553 4c74 6f6f 4470 6c65     ction.SetLoopDel
 80861f8:	7961 5300 7465 655a 6f72 6800 6f6f 2d6b     ay.SetZero.hook-
 8086208:	6572 7073 6e6f 6573 732f 6174 7472 7075     response/startup
 8086218:	5200 6265 6f6f 2074 6e69 6974 7461 6465     .Reboot intiated
 8086228:	4400 6265 6775 5200 6d65 746f 2065 6552     .Debug.Remote Re
 8086238:	6573 2074 6e49 7469 6169 6574 0064 6925     set Initiated.%i
 8086248:	2c00 0020 3425 312e 0066 5a22 7265 4f6f     ., .%4.1f."ZeroO
 8086258:	6666 6573 4974 4d6e 226d 003a 6173 6576     ffsetInMm":.save
 8086268:	655a 6f72 4e00 7765 7a20 7265 4f6f 6666     Zero.New zeroOff
 8086278:	6573 2074 7328 7661 6465 7420 206f 6c63     set (saved to cl
 8086288:	756f 2964 203a 2200 5444 3a22 2200 002c     oud): ."DT":.",.
 8086298:	5322 2253 003a 7372 6973 253d 2c64 7120     "SS":.rssi=%d, q
 80862a8:	6175 3d6c 6425 2200 734c 6942 7374 3a22     ual=%d."LsBits":
 80862b8:	2200 734c 6d4d 3a22 2200 734c 7641 3a22     ."LsMm":."LsAv":
 80862c8:	2200 734c 6853 7641 3a22 7400 6369 4c6b     ."LsShAv":.tickL
 80862d8:	7665 6c65 3300 6f69 2e74 6f63 006d 6f63     evel.3iot.com.co
 80862e8:	6c75 2064 6f6e 2074 6170 7372 2065 736a     uld not parse js
 80862f8:	6e6f 6500 7272 726f 7a00 7265 4f6f 6666     on.error.zeroOff
 8086308:	6573 4974 4d6e 206d 6128 2073 7473 726f     setInMm (as stor
 8086318:	6465 6f20 206e 7a41 7275 2965 203a 5300     ed on Azure): .S
 8086328:	7465 6974 676e 7a20 7265 4f6f 6666 6573     etting zeroOffse
 8086338:	4974 4d6e 006d 0000                         tInMm...

08086340 <_ZTV16JsonParserStaticILj256ELj20EE>:
	...
 8086348:	00d9 0808 00ed 0808 3025 7834 0000 0000     ........%04x....

08086358 <_ZTV10JsonBuffer>:
	...
 8086360:	0d99 0808 0db5 0808                         ........

08086368 <_ZTV10JsonParser>:
	...
 8086370:	0dc9 0808 0ded 0808                         ........

08086378 <_ZTV13JsonReference>:
	...
 8086380:	0d89 0808 0d8b 0808 5954 4550 555f 4b4e     ........TYPE_UNK
 8086390:	4f4e 4e57 5400 5059 5f45 4b4f 5400 5059     NOWN.TYPE_OK.TYP
 80863a0:	5f45 5245 4f52 0052 5954 4550 435f 4e4f     E_ERROR.TYPE_CON
 80863b0:	454e 5443 5400 5059 5f45 4f4e 4143 5252     NECT.TYPE_NOCARR
 80863c0:	4549 0052 5954 4550 4e5f 444f 4149 544c     IER.TYPE_NODIALT
 80863d0:	4e4f 0045 5954 4550 425f 5355 0059 5954     ONE.TYPE_BUSY.TY
 80863e0:	4550 4e5f 414f 534e 4557 0052 5954 4550     PE_NOANSWER.TYPE
 80863f0:	505f 4f52 504d 0054 5954 4550 505f 554c     _PROMPT.TYPE_PLU
 8086400:	0053 5954 4550 415f 4f42 5452 4445 7400     S.TYPE_ABORTED.t
 8086410:	7079 3d65 7830 7825 6300 6c65 756c 616c     ype=0x%x.cellula
 8086420:	2072 6572 7073 6e6f 6573 7420 7079 3d65     r response type=
 8086430:	7325 6c20 6e65 253d 0064 6e5c 5c00 0072     %s len=%d.\n.\r.
 8086440:	7830 3025 7832 2500 2c64 6425 4300 5153     0x%02x.%d,%d.CSQ
 8086450:	4100 2b54 5343 0d51 000a 2b0a 7325 203a     .AT+CSQ....+%s: 
 8086460:	0000 0000                                   ....

08086464 <_ZTV30CellularHelperRSSIQualResponse>:
	...
 808646c:	1ac5 0808                                   ....

08086470 <_ZTV32CellularHelperPlusStringResponse>:
	...
 8086478:	1ac5 0808 7061 0070 005a 2b25 3330 3a64     ....app.Z.%+03d:
 8086488:	3025 7532 2500 2d59 6d25 252d 5464 4825     %02u.%Y-%m-%dT%H
 8086498:	253a 3a4d 5325 7a25 6100 6373 6974 656d     :%M:%S%z.asctime
 80864a8:	0000 0000                                   ....

080864ac <_ZTVSt15_Sp_counted_ptrIPN8particle6detail10FutureImplIbNS1_13FutureContextEEELN9__gnu_cxx12_Lock_policyE0EE>:
	...
 80864b4:	2979 0808 297f 0808 29bd 0808 298d 0808     y)...)...)...)..
 80864c4:	297b 0808                                   {)..

080864c8 <_ZTV9IPAddress>:
	...
 80864d0:	2f11 0808 2f01 0808 2f03 0808               ./.../.../..

080864dc <_ZTV9USBSerial>:
	...
 80864e4:	2fa5 0808 300b 0808 2fe3 0808 2435 0808     ./...0.../..5$..
 80864f4:	2fd5 0808 2fa7 0808 2fb7 0808 3005 0808     ./.../.../...0..
 8086504:	2fc7 0808 2fa1 0808                         ./.../..

0808650c <_ZTVN5spark13CellularClassE>:
	...
 8086514:	319b 0808 3191 0808 3187 0808 3101 0808     .1...1...1...1..
 8086524:	317b 0808 316f 0808 345b 0808 3463 0808     {1..o1..[4..c4..
 8086534:	3163 0808 315b 0808 3151 0808 3147 0808     c1..[1..Q1..G1..
 8086544:	310b 0808                                   .1..

08086548 <_ZTV11USARTSerial>:
	...
 8086550:	31d5 0808 323d 0808 3219 0808 2435 0808     .1..=2...2..5$..
 8086560:	31e9 0808 3205 0808 31f7 0808 3213 0808     .1...2...1...2..
 8086570:	31d7 0808 31db 0808                         .1...1..

08086578 <_ZTV7TwoWire>:
	...
 8086580:	3325 0808 336f 0808 3347 0808 3327 0808     %3..o3..G3..'3..
 8086590:	334f 0808 3357 0808 335f 0808 3367 0808     O3..W3.._3..g3..

080865a0 <_ZTVN5spark12NetworkClassE>:
	...
 80865a8:	341b 0808 3425 0808 342f 0808 3439 0808     .4..%4../4..94..
 80865b8:	3443 0808 344f 0808 345b 0808 3463 0808     C4..O4..[4..c4..
 80865c8:	346b 0808 3477 0808 347f 0808 3489 0808     k4..w4...4...4..
 80865d8:	3495 0808                                   .4..

080865dc <_ZSt7nothrow>:
 80865dc:	2500 332e 2073 2e25 7333 3325 2064 2e25     .%.3s %.3s%3d %.
 80865ec:	6432 253a 322e 3a64 2e25 6432 2520 0a64     2d:%.2d:%.2d %d.
	...

080865fd <day_name.4782>:
 80865fd:	7553 4d6e 6e6f 7554 5765 6465 6854 4675     SunMonTueWedThuF
 808660d:	6972 6153                                    riSat

08086612 <mon_name.4783>:
 8086612:	614a 466e 6265 614d 4172 7270 614d 4a79     JanFebMarAprMayJ
 8086622:	6e75 754a 416c 6775 6553 4f70 7463 6f4e     unJulAugSepOctNo
 8086632:	4476 6365 666e 6900 696e 7974 6100 006e     vDecnf.inity.an.
	...

08086644 <fpi.6203>:
 8086644:	0035 0000 fbce ffff 03cb 0000 0001 0000     5...............
 8086654:	0000 0000                                   ....

08086658 <fpinan.6239>:
 8086658:	0034 0000 fbce ffff 03cb 0000 0001 0000     4...............
	...

08086670 <tinytens>:
 8086670:	89bc 97d8 d2b2 3c9c a733 d5a8 f623 3949     .......<3...#.I9
 8086680:	a73d 44f4 0ffd 32a5 979d cf8c ba08 255b     =..D...2......[%
 8086690:	6f43 64ac 0628 1168                         Co.d(.h.

08086698 <_ctype_>:
 8086698:	2000 2020 2020 2020 2020 2828 2828 2028     .         ((((( 
 80866a8:	2020 2020 2020 2020 2020 2020 2020 2020                     
 80866b8:	8820 1010 1010 1010 1010 1010 1010 1010      ...............
 80866c8:	0410 0404 0404 0404 0404 1004 1010 1010     ................
 80866d8:	1010 4141 4141 4141 0101 0101 0101 0101     ..AAAAAA........
 80866e8:	0101 0101 0101 0101 0101 0101 1010 1010     ................
 80866f8:	1010 4242 4242 4242 0202 0202 0202 0202     ..BBBBBB........
 8086708:	0202 0202 0202 0202 0202 0202 1010 1010     ................
 8086718:	0020 0000 0000 0000 0000 0000 0000 0000      ...............
	...
 8086798:	2e00 0000                                   ....

0808679c <_C_numeric_locale>:
 808679c:	6799 0808 6459 0808 0078 2000 0043 4f50     .g..Yd..x.. C.PO
 80867ac:	4953 0058                                   SIX.

080867b0 <__mprec_bigtens>:
 80867b0:	8000 37e0 c379 4341 6e17 b505 b8b5 4693     ...7y.AC.n.....F
 80867c0:	f9f5 e93f 4f03 4d38 1d32 f930 7748 5a82     ..?..O8M2.0.Hw.Z
 80867d0:	bf3c 7f73 4fdd 7515                         <.s..O.u

080867d8 <__mprec_tens>:
 80867d8:	0000 0000 0000 3ff0 0000 0000 0000 4024     .......?......$@
 80867e8:	0000 0000 0000 4059 0000 0000 4000 408f     ......Y@.....@.@
 80867f8:	0000 0000 8800 40c3 0000 0000 6a00 40f8     .......@.....j.@
 8086808:	0000 0000 8480 412e 0000 0000 12d0 4163     .......A......cA
 8086818:	0000 0000 d784 4197 0000 0000 cd65 41cd     .......A....e..A
 8086828:	0000 2000 a05f 4202 0000 e800 4876 4237     ... _..B....vH7B
 8086838:	0000 a200 1a94 426d 0000 e540 309c 42a2     ......mB..@..0.B
 8086848:	0000 1e90 bcc4 42d6 0000 2634 6bf5 430c     .......B..4&.k.C
 8086858:	8000 37e0 c379 4341 a000 85d8 3457 4376     ...7y.AC....W4vC
 8086868:	c800 674e c16d 43ab 3d00 6091 58e4 43e1     ..Ngm..C.=.`.X.C
 8086878:	8c40 78b5 af1d 4415 ef50 d6e2 1ae4 444b     @..x...DP.....KD
 8086888:	d592 064d f0cf 4480 4af6 c7e1 2d02 44b5     ..M....D.J...-.D
 8086898:	9db4 79d9 7843 44ea                         ...yCx.D

080868a0 <p05.6127>:
 80868a0:	0005 0000 0019 0000 007d 0000               ........}...

080868ac <link_const_variable_data_end>:
 80868ac:	08080af5 	.word	0x08080af5
 80868b0:	080820bd 	.word	0x080820bd
 80868b4:	08082549 	.word	0x08082549
 80868b8:	0808279d 	.word	0x0808279d
 80868bc:	080827f9 	.word	0x080827f9
 80868c0:	080831a5 	.word	0x080831a5
 80868c4:	080834dd 	.word	0x080834dd
 80868c8:	080835e1 	.word	0x080835e1

080868cc <link_constructors_end>:
 80868cc:	00000000 	.word	0x00000000
