
h:/OneDrive/Development/Particle/projects/LevelWatcherProject/target/1.5.0/electron/LevelWatcherProject.elf:     file format elf32-littlearm

Sections:
Idx Name          Size      VMA       LMA       File off  Algn
  0 .module_info  00000018  08080000  08080000  00010000  2**2
                  CONTENTS, ALLOC, LOAD, READONLY, DATA
  1 .dynalib      00000004  08080018  08080018  00010018  2**2
                  CONTENTS, ALLOC, LOAD, READONLY, DATA
  2 .text         00008360  08080020  08080020  00010020  2**3
                  CONTENTS, ALLOC, LOAD, READONLY, CODE
  3 .backup       00000004  40024000  08088380  00024000  2**2
                  CONTENTS, ALLOC, LOAD, DATA
  4 .data         00000100  20000000  08088384  00030000  2**2
                  CONTENTS, ALLOC, LOAD, DATA
  5 .bss          000005cc  20000100  20000100  00040100  2**3
                  ALLOC
  6 .module_info_suffix 00000028  08088484  08088484  00038484  2**0
                  CONTENTS, ALLOC, LOAD, READONLY, DATA
  7 .module_info_crc 00000004  080884ac  080884ac  000384ac  2**0
                  CONTENTS, ALLOC, LOAD, READONLY, DATA
  8 .debug_info   000cba34  00000000  00000000  000384b0  2**0
                  CONTENTS, READONLY, DEBUGGING
  9 .debug_abbrev 00012b22  00000000  00000000  00103ee4  2**0
                  CONTENTS, READONLY, DEBUGGING
 10 .debug_loc    00019560  00000000  00000000  00116a06  2**0
                  CONTENTS, READONLY, DEBUGGING
 11 .debug_aranges 000025f8  00000000  00000000  0012ff66  2**0
                  CONTENTS, READONLY, DEBUGGING
 12 .debug_ranges 00003dc8  00000000  00000000  0013255e  2**0
                  CONTENTS, READONLY, DEBUGGING
 13 .debug_macro  0002b70e  00000000  00000000  00136326  2**0
                  CONTENTS, READONLY, DEBUGGING
 14 .debug_line   0002cb76  00000000  00000000  00161a34  2**0
                  CONTENTS, READONLY, DEBUGGING
 15 .debug_str    000afded  00000000  00000000  0018e5aa  2**0
                  CONTENTS, READONLY, DEBUGGING
 16 .debug_frame  0000d70c  00000000  00000000  0023e398  2**2
                  CONTENTS, READONLY, DEBUGGING

Disassembly of section .text:

08080020 <module_user_pre_init>:
/**
 * Initializes this user module. Returns the start of the heap.
 */
void* module_user_pre_init() {

    if ( (&link_global_data_start!=&link_global_data_initial_values) && (link_global_data_size != 0))
 8080020:	4809      	ldr	r0, [pc, #36]	; (8080048 <module_user_pre_init+0x28>)
 8080022:	490a      	ldr	r1, [pc, #40]	; (808004c <module_user_pre_init+0x2c>)
extern constructor_ptr_t link_constructors_end;

/**
 * Initializes this user module. Returns the start of the heap.
 */
void* module_user_pre_init() {
 8080024:	b508      	push	{r3, lr}

    if ( (&link_global_data_start!=&link_global_data_initial_values) && (link_global_data_size != 0))
 8080026:	4288      	cmp	r0, r1
 8080028:	d005      	beq.n	8080036 <module_user_pre_init+0x16>
 808002a:	4a09      	ldr	r2, [pc, #36]	; (8080050 <module_user_pre_init+0x30>)
 808002c:	4282      	cmp	r2, r0
 808002e:	d002      	beq.n	8080036 <module_user_pre_init+0x16>
    {
        memcpy(&link_global_data_start, &link_global_data_initial_values, link_global_data_size);
 8080030:	1a12      	subs	r2, r2, r0
 8080032:	f004 faad 	bl	8084590 <memcpy>
    }

    memset(&link_bss_location, 0, link_bss_size );
 8080036:	4807      	ldr	r0, [pc, #28]	; (8080054 <module_user_pre_init+0x34>)
 8080038:	4a07      	ldr	r2, [pc, #28]	; (8080058 <module_user_pre_init+0x38>)
 808003a:	2100      	movs	r1, #0
 808003c:	1a12      	subs	r2, r2, r0
 808003e:	f004 fab2 	bl	80845a6 <memset>
    return &link_heap_start;
}
 8080042:	4806      	ldr	r0, [pc, #24]	; (808005c <module_user_pre_init+0x3c>)
 8080044:	bd08      	pop	{r3, pc}
 8080046:	bf00      	nop
 8080048:	20000000 	.word	0x20000000
 808004c:	08088384 	.word	0x08088384
 8080050:	20000100 	.word	0x20000100
 8080054:	20000100 	.word	0x20000100
 8080058:	200006cc 	.word	0x200006cc
 808005c:	200006cc 	.word	0x200006cc

08080060 <module_user_init>:
extern constructor_ptr_t link_constructors_location[];
extern constructor_ptr_t link_constructors_end;
#define link_constructors_size   ((unsigned long)&link_constructors_end  -  (unsigned long)&link_constructors_location )

void module_user_init()
{
 8080060:	b570      	push	{r4, r5, r6, lr}
    module_user_init_hook();
 8080062:	f002 fbf1 	bl	8082848 <module_user_init_hook>
 8080066:	4b07      	ldr	r3, [pc, #28]	; (8080084 <module_user_init+0x24>)
 8080068:	4c07      	ldr	r4, [pc, #28]	; (8080088 <module_user_init+0x28>)
 808006a:	461e      	mov	r6, r3
 808006c:	1ae4      	subs	r4, r4, r3
 808006e:	08a4      	lsrs	r4, r4, #2

    // invoke constructors
    int ctor_num;
    for (ctor_num=0; ctor_num < link_constructors_size/sizeof(constructor_ptr_t); ctor_num++ )
 8080070:	2500      	movs	r5, #0
 8080072:	42a5      	cmp	r5, r4
 8080074:	d004      	beq.n	8080080 <module_user_init+0x20>
    {
        link_constructors_location[ctor_num]();
 8080076:	f856 3025 	ldr.w	r3, [r6, r5, lsl #2]
 808007a:	4798      	blx	r3
{
    module_user_init_hook();

    // invoke constructors
    int ctor_num;
    for (ctor_num=0; ctor_num < link_constructors_size/sizeof(constructor_ptr_t); ctor_num++ )
 808007c:	3501      	adds	r5, #1
 808007e:	e7f8      	b.n	8080072 <module_user_init+0x12>
    {
        link_constructors_location[ctor_num]();
    }
}
 8080080:	bd70      	pop	{r4, r5, r6, pc}
 8080082:	bf00      	nop
 8080084:	08088334 	.word	0x08088334
 8080088:	08088374 	.word	0x08088374

0808008c <module_user_setup>:

/**
 * Export these functions with a fuller name so they don't clash with the setup/loop wrappers in the system module.
 */
void module_user_setup() {
    setup();
 808008c:	f000 b942 	b.w	8080314 <setup>

08080090 <module_user_loop>:
}

void module_user_loop() {
 8080090:	b508      	push	{r3, lr}
    loop();
 8080092:	f000 f9c1 	bl	8080418 <loop>
    _post_loop();
}
 8080096:	e8bd 4008 	ldmia.w	sp!, {r3, lr}
    setup();
}

void module_user_loop() {
    loop();
    _post_loop();
 808009a:	f002 bb97 	b.w	80827cc <_post_loop>

0808009e <_Znwj>:
 808009e:	f001 bf45 	b.w	8081f2c <malloc>

080800a2 <_ZdlPv>:
 80800a2:	f001 bf4b 	b.w	8081f3c <free>

080800a6 <__cxa_guard_acquire>:

/* Provide default implemenation for __cxa_guard_acquire() and
 * __cxa_guard_release(). Note: these must be revisited if a multitasking
 * OS is ported to this platform. */
__extension__ typedef int __guard __attribute__((mode (__DI__)));
int __cxa_guard_acquire(__guard *g) {return !*(char *)(g);};
 80800a6:	7800      	ldrb	r0, [r0, #0]
 80800a8:	fab0 f080 	clz	r0, r0
 80800ac:	0940      	lsrs	r0, r0, #5
 80800ae:	4770      	bx	lr

080800b0 <__cxa_guard_release>:
void __cxa_guard_release (__guard *g) {*(char *)g = 1;};
 80800b0:	2301      	movs	r3, #1
 80800b2:	7003      	strb	r3, [r0, #0]
 80800b4:	4770      	bx	lr
	...

080800b8 <_ZN16JsonParserStaticILj256ELj20EED1Ev>:
 *
 * @param MAX_TOKENS The maximum number of tokens you expect. Each object has a token and two for each key/value pair.
 * Each array is a token and one for each element in the array.
 */
template <size_t BUFFER_SIZE, size_t MAX_TOKENS>
class JsonParserStatic : public JsonParser {
 80800b8:	b510      	push	{r4, lr}
 80800ba:	4604      	mov	r4, r0
 80800bc:	4b02      	ldr	r3, [pc, #8]	; (80800c8 <_ZN16JsonParserStaticILj256ELj20EED1Ev+0x10>)
 80800be:	6003      	str	r3, [r0, #0]
 80800c0:	f000 fe64 	bl	8080d8c <_ZN10JsonParserD1Ev>
 80800c4:	4620      	mov	r0, r4
 80800c6:	bd10      	pop	{r4, pc}
 80800c8:	08087484 	.word	0x08087484

080800cc <_ZN16JsonParserStaticILj256ELj20EED0Ev>:
 80800cc:	b510      	push	{r4, lr}
 80800ce:	4604      	mov	r4, r0
 80800d0:	f7ff fff2 	bl	80800b8 <_ZN16JsonParserStaticILj256ELj20EED1Ev>
 80800d4:	4620      	mov	r0, r4
 80800d6:	f44f 711b 	mov.w	r1, #620	; 0x26c
 80800da:	f003 fab1 	bl	8083640 <_ZdlPvj>
 80800de:	4620      	mov	r0, r4
 80800e0:	bd10      	pop	{r4, pc}
	...

080800e4 <_Z5blinkm>:
    blinkLong(3);
    blinkShort(3);
}

void blink(unsigned long onTime)
{
 80800e4:	b538      	push	{r3, r4, r5, lr}
 80800e6:	4605      	mov	r5, r0
    digitalWrite(onboardLed, HIGH);
 80800e8:	4c08      	ldr	r4, [pc, #32]	; (808010c <_Z5blinkm+0x28>)
 80800ea:	2101      	movs	r1, #1
 80800ec:	8820      	ldrh	r0, [r4, #0]
 80800ee:	f003 fa02 	bl	80834f6 <digitalWrite>
    // We'll leave it on for 1 second...
    delay(onTime);
 80800f2:	4628      	mov	r0, r5
 80800f4:	f002 fafc 	bl	80826f0 <delay>
    // Then we'll turn it off...
    digitalWrite(onboardLed, LOW);
 80800f8:	8820      	ldrh	r0, [r4, #0]
 80800fa:	2100      	movs	r1, #0
 80800fc:	f003 f9fb 	bl	80834f6 <digitalWrite>
    delay(200);
}
 8080100:	e8bd 4038 	ldmia.w	sp!, {r3, r4, r5, lr}
    digitalWrite(onboardLed, HIGH);
    // We'll leave it on for 1 second...
    delay(onTime);
    // Then we'll turn it off...
    digitalWrite(onboardLed, LOW);
    delay(200);
 8080104:	20c8      	movs	r0, #200	; 0xc8
 8080106:	f002 baf3 	b.w	80826f0 <delay>
 808010a:	bf00      	nop
 808010c:	20000004 	.word	0x20000004

08080110 <_Z9blinkLongi>:
}

void blinkLong(int times)
{
 8080110:	b538      	push	{r3, r4, r5, lr}
 8080112:	4605      	mov	r5, r0
    for (int i = 0; i < times; i++)
 8080114:	2400      	movs	r4, #0
 8080116:	42ac      	cmp	r4, r5
 8080118:	da05      	bge.n	8080126 <_Z9blinkLongi+0x16>
    {
        blink(600);
 808011a:	f44f 7016 	mov.w	r0, #600	; 0x258
 808011e:	f7ff ffe1 	bl	80800e4 <_Z5blinkm>
    delay(200);
}

void blinkLong(int times)
{
    for (int i = 0; i < times; i++)
 8080122:	3401      	adds	r4, #1
 8080124:	e7f7      	b.n	8080116 <_Z9blinkLongi+0x6>
 8080126:	bd38      	pop	{r3, r4, r5, pc}

08080128 <_Z10blinkShorti>:
        blink(600);
    }
}

void blinkShort(int times)
{
 8080128:	b538      	push	{r3, r4, r5, lr}
 808012a:	4605      	mov	r5, r0
    for (int i = 0; i < times; i++)
 808012c:	2400      	movs	r4, #0
 808012e:	42ac      	cmp	r4, r5
 8080130:	da04      	bge.n	808013c <_Z10blinkShorti+0x14>
    {
        blink(200);
 8080132:	20c8      	movs	r0, #200	; 0xc8
 8080134:	f7ff ffd6 	bl	80800e4 <_Z5blinkm>
    }
}

void blinkShort(int times)
{
    for (int i = 0; i < times; i++)
 8080138:	3401      	adds	r4, #1
 808013a:	e7f8      	b.n	808012e <_Z10blinkShorti+0x6>
 808013c:	bd38      	pop	{r3, r4, r5, pc}

0808013e <_Z3sosv>:
    rebootSync = millis();
    return 0;
}

void sos()
{
 808013e:	b508      	push	{r3, lr}
    blinkShort(3);
 8080140:	2003      	movs	r0, #3
 8080142:	f7ff fff1 	bl	8080128 <_Z10blinkShorti>
    blinkLong(3);
 8080146:	2003      	movs	r0, #3
 8080148:	f7ff ffe2 	bl	8080110 <_Z9blinkLongi>
    blinkShort(3);
}
 808014c:	e8bd 4008 	ldmia.w	sp!, {r3, lr}

void sos()
{
    blinkShort(3);
    blinkLong(3);
    blinkShort(3);
 8080150:	2003      	movs	r0, #3
 8080152:	f7ff bfe9 	b.w	8080128 <_Z10blinkShorti>

08080156 <_ZNSt14__shared_countILN9__gnu_cxx12_Lock_policyE0EED1Ev>:
      explicit __shared_count(const __weak_count<_Lp>& __r);

      // Does not throw if __r._M_get_use_count() == 0, caller must check.
      explicit __shared_count(const __weak_count<_Lp>& __r, std::nothrow_t);

      ~__shared_count() noexcept
 8080156:	b538      	push	{r3, r4, r5, lr}
      {
	if (_M_pi != nullptr)
 8080158:	6804      	ldr	r4, [r0, #0]
      explicit __shared_count(const __weak_count<_Lp>& __r);

      // Does not throw if __r._M_get_use_count() == 0, caller must check.
      explicit __shared_count(const __weak_count<_Lp>& __r, std::nothrow_t);

      ~__shared_count() noexcept
 808015a:	4605      	mov	r5, r0
      {
	if (_M_pi != nullptr)
 808015c:	b17c      	cbz	r4, 808017e <_ZNSt14__shared_countILN9__gnu_cxx12_Lock_policyE0EED1Ev+0x28>

  template<>
    inline void
    _Sp_counted_base<_S_single>::_M_release() noexcept
    {
      if (--_M_use_count == 0)
 808015e:	6863      	ldr	r3, [r4, #4]
 8080160:	3b01      	subs	r3, #1
 8080162:	6063      	str	r3, [r4, #4]
 8080164:	b95b      	cbnz	r3, 808017e <_ZNSt14__shared_countILN9__gnu_cxx12_Lock_policyE0EED1Ev+0x28>
        {
          _M_dispose();
 8080166:	6823      	ldr	r3, [r4, #0]
 8080168:	4620      	mov	r0, r4
 808016a:	689b      	ldr	r3, [r3, #8]
 808016c:	4798      	blx	r3
          if (--_M_weak_count == 0)
 808016e:	68a3      	ldr	r3, [r4, #8]
 8080170:	3b01      	subs	r3, #1
 8080172:	60a3      	str	r3, [r4, #8]
 8080174:	b91b      	cbnz	r3, 808017e <_ZNSt14__shared_countILN9__gnu_cxx12_Lock_policyE0EED1Ev+0x28>
            _M_destroy();
 8080176:	6823      	ldr	r3, [r4, #0]
 8080178:	4620      	mov	r0, r4
 808017a:	68db      	ldr	r3, [r3, #12]
 808017c:	4798      	blx	r3

      ~__shared_count() noexcept
      {
	if (_M_pi != nullptr)
	  _M_pi->_M_release();
      }
 808017e:	4628      	mov	r0, r5
 8080180:	bd38      	pop	{r3, r4, r5, pc}

08080182 <_ZN5Print8printlnfIIEEEjPKcDpT_>:
    }

    template <typename... Args>
    inline size_t printlnf(const char* format, Args... args)
    {
        return this->printf_impl(true, format, args...);
 8080182:	460a      	mov	r2, r1
 8080184:	2101      	movs	r1, #1
 8080186:	f002 b973 	b.w	8082470 <_ZN5Print11printf_implEbPKcz>
	...

0808018c <_Z7setZero6String>:
STARTUP(cellular_credentials_set("3iot", "", "", NULL)); //globalM2M SIM starting 8953
//STARTUP(cellular_credentials_set("mokanix", "", "", NULL));
//STARTUP(cellular_credentials_set("globaldata", "", "", NULL));  //globalM2M SIM starting 89234 or 89444

int setZero(String command)
{
 808018c:	b507      	push	{r0, r1, r2, lr}
    Serial.printlnf("Set Zero Function called from cloud");
 808018e:	f002 ff25 	bl	8082fdc <_Z16_fetch_usbserialv>
 8080192:	490b      	ldr	r1, [pc, #44]	; (80801c0 <_Z7setZero6String+0x34>)
 8080194:	f7ff fff5 	bl	8080182 <_ZN5Print8printlnfIIEEEjPKcDpT_>
    zeroOffsetInMm = 0.0; //Reset zero offset to allow re-calculation
 8080198:	490a      	ldr	r1, [pc, #40]	; (80801c4 <_Z7setZero6String+0x38>)
 808019a:	2200      	movs	r2, #0
 808019c:	2300      	movs	r3, #0
 808019e:	e9c1 2300 	strd	r2, r3, [r1]
    longAveragingArray.fillValue(0.0, LONG_SAMPLE_SIZE);
 80801a2:	2118      	movs	r1, #24
 80801a4:	9100      	str	r1, [sp, #0]
 80801a6:	4808      	ldr	r0, [pc, #32]	; (80801c8 <_Z7setZero6String+0x3c>)
 80801a8:	f001 fa54 	bl	8081654 <_ZN14RunningAverage9fillValueEdh>
    zeroingInProgress = true;
 80801ac:	4a07      	ldr	r2, [pc, #28]	; (80801cc <_Z7setZero6String+0x40>)
 80801ae:	2301      	movs	r3, #1
 80801b0:	7013      	strb	r3, [r2, #0]
    sample = 1;
 80801b2:	4a07      	ldr	r2, [pc, #28]	; (80801d0 <_Z7setZero6String+0x44>)
    return 0;
}
 80801b4:	2000      	movs	r0, #0
{
    Serial.printlnf("Set Zero Function called from cloud");
    zeroOffsetInMm = 0.0; //Reset zero offset to allow re-calculation
    longAveragingArray.fillValue(0.0, LONG_SAMPLE_SIZE);
    zeroingInProgress = true;
    sample = 1;
 80801b6:	6013      	str	r3, [r2, #0]
    return 0;
}
 80801b8:	b003      	add	sp, #12
 80801ba:	f85d fb04 	ldr.w	pc, [sp], #4
 80801be:	bf00      	nop
 80801c0:	0808748c 	.word	0x0808748c
 80801c4:	200003d0 	.word	0x200003d0
 80801c8:	20000370 	.word	0x20000370
 80801cc:	200003a8 	.word	0x200003a8
 80801d0:	20000008 	.word	0x20000008

080801d4 <_Z18cloudResetFunction6String>:
    Particle.publish("Loop Delay updated", loopDelayData, 600, PRIVATE);
    return 0;
}

int cloudResetFunction(String command)
{
 80801d4:	b508      	push	{r3, lr}
    Serial.printlnf("Restart triggered");
 80801d6:	f002 ff01 	bl	8082fdc <_Z16_fetch_usbserialv>
 80801da:	4906      	ldr	r1, [pc, #24]	; (80801f4 <_Z18cloudResetFunction6String+0x20>)
 80801dc:	f7ff ffd1 	bl	8080182 <_ZN5Print8printlnfIIEEEjPKcDpT_>
    resetFlag = true;
 80801e0:	4b05      	ldr	r3, [pc, #20]	; (80801f8 <_Z18cloudResetFunction6String+0x24>)
 80801e2:	2201      	movs	r2, #1
 80801e4:	701a      	strb	r2, [r3, #0]

#ifdef __cplusplus
extern "C" {
#endif

inline system_tick_t millis(void) { return HAL_Timer_Get_Milli_Seconds(); }
 80801e6:	f001 fcad 	bl	8081b44 <HAL_Timer_Get_Milli_Seconds>
    rebootSync = millis();
 80801ea:	4b04      	ldr	r3, [pc, #16]	; (80801fc <_Z18cloudResetFunction6String+0x28>)
 80801ec:	6018      	str	r0, [r3, #0]
    return 0;
}
 80801ee:	2000      	movs	r0, #0
 80801f0:	bd08      	pop	{r3, pc}
 80801f2:	bf00      	nop
 80801f4:	080874b0 	.word	0x080874b0
 80801f8:	20000388 	.word	0x20000388
 80801fc:	200003ac 	.word	0x200003ac

08080200 <_Z12setLoopDelay6String>:
    startupCompleted = true; //We can now run loop
}

int setLoopDelay(String delay)
//Set loop delay in seconds
{
 8080200:	b570      	push	{r4, r5, r6, lr}
 8080202:	b09a      	sub	sp, #104	; 0x68
    loopDelay = atol(delay);
 8080204:	6800      	ldr	r0, [r0, #0]
 8080206:	f004 f8b5 	bl	8084374 <atol>
 808020a:	4c38      	ldr	r4, [pc, #224]	; (80802ec <_Z12setLoopDelay6String+0xec>)
    Serial.printlnf("Loop Delay updated to: " + String::format("%u", loopDelay));
 808020c:	4d38      	ldr	r5, [pc, #224]	; (80802f0 <_Z12setLoopDelay6String+0xf0>)
}

int setLoopDelay(String delay)
//Set loop delay in seconds
{
    loopDelay = atol(delay);
 808020e:	6020      	str	r0, [r4, #0]
    Serial.printlnf("Loop Delay updated to: " + String::format("%u", loopDelay));
 8080210:	f002 fee4 	bl	8082fdc <_Z16_fetch_usbserialv>

class StringSumHelper : public String
{
public:
	StringSumHelper(const String &s) : String(s) {}
	StringSumHelper(const char *p) : String(p) {}
 8080214:	4937      	ldr	r1, [pc, #220]	; (80802f4 <_Z12setLoopDelay6String+0xf4>)
 8080216:	4606      	mov	r6, r0
 8080218:	a816      	add	r0, sp, #88	; 0x58
 808021a:	f001 ffd3 	bl	80821c4 <_ZN6StringC1EPK19__FlashStringHelper>
 808021e:	6822      	ldr	r2, [r4, #0]
 8080220:	4629      	mov	r1, r5
 8080222:	a812      	add	r0, sp, #72	; 0x48
 8080224:	f002 f8a8 	bl	8082378 <_ZN6String6formatEPKcz>
 8080228:	a912      	add	r1, sp, #72	; 0x48
 808022a:	a816      	add	r0, sp, #88	; 0x58
 808022c:	f002 f873 	bl	8082316 <_ZplRK15StringSumHelperRK6String>
 8080230:	6801      	ldr	r1, [r0, #0]
 8080232:	4630      	mov	r0, r6
 8080234:	f7ff ffa5 	bl	8080182 <_ZN5Print8printlnfIIEEEjPKcDpT_>
 8080238:	a812      	add	r0, sp, #72	; 0x48
 808023a:	f001 ff7c 	bl	8082136 <_ZN6StringD1Ev>

        friend class StringPrintableHelper;

};

class StringSumHelper : public String
 808023e:	a816      	add	r0, sp, #88	; 0x58
 8080240:	f001 ff79 	bl	8082136 <_ZN6StringD1Ev>
    loopDelayData = String("{") +
                    String("\"LoopDelay\":") + String("\"") + String::format("%u", loopDelay) +
 8080244:	492c      	ldr	r1, [pc, #176]	; (80802f8 <_Z12setLoopDelay6String+0xf8>)
 8080246:	a802      	add	r0, sp, #8
 8080248:	f001 ffbc 	bl	80821c4 <_ZN6StringC1EPK19__FlashStringHelper>
{
public:
	StringSumHelper(const String &s) : String(s) {}
 808024c:	a902      	add	r1, sp, #8
 808024e:	a80a      	add	r0, sp, #40	; 0x28
 8080250:	f001 fff7 	bl	8082242 <_ZN6StringC1ERKS_>
 8080254:	4929      	ldr	r1, [pc, #164]	; (80802fc <_Z12setLoopDelay6String+0xfc>)
 8080256:	a806      	add	r0, sp, #24
 8080258:	f001 ffb4 	bl	80821c4 <_ZN6StringC1EPK19__FlashStringHelper>
 808025c:	a906      	add	r1, sp, #24
 808025e:	a80a      	add	r0, sp, #40	; 0x28
 8080260:	f002 f859 	bl	8082316 <_ZplRK15StringSumHelperRK6String>
 8080264:	4606      	mov	r6, r0
 8080266:	4926      	ldr	r1, [pc, #152]	; (8080300 <_Z12setLoopDelay6String+0x100>)
 8080268:	a80e      	add	r0, sp, #56	; 0x38
 808026a:	f001 ffab 	bl	80821c4 <_ZN6StringC1EPK19__FlashStringHelper>
 808026e:	a90e      	add	r1, sp, #56	; 0x38
 8080270:	4630      	mov	r0, r6
 8080272:	f002 f850 	bl	8082316 <_ZplRK15StringSumHelperRK6String>
 8080276:	4606      	mov	r6, r0
 8080278:	6822      	ldr	r2, [r4, #0]
 808027a:	4629      	mov	r1, r5
 808027c:	a812      	add	r0, sp, #72	; 0x48
 808027e:	f002 f87b 	bl	8082378 <_ZN6String6formatEPKcz>
 8080282:	a912      	add	r1, sp, #72	; 0x48
 8080284:	4630      	mov	r0, r6
 8080286:	f002 f846 	bl	8082316 <_ZplRK15StringSumHelperRK6String>
 808028a:	4604      	mov	r4, r0
                    String("\"}");
 808028c:	491d      	ldr	r1, [pc, #116]	; (8080304 <_Z12setLoopDelay6String+0x104>)
 808028e:	a816      	add	r0, sp, #88	; 0x58
 8080290:	f001 ff98 	bl	80821c4 <_ZN6StringC1EPK19__FlashStringHelper>
 8080294:	a916      	add	r1, sp, #88	; 0x58
 8080296:	4620      	mov	r0, r4
 8080298:	f002 f83d 	bl	8082316 <_ZplRK15StringSumHelperRK6String>
 808029c:	4c1a      	ldr	r4, [pc, #104]	; (8080308 <_Z12setLoopDelay6String+0x108>)
 808029e:	4601      	mov	r1, r0
 80802a0:	4620      	mov	r0, r4
 80802a2:	f001 ffbf 	bl	8082224 <_ZN6StringaSERKS_>
 80802a6:	a816      	add	r0, sp, #88	; 0x58
 80802a8:	f001 ff45 	bl	8082136 <_ZN6StringD1Ev>
//Set loop delay in seconds
{
    loopDelay = atol(delay);
    Serial.printlnf("Loop Delay updated to: " + String::format("%u", loopDelay));
    loopDelayData = String("{") +
                    String("\"LoopDelay\":") + String("\"") + String::format("%u", loopDelay) +
 80802ac:	a812      	add	r0, sp, #72	; 0x48
 80802ae:	f001 ff42 	bl	8082136 <_ZN6StringD1Ev>
 80802b2:	a80e      	add	r0, sp, #56	; 0x38
 80802b4:	f001 ff3f 	bl	8082136 <_ZN6StringD1Ev>
 80802b8:	a806      	add	r0, sp, #24
 80802ba:	f001 ff3c 	bl	8082136 <_ZN6StringD1Ev>

        friend class StringPrintableHelper;

};

class StringSumHelper : public String
 80802be:	a80a      	add	r0, sp, #40	; 0x28
 80802c0:	f001 ff39 	bl	8082136 <_ZN6StringD1Ev>
 80802c4:	a802      	add	r0, sp, #8
 80802c6:	f001 ff36 	bl	8082136 <_ZN6StringD1Ev>
 80802ca:	4b10      	ldr	r3, [pc, #64]	; (808030c <_Z12setLoopDelay6String+0x10c>)
 80802cc:	6822      	ldr	r2, [r4, #0]
 80802ce:	781b      	ldrb	r3, [r3, #0]
        return publish(eventName, eventData, DEFAULT_CLOUD_EVENT_TTL, flags1, flags2);
    }

    inline particle::Future<bool> publish(const char *eventName, const char *eventData, int ttl, PublishFlags flags1, PublishFlags flags2 = PublishFlags())
    {
        return publish_event(eventName, eventData, ttl, flags1 | flags2);
 80802d0:	490f      	ldr	r1, [pc, #60]	; (8080310 <_Z12setLoopDelay6String+0x110>)
 80802d2:	f88d 3000 	strb.w	r3, [sp]
 80802d6:	a816      	add	r0, sp, #88	; 0x58
 80802d8:	f44f 7316 	mov.w	r3, #600	; 0x258
 80802dc:	f002 fc4e 	bl	8082b7c <_ZN10CloudClass13publish_eventEPKcS1_iN8particle5FlagsI15PublishFlagTypehEE>
	: _M_ptr(__p), _M_refcount(__r._M_refcount) // never throws
	{ }

      __shared_ptr(const __shared_ptr&) noexcept = default;
      __shared_ptr& operator=(const __shared_ptr&) noexcept = default;
      ~__shared_ptr() = default;
 80802e0:	a817      	add	r0, sp, #92	; 0x5c
 80802e2:	f7ff ff38 	bl	8080156 <_ZNSt14__shared_countILN9__gnu_cxx12_Lock_policyE0EED1Ev>
                    String("\"}");
    Particle.publish("Loop Delay updated", loopDelayData, 600, PRIVATE);
    return 0;
}
 80802e6:	2000      	movs	r0, #0
 80802e8:	b01a      	add	sp, #104	; 0x68
 80802ea:	bd70      	pop	{r4, r5, r6, pc}
 80802ec:	20000000 	.word	0x20000000
 80802f0:	08087aba 	.word	0x08087aba
 80802f4:	080874c2 	.word	0x080874c2
 80802f8:	080874da 	.word	0x080874da
 80802fc:	080874dc 	.word	0x080874dc
 8080300:	080874e9 	.word	0x080874e9
 8080304:	080874eb 	.word	0x080874eb
 8080308:	200003d8 	.word	0x200003d8
 808030c:	200003a9 	.word	0x200003a9
 8080310:	080874ee 	.word	0x080874ee

08080314 <setup>:
        blink(200);
    }
}

void setup()
{
 8080314:	e92d 43f0 	stmdb	sp!, {r4, r5, r6, r7, r8, r9, lr}
 8080318:	b085      	sub	sp, #20
    //
    Serial.printlnf("Startup: Running Setup");
 808031a:	f002 fe5f 	bl	8082fdc <_Z16_fetch_usbserialv>
 808031e:	492e      	ldr	r1, [pc, #184]	; (80803d8 <setup+0xc4>)
 8080320:	f7ff ff2f 	bl	8080182 <_ZN5Print8printlnfIIEEEjPKcDpT_>
    static String deviceID(void) { return SystemClass::deviceID(); }

#if HAL_PLATFORM_CLOUD_UDP
    inline static void keepAlive(unsigned sec)
    {
        particle::protocol::connection_properties_t conn_prop = {0};
 8080324:	2400      	movs	r4, #0
        return _function(name, args...);
    }

    static bool _function(const char *funcKey, user_function_int_str_t* func)
    {
        return register_function(call_raw_user_function, (void*)func, funcKey);
 8080326:	4e2d      	ldr	r6, [pc, #180]	; (80803dc <setup+0xc8>)

#if HAL_PLATFORM_CLOUD_UDP
    inline static void keepAlive(unsigned sec)
    {
        particle::protocol::connection_properties_t conn_prop = {0};
        conn_prop.size = sizeof(conn_prop);
 8080328:	2308      	movs	r3, #8
    static String deviceID(void) { return SystemClass::deviceID(); }

#if HAL_PLATFORM_CLOUD_UDP
    inline static void keepAlive(unsigned sec)
    {
        particle::protocol::connection_properties_t conn_prop = {0};
 808032a:	9402      	str	r4, [sp, #8]
        conn_prop.size = sizeof(conn_prop);
        conn_prop.keepalive_source = particle::protocol::KeepAliveSource::USER;
 808032c:	2701      	movs	r7, #1

#if HAL_PLATFORM_CLOUD_UDP
    inline static void keepAlive(unsigned sec)
    {
        particle::protocol::connection_properties_t conn_prop = {0};
        conn_prop.size = sizeof(conn_prop);
 808032e:	f8ad 3008 	strh.w	r3, [sp, #8]
        conn_prop.keepalive_source = particle::protocol::KeepAliveSource::USER;
 8080332:	ad04      	add	r5, sp, #16
        spark_set_connection_property(particle::protocol::Connection::PING,
                                               sec * 1000, &conn_prop, nullptr);
 8080334:	4623      	mov	r3, r4
 8080336:	aa02      	add	r2, sp, #8
 8080338:	f247 5130 	movw	r1, #30000	; 0x7530
 808033c:	4620      	mov	r0, r4
#if HAL_PLATFORM_CLOUD_UDP
    inline static void keepAlive(unsigned sec)
    {
        particle::protocol::connection_properties_t conn_prop = {0};
        conn_prop.size = sizeof(conn_prop);
        conn_prop.keepalive_source = particle::protocol::KeepAliveSource::USER;
 808033e:	f845 7d04 	str.w	r7, [r5, #-4]!
        spark_set_connection_property(particle::protocol::Connection::PING,
                                               sec * 1000, &conn_prop, nullptr);
 8080342:	f001 fde3 	bl	8081f0c <spark_set_connection_property>
        return _function(name, args...);
    }

    static bool _function(const char *funcKey, user_function_int_str_t* func)
    {
        return register_function(call_raw_user_function, (void*)func, funcKey);
 8080346:	4a26      	ldr	r2, [pc, #152]	; (80803e0 <setup+0xcc>)
 8080348:	4926      	ldr	r1, [pc, #152]	; (80803e4 <setup+0xd0>)
 808034a:	4630      	mov	r0, r6
 808034c:	f002 fb06 	bl	808295c <_ZN10CloudClass17register_functionEPFiPvPKcS0_ES0_S2_>
 8080350:	4a25      	ldr	r2, [pc, #148]	; (80803e8 <setup+0xd4>)
 8080352:	4926      	ldr	r1, [pc, #152]	; (80803ec <setup+0xd8>)
 8080354:	4630      	mov	r0, r6
 8080356:	f002 fb01 	bl	808295c <_ZN10CloudClass17register_functionEPFiPvPKcS0_ES0_S2_>
 808035a:	4a25      	ldr	r2, [pc, #148]	; (80803f0 <setup+0xdc>)
 808035c:	4925      	ldr	r1, [pc, #148]	; (80803f4 <setup+0xe0>)
 808035e:	4630      	mov	r0, r6
 8080360:	f002 fafc 	bl	808295c <_ZN10CloudClass17register_functionEPFiPvPKcS0_ES0_S2_>
    int publishVitals(system_tick_t period_s = particle::NOW);
    inline int publishVitals(std::chrono::seconds s) { return publishVitals(s.count()); }

    inline bool subscribe(const char *eventName, EventHandler handler, Spark_Subscription_Scope_TypeDef scope)
    {
        return spark_subscribe(eventName, handler, NULL, scope, NULL, NULL);
 8080364:	4924      	ldr	r1, [pc, #144]	; (80803f8 <setup+0xe4>)
 8080366:	4623      	mov	r3, r4
 8080368:	4622      	mov	r2, r4
 808036a:	9401      	str	r4, [sp, #4]
 808036c:	9400      	str	r4, [sp, #0]
 808036e:	4823      	ldr	r0, [pc, #140]	; (80803fc <setup+0xe8>)
 8080370:	f001 fdbc 	bl	8081eec <spark_subscribe>
    Particle.function("SetZero", setZero);

    // Subscribe to the webhook response event
    Particle.subscribe("hook-response/startup", startupHandler, MY_DEVICES);

    longAveragingArray.fillValue(0.0, LONG_SAMPLE_SIZE);   // Clear out averaging array
 8080374:	f04f 0800 	mov.w	r8, #0
 8080378:	f04f 0900 	mov.w	r9, #0
 808037c:	2318      	movs	r3, #24
 808037e:	9300      	str	r3, [sp, #0]
 8080380:	4642      	mov	r2, r8
 8080382:	464b      	mov	r3, r9
 8080384:	481e      	ldr	r0, [pc, #120]	; (8080400 <setup+0xec>)
 8080386:	f001 f965 	bl	8081654 <_ZN14RunningAverage9fillValueEdh>
    shortAveragingArray.fillValue(0.0, SHORT_SAMPLE_SIZE); // Clear out averaging array
 808038a:	2303      	movs	r3, #3
 808038c:	4642      	mov	r2, r8
 808038e:	9300      	str	r3, [sp, #0]
 8080390:	481c      	ldr	r0, [pc, #112]	; (8080404 <setup+0xf0>)
 8080392:	464b      	mov	r3, r9
 8080394:	f001 f95e 	bl	8081654 <_ZN14RunningAverage9fillValueEdh>
    pinMode(onboardLed, OUTPUT);                           //Setup activity led so we can blink it to show we're rolling...
 8080398:	4b1b      	ldr	r3, [pc, #108]	; (8080408 <setup+0xf4>)
    //   setADCSampleTime(ADC_SampleTime_3Cycles);
    //set ADC gain  ads.setGain(GAIN_ONE);        // 1x gain   +/- 4.096V  1 bit=0.125mV
    //Setup ADC
    ads.setGain(GAIN_TWO); //GAIN_ONE for ...
 808039a:	4e1c      	ldr	r6, [pc, #112]	; (808040c <setup+0xf8>)
    // Subscribe to the webhook response event
    Particle.subscribe("hook-response/startup", startupHandler, MY_DEVICES);

    longAveragingArray.fillValue(0.0, LONG_SAMPLE_SIZE);   // Clear out averaging array
    shortAveragingArray.fillValue(0.0, SHORT_SAMPLE_SIZE); // Clear out averaging array
    pinMode(onboardLed, OUTPUT);                           //Setup activity led so we can blink it to show we're rolling...
 808039c:	8818      	ldrh	r0, [r3, #0]
 808039e:	4639      	mov	r1, r7
 80803a0:	f003 f898 	bl	80834d4 <pinMode>
    //   setADCSampleTime(ADC_SampleTime_3Cycles);
    //set ADC gain  ads.setGain(GAIN_ONE);        // 1x gain   +/- 4.096V  1 bit=0.125mV
    //Setup ADC
    ads.setGain(GAIN_TWO); //GAIN_ONE for ...
 80803a4:	f44f 6180 	mov.w	r1, #1024	; 0x400
 80803a8:	4630      	mov	r0, r6
 80803aa:	f001 f9bf 	bl	808172c <_ZN16Adafruit_ADS10157setGainE9adsGain_t>
    ads.begin();
 80803ae:	4630      	mov	r0, r6
 80803b0:	f001 f9b5 	bl	808171e <_ZN16Adafruit_ADS10155beginEv>
 80803b4:	4b16      	ldr	r3, [pc, #88]	; (8080410 <setup+0xfc>)
        return publish(eventName, eventData, DEFAULT_CLOUD_EVENT_TTL, flags1, flags2);
    }

    inline particle::Future<bool> publish(const char *eventName, const char *eventData, int ttl, PublishFlags flags1, PublishFlags flags2 = PublishFlags())
    {
        return publish_event(eventName, eventData, ttl, flags1 | flags2);
 80803b6:	4622      	mov	r2, r4
 80803b8:	781b      	ldrb	r3, [r3, #0]
 80803ba:	4916      	ldr	r1, [pc, #88]	; (8080414 <setup+0x100>)
 80803bc:	f88d 3000 	strb.w	r3, [sp]
 80803c0:	a802      	add	r0, sp, #8
 80803c2:	f44f 7316 	mov.w	r3, #600	; 0x258
 80803c6:	f002 fbd9 	bl	8082b7c <_ZN10CloudClass13publish_eventEPKcS1_iN8particle5FlagsI15PublishFlagTypehEE>
 80803ca:	4628      	mov	r0, r5
 80803cc:	f7ff fec3 	bl	8080156 <_ZNSt14__shared_countILN9__gnu_cxx12_Lock_policyE0EED1Ev>
    Particle.publish("startup", NULL, 600, PRIVATE); //TODO:  Specify and send sensor ID so as to retrieve correct offset.
}
 80803d0:	b005      	add	sp, #20
 80803d2:	e8bd 83f0 	ldmia.w	sp!, {r4, r5, r6, r7, r8, r9, pc}
 80803d6:	bf00      	nop
 80803d8:	08087501 	.word	0x08087501
 80803dc:	08082931 	.word	0x08082931
 80803e0:	08087518 	.word	0x08087518
 80803e4:	080801d5 	.word	0x080801d5
 80803e8:	0808752b 	.word	0x0808752b
 80803ec:	08080201 	.word	0x08080201
 80803f0:	08087538 	.word	0x08087538
 80803f4:	0808018d 	.word	0x0808018d
 80803f8:	08080bc9 	.word	0x08080bc9
 80803fc:	08087540 	.word	0x08087540
 8080400:	20000370 	.word	0x20000370
 8080404:	20000390 	.word	0x20000390
 8080408:	20000004 	.word	0x20000004
 808040c:	200003c4 	.word	0x200003c4
 8080410:	200003a9 	.word	0x200003a9
 8080414:	0808754e 	.word	0x0808754e

08080418 <loop>:
//
// Main loop
//
void loop()
{
 8080418:	b5f0      	push	{r4, r5, r6, r7, lr}
 808041a:	b0f9      	sub	sp, #484	; 0x1e4
 808041c:	f001 fb92 	bl	8081b44 <HAL_Timer_Get_Milli_Seconds>
    if ((millis() >= REBOOT_INTERVAL_IN_MS))
 8080420:	4b18      	ldr	r3, [pc, #96]	; (8080484 <loop+0x6c>)
 8080422:	4298      	cmp	r0, r3
 8080424:	d911      	bls.n	808044a <loop+0x32>
    {
        //Reboot regularly to freshen up
        // do things here  before reset and then push the button
        sos();
 8080426:	f7ff fe8a 	bl	808013e <_Z3sosv>
 808042a:	4b17      	ldr	r3, [pc, #92]	; (8080488 <loop+0x70>)
 808042c:	4a17      	ldr	r2, [pc, #92]	; (808048c <loop+0x74>)
 808042e:	781b      	ldrb	r3, [r3, #0]
 8080430:	4917      	ldr	r1, [pc, #92]	; (8080490 <loop+0x78>)
 8080432:	f88d 3000 	strb.w	r3, [sp]
 8080436:	a86b      	add	r0, sp, #428	; 0x1ac
 8080438:	f44f 7396 	mov.w	r3, #300	; 0x12c
 808043c:	f002 fb9e 	bl	8082b7c <_ZN10CloudClass13publish_eventEPKcS1_iN8particle5FlagsI15PublishFlagTypehEE>
 8080440:	a86c      	add	r0, sp, #432	; 0x1b0
 8080442:	f7ff fe88 	bl	8080156 <_ZNSt14__shared_countILN9__gnu_cxx12_Lock_policyE0EED1Ev>
        Particle.publish("Debug", "Reboot intiated", 300, PRIVATE);
        System.reset();
 8080446:	f001 fe0a 	bl	808205e <_ZN11SystemClass5resetEv>
    }

    if ((resetFlag) && (millis() - rebootSync >= REBOOT_DELAY_IN_MS))
 808044a:	4b12      	ldr	r3, [pc, #72]	; (8080494 <loop+0x7c>)
 808044c:	781b      	ldrb	r3, [r3, #0]
 808044e:	b14b      	cbz	r3, 8080464 <loop+0x4c>
 8080450:	f001 fb78 	bl	8081b44 <HAL_Timer_Get_Milli_Seconds>
 8080454:	4b10      	ldr	r3, [pc, #64]	; (8080498 <loop+0x80>)
 8080456:	681b      	ldr	r3, [r3, #0]
 8080458:	1ac0      	subs	r0, r0, r3
 808045a:	f643 2397 	movw	r3, #14999	; 0x3a97
 808045e:	4298      	cmp	r0, r3
 8080460:	f200 82f5 	bhi.w	8080a4e <loop+0x636>
        sos();
        Particle.publish("Debug", "Remote Reset Initiated", 300, PRIVATE);
        System.reset();
    }

    time_t time = Time.now();
 8080464:	f002 f933 	bl	80826ce <_ZN9TimeClass3nowEv>

    CellularHelperRSSIQualResponse rssiQual = CellularHelper.getRSSIQual();
 8080468:	490c      	ldr	r1, [pc, #48]	; (808049c <loop+0x84>)
        sos();
        Particle.publish("Debug", "Remote Reset Initiated", 300, PRIVATE);
        System.reset();
    }

    time_t time = Time.now();
 808046a:	4607      	mov	r7, r0

    CellularHelperRSSIQualResponse rssiQual = CellularHelper.getRSSIQual();
 808046c:	a86b      	add	r0, sp, #428	; 0x1ac
 808046e:	f001 faa3 	bl	80819b8 <_ZNK19CellularHelperClass11getRSSIQualEv>

    if (!startupCompleted)
 8080472:	4b0b      	ldr	r3, [pc, #44]	; (80804a0 <loop+0x88>)
 8080474:	781b      	ldrb	r3, [r3, #0]
 8080476:	b9ab      	cbnz	r3, 80804a4 <loop+0x8c>
    {
        blinkShort(4);             // Let know i'm waiting...
 8080478:	2004      	movs	r0, #4
 808047a:	f7ff fe55 	bl	8080128 <_Z10blinkShorti>
        delay(STARTUP_LOOP_DELAY); //Wait a bit to  let syseem run ok
 808047e:	f242 7010 	movw	r0, #10000	; 0x2710
 8080482:	e2d8      	b.n	8080a36 <loop+0x61e>
 8080484:	481907ff 	.word	0x481907ff
 8080488:	200003a9 	.word	0x200003a9
 808048c:	08087556 	.word	0x08087556
 8080490:	08087566 	.word	0x08087566
 8080494:	20000388 	.word	0x20000388
 8080498:	200003ac 	.word	0x200003ac
 808049c:	20000404 	.word	0x20000404
 80804a0:	200003b0 	.word	0x200003b0
        return;
    }

    blinkShort(1); //Signal normal running loop
 80804a4:	2001      	movs	r0, #1
 80804a6:	f7ff fe3f 	bl	8080128 <_Z10blinkShorti>

    //  System.sleep(10);
    //  delay(8000);
    waterLevelSampleReading = ads.readADC_SingleEnded(0); //FOR NDC setup -- ads.readADC_Differential_0_1() for ...;
 80804aa:	2100      	movs	r1, #0
 80804ac:	48b8      	ldr	r0, [pc, #736]	; (8080790 <loop+0x378>)
 80804ae:	f001 f93f 	bl	8081730 <_ZN16Adafruit_ADS101519readADC_SingleEndedEh>
 80804b2:	4ab8      	ldr	r2, [pc, #736]	; (8080794 <loop+0x37c>)
    if (waterLevelSampleReading > 1 and waterLevelSampleReading <= MAX_16_BIT_ANALOGUE_BIT_VALUE)
 80804b4:	2801      	cmp	r0, #1

    blinkShort(1); //Signal normal running loop

    //  System.sleep(10);
    //  delay(8000);
    waterLevelSampleReading = ads.readADC_SingleEnded(0); //FOR NDC setup -- ads.readADC_Differential_0_1() for ...;
 80804b6:	6010      	str	r0, [r2, #0]
    if (waterLevelSampleReading > 1 and waterLevelSampleReading <= MAX_16_BIT_ANALOGUE_BIT_VALUE)
 80804b8:	dd27      	ble.n	808050a <loop+0xf2>
 80804ba:	f003 fb71 	bl	8083ba0 <__aeabi_i2d>
 80804be:	a3ae      	add	r3, pc, #696	; (adr r3, 8080778 <loop+0x360>)
 80804c0:	e9d3 2300 	ldrd	r2, r3, [r3]
 80804c4:	4604      	mov	r4, r0
 80804c6:	460d      	mov	r5, r1
 80804c8:	f003 fe4c 	bl	8084164 <__aeabi_dcmple>
 80804cc:	b1e8      	cbz	r0, 808050a <loop+0xf2>
    {
        //add sample if not an outlier
        //sometimes you get a duff reading, usually 0.  As we are 4-20mA must be greater than ...
        waterLevelInMm = (waterLevelSampleReading - FOUR_MA_OFFSET_IN_BITS) * (SENSOR_FULL_RANGE_IN_MM / (MAX_16_BIT_ANALOGUE_BIT_VALUE - FOUR_MA_OFFSET_IN_BITS)) - zeroOffsetInMm;
 80804ce:	a3ac      	add	r3, pc, #688	; (adr r3, 8080780 <loop+0x368>)
 80804d0:	e9d3 2300 	ldrd	r2, r3, [r3]
 80804d4:	4620      	mov	r0, r4
 80804d6:	4629      	mov	r1, r5
 80804d8:	f003 fa14 	bl	8083904 <__aeabi_dsub>
 80804dc:	a3aa      	add	r3, pc, #680	; (adr r3, 8080788 <loop+0x370>)
 80804de:	e9d3 2300 	ldrd	r2, r3, [r3]
 80804e2:	f003 fbc3 	bl	8083c6c <__aeabi_dmul>
 80804e6:	4bac      	ldr	r3, [pc, #688]	; (8080798 <loop+0x380>)
 80804e8:	4cac      	ldr	r4, [pc, #688]	; (808079c <loop+0x384>)
 80804ea:	e9d3 2300 	ldrd	r2, r3, [r3]
 80804ee:	f003 fa09 	bl	8083904 <__aeabi_dsub>
 80804f2:	4602      	mov	r2, r0
 80804f4:	460b      	mov	r3, r1
        longAveragingArray.addValue(waterLevelInMm);
 80804f6:	48aa      	ldr	r0, [pc, #680]	; (80807a0 <loop+0x388>)
    waterLevelSampleReading = ads.readADC_SingleEnded(0); //FOR NDC setup -- ads.readADC_Differential_0_1() for ...;
    if (waterLevelSampleReading > 1 and waterLevelSampleReading <= MAX_16_BIT_ANALOGUE_BIT_VALUE)
    {
        //add sample if not an outlier
        //sometimes you get a duff reading, usually 0.  As we are 4-20mA must be greater than ...
        waterLevelInMm = (waterLevelSampleReading - FOUR_MA_OFFSET_IN_BITS) * (SENSOR_FULL_RANGE_IN_MM / (MAX_16_BIT_ANALOGUE_BIT_VALUE - FOUR_MA_OFFSET_IN_BITS)) - zeroOffsetInMm;
 80804f8:	e9c4 2300 	strd	r2, r3, [r4]
        longAveragingArray.addValue(waterLevelInMm);
 80804fc:	f001 f86a 	bl	80815d4 <_ZN14RunningAverage8addValueEd>
        shortAveragingArray.addValue(waterLevelInMm);
 8080500:	e9d4 2300 	ldrd	r2, r3, [r4]
 8080504:	48a7      	ldr	r0, [pc, #668]	; (80807a4 <loop+0x38c>)
 8080506:	f001 f865 	bl	80815d4 <_ZN14RunningAverage8addValueEd>
    }
    Serial.printlnf(String::format("%i", sample) + ", " + String::format("%u", waterLevelSampleReading) + ", " + String::format("%4.1f", waterLevelInMm) + ", " + String::format("%4.1f", longAveragingArray.getAverage()) + ", " + String::format("%4.1f", shortAveragingArray.getAverage()));
 808050a:	f002 fd67 	bl	8082fdc <_Z16_fetch_usbserialv>
 808050e:	4ca6      	ldr	r4, [pc, #664]	; (80807a8 <loop+0x390>)
 8080510:	4605      	mov	r5, r0
 8080512:	6822      	ldr	r2, [r4, #0]
 8080514:	49a5      	ldr	r1, [pc, #660]	; (80807ac <loop+0x394>)
 8080516:	a853      	add	r0, sp, #332	; 0x14c
 8080518:	f001 ff2e 	bl	8082378 <_ZN6String6formatEPKcz>
{
public:
	StringSumHelper(const String &s) : String(s) {}
 808051c:	a953      	add	r1, sp, #332	; 0x14c
 808051e:	a857      	add	r0, sp, #348	; 0x15c
 8080520:	f001 fe8f 	bl	8082242 <_ZN6StringC1ERKS_>
 8080524:	49a2      	ldr	r1, [pc, #648]	; (80807b0 <loop+0x398>)
 8080526:	a857      	add	r0, sp, #348	; 0x15c
 8080528:	f001 ff01 	bl	808232e <_ZplRK15StringSumHelperPKc>
 808052c:	4606      	mov	r6, r0
 808052e:	4b99      	ldr	r3, [pc, #612]	; (8080794 <loop+0x37c>)
 8080530:	49a0      	ldr	r1, [pc, #640]	; (80807b4 <loop+0x39c>)
 8080532:	681a      	ldr	r2, [r3, #0]
 8080534:	a85b      	add	r0, sp, #364	; 0x16c
 8080536:	f001 ff1f 	bl	8082378 <_ZN6String6formatEPKcz>
 808053a:	a95b      	add	r1, sp, #364	; 0x16c
 808053c:	4630      	mov	r0, r6
 808053e:	f001 feea 	bl	8082316 <_ZplRK15StringSumHelperRK6String>
 8080542:	499b      	ldr	r1, [pc, #620]	; (80807b0 <loop+0x398>)
 8080544:	f001 fef3 	bl	808232e <_ZplRK15StringSumHelperPKc>
 8080548:	4606      	mov	r6, r0
 808054a:	4b94      	ldr	r3, [pc, #592]	; (808079c <loop+0x384>)
 808054c:	499a      	ldr	r1, [pc, #616]	; (80807b8 <loop+0x3a0>)
 808054e:	e9d3 2300 	ldrd	r2, r3, [r3]
 8080552:	a85f      	add	r0, sp, #380	; 0x17c
 8080554:	f001 ff10 	bl	8082378 <_ZN6String6formatEPKcz>
 8080558:	a95f      	add	r1, sp, #380	; 0x17c
 808055a:	4630      	mov	r0, r6
 808055c:	f001 fedb 	bl	8082316 <_ZplRK15StringSumHelperRK6String>
 8080560:	4993      	ldr	r1, [pc, #588]	; (80807b0 <loop+0x398>)
 8080562:	f001 fee4 	bl	808232e <_ZplRK15StringSumHelperPKc>
 8080566:	4606      	mov	r6, r0
 8080568:	488d      	ldr	r0, [pc, #564]	; (80807a0 <loop+0x388>)
 808056a:	f001 f863 	bl	8081634 <_ZN14RunningAverage10getAverageEv>
 808056e:	4602      	mov	r2, r0
 8080570:	460b      	mov	r3, r1
 8080572:	a863      	add	r0, sp, #396	; 0x18c
 8080574:	4990      	ldr	r1, [pc, #576]	; (80807b8 <loop+0x3a0>)
 8080576:	f001 feff 	bl	8082378 <_ZN6String6formatEPKcz>
 808057a:	a963      	add	r1, sp, #396	; 0x18c
 808057c:	4630      	mov	r0, r6
 808057e:	f001 feca 	bl	8082316 <_ZplRK15StringSumHelperRK6String>
 8080582:	498b      	ldr	r1, [pc, #556]	; (80807b0 <loop+0x398>)
 8080584:	f001 fed3 	bl	808232e <_ZplRK15StringSumHelperPKc>
 8080588:	4606      	mov	r6, r0
 808058a:	4886      	ldr	r0, [pc, #536]	; (80807a4 <loop+0x38c>)
 808058c:	f001 f852 	bl	8081634 <_ZN14RunningAverage10getAverageEv>
 8080590:	4602      	mov	r2, r0
 8080592:	460b      	mov	r3, r1
 8080594:	a867      	add	r0, sp, #412	; 0x19c
 8080596:	4988      	ldr	r1, [pc, #544]	; (80807b8 <loop+0x3a0>)
 8080598:	f001 feee 	bl	8082378 <_ZN6String6formatEPKcz>
 808059c:	a967      	add	r1, sp, #412	; 0x19c
 808059e:	4630      	mov	r0, r6
 80805a0:	f001 feb9 	bl	8082316 <_ZplRK15StringSumHelperRK6String>
 80805a4:	6801      	ldr	r1, [r0, #0]
 80805a6:	4628      	mov	r0, r5
 80805a8:	f7ff fdeb 	bl	8080182 <_ZN5Print8printlnfIIEEEjPKcDpT_>
 80805ac:	a867      	add	r0, sp, #412	; 0x19c
 80805ae:	f001 fdc2 	bl	8082136 <_ZN6StringD1Ev>
 80805b2:	a863      	add	r0, sp, #396	; 0x18c
 80805b4:	f001 fdbf 	bl	8082136 <_ZN6StringD1Ev>
 80805b8:	a85f      	add	r0, sp, #380	; 0x17c
 80805ba:	f001 fdbc 	bl	8082136 <_ZN6StringD1Ev>
 80805be:	a85b      	add	r0, sp, #364	; 0x16c
 80805c0:	f001 fdb9 	bl	8082136 <_ZN6StringD1Ev>

        friend class StringPrintableHelper;

};

class StringSumHelper : public String
 80805c4:	a857      	add	r0, sp, #348	; 0x15c
 80805c6:	f001 fdb6 	bl	8082136 <_ZN6StringD1Ev>
 80805ca:	a853      	add	r0, sp, #332	; 0x14c
 80805cc:	f001 fdb3 	bl	8082136 <_ZN6StringD1Ev>

    if (sample == LONG_SAMPLE_SIZE)
 80805d0:	6826      	ldr	r6, [r4, #0]
 80805d2:	2e18      	cmp	r6, #24
 80805d4:	f040 808a 	bne.w	80806ec <loop+0x2d4>
    {
        sample = -1; //  Hit the buffers no need to count anymore
        if (zeroingInProgress)
 80805d8:	4d78      	ldr	r5, [pc, #480]	; (80807bc <loop+0x3a4>)
    }
    Serial.printlnf(String::format("%i", sample) + ", " + String::format("%u", waterLevelSampleReading) + ", " + String::format("%4.1f", waterLevelInMm) + ", " + String::format("%4.1f", longAveragingArray.getAverage()) + ", " + String::format("%4.1f", shortAveragingArray.getAverage()));

    if (sample == LONG_SAMPLE_SIZE)
    {
        sample = -1; //  Hit the buffers no need to count anymore
 80805da:	f04f 33ff 	mov.w	r3, #4294967295
 80805de:	6023      	str	r3, [r4, #0]
        if (zeroingInProgress)
 80805e0:	782b      	ldrb	r3, [r5, #0]
 80805e2:	2b00      	cmp	r3, #0
 80805e4:	f000 8082 	beq.w	80806ec <loop+0x2d4>
        {

            zeroOffsetInMm = longAveragingArray.getAverage();
 80805e8:	486d      	ldr	r0, [pc, #436]	; (80807a0 <loop+0x388>)
 80805ea:	f001 f823 	bl	8081634 <_ZN14RunningAverage10getAverageEv>
 80805ee:	4c6a      	ldr	r4, [pc, #424]	; (8080798 <loop+0x380>)
 80805f0:	e9c4 0100 	strd	r0, r1, [r4]
            longAveragingArray.clear();
 80805f4:	486a      	ldr	r0, [pc, #424]	; (80807a0 <loop+0x388>)
 80805f6:	f000 ffca 	bl	808158e <_ZN14RunningAverage5clearEv>
            longAveragingArray.fillValue(0.0, LONG_SAMPLE_SIZE);
 80805fa:	2200      	movs	r2, #0
 80805fc:	2300      	movs	r3, #0
 80805fe:	9600      	str	r6, [sp, #0]
 8080600:	4867      	ldr	r0, [pc, #412]	; (80807a0 <loop+0x388>)
 8080602:	f001 f827 	bl	8081654 <_ZN14RunningAverage9fillValueEdh>
            shortAveragingArray.clear();
 8080606:	4867      	ldr	r0, [pc, #412]	; (80807a4 <loop+0x38c>)
 8080608:	f000 ffc1 	bl	808158e <_ZN14RunningAverage5clearEv>
            shortAveragingArray.fillValue(0.0, SHORT_SAMPLE_SIZE);
 808060c:	2303      	movs	r3, #3
 808060e:	2200      	movs	r2, #0
 8080610:	9300      	str	r3, [sp, #0]
 8080612:	4864      	ldr	r0, [pc, #400]	; (80807a4 <loop+0x38c>)
 8080614:	2300      	movs	r3, #0
 8080616:	f001 f81d 	bl	8081654 <_ZN14RunningAverage9fillValueEdh>
            zeroData = String("{") +
                       String("\"ZeroOffsetInMm\":") + String("\"") + String::format("%4.1f", zeroOffsetInMm) +
 808061a:	4969      	ldr	r1, [pc, #420]	; (80807c0 <loop+0x3a8>)
 808061c:	a853      	add	r0, sp, #332	; 0x14c
 808061e:	f001 fdd1 	bl	80821c4 <_ZN6StringC1EPK19__FlashStringHelper>
{
public:
	StringSumHelper(const String &s) : String(s) {}
 8080622:	a953      	add	r1, sp, #332	; 0x14c
 8080624:	a85b      	add	r0, sp, #364	; 0x16c
 8080626:	f001 fe0c 	bl	8082242 <_ZN6StringC1ERKS_>
 808062a:	4966      	ldr	r1, [pc, #408]	; (80807c4 <loop+0x3ac>)
 808062c:	a857      	add	r0, sp, #348	; 0x15c
 808062e:	f001 fdc9 	bl	80821c4 <_ZN6StringC1EPK19__FlashStringHelper>
 8080632:	a957      	add	r1, sp, #348	; 0x15c
 8080634:	a85b      	add	r0, sp, #364	; 0x16c
 8080636:	f001 fe6e 	bl	8082316 <_ZplRK15StringSumHelperRK6String>
 808063a:	4606      	mov	r6, r0
 808063c:	4962      	ldr	r1, [pc, #392]	; (80807c8 <loop+0x3b0>)
 808063e:	a85f      	add	r0, sp, #380	; 0x17c
 8080640:	f001 fdc0 	bl	80821c4 <_ZN6StringC1EPK19__FlashStringHelper>
 8080644:	a95f      	add	r1, sp, #380	; 0x17c
 8080646:	4630      	mov	r0, r6
 8080648:	f001 fe65 	bl	8082316 <_ZplRK15StringSumHelperRK6String>
 808064c:	e9d4 2300 	ldrd	r2, r3, [r4]
 8080650:	4606      	mov	r6, r0
 8080652:	4959      	ldr	r1, [pc, #356]	; (80807b8 <loop+0x3a0>)
 8080654:	a863      	add	r0, sp, #396	; 0x18c
 8080656:	f001 fe8f 	bl	8082378 <_ZN6String6formatEPKcz>
 808065a:	a963      	add	r1, sp, #396	; 0x18c
 808065c:	4630      	mov	r0, r6
 808065e:	f001 fe5a 	bl	8082316 <_ZplRK15StringSumHelperRK6String>
 8080662:	4604      	mov	r4, r0
                       String("\"}");
 8080664:	4959      	ldr	r1, [pc, #356]	; (80807cc <loop+0x3b4>)
 8080666:	a867      	add	r0, sp, #412	; 0x19c
 8080668:	f001 fdac 	bl	80821c4 <_ZN6StringC1EPK19__FlashStringHelper>
 808066c:	a967      	add	r1, sp, #412	; 0x19c
 808066e:	4620      	mov	r0, r4
 8080670:	f001 fe51 	bl	8082316 <_ZplRK15StringSumHelperRK6String>
 8080674:	4c56      	ldr	r4, [pc, #344]	; (80807d0 <loop+0x3b8>)
 8080676:	4601      	mov	r1, r0
 8080678:	4620      	mov	r0, r4
 808067a:	f001 fdd3 	bl	8082224 <_ZN6StringaSERKS_>
 808067e:	a867      	add	r0, sp, #412	; 0x19c
 8080680:	f001 fd59 	bl	8082136 <_ZN6StringD1Ev>
            longAveragingArray.clear();
            longAveragingArray.fillValue(0.0, LONG_SAMPLE_SIZE);
            shortAveragingArray.clear();
            shortAveragingArray.fillValue(0.0, SHORT_SAMPLE_SIZE);
            zeroData = String("{") +
                       String("\"ZeroOffsetInMm\":") + String("\"") + String::format("%4.1f", zeroOffsetInMm) +
 8080684:	a863      	add	r0, sp, #396	; 0x18c
 8080686:	f001 fd56 	bl	8082136 <_ZN6StringD1Ev>
 808068a:	a85f      	add	r0, sp, #380	; 0x17c
 808068c:	f001 fd53 	bl	8082136 <_ZN6StringD1Ev>
 8080690:	a857      	add	r0, sp, #348	; 0x15c
 8080692:	f001 fd50 	bl	8082136 <_ZN6StringD1Ev>

        friend class StringPrintableHelper;

};

class StringSumHelper : public String
 8080696:	a85b      	add	r0, sp, #364	; 0x16c
 8080698:	f001 fd4d 	bl	8082136 <_ZN6StringD1Ev>
 808069c:	a853      	add	r0, sp, #332	; 0x14c
 808069e:	f001 fd4a 	bl	8082136 <_ZN6StringD1Ev>
 80806a2:	4b4c      	ldr	r3, [pc, #304]	; (80807d4 <loop+0x3bc>)
 80806a4:	494c      	ldr	r1, [pc, #304]	; (80807d8 <loop+0x3c0>)
 80806a6:	781b      	ldrb	r3, [r3, #0]
 80806a8:	a867      	add	r0, sp, #412	; 0x19c
 80806aa:	f88d 3000 	strb.w	r3, [sp]
 80806ae:	6822      	ldr	r2, [r4, #0]
 80806b0:	f44f 7316 	mov.w	r3, #600	; 0x258
 80806b4:	f002 fa62 	bl	8082b7c <_ZN10CloudClass13publish_eventEPKcS1_iN8particle5FlagsI15PublishFlagTypehEE>
 80806b8:	a868      	add	r0, sp, #416	; 0x1a0
 80806ba:	f7ff fd4c 	bl	8080156 <_ZNSt14__shared_countILN9__gnu_cxx12_Lock_policyE0EED1Ev>
                       String("\"}");
            Particle.publish("saveZero", zeroData, 600, PRIVATE);
            Serial.printlnf("New zeroOffset (saved to cloud): " + zeroData);
 80806be:	f002 fc8d 	bl	8082fdc <_Z16_fetch_usbserialv>
{
public:
	StringSumHelper(const String &s) : String(s) {}
	StringSumHelper(const char *p) : String(p) {}
 80806c2:	4946      	ldr	r1, [pc, #280]	; (80807dc <loop+0x3c4>)
 80806c4:	4606      	mov	r6, r0
 80806c6:	a867      	add	r0, sp, #412	; 0x19c
 80806c8:	f001 fd7c 	bl	80821c4 <_ZN6StringC1EPK19__FlashStringHelper>
 80806cc:	4621      	mov	r1, r4
 80806ce:	a867      	add	r0, sp, #412	; 0x19c
 80806d0:	f001 fe21 	bl	8082316 <_ZplRK15StringSumHelperRK6String>
 80806d4:	6801      	ldr	r1, [r0, #0]
 80806d6:	4630      	mov	r0, r6
 80806d8:	f7ff fd53 	bl	8080182 <_ZN5Print8printlnfIIEEEjPKcDpT_>

        friend class StringPrintableHelper;

};

class StringSumHelper : public String
 80806dc:	a867      	add	r0, sp, #412	; 0x19c
 80806de:	f001 fd2a 	bl	8082136 <_ZN6StringD1Ev>
            blinkLong(5); // Signal zeroing complete.
 80806e2:	2005      	movs	r0, #5
 80806e4:	f7ff fd14 	bl	8080110 <_Z9blinkLongi>
            zeroingInProgress = false;
 80806e8:	2300      	movs	r3, #0
 80806ea:	702b      	strb	r3, [r5, #0]
        }
    }
    // Trigger the integration
    data = String("{") +
           String("\"DT\":") + String("\"") + Time.format(time, TIME_FORMAT_ISO8601_FULL) + String("\",") +
 80806ec:	4934      	ldr	r1, [pc, #208]	; (80807c0 <loop+0x3a8>)
 80806ee:	a803      	add	r0, sp, #12
 80806f0:	f001 fd68 	bl	80821c4 <_ZN6StringC1EPK19__FlashStringHelper>
{
public:
	StringSumHelper(const String &s) : String(s) {}
 80806f4:	a903      	add	r1, sp, #12
 80806f6:	a80b      	add	r0, sp, #44	; 0x2c
 80806f8:	f001 fda3 	bl	8082242 <_ZN6StringC1ERKS_>
 80806fc:	4938      	ldr	r1, [pc, #224]	; (80807e0 <loop+0x3c8>)
 80806fe:	a807      	add	r0, sp, #28
 8080700:	f001 fd60 	bl	80821c4 <_ZN6StringC1EPK19__FlashStringHelper>
 8080704:	a907      	add	r1, sp, #28
 8080706:	a80b      	add	r0, sp, #44	; 0x2c
 8080708:	f001 fe05 	bl	8082316 <_ZplRK15StringSumHelperRK6String>
 808070c:	4604      	mov	r4, r0
 808070e:	492e      	ldr	r1, [pc, #184]	; (80807c8 <loop+0x3b0>)
 8080710:	a80f      	add	r0, sp, #60	; 0x3c
 8080712:	f001 fd57 	bl	80821c4 <_ZN6StringC1EPK19__FlashStringHelper>
 8080716:	a90f      	add	r1, sp, #60	; 0x3c
 8080718:	4620      	mov	r0, r4
 808071a:	f001 fdfc 	bl	8082316 <_ZplRK15StringSumHelperRK6String>
 808071e:	4604      	mov	r4, r0
 8080720:	4b30      	ldr	r3, [pc, #192]	; (80807e4 <loop+0x3cc>)
 8080722:	463a      	mov	r2, r7
 8080724:	681b      	ldr	r3, [r3, #0]
 8080726:	4930      	ldr	r1, [pc, #192]	; (80807e8 <loop+0x3d0>)
 8080728:	a813      	add	r0, sp, #76	; 0x4c
 808072a:	f001 ff7d 	bl	8082628 <_ZN9TimeClass6formatElPKc>
 808072e:	a913      	add	r1, sp, #76	; 0x4c
 8080730:	4620      	mov	r0, r4
 8080732:	f001 fdf0 	bl	8082316 <_ZplRK15StringSumHelperRK6String>
 8080736:	4604      	mov	r4, r0
 8080738:	492c      	ldr	r1, [pc, #176]	; (80807ec <loop+0x3d4>)
 808073a:	a817      	add	r0, sp, #92	; 0x5c
 808073c:	f001 fd42 	bl	80821c4 <_ZN6StringC1EPK19__FlashStringHelper>
 8080740:	a917      	add	r1, sp, #92	; 0x5c
 8080742:	4620      	mov	r0, r4
 8080744:	f001 fde7 	bl	8082316 <_ZplRK15StringSumHelperRK6String>
 8080748:	4604      	mov	r4, r0
           String("\"SS\":") + String("\"") + String::format("rssi=%d, qual=%d", rssiQual.rssi, rssiQual.qual) + String("\",") +
 808074a:	4929      	ldr	r1, [pc, #164]	; (80807f0 <loop+0x3d8>)
 808074c:	a81b      	add	r0, sp, #108	; 0x6c
 808074e:	f001 fd39 	bl	80821c4 <_ZN6StringC1EPK19__FlashStringHelper>
 8080752:	a91b      	add	r1, sp, #108	; 0x6c
 8080754:	4620      	mov	r0, r4
 8080756:	f001 fdde 	bl	8082316 <_ZplRK15StringSumHelperRK6String>
 808075a:	4604      	mov	r4, r0
 808075c:	491a      	ldr	r1, [pc, #104]	; (80807c8 <loop+0x3b0>)
 808075e:	a81f      	add	r0, sp, #124	; 0x7c
 8080760:	f001 fd30 	bl	80821c4 <_ZN6StringC1EPK19__FlashStringHelper>
 8080764:	a91f      	add	r1, sp, #124	; 0x7c
 8080766:	4620      	mov	r0, r4
 8080768:	f001 fdd5 	bl	8082316 <_ZplRK15StringSumHelperRK6String>
 808076c:	4604      	mov	r4, r0
 808076e:	9b77      	ldr	r3, [sp, #476]	; 0x1dc
 8080770:	9a76      	ldr	r2, [sp, #472]	; 0x1d8
 8080772:	e03f      	b.n	80807f4 <loop+0x3dc>
 8080774:	f3af 8000 	nop.w
 8080778:	00000000 	.word	0x00000000
 808077c:	40df6680 	.word	0x40df6680
 8080780:	00000000 	.word	0x00000000
 8080784:	40b91e00 	.word	0x40b91e00
 8080788:	cdc369d9 	.word	0xcdc369d9
 808078c:	3fb3e751 	.word	0x3fb3e751
 8080790:	200003c4 	.word	0x200003c4
 8080794:	200003f0 	.word	0x200003f0
 8080798:	200003d0 	.word	0x200003d0
 808079c:	200003e8 	.word	0x200003e8
 80807a0:	20000370 	.word	0x20000370
 80807a4:	20000390 	.word	0x20000390
 80807a8:	20000008 	.word	0x20000008
 80807ac:	0808756c 	.word	0x0808756c
 80807b0:	0808756f 	.word	0x0808756f
 80807b4:	08087aba 	.word	0x08087aba
 80807b8:	08087572 	.word	0x08087572
 80807bc:	200003a8 	.word	0x200003a8
 80807c0:	080874da 	.word	0x080874da
 80807c4:	08087578 	.word	0x08087578
 80807c8:	080874e9 	.word	0x080874e9
 80807cc:	080874eb 	.word	0x080874eb
 80807d0:	200003f4 	.word	0x200003f4
 80807d4:	200003a9 	.word	0x200003a9
 80807d8:	0808758a 	.word	0x0808758a
 80807dc:	08087593 	.word	0x08087593
 80807e0:	080875b5 	.word	0x080875b5
 80807e4:	2000000c 	.word	0x2000000c
 80807e8:	20000424 	.word	0x20000424
 80807ec:	080875bb 	.word	0x080875bb
 80807f0:	080875be 	.word	0x080875be
 80807f4:	499f      	ldr	r1, [pc, #636]	; (8080a74 <loop+0x65c>)
 80807f6:	a823      	add	r0, sp, #140	; 0x8c
 80807f8:	f001 fdbe 	bl	8082378 <_ZN6String6formatEPKcz>
 80807fc:	a923      	add	r1, sp, #140	; 0x8c
 80807fe:	4620      	mov	r0, r4
 8080800:	f001 fd89 	bl	8082316 <_ZplRK15StringSumHelperRK6String>
 8080804:	4604      	mov	r4, r0
 8080806:	499c      	ldr	r1, [pc, #624]	; (8080a78 <loop+0x660>)
 8080808:	a827      	add	r0, sp, #156	; 0x9c
 808080a:	f001 fcdb 	bl	80821c4 <_ZN6StringC1EPK19__FlashStringHelper>
 808080e:	a927      	add	r1, sp, #156	; 0x9c
 8080810:	4620      	mov	r0, r4
 8080812:	f001 fd80 	bl	8082316 <_ZplRK15StringSumHelperRK6String>
 8080816:	4604      	mov	r4, r0
           String("\"LsBits\":") + String("\"") + String::format("%u", waterLevelSampleReading) + String("\",") +
 8080818:	4998      	ldr	r1, [pc, #608]	; (8080a7c <loop+0x664>)
 808081a:	a82b      	add	r0, sp, #172	; 0xac
 808081c:	f001 fcd2 	bl	80821c4 <_ZN6StringC1EPK19__FlashStringHelper>
 8080820:	a92b      	add	r1, sp, #172	; 0xac
 8080822:	4620      	mov	r0, r4
 8080824:	f001 fd77 	bl	8082316 <_ZplRK15StringSumHelperRK6String>
 8080828:	4604      	mov	r4, r0
 808082a:	4995      	ldr	r1, [pc, #596]	; (8080a80 <loop+0x668>)
 808082c:	a82f      	add	r0, sp, #188	; 0xbc
 808082e:	f001 fcc9 	bl	80821c4 <_ZN6StringC1EPK19__FlashStringHelper>
 8080832:	a92f      	add	r1, sp, #188	; 0xbc
 8080834:	4620      	mov	r0, r4
 8080836:	f001 fd6e 	bl	8082316 <_ZplRK15StringSumHelperRK6String>
 808083a:	4604      	mov	r4, r0
 808083c:	4b91      	ldr	r3, [pc, #580]	; (8080a84 <loop+0x66c>)
 808083e:	4992      	ldr	r1, [pc, #584]	; (8080a88 <loop+0x670>)
 8080840:	681a      	ldr	r2, [r3, #0]
 8080842:	a833      	add	r0, sp, #204	; 0xcc
 8080844:	f001 fd98 	bl	8082378 <_ZN6String6formatEPKcz>
 8080848:	a933      	add	r1, sp, #204	; 0xcc
 808084a:	4620      	mov	r0, r4
 808084c:	f001 fd63 	bl	8082316 <_ZplRK15StringSumHelperRK6String>
 8080850:	4604      	mov	r4, r0
 8080852:	4989      	ldr	r1, [pc, #548]	; (8080a78 <loop+0x660>)
 8080854:	a837      	add	r0, sp, #220	; 0xdc
 8080856:	f001 fcb5 	bl	80821c4 <_ZN6StringC1EPK19__FlashStringHelper>
 808085a:	a937      	add	r1, sp, #220	; 0xdc
 808085c:	4620      	mov	r0, r4
 808085e:	f001 fd5a 	bl	8082316 <_ZplRK15StringSumHelperRK6String>
 8080862:	4604      	mov	r4, r0
           String("\"LsMm\":") + String("\"") + String::format("%4.1f", waterLevelInMm) + String("\",") +
 8080864:	4989      	ldr	r1, [pc, #548]	; (8080a8c <loop+0x674>)
 8080866:	a83b      	add	r0, sp, #236	; 0xec
 8080868:	f001 fcac 	bl	80821c4 <_ZN6StringC1EPK19__FlashStringHelper>
 808086c:	a93b      	add	r1, sp, #236	; 0xec
 808086e:	4620      	mov	r0, r4
 8080870:	f001 fd51 	bl	8082316 <_ZplRK15StringSumHelperRK6String>
 8080874:	4604      	mov	r4, r0
 8080876:	4982      	ldr	r1, [pc, #520]	; (8080a80 <loop+0x668>)
 8080878:	a83f      	add	r0, sp, #252	; 0xfc
 808087a:	f001 fca3 	bl	80821c4 <_ZN6StringC1EPK19__FlashStringHelper>
 808087e:	a93f      	add	r1, sp, #252	; 0xfc
 8080880:	4620      	mov	r0, r4
 8080882:	f001 fd48 	bl	8082316 <_ZplRK15StringSumHelperRK6String>
 8080886:	4604      	mov	r4, r0
 8080888:	4b81      	ldr	r3, [pc, #516]	; (8080a90 <loop+0x678>)
 808088a:	4982      	ldr	r1, [pc, #520]	; (8080a94 <loop+0x67c>)
 808088c:	e9d3 2300 	ldrd	r2, r3, [r3]
 8080890:	a843      	add	r0, sp, #268	; 0x10c
 8080892:	f001 fd71 	bl	8082378 <_ZN6String6formatEPKcz>
 8080896:	a943      	add	r1, sp, #268	; 0x10c
 8080898:	4620      	mov	r0, r4
 808089a:	f001 fd3c 	bl	8082316 <_ZplRK15StringSumHelperRK6String>
 808089e:	4604      	mov	r4, r0
 80808a0:	4975      	ldr	r1, [pc, #468]	; (8080a78 <loop+0x660>)
 80808a2:	a847      	add	r0, sp, #284	; 0x11c
 80808a4:	f001 fc8e 	bl	80821c4 <_ZN6StringC1EPK19__FlashStringHelper>
 80808a8:	a947      	add	r1, sp, #284	; 0x11c
 80808aa:	4620      	mov	r0, r4
 80808ac:	f001 fd33 	bl	8082316 <_ZplRK15StringSumHelperRK6String>
 80808b0:	4604      	mov	r4, r0
           String("\"LsAv\":") + String("\"") + String::format("%4.1f", longAveragingArray.getAverage()) + String("\",") +
 80808b2:	4979      	ldr	r1, [pc, #484]	; (8080a98 <loop+0x680>)
 80808b4:	a84b      	add	r0, sp, #300	; 0x12c
 80808b6:	f001 fc85 	bl	80821c4 <_ZN6StringC1EPK19__FlashStringHelper>
 80808ba:	a94b      	add	r1, sp, #300	; 0x12c
 80808bc:	4620      	mov	r0, r4
 80808be:	f001 fd2a 	bl	8082316 <_ZplRK15StringSumHelperRK6String>
 80808c2:	4604      	mov	r4, r0
 80808c4:	496e      	ldr	r1, [pc, #440]	; (8080a80 <loop+0x668>)
 80808c6:	a84f      	add	r0, sp, #316	; 0x13c
 80808c8:	f001 fc7c 	bl	80821c4 <_ZN6StringC1EPK19__FlashStringHelper>
 80808cc:	a94f      	add	r1, sp, #316	; 0x13c
 80808ce:	4620      	mov	r0, r4
 80808d0:	f001 fd21 	bl	8082316 <_ZplRK15StringSumHelperRK6String>
 80808d4:	4604      	mov	r4, r0
 80808d6:	4871      	ldr	r0, [pc, #452]	; (8080a9c <loop+0x684>)
 80808d8:	f000 feac 	bl	8081634 <_ZN14RunningAverage10getAverageEv>
 80808dc:	4602      	mov	r2, r0
 80808de:	460b      	mov	r3, r1
 80808e0:	a853      	add	r0, sp, #332	; 0x14c
 80808e2:	496c      	ldr	r1, [pc, #432]	; (8080a94 <loop+0x67c>)
 80808e4:	f001 fd48 	bl	8082378 <_ZN6String6formatEPKcz>
 80808e8:	a953      	add	r1, sp, #332	; 0x14c
 80808ea:	4620      	mov	r0, r4
 80808ec:	f001 fd13 	bl	8082316 <_ZplRK15StringSumHelperRK6String>
 80808f0:	4604      	mov	r4, r0
 80808f2:	4961      	ldr	r1, [pc, #388]	; (8080a78 <loop+0x660>)
 80808f4:	a857      	add	r0, sp, #348	; 0x15c
 80808f6:	f001 fc65 	bl	80821c4 <_ZN6StringC1EPK19__FlashStringHelper>
 80808fa:	a957      	add	r1, sp, #348	; 0x15c
 80808fc:	4620      	mov	r0, r4
 80808fe:	f001 fd0a 	bl	8082316 <_ZplRK15StringSumHelperRK6String>
 8080902:	4604      	mov	r4, r0
           String("\"LsShAv\":") + String("\"") + String::format("%4.1f", shortAveragingArray.getAverage()) +
 8080904:	4966      	ldr	r1, [pc, #408]	; (8080aa0 <loop+0x688>)
 8080906:	a85b      	add	r0, sp, #364	; 0x16c
 8080908:	f001 fc5c 	bl	80821c4 <_ZN6StringC1EPK19__FlashStringHelper>
 808090c:	a95b      	add	r1, sp, #364	; 0x16c
 808090e:	4620      	mov	r0, r4
 8080910:	f001 fd01 	bl	8082316 <_ZplRK15StringSumHelperRK6String>
 8080914:	4604      	mov	r4, r0
 8080916:	495a      	ldr	r1, [pc, #360]	; (8080a80 <loop+0x668>)
 8080918:	a85f      	add	r0, sp, #380	; 0x17c
 808091a:	f001 fc53 	bl	80821c4 <_ZN6StringC1EPK19__FlashStringHelper>
 808091e:	a95f      	add	r1, sp, #380	; 0x17c
 8080920:	4620      	mov	r0, r4
 8080922:	f001 fcf8 	bl	8082316 <_ZplRK15StringSumHelperRK6String>
 8080926:	4604      	mov	r4, r0
 8080928:	485e      	ldr	r0, [pc, #376]	; (8080aa4 <loop+0x68c>)
 808092a:	f000 fe83 	bl	8081634 <_ZN14RunningAverage10getAverageEv>
 808092e:	4602      	mov	r2, r0
 8080930:	460b      	mov	r3, r1
 8080932:	a863      	add	r0, sp, #396	; 0x18c
 8080934:	4957      	ldr	r1, [pc, #348]	; (8080a94 <loop+0x67c>)
 8080936:	f001 fd1f 	bl	8082378 <_ZN6String6formatEPKcz>
 808093a:	a963      	add	r1, sp, #396	; 0x18c
 808093c:	4620      	mov	r0, r4
 808093e:	f001 fcea 	bl	8082316 <_ZplRK15StringSumHelperRK6String>
 8080942:	4604      	mov	r4, r0
           String("\"}");
 8080944:	4958      	ldr	r1, [pc, #352]	; (8080aa8 <loop+0x690>)
 8080946:	a867      	add	r0, sp, #412	; 0x19c
 8080948:	f001 fc3c 	bl	80821c4 <_ZN6StringC1EPK19__FlashStringHelper>
 808094c:	a967      	add	r1, sp, #412	; 0x19c
 808094e:	4620      	mov	r0, r4
 8080950:	f001 fce1 	bl	8082316 <_ZplRK15StringSumHelperRK6String>
 8080954:	4c55      	ldr	r4, [pc, #340]	; (8080aac <loop+0x694>)
 8080956:	4601      	mov	r1, r0
 8080958:	4620      	mov	r0, r4
 808095a:	f001 fc63 	bl	8082224 <_ZN6StringaSERKS_>
 808095e:	a867      	add	r0, sp, #412	; 0x19c
 8080960:	f001 fbe9 	bl	8082136 <_ZN6StringD1Ev>
           String("\"DT\":") + String("\"") + Time.format(time, TIME_FORMAT_ISO8601_FULL) + String("\",") +
           String("\"SS\":") + String("\"") + String::format("rssi=%d, qual=%d", rssiQual.rssi, rssiQual.qual) + String("\",") +
           String("\"LsBits\":") + String("\"") + String::format("%u", waterLevelSampleReading) + String("\",") +
           String("\"LsMm\":") + String("\"") + String::format("%4.1f", waterLevelInMm) + String("\",") +
           String("\"LsAv\":") + String("\"") + String::format("%4.1f", longAveragingArray.getAverage()) + String("\",") +
           String("\"LsShAv\":") + String("\"") + String::format("%4.1f", shortAveragingArray.getAverage()) +
 8080964:	a863      	add	r0, sp, #396	; 0x18c
 8080966:	f001 fbe6 	bl	8082136 <_ZN6StringD1Ev>
 808096a:	a85f      	add	r0, sp, #380	; 0x17c
 808096c:	f001 fbe3 	bl	8082136 <_ZN6StringD1Ev>
 8080970:	a85b      	add	r0, sp, #364	; 0x16c
 8080972:	f001 fbe0 	bl	8082136 <_ZN6StringD1Ev>
    data = String("{") +
           String("\"DT\":") + String("\"") + Time.format(time, TIME_FORMAT_ISO8601_FULL) + String("\",") +
           String("\"SS\":") + String("\"") + String::format("rssi=%d, qual=%d", rssiQual.rssi, rssiQual.qual) + String("\",") +
           String("\"LsBits\":") + String("\"") + String::format("%u", waterLevelSampleReading) + String("\",") +
           String("\"LsMm\":") + String("\"") + String::format("%4.1f", waterLevelInMm) + String("\",") +
           String("\"LsAv\":") + String("\"") + String::format("%4.1f", longAveragingArray.getAverage()) + String("\",") +
 8080976:	a857      	add	r0, sp, #348	; 0x15c
 8080978:	f001 fbdd 	bl	8082136 <_ZN6StringD1Ev>
 808097c:	a853      	add	r0, sp, #332	; 0x14c
 808097e:	f001 fbda 	bl	8082136 <_ZN6StringD1Ev>
 8080982:	a84f      	add	r0, sp, #316	; 0x13c
 8080984:	f001 fbd7 	bl	8082136 <_ZN6StringD1Ev>
 8080988:	a84b      	add	r0, sp, #300	; 0x12c
 808098a:	f001 fbd4 	bl	8082136 <_ZN6StringD1Ev>
    // Trigger the integration
    data = String("{") +
           String("\"DT\":") + String("\"") + Time.format(time, TIME_FORMAT_ISO8601_FULL) + String("\",") +
           String("\"SS\":") + String("\"") + String::format("rssi=%d, qual=%d", rssiQual.rssi, rssiQual.qual) + String("\",") +
           String("\"LsBits\":") + String("\"") + String::format("%u", waterLevelSampleReading) + String("\",") +
           String("\"LsMm\":") + String("\"") + String::format("%4.1f", waterLevelInMm) + String("\",") +
 808098e:	a847      	add	r0, sp, #284	; 0x11c
 8080990:	f001 fbd1 	bl	8082136 <_ZN6StringD1Ev>
 8080994:	a843      	add	r0, sp, #268	; 0x10c
 8080996:	f001 fbce 	bl	8082136 <_ZN6StringD1Ev>
 808099a:	a83f      	add	r0, sp, #252	; 0xfc
 808099c:	f001 fbcb 	bl	8082136 <_ZN6StringD1Ev>
 80809a0:	a83b      	add	r0, sp, #236	; 0xec
 80809a2:	f001 fbc8 	bl	8082136 <_ZN6StringD1Ev>
    }
    // Trigger the integration
    data = String("{") +
           String("\"DT\":") + String("\"") + Time.format(time, TIME_FORMAT_ISO8601_FULL) + String("\",") +
           String("\"SS\":") + String("\"") + String::format("rssi=%d, qual=%d", rssiQual.rssi, rssiQual.qual) + String("\",") +
           String("\"LsBits\":") + String("\"") + String::format("%u", waterLevelSampleReading) + String("\",") +
 80809a6:	a837      	add	r0, sp, #220	; 0xdc
 80809a8:	f001 fbc5 	bl	8082136 <_ZN6StringD1Ev>
 80809ac:	a833      	add	r0, sp, #204	; 0xcc
 80809ae:	f001 fbc2 	bl	8082136 <_ZN6StringD1Ev>
 80809b2:	a82f      	add	r0, sp, #188	; 0xbc
 80809b4:	f001 fbbf 	bl	8082136 <_ZN6StringD1Ev>
 80809b8:	a82b      	add	r0, sp, #172	; 0xac
 80809ba:	f001 fbbc 	bl	8082136 <_ZN6StringD1Ev>
        }
    }
    // Trigger the integration
    data = String("{") +
           String("\"DT\":") + String("\"") + Time.format(time, TIME_FORMAT_ISO8601_FULL) + String("\",") +
           String("\"SS\":") + String("\"") + String::format("rssi=%d, qual=%d", rssiQual.rssi, rssiQual.qual) + String("\",") +
 80809be:	a827      	add	r0, sp, #156	; 0x9c
 80809c0:	f001 fbb9 	bl	8082136 <_ZN6StringD1Ev>
 80809c4:	a823      	add	r0, sp, #140	; 0x8c
 80809c6:	f001 fbb6 	bl	8082136 <_ZN6StringD1Ev>
 80809ca:	a81f      	add	r0, sp, #124	; 0x7c
 80809cc:	f001 fbb3 	bl	8082136 <_ZN6StringD1Ev>
 80809d0:	a81b      	add	r0, sp, #108	; 0x6c
 80809d2:	f001 fbb0 	bl	8082136 <_ZN6StringD1Ev>
            zeroingInProgress = false;
        }
    }
    // Trigger the integration
    data = String("{") +
           String("\"DT\":") + String("\"") + Time.format(time, TIME_FORMAT_ISO8601_FULL) + String("\",") +
 80809d6:	a817      	add	r0, sp, #92	; 0x5c
 80809d8:	f001 fbad 	bl	8082136 <_ZN6StringD1Ev>
 80809dc:	a813      	add	r0, sp, #76	; 0x4c
 80809de:	f001 fbaa 	bl	8082136 <_ZN6StringD1Ev>
 80809e2:	a80f      	add	r0, sp, #60	; 0x3c
 80809e4:	f001 fba7 	bl	8082136 <_ZN6StringD1Ev>
 80809e8:	a807      	add	r0, sp, #28
 80809ea:	f001 fba4 	bl	8082136 <_ZN6StringD1Ev>

        friend class StringPrintableHelper;

};

class StringSumHelper : public String
 80809ee:	a80b      	add	r0, sp, #44	; 0x2c
 80809f0:	f001 fba1 	bl	8082136 <_ZN6StringD1Ev>
 80809f4:	a803      	add	r0, sp, #12
 80809f6:	f001 fb9e 	bl	8082136 <_ZN6StringD1Ev>
    { SystemClass::sleep(wakeUpPin, edgeTriggerMode, seconds); }

    static bool connected(void) { return spark_cloud_flag_connected(); }
    static bool disconnected(void) { return !connected(); }
    static void connect(void) {
        spark_cloud_flag_connect();
 80809fa:	f001 fa5f 	bl	8081ebc <spark_cloud_flag_connect>
 80809fe:	4b2c      	ldr	r3, [pc, #176]	; (8080ab0 <loop+0x698>)
 8080a00:	6822      	ldr	r2, [r4, #0]
 8080a02:	781b      	ldrb	r3, [r3, #0]
        return publish(eventName, eventData, DEFAULT_CLOUD_EVENT_TTL, flags1, flags2);
    }

    inline particle::Future<bool> publish(const char *eventName, const char *eventData, int ttl, PublishFlags flags1, PublishFlags flags2 = PublishFlags())
    {
        return publish_event(eventName, eventData, ttl, flags1 | flags2);
 8080a04:	492b      	ldr	r1, [pc, #172]	; (8080ab4 <loop+0x69c>)
 8080a06:	f88d 3000 	strb.w	r3, [sp]
 8080a0a:	a867      	add	r0, sp, #412	; 0x19c
 8080a0c:	f44f 7316 	mov.w	r3, #600	; 0x258
 8080a10:	f002 f8b4 	bl	8082b7c <_ZN10CloudClass13publish_eventEPKcS1_iN8particle5FlagsI15PublishFlagTypehEE>
 8080a14:	a868      	add	r0, sp, #416	; 0x1a0
 8080a16:	f7ff fb9e 	bl	8080156 <_ZNSt14__shared_countILN9__gnu_cxx12_Lock_policyE0EED1Ev>
    Particle.publish("tickLevel", data, 600, PRIVATE); //TTL set to 3600s (may not yet be implemented)
                                                       //Serial.printlnf(data);
                                                       //  Serial.printlnf(String::format("%f", waterLevelInMm));
                                                       //  Serial.printlnf(data);

    if (sample > 0)
 8080a1a:	4a27      	ldr	r2, [pc, #156]	; (8080ab8 <loop+0x6a0>)
 8080a1c:	6813      	ldr	r3, [r2, #0]
 8080a1e:	2b00      	cmp	r3, #0
        ++sample; //Increase sample count if on initial fill
 8080a20:	bfc4      	itt	gt
 8080a22:	3301      	addgt	r3, #1
 8080a24:	6013      	strgt	r3, [r2, #0]

    // Wait nn seconds
    if (zeroingInProgress)
 8080a26:	4b25      	ldr	r3, [pc, #148]	; (8080abc <loop+0x6a4>)
 8080a28:	781b      	ldrb	r3, [r3, #0]
 8080a2a:	b113      	cbz	r3, 8080a32 <loop+0x61a>
        delay(ZEROING_LOOP_DELAY); //Use shorter delay when averaging for zero...
 8080a2c:	f241 3088 	movw	r0, #5000	; 0x1388
 8080a30:	e001      	b.n	8080a36 <loop+0x61e>
    else
        delay(loopDelay); //10 min: 600000, 1 min: 60000, 10 sec: 10000,
 8080a32:	4b23      	ldr	r3, [pc, #140]	; (8080ac0 <loop+0x6a8>)
 8080a34:	6818      	ldr	r0, [r3, #0]
 8080a36:	f001 fe5b 	bl	80826f0 <delay>
 * Things that return a + response and a string use this.
 *
 * Since it inherits from CellularHelperPlusStringResponse and CellularHelperCommonResponse you
 * can check resp == RESP_OK to make sure the call succeeded.
 */
class CellularHelperPlusStringResponse : public CellularHelperCommonResponse {
 8080a3a:	4b22      	ldr	r3, [pc, #136]	; (8080ac4 <loop+0x6ac>)
 8080a3c:	a872      	add	r0, sp, #456	; 0x1c8
 8080a3e:	936b      	str	r3, [sp, #428]	; 0x1ac
 8080a40:	f001 fb79 	bl	8082136 <_ZN6StringD1Ev>
 8080a44:	a86e      	add	r0, sp, #440	; 0x1b8
 8080a46:	f001 fb76 	bl	8082136 <_ZN6StringD1Ev>
}
 8080a4a:	b079      	add	sp, #484	; 0x1e4
 8080a4c:	bdf0      	pop	{r4, r5, r6, r7, pc}
    }

    if ((resetFlag) && (millis() - rebootSync >= REBOOT_DELAY_IN_MS))
    {
        // do things here  before reset and then push the button
        sos();
 8080a4e:	f7ff fb76 	bl	808013e <_Z3sosv>
 8080a52:	4b17      	ldr	r3, [pc, #92]	; (8080ab0 <loop+0x698>)
 8080a54:	4a1c      	ldr	r2, [pc, #112]	; (8080ac8 <loop+0x6b0>)
 8080a56:	781b      	ldrb	r3, [r3, #0]
 8080a58:	491c      	ldr	r1, [pc, #112]	; (8080acc <loop+0x6b4>)
 8080a5a:	f88d 3000 	strb.w	r3, [sp]
 8080a5e:	a86b      	add	r0, sp, #428	; 0x1ac
 8080a60:	f44f 7396 	mov.w	r3, #300	; 0x12c
 8080a64:	f002 f88a 	bl	8082b7c <_ZN10CloudClass13publish_eventEPKcS1_iN8particle5FlagsI15PublishFlagTypehEE>
 8080a68:	a86c      	add	r0, sp, #432	; 0x1b0
 8080a6a:	f7ff fb74 	bl	8080156 <_ZNSt14__shared_countILN9__gnu_cxx12_Lock_policyE0EED1Ev>
        Particle.publish("Debug", "Remote Reset Initiated", 300, PRIVATE);
        System.reset();
 8080a6e:	f001 faf6 	bl	808205e <_ZN11SystemClass5resetEv>
 8080a72:	e4f7      	b.n	8080464 <loop+0x4c>
 8080a74:	080875c4 	.word	0x080875c4
 8080a78:	080875bb 	.word	0x080875bb
 8080a7c:	080875d5 	.word	0x080875d5
 8080a80:	080874e9 	.word	0x080874e9
 8080a84:	200003f0 	.word	0x200003f0
 8080a88:	08087aba 	.word	0x08087aba
 8080a8c:	080875df 	.word	0x080875df
 8080a90:	200003e8 	.word	0x200003e8
 8080a94:	08087572 	.word	0x08087572
 8080a98:	080875e7 	.word	0x080875e7
 8080a9c:	20000370 	.word	0x20000370
 8080aa0:	080875ef 	.word	0x080875ef
 8080aa4:	20000390 	.word	0x20000390
 8080aa8:	080874eb 	.word	0x080874eb
 8080aac:	200003b4 	.word	0x200003b4
 8080ab0:	200003a9 	.word	0x200003a9
 8080ab4:	080875f9 	.word	0x080875f9
 8080ab8:	20000008 	.word	0x20000008
 8080abc:	200003a8 	.word	0x200003a8
 8080ac0:	20000000 	.word	0x20000000
 8080ac4:	08087acc 	.word	0x08087acc
 8080ac8:	08087603 	.word	0x08087603
 8080acc:	08087566 	.word	0x08087566

08080ad0 <_GLOBAL__sub_I_rebootSync>:
} // namespace particle

// particle::Flag<TagT, ValueT>
template<typename TagT, typename ValueT>
inline particle::Flag<TagT, ValueT>::Flag(ValueT val) :
        val_(val) {
 8080ad0:	4b2e      	ldr	r3, [pc, #184]	; (8080b8c <_GLOBAL__sub_I_rebootSync+0xbc>)
    // Wait nn seconds
    if (zeroingInProgress)
        delay(ZEROING_LOOP_DELAY); //Use shorter delay when averaging for zero...
    else
        delay(loopDelay); //10 min: 600000, 1 min: 60000, 10 sec: 10000,
}
 8080ad2:	b573      	push	{r0, r1, r4, r5, r6, lr}
 8080ad4:	2201      	movs	r2, #1
int zeroVolt = A1;
int zeroVoltSample = 0;
int waterLevelSampleReading = 0;
int sample = 1;
// Two averaging buckets are provided, short and long averaging
RunningAverage longAveragingArray(LONG_SAMPLE_SIZE);   //averaging bucket
 8080ad6:	4d2e      	ldr	r5, [pc, #184]	; (8080b90 <_GLOBAL__sub_I_rebootSync+0xc0>)
 8080ad8:	701a      	strb	r2, [r3, #0]
inline int32_t pinReadFast(pin_t _pin)
{
    return ((PIN_MAP[_pin].gpio_peripheral->IDR & PIN_MAP[_pin].gpio_pin) == 0 ? LOW : HIGH);
}
#elif defined(STM32F2XX)
static Hal_Pin_Info* PIN_MAP = HAL_Pin_Map();
 8080ada:	f000 fffb 	bl	8081ad4 <HAL_Pin_Map>
const double MAX_16_BIT_ANALOGUE_BIT_VALUE = 32154; // 19200.0;  //19200 for 120 Ohm, 32000 for 200 Ohm-- see ndc datasheet on ADS1015
const double SENSOR_FULL_RANGE_IN_MM = 2000.0;

unsigned long rebootSync = 0;
bool resetFlag = false;
Adafruit_ADS1115 ads;
 8080ade:	2148      	movs	r1, #72	; 0x48
 8080ae0:	482c      	ldr	r0, [pc, #176]	; (8080b94 <_GLOBAL__sub_I_rebootSync+0xc4>)
int zeroVolt = A1;
int zeroVoltSample = 0;
int waterLevelSampleReading = 0;
int sample = 1;
// Two averaging buckets are provided, short and long averaging
RunningAverage longAveragingArray(LONG_SAMPLE_SIZE);   //averaging bucket
 8080ae2:	4c2d      	ldr	r4, [pc, #180]	; (8080b98 <_GLOBAL__sub_I_rebootSync+0xc8>)
const double MAX_16_BIT_ANALOGUE_BIT_VALUE = 32154; // 19200.0;  //19200 for 120 Ohm, 32000 for 200 Ohm-- see ndc datasheet on ADS1015
const double SENSOR_FULL_RANGE_IN_MM = 2000.0;

unsigned long rebootSync = 0;
bool resetFlag = false;
Adafruit_ADS1115 ads;
 8080ae4:	f000 fe14 	bl	8081710 <_ZN16Adafruit_ADS1115C1Eh>
int zeroVolt = A1;
int zeroVoltSample = 0;
int waterLevelSampleReading = 0;
int sample = 1;
// Two averaging buckets are provided, short and long averaging
RunningAverage longAveragingArray(LONG_SAMPLE_SIZE);   //averaging bucket
 8080ae8:	4e2c      	ldr	r6, [pc, #176]	; (8080b9c <_GLOBAL__sub_I_rebootSync+0xcc>)
 8080aea:	2118      	movs	r1, #24
 8080aec:	4628      	mov	r0, r5
 8080aee:	f000 fd63 	bl	80815b8 <_ZN14RunningAverageC1Eh>
 8080af2:	4628      	mov	r0, r5
RunningAverage shortAveragingArray(SHORT_SAMPLE_SIZE); //averaging bucket
 8080af4:	4d2a      	ldr	r5, [pc, #168]	; (8080ba0 <_GLOBAL__sub_I_rebootSync+0xd0>)
int zeroVolt = A1;
int zeroVoltSample = 0;
int waterLevelSampleReading = 0;
int sample = 1;
// Two averaging buckets are provided, short and long averaging
RunningAverage longAveragingArray(LONG_SAMPLE_SIZE);   //averaging bucket
 8080af6:	4622      	mov	r2, r4
 8080af8:	4631      	mov	r1, r6
 8080afa:	f002 fd93 	bl	8083624 <__aeabi_atexit>
RunningAverage shortAveragingArray(SHORT_SAMPLE_SIZE); //averaging bucket
 8080afe:	2103      	movs	r1, #3
 8080b00:	4628      	mov	r0, r5
 8080b02:	f000 fd59 	bl	80815b8 <_ZN14RunningAverageC1Eh>
 8080b06:	4631      	mov	r1, r6
String data = String(80);
 8080b08:	4e26      	ldr	r6, [pc, #152]	; (8080ba4 <_GLOBAL__sub_I_rebootSync+0xd4>)
int zeroVoltSample = 0;
int waterLevelSampleReading = 0;
int sample = 1;
// Two averaging buckets are provided, short and long averaging
RunningAverage longAveragingArray(LONG_SAMPLE_SIZE);   //averaging bucket
RunningAverage shortAveragingArray(SHORT_SAMPLE_SIZE); //averaging bucket
 8080b0a:	4622      	mov	r2, r4
 8080b0c:	4628      	mov	r0, r5
 8080b0e:	f002 fd89 	bl	8083624 <__aeabi_atexit>
String data = String(80);
 8080b12:	4d25      	ldr	r5, [pc, #148]	; (8080ba8 <_GLOBAL__sub_I_rebootSync+0xd8>)
 8080b14:	220a      	movs	r2, #10
 8080b16:	2150      	movs	r1, #80	; 0x50
 8080b18:	4630      	mov	r0, r6
 8080b1a:	f001 fbb6 	bl	808228a <_ZN6StringC1Eih>
 8080b1e:	4630      	mov	r0, r6
String zeroData = String(80);
 8080b20:	4e22      	ldr	r6, [pc, #136]	; (8080bac <_GLOBAL__sub_I_rebootSync+0xdc>)
int waterLevelSampleReading = 0;
int sample = 1;
// Two averaging buckets are provided, short and long averaging
RunningAverage longAveragingArray(LONG_SAMPLE_SIZE);   //averaging bucket
RunningAverage shortAveragingArray(SHORT_SAMPLE_SIZE); //averaging bucket
String data = String(80);
 8080b22:	4622      	mov	r2, r4
 8080b24:	4629      	mov	r1, r5
 8080b26:	f002 fd7d 	bl	8083624 <__aeabi_atexit>
String zeroData = String(80);
 8080b2a:	220a      	movs	r2, #10
 8080b2c:	2150      	movs	r1, #80	; 0x50
 8080b2e:	4630      	mov	r0, r6
 8080b30:	f001 fbab 	bl	808228a <_ZN6StringC1Eih>
 8080b34:	4630      	mov	r0, r6
String loopDelayData = String(80);
 8080b36:	4e1e      	ldr	r6, [pc, #120]	; (8080bb0 <_GLOBAL__sub_I_rebootSync+0xe0>)
int sample = 1;
// Two averaging buckets are provided, short and long averaging
RunningAverage longAveragingArray(LONG_SAMPLE_SIZE);   //averaging bucket
RunningAverage shortAveragingArray(SHORT_SAMPLE_SIZE); //averaging bucket
String data = String(80);
String zeroData = String(80);
 8080b38:	4622      	mov	r2, r4
 8080b3a:	4629      	mov	r1, r5
 8080b3c:	f002 fd72 	bl	8083624 <__aeabi_atexit>
String loopDelayData = String(80);
 8080b40:	220a      	movs	r2, #10
 8080b42:	2150      	movs	r1, #80	; 0x50
 8080b44:	4630      	mov	r0, r6
 8080b46:	f001 fba0 	bl	808228a <_ZN6StringC1Eih>
 8080b4a:	4622      	mov	r2, r4
 8080b4c:	4629      	mov	r1, r5
 8080b4e:	4630      	mov	r0, r6
public:
	/**
	 * @brief Construct a JsonParser using a static buffer and static maximum number of tokens.
	 */
	explicit JsonParserStatic() : JsonParser(staticBuffer, BUFFER_SIZE, staticTokens, MAX_TOKENS) {};
 8080b50:	4d18      	ldr	r5, [pc, #96]	; (8080bb4 <_GLOBAL__sub_I_rebootSync+0xe4>)
 8080b52:	f002 fd67 	bl	8083624 <__aeabi_atexit>
 8080b56:	2314      	movs	r3, #20
 8080b58:	9300      	str	r3, [sp, #0]
 8080b5a:	f105 012c 	add.w	r1, r5, #44	; 0x2c
 8080b5e:	f505 7396 	add.w	r3, r5, #300	; 0x12c
 8080b62:	f44f 7280 	mov.w	r2, #256	; 0x100
 8080b66:	4628      	mov	r0, r5
 8080b68:	f000 f962 	bl	8080e30 <_ZN10JsonParserC1EPcjPN21JsonParserGeneratorRK9jsmntok_tEj>
 8080b6c:	4b12      	ldr	r3, [pc, #72]	; (8080bb8 <_GLOBAL__sub_I_rebootSync+0xe8>)
double zeroOffsetInMm = 0.0; //zeroing offset
int onboardLed = D7;         // Instead of writing D7 over and over again, we'll write led2
// This one is the little blue LED on your board. On the Photon it is next to D7, and on the Core it is next to the USB jack.
bool zeroingInProgress = false;
bool startupCompleted = false;
JsonParserStatic<256, 20> parser;
 8080b6e:	4622      	mov	r2, r4
 8080b70:	4912      	ldr	r1, [pc, #72]	; (8080bbc <_GLOBAL__sub_I_rebootSync+0xec>)
 8080b72:	4628      	mov	r0, r5
 8080b74:	602b      	str	r3, [r5, #0]
 8080b76:	f002 fd55 	bl	8083624 <__aeabi_atexit>

//STARTUP(cellular_credentials_set("giffgaff.com", "giffgaff", "", NULL));
STARTUP(cellular_credentials_set("3iot", "", "", NULL)); //globalM2M SIM starting 8953
 8080b7a:	4a11      	ldr	r2, [pc, #68]	; (8080bc0 <_GLOBAL__sub_I_rebootSync+0xf0>)
 8080b7c:	4811      	ldr	r0, [pc, #68]	; (8080bc4 <_GLOBAL__sub_I_rebootSync+0xf4>)
 8080b7e:	4611      	mov	r1, r2
 8080b80:	2300      	movs	r3, #0
    // Wait nn seconds
    if (zeroingInProgress)
        delay(ZEROING_LOOP_DELAY); //Use shorter delay when averaging for zero...
    else
        delay(loopDelay); //10 min: 600000, 1 min: 60000, 10 sec: 10000,
}
 8080b82:	b002      	add	sp, #8
 8080b84:	e8bd 4070 	ldmia.w	sp!, {r4, r5, r6, lr}
bool zeroingInProgress = false;
bool startupCompleted = false;
JsonParserStatic<256, 20> parser;

//STARTUP(cellular_credentials_set("giffgaff.com", "giffgaff", "", NULL));
STARTUP(cellular_credentials_set("3iot", "", "", NULL)); //globalM2M SIM starting 8953
 8080b88:	f001 b8a4 	b.w	8081cd4 <cellular_credentials_set>
 8080b8c:	200003a9 	.word	0x200003a9
 8080b90:	20000370 	.word	0x20000370
 8080b94:	200003c4 	.word	0x200003c4
 8080b98:	20000100 	.word	0x20000100
 8080b9c:	0808157f 	.word	0x0808157f
 8080ba0:	20000390 	.word	0x20000390
 8080ba4:	200003b4 	.word	0x200003b4
 8080ba8:	08082137 	.word	0x08082137
 8080bac:	200003f4 	.word	0x200003f4
 8080bb0:	200003d8 	.word	0x200003d8
 8080bb4:	20000104 	.word	0x20000104
 8080bb8:	08087484 	.word	0x08087484
 8080bbc:	080800b9 	.word	0x080800b9
 8080bc0:	08087ab0 	.word	0x08087ab0
 8080bc4:	0808761a 	.word	0x0808761a

08080bc8 <_Z14startupHandlerPKcS0_>:
    sample = 1;
    return 0;
}

void startupHandler(const char *event, const char *data)
{
 8080bc8:	b530      	push	{r4, r5, lr}
 8080bca:	460c      	mov	r4, r1
 8080bcc:	b09b      	sub	sp, #108	; 0x6c
    // Handle the webhook response

    parser.clear();
 8080bce:	4850      	ldr	r0, [pc, #320]	; (8080d10 <_Z14startupHandlerPKcS0_+0x148>)
 8080bd0:	f000 f92b 	bl	8080e2a <_ZN10JsonBuffer5clearEv>
	/**
	 * @brief Add a c-string to the end of the buffer
	 *
	 * @param data Pointer to a c-string (null terminated).
	 */
	bool addString(const char *data) { return addData(data, strlen(data)); }
 8080bd4:	4620      	mov	r0, r4
 8080bd6:	f004 fa67 	bl	80850a8 <strlen>
 8080bda:	4621      	mov	r1, r4
 8080bdc:	4602      	mov	r2, r0
 8080bde:	484c      	ldr	r0, [pc, #304]	; (8080d10 <_Z14startupHandlerPKcS0_+0x148>)
 8080be0:	f000 f905 	bl	8080dee <_ZN10JsonBuffer7addDataEPKcj>
    parser.addString(data);
    if (parser.parse())
 8080be4:	484a      	ldr	r0, [pc, #296]	; (8080d10 <_Z14startupHandlerPKcS0_+0x148>)
 8080be6:	f000 fc79 	bl	80814dc <_ZN10JsonParser5parseEv>
 8080bea:	4c4a      	ldr	r4, [pc, #296]	; (8080d14 <_Z14startupHandlerPKcS0_+0x14c>)
 8080bec:	b1b8      	cbz	r0, 8080c1e <_Z14startupHandlerPKcS0_+0x56>
    {
        zeroOffsetInMm = parser.getReference().key("zeroOffsetInMm").valueFloat();
 8080bee:	a812      	add	r0, sp, #72	; 0x48
 8080bf0:	4947      	ldr	r1, [pc, #284]	; (8080d10 <_Z14startupHandlerPKcS0_+0x148>)
 8080bf2:	f000 f92d 	bl	8080e50 <_ZNK10JsonParser12getReferenceEv>
 8080bf6:	4a48      	ldr	r2, [pc, #288]	; (8080d18 <_Z14startupHandlerPKcS0_+0x150>)
 8080bf8:	a912      	add	r1, sp, #72	; 0x48
 8080bfa:	a816      	add	r0, sp, #88	; 0x58
 8080bfc:	f000 fa88 	bl	8081110 <_ZNK13JsonReference3keyEPKc>
 8080c00:	2100      	movs	r1, #0
 8080c02:	a816      	add	r0, sp, #88	; 0x58
 8080c04:	f000 f99f 	bl	8080f46 <_ZNK13JsonReference10valueFloatEf>
 8080c08:	f002 ffdc 	bl	8083bc4 <__aeabi_f2d>
 8080c0c:	e9c4 0100 	strd	r0, r1, [r4]
 8080c10:	a816      	add	r0, sp, #88	; 0x58
 8080c12:	f000 f89b 	bl	8080d4c <_ZN13JsonReferenceD1Ev>
 8080c16:	a812      	add	r0, sp, #72	; 0x48
 8080c18:	f000 f898 	bl	8080d4c <_ZN13JsonReferenceD1Ev>
 8080c1c:	e006      	b.n	8080c2c <_Z14startupHandlerPKcS0_+0x64>
    }
    else
    {
        Serial.printlnf("error", "could not parse json");
 8080c1e:	f002 f9dd 	bl	8082fdc <_Z16_fetch_usbserialv>
 8080c22:	4b3e      	ldr	r3, [pc, #248]	; (8080d1c <_Z14startupHandlerPKcS0_+0x154>)
 8080c24:	4a3e      	ldr	r2, [pc, #248]	; (8080d20 <_Z14startupHandlerPKcS0_+0x158>)
 8080c26:	2101      	movs	r1, #1
 8080c28:	f001 fc22 	bl	8082470 <_ZN5Print11printf_implEbPKcz>
    }
    Serial.printlnf("zeroOffsetInMm (as stored on Azure): " + String::format("%4.1f", zeroOffsetInMm));
 8080c2c:	f002 f9d6 	bl	8082fdc <_Z16_fetch_usbserialv>
{
public:
	StringSumHelper(const String &s) : String(s) {}
	StringSumHelper(const char *p) : String(p) {}
 8080c30:	493c      	ldr	r1, [pc, #240]	; (8080d24 <_Z14startupHandlerPKcS0_+0x15c>)
 8080c32:	4605      	mov	r5, r0
 8080c34:	a816      	add	r0, sp, #88	; 0x58
 8080c36:	f001 fac5 	bl	80821c4 <_ZN6StringC1EPK19__FlashStringHelper>
 8080c3a:	e9d4 2300 	ldrd	r2, r3, [r4]
 8080c3e:	a812      	add	r0, sp, #72	; 0x48
 8080c40:	4939      	ldr	r1, [pc, #228]	; (8080d28 <_Z14startupHandlerPKcS0_+0x160>)
 8080c42:	f001 fb99 	bl	8082378 <_ZN6String6formatEPKcz>
 8080c46:	a912      	add	r1, sp, #72	; 0x48
 8080c48:	a816      	add	r0, sp, #88	; 0x58
 8080c4a:	f001 fb64 	bl	8082316 <_ZplRK15StringSumHelperRK6String>
 8080c4e:	6801      	ldr	r1, [r0, #0]
 8080c50:	4628      	mov	r0, r5
 8080c52:	f7ff fa96 	bl	8080182 <_ZN5Print8printlnfIIEEEjPKcDpT_>
 8080c56:	a812      	add	r0, sp, #72	; 0x48
 8080c58:	f001 fa6d 	bl	8082136 <_ZN6StringD1Ev>

        friend class StringPrintableHelper;

};

class StringSumHelper : public String
 8080c5c:	a816      	add	r0, sp, #88	; 0x58
 8080c5e:	f001 fa6a 	bl	8082136 <_ZN6StringD1Ev>
    zeroData = String("{") +
               String("\"ZeroOffsetInMm\":") + String("\"") + String::format("%4.1f", zeroOffsetInMm) +
 8080c62:	4932      	ldr	r1, [pc, #200]	; (8080d2c <_Z14startupHandlerPKcS0_+0x164>)
 8080c64:	a802      	add	r0, sp, #8
 8080c66:	f001 faad 	bl	80821c4 <_ZN6StringC1EPK19__FlashStringHelper>
{
public:
	StringSumHelper(const String &s) : String(s) {}
 8080c6a:	a902      	add	r1, sp, #8
 8080c6c:	a80a      	add	r0, sp, #40	; 0x28
 8080c6e:	f001 fae8 	bl	8082242 <_ZN6StringC1ERKS_>
 8080c72:	492f      	ldr	r1, [pc, #188]	; (8080d30 <_Z14startupHandlerPKcS0_+0x168>)
 8080c74:	a806      	add	r0, sp, #24
 8080c76:	f001 faa5 	bl	80821c4 <_ZN6StringC1EPK19__FlashStringHelper>
 8080c7a:	a906      	add	r1, sp, #24
 8080c7c:	a80a      	add	r0, sp, #40	; 0x28
 8080c7e:	f001 fb4a 	bl	8082316 <_ZplRK15StringSumHelperRK6String>
 8080c82:	4605      	mov	r5, r0
 8080c84:	492b      	ldr	r1, [pc, #172]	; (8080d34 <_Z14startupHandlerPKcS0_+0x16c>)
 8080c86:	a80e      	add	r0, sp, #56	; 0x38
 8080c88:	f001 fa9c 	bl	80821c4 <_ZN6StringC1EPK19__FlashStringHelper>
 8080c8c:	a90e      	add	r1, sp, #56	; 0x38
 8080c8e:	4628      	mov	r0, r5
 8080c90:	f001 fb41 	bl	8082316 <_ZplRK15StringSumHelperRK6String>
 8080c94:	e9d4 2300 	ldrd	r2, r3, [r4]
 8080c98:	4605      	mov	r5, r0
 8080c9a:	4923      	ldr	r1, [pc, #140]	; (8080d28 <_Z14startupHandlerPKcS0_+0x160>)
 8080c9c:	a812      	add	r0, sp, #72	; 0x48
 8080c9e:	f001 fb6b 	bl	8082378 <_ZN6String6formatEPKcz>
 8080ca2:	a912      	add	r1, sp, #72	; 0x48
 8080ca4:	4628      	mov	r0, r5
 8080ca6:	f001 fb36 	bl	8082316 <_ZplRK15StringSumHelperRK6String>
 8080caa:	4604      	mov	r4, r0
               String("\"}");
 8080cac:	4922      	ldr	r1, [pc, #136]	; (8080d38 <_Z14startupHandlerPKcS0_+0x170>)
 8080cae:	a816      	add	r0, sp, #88	; 0x58
 8080cb0:	f001 fa88 	bl	80821c4 <_ZN6StringC1EPK19__FlashStringHelper>
 8080cb4:	a916      	add	r1, sp, #88	; 0x58
 8080cb6:	4620      	mov	r0, r4
 8080cb8:	f001 fb2d 	bl	8082316 <_ZplRK15StringSumHelperRK6String>
 8080cbc:	4c1f      	ldr	r4, [pc, #124]	; (8080d3c <_Z14startupHandlerPKcS0_+0x174>)
 8080cbe:	4601      	mov	r1, r0
 8080cc0:	4620      	mov	r0, r4
 8080cc2:	f001 faaf 	bl	8082224 <_ZN6StringaSERKS_>
 8080cc6:	a816      	add	r0, sp, #88	; 0x58
 8080cc8:	f001 fa35 	bl	8082136 <_ZN6StringD1Ev>
    {
        Serial.printlnf("error", "could not parse json");
    }
    Serial.printlnf("zeroOffsetInMm (as stored on Azure): " + String::format("%4.1f", zeroOffsetInMm));
    zeroData = String("{") +
               String("\"ZeroOffsetInMm\":") + String("\"") + String::format("%4.1f", zeroOffsetInMm) +
 8080ccc:	a812      	add	r0, sp, #72	; 0x48
 8080cce:	f001 fa32 	bl	8082136 <_ZN6StringD1Ev>
 8080cd2:	a80e      	add	r0, sp, #56	; 0x38
 8080cd4:	f001 fa2f 	bl	8082136 <_ZN6StringD1Ev>
 8080cd8:	a806      	add	r0, sp, #24
 8080cda:	f001 fa2c 	bl	8082136 <_ZN6StringD1Ev>

        friend class StringPrintableHelper;

};

class StringSumHelper : public String
 8080cde:	a80a      	add	r0, sp, #40	; 0x28
 8080ce0:	f001 fa29 	bl	8082136 <_ZN6StringD1Ev>
 8080ce4:	a802      	add	r0, sp, #8
 8080ce6:	f001 fa26 	bl	8082136 <_ZN6StringD1Ev>
 8080cea:	4b15      	ldr	r3, [pc, #84]	; (8080d40 <_Z14startupHandlerPKcS0_+0x178>)
 8080cec:	6822      	ldr	r2, [r4, #0]
 8080cee:	781b      	ldrb	r3, [r3, #0]
 8080cf0:	4914      	ldr	r1, [pc, #80]	; (8080d44 <_Z14startupHandlerPKcS0_+0x17c>)
 8080cf2:	f88d 3000 	strb.w	r3, [sp]
 8080cf6:	a816      	add	r0, sp, #88	; 0x58
 8080cf8:	f44f 7316 	mov.w	r3, #600	; 0x258
 8080cfc:	f001 ff3e 	bl	8082b7c <_ZN10CloudClass13publish_eventEPKcS1_iN8particle5FlagsI15PublishFlagTypehEE>
 8080d00:	a817      	add	r0, sp, #92	; 0x5c
 8080d02:	f7ff fa28 	bl	8080156 <_ZNSt14__shared_countILN9__gnu_cxx12_Lock_policyE0EED1Ev>
               String("\"}");
    Particle.publish("Setting zeroOffsetInMm", zeroData, 600, PRIVATE);

    startupCompleted = true; //We can now run loop
 8080d06:	4b10      	ldr	r3, [pc, #64]	; (8080d48 <_Z14startupHandlerPKcS0_+0x180>)
 8080d08:	2201      	movs	r2, #1
 8080d0a:	701a      	strb	r2, [r3, #0]
}
 8080d0c:	b01b      	add	sp, #108	; 0x6c
 8080d0e:	bd30      	pop	{r4, r5, pc}
 8080d10:	20000104 	.word	0x20000104
 8080d14:	200003d0 	.word	0x200003d0
 8080d18:	08087668 	.word	0x08087668
 8080d1c:	0808761f 	.word	0x0808761f
 8080d20:	08087634 	.word	0x08087634
 8080d24:	0808763a 	.word	0x0808763a
 8080d28:	08087572 	.word	0x08087572
 8080d2c:	080874da 	.word	0x080874da
 8080d30:	08087578 	.word	0x08087578
 8080d34:	080874e9 	.word	0x080874e9
 8080d38:	080874eb 	.word	0x080874eb
 8080d3c:	200003f4 	.word	0x200003f4
 8080d40:	200003a9 	.word	0x200003a9
 8080d44:	08087660 	.word	0x08087660
 8080d48:	200003b0 	.word	0x200003b0

08080d4c <_ZN13JsonReferenceD1Ev>:
JsonReference::JsonReference(const JsonParser *parser) : parser(parser), token(0) {

}

JsonReference::~JsonReference() {
}
 8080d4c:	4770      	bx	lr

08080d4e <_ZN13JsonReferenceD0Ev>:

JsonReference::JsonReference(const JsonParser *parser) : parser(parser), token(0) {

}

JsonReference::~JsonReference() {
 8080d4e:	b510      	push	{r4, lr}
 8080d50:	4604      	mov	r4, r0
}
 8080d52:	210c      	movs	r1, #12
 8080d54:	f002 fc74 	bl	8083640 <_ZdlPvj>
 8080d58:	4620      	mov	r0, r4
 8080d5a:	bd10      	pop	{r4, pc}

08080d5c <_ZN10JsonBufferD1Ev>:


JsonBuffer::JsonBuffer()  : buffer(0), bufferLen(0), offset(0), staticBuffers(false) {

}
JsonBuffer::~JsonBuffer() {
 8080d5c:	b510      	push	{r4, lr}
 8080d5e:	4b05      	ldr	r3, [pc, #20]	; (8080d74 <_ZN10JsonBufferD1Ev+0x18>)
 8080d60:	4604      	mov	r4, r0
 8080d62:	6003      	str	r3, [r0, #0]
	if (!staticBuffers && buffer) {
 8080d64:	7c03      	ldrb	r3, [r0, #16]
 8080d66:	b91b      	cbnz	r3, 8080d70 <_ZN10JsonBufferD1Ev+0x14>
 8080d68:	6840      	ldr	r0, [r0, #4]
 8080d6a:	b108      	cbz	r0, 8080d70 <_ZN10JsonBufferD1Ev+0x14>
		free(buffer);
 8080d6c:	f001 f8e6 	bl	8081f3c <free>
	}
}
 8080d70:	4620      	mov	r0, r4
 8080d72:	bd10      	pop	{r4, pc}
 8080d74:	08087690 	.word	0x08087690

08080d78 <_ZN10JsonBufferD0Ev>:


JsonBuffer::JsonBuffer()  : buffer(0), bufferLen(0), offset(0), staticBuffers(false) {

}
JsonBuffer::~JsonBuffer() {
 8080d78:	b510      	push	{r4, lr}
 8080d7a:	4604      	mov	r4, r0
	if (!staticBuffers && buffer) {
		free(buffer);
	}
}
 8080d7c:	f7ff ffee 	bl	8080d5c <_ZN10JsonBufferD1Ev>
 8080d80:	4620      	mov	r0, r4
 8080d82:	2114      	movs	r1, #20
 8080d84:	f002 fc5c 	bl	8083640 <_ZdlPvj>
 8080d88:	4620      	mov	r0, r4
 8080d8a:	bd10      	pop	{r4, pc}

08080d8c <_ZN10JsonParserD1Ev>:
		JsonBuffer(buffer, bufferLen), tokens(tokens), maxTokens(maxTokens) {

}


JsonParser::~JsonParser() {
 8080d8c:	b510      	push	{r4, lr}
 8080d8e:	4b07      	ldr	r3, [pc, #28]	; (8080dac <_ZN10JsonParserD1Ev+0x20>)
 8080d90:	4604      	mov	r4, r0
 8080d92:	6003      	str	r3, [r0, #0]
	if (!staticBuffers && tokens) {
 8080d94:	7c03      	ldrb	r3, [r0, #16]
 8080d96:	b91b      	cbnz	r3, 8080da0 <_ZN10JsonParserD1Ev+0x14>
 8080d98:	6940      	ldr	r0, [r0, #20]
 8080d9a:	b108      	cbz	r0, 8080da0 <_ZN10JsonParserD1Ev+0x14>
		free(tokens);
 8080d9c:	f001 f8ce 	bl	8081f3c <free>
		JsonBuffer(buffer, bufferLen), tokens(tokens), maxTokens(maxTokens) {

}


JsonParser::~JsonParser() {
 8080da0:	4620      	mov	r0, r4
 8080da2:	f7ff ffdb 	bl	8080d5c <_ZN10JsonBufferD1Ev>
	if (!staticBuffers && tokens) {
		free(tokens);
	}
}
 8080da6:	4620      	mov	r0, r4
 8080da8:	bd10      	pop	{r4, pc}
 8080daa:	bf00      	nop
 8080dac:	080876c8 	.word	0x080876c8

08080db0 <_ZN10JsonParserD0Ev>:
		JsonBuffer(buffer, bufferLen), tokens(tokens), maxTokens(maxTokens) {

}


JsonParser::~JsonParser() {
 8080db0:	b510      	push	{r4, lr}
 8080db2:	4604      	mov	r4, r0
	if (!staticBuffers && tokens) {
		free(tokens);
	}
}
 8080db4:	f7ff ffea 	bl	8080d8c <_ZN10JsonParserD1Ev>
 8080db8:	4620      	mov	r0, r4
 8080dba:	212c      	movs	r1, #44	; 0x2c
 8080dbc:	f002 fc40 	bl	8083640 <_ZdlPvj>
 8080dc0:	4620      	mov	r0, r4
 8080dc2:	bd10      	pop	{r4, pc}

08080dc4 <_ZN10JsonBuffer8allocateEj>:

JsonBuffer::JsonBuffer(char *buffer, size_t bufferLen)  : buffer(buffer), bufferLen(bufferLen), offset(0), staticBuffers(true) {

}

bool JsonBuffer::allocate(size_t len) {
 8080dc4:	b538      	push	{r3, r4, r5, lr}
	if (!staticBuffers) {
 8080dc6:	7c03      	ldrb	r3, [r0, #16]

JsonBuffer::JsonBuffer(char *buffer, size_t bufferLen)  : buffer(buffer), bufferLen(bufferLen), offset(0), staticBuffers(true) {

}

bool JsonBuffer::allocate(size_t len) {
 8080dc8:	4604      	mov	r4, r0
 8080dca:	460d      	mov	r5, r1
	if (!staticBuffers) {
 8080dcc:	b10b      	cbz	r3, 8080dd2 <_ZN10JsonBuffer8allocateEj+0xe>
		else {
			return false;
		}
	}
	else {
		return false;
 8080dce:	2000      	movs	r0, #0
 8080dd0:	bd38      	pop	{r3, r4, r5, pc}
}

bool JsonBuffer::allocate(size_t len) {
	if (!staticBuffers) {
		char *newBuffer;
		if (buffer) {
 8080dd2:	6840      	ldr	r0, [r0, #4]
 8080dd4:	b110      	cbz	r0, 8080ddc <_ZN10JsonBuffer8allocateEj+0x18>
			newBuffer = (char *) realloc(buffer, len);
 8080dd6:	f001 f8b9 	bl	8081f4c <realloc>
 8080dda:	e002      	b.n	8080de2 <_ZN10JsonBuffer8allocateEj+0x1e>
		}
		else {
			newBuffer = (char *) malloc(len);
 8080ddc:	4608      	mov	r0, r1
 8080dde:	f001 f8a5 	bl	8081f2c <malloc>
		}
		if (newBuffer) {
 8080de2:	2800      	cmp	r0, #0
 8080de4:	d0f3      	beq.n	8080dce <_ZN10JsonBuffer8allocateEj+0xa>
			buffer = newBuffer;
 8080de6:	6060      	str	r0, [r4, #4]
			bufferLen = len;
 8080de8:	60a5      	str	r5, [r4, #8]
			return true;
 8080dea:	2001      	movs	r0, #1
		}
	}
	else {
		return false;
	}
}
 8080dec:	bd38      	pop	{r3, r4, r5, pc}

08080dee <_ZN10JsonBuffer7addDataEPKcj>:

bool JsonBuffer::addData(const char *data, size_t dataLen) {
 8080dee:	b570      	push	{r4, r5, r6, lr}
	if (!buffer || (offset + dataLen) > bufferLen) {
 8080df0:	6843      	ldr	r3, [r0, #4]
	else {
		return false;
	}
}

bool JsonBuffer::addData(const char *data, size_t dataLen) {
 8080df2:	460e      	mov	r6, r1
 8080df4:	4604      	mov	r4, r0
 8080df6:	4615      	mov	r5, r2
 8080df8:	68c1      	ldr	r1, [r0, #12]
	if (!buffer || (offset + dataLen) > bufferLen) {
 8080dfa:	b17b      	cbz	r3, 8080e1c <_ZN10JsonBuffer7addDataEPKcj+0x2e>
 8080dfc:	1853      	adds	r3, r2, r1
 8080dfe:	6882      	ldr	r2, [r0, #8]
 8080e00:	4293      	cmp	r3, r2
 8080e02:	d80b      	bhi.n	8080e1c <_ZN10JsonBuffer7addDataEPKcj+0x2e>
		if (!allocate(offset + dataLen)) {
			return false;
		}
	}

	memcpy(&buffer[offset], data, dataLen);
 8080e04:	68e3      	ldr	r3, [r4, #12]
 8080e06:	6860      	ldr	r0, [r4, #4]
 8080e08:	462a      	mov	r2, r5
 8080e0a:	4631      	mov	r1, r6
 8080e0c:	4418      	add	r0, r3
 8080e0e:	f003 fbbf 	bl	8084590 <memcpy>
	offset += dataLen;
 8080e12:	68e3      	ldr	r3, [r4, #12]

	return true;
 8080e14:	2001      	movs	r0, #1
			return false;
		}
	}

	memcpy(&buffer[offset], data, dataLen);
	offset += dataLen;
 8080e16:	441d      	add	r5, r3
 8080e18:	60e5      	str	r5, [r4, #12]

	return true;
 8080e1a:	bd70      	pop	{r4, r5, r6, pc}
}

bool JsonBuffer::addData(const char *data, size_t dataLen) {
	if (!buffer || (offset + dataLen) > bufferLen) {
		// Need to allocate more space for data
		if (!allocate(offset + dataLen)) {
 8080e1c:	4429      	add	r1, r5
 8080e1e:	4620      	mov	r0, r4
 8080e20:	f7ff ffd0 	bl	8080dc4 <_ZN10JsonBuffer8allocateEj>
 8080e24:	2800      	cmp	r0, #0
 8080e26:	d1ed      	bne.n	8080e04 <_ZN10JsonBuffer7addDataEPKcj+0x16>

	memcpy(&buffer[offset], data, dataLen);
	offset += dataLen;

	return true;
}
 8080e28:	bd70      	pop	{r4, r5, r6, pc}

08080e2a <_ZN10JsonBuffer5clearEv>:

void JsonBuffer::clear() {
	offset = 0;
 8080e2a:	2300      	movs	r3, #0
 8080e2c:	60c3      	str	r3, [r0, #12]
 8080e2e:	4770      	bx	lr

08080e30 <_ZN10JsonParserC1EPcjPN21JsonParserGeneratorRK9jsmntok_tEj>:
//

JsonParser::JsonParser() : JsonBuffer(), tokens(0), maxTokens(0) {
}

JsonParser::JsonParser(char *buffer, size_t bufferLen, JsonParserGeneratorRK::jsmntok_t *tokens, size_t maxTokens) :
 8080e30:	b510      	push	{r4, lr}
	if (!staticBuffers && buffer) {
		free(buffer);
	}
}

JsonBuffer::JsonBuffer(char *buffer, size_t bufferLen)  : buffer(buffer), bufferLen(bufferLen), offset(0), staticBuffers(true) {
 8080e32:	6082      	str	r2, [r0, #8]
 8080e34:	2200      	movs	r2, #0
 8080e36:	60c2      	str	r2, [r0, #12]
 8080e38:	2201      	movs	r2, #1
 8080e3a:	7402      	strb	r2, [r0, #16]

JsonParser::JsonParser() : JsonBuffer(), tokens(0), maxTokens(0) {
}

JsonParser::JsonParser(char *buffer, size_t bufferLen, JsonParserGeneratorRK::jsmntok_t *tokens, size_t maxTokens) :
		JsonBuffer(buffer, bufferLen), tokens(tokens), maxTokens(maxTokens) {
 8080e3c:	6143      	str	r3, [r0, #20]
 8080e3e:	4a03      	ldr	r2, [pc, #12]	; (8080e4c <_ZN10JsonParserC1EPcjPN21JsonParserGeneratorRK9jsmntok_tEj+0x1c>)
 8080e40:	9b02      	ldr	r3, [sp, #8]
	if (!staticBuffers && buffer) {
		free(buffer);
	}
}

JsonBuffer::JsonBuffer(char *buffer, size_t bufferLen)  : buffer(buffer), bufferLen(bufferLen), offset(0), staticBuffers(true) {
 8080e42:	6041      	str	r1, [r0, #4]

JsonParser::JsonParser() : JsonBuffer(), tokens(0), maxTokens(0) {
}

JsonParser::JsonParser(char *buffer, size_t bufferLen, JsonParserGeneratorRK::jsmntok_t *tokens, size_t maxTokens) :
		JsonBuffer(buffer, bufferLen), tokens(tokens), maxTokens(maxTokens) {
 8080e44:	6002      	str	r2, [r0, #0]
 8080e46:	61c3      	str	r3, [r0, #28]

}
 8080e48:	bd10      	pop	{r4, pc}
 8080e4a:	bf00      	nop
 8080e4c:	080876c8 	.word	0x080876c8

08080e50 <_ZNK10JsonParser12getReferenceEv>:
	return true;
}

JsonReference JsonParser::getReference() const {

	if (tokens < tokensEnd) {
 8080e50:	698b      	ldr	r3, [r1, #24]
 8080e52:	694a      	ldr	r2, [r1, #20]
}

JsonReference::~JsonReference() {
}

JsonReference::JsonReference(const JsonParser *parser, const JsonParserGeneratorRK::jsmntok_t *token) : parser(parser), token(token) {
 8080e54:	6041      	str	r1, [r0, #4]
	return true;
}

JsonReference JsonParser::getReference() const {

	if (tokens < tokensEnd) {
 8080e56:	429a      	cmp	r2, r3
 8080e58:	4b03      	ldr	r3, [pc, #12]	; (8080e68 <_ZNK10JsonParser12getReferenceEv+0x18>)
}

JsonReference::~JsonReference() {
}

JsonReference::JsonReference(const JsonParser *parser, const JsonParserGeneratorRK::jsmntok_t *token) : parser(parser), token(token) {
 8080e5a:	bf38      	it	cc
 8080e5c:	6082      	strcc	r2, [r0, #8]
 8080e5e:	6003      	str	r3, [r0, #0]

//
//
//

JsonReference::JsonReference(const JsonParser *parser) : parser(parser), token(0) {
 8080e60:	bf24      	itt	cs
 8080e62:	2300      	movcs	r3, #0
 8080e64:	6083      	strcs	r3, [r0, #8]
		return JsonReference(this, &tokens[0]);
	}
	else {
		return JsonReference(this);
	}
}
 8080e66:	4770      	bx	lr
 8080e68:	08087680 	.word	0x08087680

08080e6c <_ZNK10JsonParser10skipObjectEPKN21JsonParserGeneratorRK9jsmntok_tERS3_>:
	}
	return 0;
}


bool JsonParser::skipObject(const JsonParserGeneratorRK::jsmntok_t *container, const JsonParserGeneratorRK::jsmntok_t *&obj) const {
 8080e6c:	b570      	push	{r4, r5, r6, lr}
	int curObjectEnd = obj->end;
 8080e6e:	6813      	ldr	r3, [r2, #0]
 8080e70:	689d      	ldr	r5, [r3, #8]

	while(++obj < tokensEnd && obj->end < container->end && obj->end <= curObjectEnd) {
 8080e72:	6813      	ldr	r3, [r2, #0]
 8080e74:	f103 0410 	add.w	r4, r3, #16
 8080e78:	6014      	str	r4, [r2, #0]
 8080e7a:	6986      	ldr	r6, [r0, #24]
 8080e7c:	42b4      	cmp	r4, r6
 8080e7e:	d20a      	bcs.n	8080e96 <_ZNK10JsonParser10skipObjectEPKN21JsonParserGeneratorRK9jsmntok_tERS3_+0x2a>
 8080e80:	699b      	ldr	r3, [r3, #24]
 8080e82:	688c      	ldr	r4, [r1, #8]
 8080e84:	42a3      	cmp	r3, r4
 8080e86:	da01      	bge.n	8080e8c <_ZNK10JsonParser10skipObjectEPKN21JsonParserGeneratorRK9jsmntok_tERS3_+0x20>
 8080e88:	429d      	cmp	r5, r3
 8080e8a:	daf2      	bge.n	8080e72 <_ZNK10JsonParser10skipObjectEPKN21JsonParserGeneratorRK9jsmntok_tERS3_+0x6>
	}

	if (obj >= tokensEnd || obj->end > container->end) {
 8080e8c:	42a3      	cmp	r3, r4
 8080e8e:	bfcc      	ite	gt
 8080e90:	2000      	movgt	r0, #0
 8080e92:	2001      	movle	r0, #1
 8080e94:	bd70      	pop	{r4, r5, r6, pc}
		// No object after index
		return false;
 8080e96:	2000      	movs	r0, #0
	}
	return true;
}
 8080e98:	bd70      	pop	{r4, r5, r6, pc}

08080e9a <_ZNK10JsonParser23getKeyValueTokenByIndexEPKN21JsonParserGeneratorRK9jsmntok_tERS3_S4_j>:

bool JsonParser::getKeyValueTokenByIndex(const JsonParserGeneratorRK::jsmntok_t *container, const JsonParserGeneratorRK::jsmntok_t *&key, const JsonParserGeneratorRK::jsmntok_t *&value, size_t desiredIndex) const {
 8080e9a:	e92d 47f3 	stmdb	sp!, {r0, r1, r4, r5, r6, r7, r8, r9, sl, lr}
 8080e9e:	4607      	mov	r7, r0
 8080ea0:	460c      	mov	r4, r1
 8080ea2:	4691      	mov	r9, r2
 8080ea4:	469a      	mov	sl, r3

	size_t index = 0;
	const JsonParserGeneratorRK::jsmntok_t *token = container + 1;
 8080ea6:	ad02      	add	r5, sp, #8
 8080ea8:	f101 0310 	add.w	r3, r1, #16
		return false;
	}
	return true;
}

bool JsonParser::getKeyValueTokenByIndex(const JsonParserGeneratorRK::jsmntok_t *container, const JsonParserGeneratorRK::jsmntok_t *&key, const JsonParserGeneratorRK::jsmntok_t *&value, size_t desiredIndex) const {
 8080eac:	9e0a      	ldr	r6, [sp, #40]	; 0x28

	size_t index = 0;
	const JsonParserGeneratorRK::jsmntok_t *token = container + 1;
 8080eae:	f845 3d04 	str.w	r3, [r5, #-4]!
	return true;
}

bool JsonParser::getKeyValueTokenByIndex(const JsonParserGeneratorRK::jsmntok_t *container, const JsonParserGeneratorRK::jsmntok_t *&key, const JsonParserGeneratorRK::jsmntok_t *&value, size_t desiredIndex) const {

	size_t index = 0;
 8080eb2:	f04f 0800 	mov.w	r8, #0
	const JsonParserGeneratorRK::jsmntok_t *token = container + 1;

	while(token < tokensEnd && token->end < container->end) {
 8080eb6:	9b01      	ldr	r3, [sp, #4]
 8080eb8:	69ba      	ldr	r2, [r7, #24]
 8080eba:	429a      	cmp	r2, r3
 8080ebc:	d91e      	bls.n	8080efc <_ZNK10JsonParser23getKeyValueTokenByIndexEPKN21JsonParserGeneratorRK9jsmntok_tERS3_S4_j+0x62>
 8080ebe:	6899      	ldr	r1, [r3, #8]
 8080ec0:	68a2      	ldr	r2, [r4, #8]
 8080ec2:	4291      	cmp	r1, r2
 8080ec4:	da1a      	bge.n	8080efc <_ZNK10JsonParser23getKeyValueTokenByIndexEPKN21JsonParserGeneratorRK9jsmntok_tERS3_S4_j+0x62>
		if (desiredIndex == index) {
 8080ec6:	45b0      	cmp	r8, r6
 8080ec8:	d10b      	bne.n	8080ee2 <_ZNK10JsonParser23getKeyValueTokenByIndexEPKN21JsonParserGeneratorRK9jsmntok_tERS3_S4_j+0x48>
			key = token;
 8080eca:	f8c9 3000 	str.w	r3, [r9]
			if (skipObject(container, token)) {
 8080ece:	462a      	mov	r2, r5
 8080ed0:	4621      	mov	r1, r4
 8080ed2:	4638      	mov	r0, r7
 8080ed4:	f7ff ffca 	bl	8080e6c <_ZNK10JsonParser10skipObjectEPKN21JsonParserGeneratorRK9jsmntok_tERS3_>
 8080ed8:	b118      	cbz	r0, 8080ee2 <_ZNK10JsonParser23getKeyValueTokenByIndexEPKN21JsonParserGeneratorRK9jsmntok_tERS3_S4_j+0x48>
				value = token;
 8080eda:	9b01      	ldr	r3, [sp, #4]
 8080edc:	f8ca 3000 	str.w	r3, [sl]
				return true;
 8080ee0:	e00d      	b.n	8080efe <_ZNK10JsonParser23getKeyValueTokenByIndexEPKN21JsonParserGeneratorRK9jsmntok_tERS3_S4_j+0x64>
			}
		}
		index++;
		skipObject(container, token);
 8080ee2:	462a      	mov	r2, r5
 8080ee4:	4621      	mov	r1, r4
 8080ee6:	4638      	mov	r0, r7
 8080ee8:	f7ff ffc0 	bl	8080e6c <_ZNK10JsonParser10skipObjectEPKN21JsonParserGeneratorRK9jsmntok_tERS3_>
		skipObject(container, token);
 8080eec:	462a      	mov	r2, r5
 8080eee:	4621      	mov	r1, r4
 8080ef0:	4638      	mov	r0, r7
			if (skipObject(container, token)) {
				value = token;
				return true;
			}
		}
		index++;
 8080ef2:	f108 0801 	add.w	r8, r8, #1
		skipObject(container, token);
		skipObject(container, token);
 8080ef6:	f7ff ffb9 	bl	8080e6c <_ZNK10JsonParser10skipObjectEPKN21JsonParserGeneratorRK9jsmntok_tERS3_>
bool JsonParser::getKeyValueTokenByIndex(const JsonParserGeneratorRK::jsmntok_t *container, const JsonParserGeneratorRK::jsmntok_t *&key, const JsonParserGeneratorRK::jsmntok_t *&value, size_t desiredIndex) const {

	size_t index = 0;
	const JsonParserGeneratorRK::jsmntok_t *token = container + 1;

	while(token < tokensEnd && token->end < container->end) {
 8080efa:	e7dc      	b.n	8080eb6 <_ZNK10JsonParser23getKeyValueTokenByIndexEPKN21JsonParserGeneratorRK9jsmntok_tERS3_S4_j+0x1c>
		index++;
		skipObject(container, token);
		skipObject(container, token);
	}

	return false;
 8080efc:	2000      	movs	r0, #0
}
 8080efe:	b002      	add	sp, #8
 8080f00:	e8bd 87f0 	ldmia.w	sp!, {r4, r5, r6, r7, r8, r9, sl, pc}

08080f04 <_ZNK10JsonParser14copyTokenValueEPKN21JsonParserGeneratorRK9jsmntok_tEPcj>:
	}

	return index;
}

void JsonParser::copyTokenValue(const JsonParserGeneratorRK::jsmntok_t *token, char *dst, size_t dstLen) const {
 8080f04:	b570      	push	{r4, r5, r6, lr}

	int ii;
	for(ii = 0; ii < (token->end - token->start) && ii < ((int)dstLen - 1); ii++) {
 8080f06:	3b01      	subs	r3, #1
 8080f08:	2400      	movs	r4, #0
 8080f0a:	684e      	ldr	r6, [r1, #4]
 8080f0c:	688d      	ldr	r5, [r1, #8]
 8080f0e:	1bad      	subs	r5, r5, r6
 8080f10:	42ac      	cmp	r4, r5
 8080f12:	da07      	bge.n	8080f24 <_ZNK10JsonParser14copyTokenValueEPKN21JsonParserGeneratorRK9jsmntok_tEPcj+0x20>
 8080f14:	429c      	cmp	r4, r3
 8080f16:	da05      	bge.n	8080f24 <_ZNK10JsonParser14copyTokenValueEPKN21JsonParserGeneratorRK9jsmntok_tEPcj+0x20>
		dst[ii] = buffer[token->start + ii];
 8080f18:	6845      	ldr	r5, [r0, #4]
 8080f1a:	4425      	add	r5, r4
 8080f1c:	5dad      	ldrb	r5, [r5, r6]
 8080f1e:	5515      	strb	r5, [r2, r4]
}

void JsonParser::copyTokenValue(const JsonParserGeneratorRK::jsmntok_t *token, char *dst, size_t dstLen) const {

	int ii;
	for(ii = 0; ii < (token->end - token->start) && ii < ((int)dstLen - 1); ii++) {
 8080f20:	3401      	adds	r4, #1
 8080f22:	e7f2      	b.n	8080f0a <_ZNK10JsonParser14copyTokenValueEPKN21JsonParserGeneratorRK9jsmntok_tEPcj+0x6>
		dst[ii] = buffer[token->start + ii];
 	}
	dst[ii] = 0;
 8080f24:	2300      	movs	r3, #0
 8080f26:	5513      	strb	r3, [r2, r4]
 8080f28:	bd70      	pop	{r4, r5, r6, pc}

08080f2a <_ZNK10JsonParser13getTokenValueEPKN21JsonParserGeneratorRK9jsmntok_tERf>:
	}
}



bool JsonParser::getTokenValue(const JsonParserGeneratorRK::jsmntok_t *token, float &result) const {
 8080f2a:	b51f      	push	{r0, r1, r2, r3, r4, lr}
 8080f2c:	4614      	mov	r4, r2
	// Copy data here, because tokens are not null terminated
	char tmp[16];
	copyTokenValue(token, tmp, sizeof(tmp));
 8080f2e:	2310      	movs	r3, #16
 8080f30:	466a      	mov	r2, sp
 8080f32:	f7ff ffe7 	bl	8080f04 <_ZNK10JsonParser14copyTokenValueEPKN21JsonParserGeneratorRK9jsmntok_tEPcj>

	result = strtof(tmp, 0);
 8080f36:	2100      	movs	r1, #0
 8080f38:	4668      	mov	r0, sp
 8080f3a:	f004 ff21 	bl	8085d80 <strtof>
 8080f3e:	6020      	str	r0, [r4, #0]
	return true;
}
 8080f40:	2001      	movs	r0, #1
 8080f42:	b004      	add	sp, #16
 8080f44:	bd10      	pop	{r4, pc}

08080f46 <_ZNK13JsonReference10valueFloatEf>:
unsigned long JsonReference::valueUnsignedLong(unsigned long result) const {
	(void) value(result);
	return result;
}

float JsonReference::valueFloat(float result) const {
 8080f46:	b507      	push	{r0, r1, r2, lr}
 8080f48:	9101      	str	r1, [sp, #4]
	 * There are also type-specific versions like valueBool that return the value, instead of having to pass an object
	 * to hold the value, as in this call.
	 */
	template<class T>
	bool value(T &result) const {
		if (token && parser->getTokenValue(token, result)) {
 8080f4a:	6881      	ldr	r1, [r0, #8]
 8080f4c:	b119      	cbz	r1, 8080f56 <_ZNK13JsonReference10valueFloatEf+0x10>
 8080f4e:	aa01      	add	r2, sp, #4
 8080f50:	6840      	ldr	r0, [r0, #4]
 8080f52:	f7ff ffea 	bl	8080f2a <_ZNK10JsonParser13getTokenValueEPKN21JsonParserGeneratorRK9jsmntok_tERf>
	(void) value(result);
	return result;
}
 8080f56:	9801      	ldr	r0, [sp, #4]
 8080f58:	b003      	add	sp, #12
 8080f5a:	f85d fb04 	ldr.w	pc, [sp], #4

08080f5e <_ZN16JsonParserString6appendEc>:
	if (buf && bufLen) {
		memset(buf, 0, bufLen);
	}
}

void JsonParserString::append(char ch) {
 8080f5e:	b538      	push	{r3, r4, r5, lr}
 8080f60:	4604      	mov	r4, r0
	if (str) {
 8080f62:	6800      	ldr	r0, [r0, #0]
	if (buf && bufLen) {
		memset(buf, 0, bufLen);
	}
}

void JsonParserString::append(char ch) {
 8080f64:	460d      	mov	r5, r1
	if (str) {
 8080f66:	b110      	cbz	r0, 8080f6e <_ZN16JsonParserString6appendEc+0x10>
		str->concat(ch);
 8080f68:	f001 f9c8 	bl	80822fc <_ZN6String6concatEc>
 8080f6c:	e007      	b.n	8080f7e <_ZN16JsonParserString6appendEc+0x20>
		length++;
	}
	else {
		if (buf && length < (bufLen - 1)) {
 8080f6e:	6861      	ldr	r1, [r4, #4]
 8080f70:	b129      	cbz	r1, 8080f7e <_ZN16JsonParserString6appendEc+0x20>
 8080f72:	68a3      	ldr	r3, [r4, #8]
 8080f74:	68e2      	ldr	r2, [r4, #12]
 8080f76:	3b01      	subs	r3, #1
 8080f78:	429a      	cmp	r2, r3
			buf[length] = ch;
 8080f7a:	bf38      	it	cc
 8080f7c:	548d      	strbcc	r5, [r1, r2]
		}
		length++;
 8080f7e:	68e3      	ldr	r3, [r4, #12]
 8080f80:	3301      	adds	r3, #1
 8080f82:	60e3      	str	r3, [r4, #12]
 8080f84:	bd38      	pop	{r3, r4, r5, pc}

08080f86 <_ZN10JsonParser10appendUtf8EtR16JsonParserString>:
// [static]
void JsonParser::appendUtf8(uint16_t unicode, JsonParserString &str) {

	unsigned char value;

	if (unicode <= 0x007f) {
 8080f86:	287f      	cmp	r0, #127	; 0x7f
	return true;
}


// [static]
void JsonParser::appendUtf8(uint16_t unicode, JsonParserString &str) {
 8080f88:	b570      	push	{r4, r5, r6, lr}
 8080f8a:	460c      	mov	r4, r1

	unsigned char value;

	if (unicode <= 0x007f) {
 8080f8c:	d801      	bhi.n	8080f92 <_ZN10JsonParser10appendUtf8EtR16JsonParserString+0xc>
		// 0x00000000 - 0x0000007F:
		str.append((char)unicode);
 8080f8e:	b2c1      	uxtb	r1, r0
 8080f90:	e019      	b.n	8080fc6 <_ZN10JsonParser10appendUtf8EtR16JsonParserString+0x40>
	}
	else
	if (unicode <= 0x7ff) {
 8080f92:	f5b0 6f00 	cmp.w	r0, #2048	; 0x800
 8080f96:	ea4f 15a0 	mov.w	r5, r0, asr #6
 8080f9a:	f000 063f 	and.w	r6, r0, #63	; 0x3f
 8080f9e:	d203      	bcs.n	8080fa8 <_ZN10JsonParser10appendUtf8EtR16JsonParserString+0x22>
		// 0x00000080 - 0x000007FF:
		// 110xxxxx 10xxxxxx

		value = (0b11000000 | ((unicode >> 6) & 0b11111));
		str.append((char)value);
 8080fa0:	f065 013f 	orn	r1, r5, #63	; 0x3f
 8080fa4:	b2c9      	uxtb	r1, r1
 8080fa6:	e009      	b.n	8080fbc <_ZN10JsonParser10appendUtf8EtR16JsonParserString+0x36>
	}
	else {
		// 0x00000800 - 0x0000FFFF:
		// 1110xxxx 10xxxxxx 10xxxxxx
		value = 0b11100000 | ((unicode >> 12) & 0b1111);
		str.append((char)value);
 8080fa8:	0b01      	lsrs	r1, r0, #12
 8080faa:	f041 01e0 	orr.w	r1, r1, #224	; 0xe0
 8080fae:	4620      	mov	r0, r4
 8080fb0:	f7ff ffd5 	bl	8080f5e <_ZN16JsonParserString6appendEc>

		value = 0b10000000 | ((unicode >> 6) & 0b111111);
		str.append((char)value);
 8080fb4:	f005 013f 	and.w	r1, r5, #63	; 0x3f
 8080fb8:	f041 0180 	orr.w	r1, r1, #128	; 0x80
 8080fbc:	4620      	mov	r0, r4
 8080fbe:	f7ff ffce 	bl	8080f5e <_ZN16JsonParserString6appendEc>

		value = 0b10000000 | (unicode & 0b111111);
		str.append((char)value);
 8080fc2:	f046 0180 	orr.w	r1, r6, #128	; 0x80
 8080fc6:	4620      	mov	r0, r4
	}
}
 8080fc8:	e8bd 4070 	ldmia.w	sp!, {r4, r5, r6, lr}

		value = 0b10000000 | ((unicode >> 6) & 0b111111);
		str.append((char)value);

		value = 0b10000000 | (unicode & 0b111111);
		str.append((char)value);
 8080fcc:	f7ff bfc7 	b.w	8080f5e <_ZN16JsonParserString6appendEc>

08080fd0 <_ZNK10JsonParser13getTokenValueEPKN21JsonParserGeneratorRK9jsmntok_tER16JsonParserString>:
	bufLen = strWrapper.getLength() + 1;
	return result;
}


bool JsonParser::getTokenValue(const JsonParserGeneratorRK::jsmntok_t *token, JsonParserString &str) const {
 8080fd0:	e92d 41ff 	stmdb	sp!, {r0, r1, r2, r3, r4, r5, r6, r7, r8, lr}
 8080fd4:	4680      	mov	r8, r0
 8080fd6:	460f      	mov	r7, r1
 8080fd8:	4616      	mov	r6, r2

	int unicode;
	bool escape = false;

	for(int ii = token->start; ii < token->end; ii++) {
 8080fda:	684d      	ldr	r5, [r1, #4]


bool JsonParser::getTokenValue(const JsonParserGeneratorRK::jsmntok_t *token, JsonParserString &str) const {

	int unicode;
	bool escape = false;
 8080fdc:	2400      	movs	r4, #0

	for(int ii = token->start; ii < token->end; ii++) {
 8080fde:	68b8      	ldr	r0, [r7, #8]
 8080fe0:	4285      	cmp	r5, r0
 8080fe2:	da45      	bge.n	8081070 <_ZNK10JsonParser13getTokenValueEPKN21JsonParserGeneratorRK9jsmntok_tER16JsonParserString+0xa0>
 8080fe4:	f8d8 3004 	ldr.w	r3, [r8, #4]
		if (escape) {
 8080fe8:	b3c4      	cbz	r4, 808105c <_ZNK10JsonParser13getTokenValueEPKN21JsonParserGeneratorRK9jsmntok_tER16JsonParserString+0x8c>
			escape = false;
			switch(buffer[ii]) {
 8080fea:	5d59      	ldrb	r1, [r3, r5]
 8080fec:	195a      	adds	r2, r3, r5
 8080fee:	296e      	cmp	r1, #110	; 0x6e
 8080ff0:	d00f      	beq.n	8081012 <_ZNK10JsonParser13getTokenValueEPKN21JsonParserGeneratorRK9jsmntok_tER16JsonParserString+0x42>
 8080ff2:	d805      	bhi.n	8081000 <_ZNK10JsonParser13getTokenValueEPKN21JsonParserGeneratorRK9jsmntok_tER16JsonParserString+0x30>
 8080ff4:	2962      	cmp	r1, #98	; 0x62
 8080ff6:	d00a      	beq.n	808100e <_ZNK10JsonParser13getTokenValueEPKN21JsonParserGeneratorRK9jsmntok_tER16JsonParserString+0x3e>
 8080ff8:	2966      	cmp	r1, #102	; 0x66
 8080ffa:	d10b      	bne.n	8081014 <_ZNK10JsonParser13getTokenValueEPKN21JsonParserGeneratorRK9jsmntok_tER16JsonParserString+0x44>
			case 'b':
				str.append('\b');
				break;

			case 'f':
				str.append('\f');
 8080ffc:	210c      	movs	r1, #12
 8080ffe:	e009      	b.n	8081014 <_ZNK10JsonParser13getTokenValueEPKN21JsonParserGeneratorRK9jsmntok_tER16JsonParserString+0x44>
	bool escape = false;

	for(int ii = token->start; ii < token->end; ii++) {
		if (escape) {
			escape = false;
			switch(buffer[ii]) {
 8081000:	2974      	cmp	r1, #116	; 0x74
 8081002:	d00e      	beq.n	8081022 <_ZNK10JsonParser13getTokenValueEPKN21JsonParserGeneratorRK9jsmntok_tER16JsonParserString+0x52>
 8081004:	2975      	cmp	r1, #117	; 0x75
 8081006:	d00e      	beq.n	8081026 <_ZNK10JsonParser13getTokenValueEPKN21JsonParserGeneratorRK9jsmntok_tER16JsonParserString+0x56>
 8081008:	2972      	cmp	r1, #114	; 0x72
 808100a:	d103      	bne.n	8081014 <_ZNK10JsonParser13getTokenValueEPKN21JsonParserGeneratorRK9jsmntok_tER16JsonParserString+0x44>
 808100c:	e007      	b.n	808101e <_ZNK10JsonParser13getTokenValueEPKN21JsonParserGeneratorRK9jsmntok_tER16JsonParserString+0x4e>
			case 'b':
				str.append('\b');
 808100e:	2108      	movs	r1, #8
 8081010:	e000      	b.n	8081014 <_ZNK10JsonParser13getTokenValueEPKN21JsonParserGeneratorRK9jsmntok_tER16JsonParserString+0x44>
			case 'f':
				str.append('\f');
				break;

			case 'n':
				str.append('\n');
 8081012:	210a      	movs	r1, #10
			case 'b':
				str.append('\b');
				break;

			case 'f':
				str.append('\f');
 8081014:	4630      	mov	r0, r6
 8081016:	f7ff ffa2 	bl	8080f5e <_ZN16JsonParserString6appendEc>
	int unicode;
	bool escape = false;

	for(int ii = token->start; ii < token->end; ii++) {
		if (escape) {
			escape = false;
 808101a:	2400      	movs	r4, #0
				str.append('\b');
				break;

			case 'f':
				str.append('\f');
				break;
 808101c:	e026      	b.n	808106c <_ZNK10JsonParser13getTokenValueEPKN21JsonParserGeneratorRK9jsmntok_tER16JsonParserString+0x9c>
			case 'n':
				str.append('\n');
				break;

			case 'r':
				str.append('\r');
 808101e:	210d      	movs	r1, #13
 8081020:	e7f8      	b.n	8081014 <_ZNK10JsonParser13getTokenValueEPKN21JsonParserGeneratorRK9jsmntok_tER16JsonParserString+0x44>
				break;

			case 't':
				str.append('\t');
 8081022:	2109      	movs	r1, #9
 8081024:	e7f6      	b.n	8081014 <_ZNK10JsonParser13getTokenValueEPKN21JsonParserGeneratorRK9jsmntok_tER16JsonParserString+0x44>
				break;

			case 'u':
				if ((ii + 4) < token->end) {
 8081026:	1d2b      	adds	r3, r5, #4
 8081028:	4298      	cmp	r0, r3
 808102a:	ddf6      	ble.n	808101a <_ZNK10JsonParser13getTokenValueEPKN21JsonParserGeneratorRK9jsmntok_tER16JsonParserString+0x4a>
 808102c:	2300      	movs	r3, #0
					// Copy data here because buffer is not null terminated and this could
					// read past the end otherwise
					char tmp[5];
					for(size_t jj = 0; jj < 4; jj++) {
						tmp[jj] = buffer[ii + jj + 1];
 808102e:	f812 1f01 	ldrb.w	r1, [r2, #1]!
 8081032:	a802      	add	r0, sp, #8
 8081034:	5419      	strb	r1, [r3, r0]
			case 'u':
				if ((ii + 4) < token->end) {
					// Copy data here because buffer is not null terminated and this could
					// read past the end otherwise
					char tmp[5];
					for(size_t jj = 0; jj < 4; jj++) {
 8081036:	3301      	adds	r3, #1
 8081038:	2b04      	cmp	r3, #4
 808103a:	d1f8      	bne.n	808102e <_ZNK10JsonParser13getTokenValueEPKN21JsonParserGeneratorRK9jsmntok_tER16JsonParserString+0x5e>
						tmp[jj] = buffer[ii + jj + 1];
					}
					tmp[4] = 0;
 808103c:	2300      	movs	r3, #0
					if (sscanf(tmp, "%04x", &unicode) == 1) {
 808103e:	aa01      	add	r2, sp, #4
 8081040:	490d      	ldr	r1, [pc, #52]	; (8081078 <_ZNK10JsonParser13getTokenValueEPKN21JsonParserGeneratorRK9jsmntok_tER16JsonParserString+0xa8>)
					// read past the end otherwise
					char tmp[5];
					for(size_t jj = 0; jj < 4; jj++) {
						tmp[jj] = buffer[ii + jj + 1];
					}
					tmp[4] = 0;
 8081042:	f88d 300c 	strb.w	r3, [sp, #12]
					if (sscanf(tmp, "%04x", &unicode) == 1) {
 8081046:	f000 ff91 	bl	8081f6c <sscanf>
 808104a:	2801      	cmp	r0, #1
 808104c:	d1e5      	bne.n	808101a <_ZNK10JsonParser13getTokenValueEPKN21JsonParserGeneratorRK9jsmntok_tER16JsonParserString+0x4a>
						appendUtf8((uint16_t)unicode, str);
 808104e:	4631      	mov	r1, r6
 8081050:	f8bd 0004 	ldrh.w	r0, [sp, #4]
 8081054:	f7ff ff97 	bl	8080f86 <_ZN10JsonParser10appendUtf8EtR16JsonParserString>
						ii += 5; // also increments in loop
 8081058:	3505      	adds	r5, #5
 808105a:	e7de      	b.n	808101a <_ZNK10JsonParser13getTokenValueEPKN21JsonParserGeneratorRK9jsmntok_tER16JsonParserString+0x4a>
				str.append(buffer[ii]);
				break;
			}
		}
		else
		if (buffer[ii] == '\\') {
 808105c:	5d59      	ldrb	r1, [r3, r5]
 808105e:	295c      	cmp	r1, #92	; 0x5c
 8081060:	d003      	beq.n	808106a <_ZNK10JsonParser13getTokenValueEPKN21JsonParserGeneratorRK9jsmntok_tER16JsonParserString+0x9a>
			escape = true;
		}
		else {
			str.append(buffer[ii]);
 8081062:	4630      	mov	r0, r6
 8081064:	f7ff ff7b 	bl	8080f5e <_ZN16JsonParserString6appendEc>
 8081068:	e000      	b.n	808106c <_ZNK10JsonParser13getTokenValueEPKN21JsonParserGeneratorRK9jsmntok_tER16JsonParserString+0x9c>
				break;
			}
		}
		else
		if (buffer[ii] == '\\') {
			escape = true;
 808106a:	2401      	movs	r4, #1
bool JsonParser::getTokenValue(const JsonParserGeneratorRK::jsmntok_t *token, JsonParserString &str) const {

	int unicode;
	bool escape = false;

	for(int ii = token->start; ii < token->end; ii++) {
 808106c:	3501      	adds	r5, #1
 808106e:	e7b6      	b.n	8080fde <_ZNK10JsonParser13getTokenValueEPKN21JsonParserGeneratorRK9jsmntok_tER16JsonParserString+0xe>
			str.append(buffer[ii]);
		}
	}

	return true;
}
 8081070:	2001      	movs	r0, #1
 8081072:	b004      	add	sp, #16
 8081074:	e8bd 81f0 	ldmia.w	sp!, {r4, r5, r6, r7, r8, pc}
 8081078:	0808769c 	.word	0x0808769c

0808107c <_ZNK10JsonParser13getTokenValueEPKN21JsonParserGeneratorRK9jsmntok_tER6String>:
	return true;
}



bool JsonParser::getTokenValue(const JsonParserGeneratorRK::jsmntok_t *token, String &result) const {
 808107c:	b57f      	push	{r0, r1, r2, r3, r4, r5, r6, lr}
 808107e:	460c      	mov	r4, r1
 8081080:	4615      	mov	r5, r2
 8081082:	4606      	mov	r6, r0

	result = "";
 8081084:	490b      	ldr	r1, [pc, #44]	; (80810b4 <_ZNK10JsonParser13getTokenValueEPKN21JsonParserGeneratorRK9jsmntok_tER6String+0x38>)
 8081086:	4610      	mov	r0, r2
 8081088:	f001 f8ee 	bl	8082268 <_ZN6StringaSEPKc>
	result.reserve(token->end - token->start + 1);
 808108c:	68a3      	ldr	r3, [r4, #8]
 808108e:	6861      	ldr	r1, [r4, #4]
 8081090:	4628      	mov	r0, r5
 8081092:	1a59      	subs	r1, r3, r1
 8081094:	3101      	adds	r1, #1
 8081096:	f001 f86c 	bl	8082172 <_ZN6String7reserveEj>


//
//
//
JsonParserString::JsonParserString(String *str) : str(str), buf(0), bufLen(0), length(0){
 808109a:	2300      	movs	r3, #0

	result = "";
	result.reserve(token->end - token->start + 1);

	JsonParserString strWrapper(&result);
	return getTokenValue(token, strWrapper);
 808109c:	466a      	mov	r2, sp
 808109e:	4621      	mov	r1, r4
 80810a0:	4630      	mov	r0, r6


//
//
//
JsonParserString::JsonParserString(String *str) : str(str), buf(0), bufLen(0), length(0){
 80810a2:	9500      	str	r5, [sp, #0]
 80810a4:	9301      	str	r3, [sp, #4]
 80810a6:	9302      	str	r3, [sp, #8]
 80810a8:	9303      	str	r3, [sp, #12]

	result = "";
	result.reserve(token->end - token->start + 1);

	JsonParserString strWrapper(&result);
	return getTokenValue(token, strWrapper);
 80810aa:	f7ff ff91 	bl	8080fd0 <_ZNK10JsonParser13getTokenValueEPKN21JsonParserGeneratorRK9jsmntok_tER16JsonParserString>
}
 80810ae:	b004      	add	sp, #16
 80810b0:	bd70      	pop	{r4, r5, r6, pc}
 80810b2:	bf00      	nop
 80810b4:	08087ab0 	.word	0x08087ab0

080810b8 <_ZNK10JsonParser18getValueTokenByKeyEPKN21JsonParserGeneratorRK9jsmntok_tEPKcRS3_>:

	return false;
}


bool JsonParser::getValueTokenByKey(const JsonParserGeneratorRK::jsmntok_t *container, const char *name, const JsonParserGeneratorRK::jsmntok_t *&value) const {
 80810b8:	e92d 43f0 	stmdb	sp!, {r4, r5, r6, r7, r8, r9, lr}
 80810bc:	b089      	sub	sp, #36	; 0x24
 80810be:	4606      	mov	r6, r0
 80810c0:	460f      	mov	r7, r1

	const JsonParserGeneratorRK::jsmntok_t *key;
	String keyName;
 80810c2:	a804      	add	r0, sp, #16
 80810c4:	4911      	ldr	r1, [pc, #68]	; (808110c <_ZNK10JsonParser18getValueTokenByKeyEPKN21JsonParserGeneratorRK9jsmntok_tEPKcRS3_+0x54>)

	return false;
}


bool JsonParser::getValueTokenByKey(const JsonParserGeneratorRK::jsmntok_t *container, const char *name, const JsonParserGeneratorRK::jsmntok_t *&value) const {
 80810c6:	4690      	mov	r8, r2
 80810c8:	4699      	mov	r9, r3

	const JsonParserGeneratorRK::jsmntok_t *key;
	String keyName;
 80810ca:	f001 f87b 	bl	80821c4 <_ZN6StringC1EPK19__FlashStringHelper>

	for(size_t ii = 0; getKeyValueTokenByIndex(container, key, value, ii); ii++) {
 80810ce:	2500      	movs	r5, #0
 80810d0:	9500      	str	r5, [sp, #0]
 80810d2:	464b      	mov	r3, r9
 80810d4:	aa03      	add	r2, sp, #12
 80810d6:	4639      	mov	r1, r7
 80810d8:	4630      	mov	r0, r6
 80810da:	f7ff fede 	bl	8080e9a <_ZNK10JsonParser23getKeyValueTokenByIndexEPKN21JsonParserGeneratorRK9jsmntok_tERS3_S4_j>
 80810de:	4604      	mov	r4, r0
 80810e0:	b168      	cbz	r0, 80810fe <_ZNK10JsonParser18getValueTokenByKeyEPKN21JsonParserGeneratorRK9jsmntok_tEPKcRS3_+0x46>
		if (getTokenValue(key, keyName) && keyName == name) {
 80810e2:	aa04      	add	r2, sp, #16
 80810e4:	9903      	ldr	r1, [sp, #12]
 80810e6:	4630      	mov	r0, r6
 80810e8:	f7ff ffc8 	bl	808107c <_ZNK10JsonParser13getTokenValueEPKN21JsonParserGeneratorRK9jsmntok_tER6String>
 80810ec:	4604      	mov	r4, r0
 80810ee:	b120      	cbz	r0, 80810fa <_ZNK10JsonParser18getValueTokenByKeyEPKN21JsonParserGeneratorRK9jsmntok_tEPKcRS3_+0x42>
	operator StringIfHelperType() const { return buffer ? &String::StringIfHelper : 0; }
	int compareTo(const String &s) const;
	unsigned char equals(const String &s) const;
	unsigned char equals(const char *cstr) const;
	unsigned char operator == (const String &rhs) const {return equals(rhs);}
	unsigned char operator == (const char *cstr) const {return equals(cstr);}
 80810f0:	4641      	mov	r1, r8
 80810f2:	a804      	add	r0, sp, #16
 80810f4:	f001 f92d 	bl	8082352 <_ZNK6String6equalsEPKc>
 80810f8:	b908      	cbnz	r0, 80810fe <_ZNK10JsonParser18getValueTokenByKeyEPKN21JsonParserGeneratorRK9jsmntok_tEPKcRS3_+0x46>
bool JsonParser::getValueTokenByKey(const JsonParserGeneratorRK::jsmntok_t *container, const char *name, const JsonParserGeneratorRK::jsmntok_t *&value) const {

	const JsonParserGeneratorRK::jsmntok_t *key;
	String keyName;

	for(size_t ii = 0; getKeyValueTokenByIndex(container, key, value, ii); ii++) {
 80810fa:	3501      	adds	r5, #1
 80810fc:	e7e8      	b.n	80810d0 <_ZNK10JsonParser18getValueTokenByKeyEPKN21JsonParserGeneratorRK9jsmntok_tEPKcRS3_+0x18>


bool JsonParser::getValueTokenByKey(const JsonParserGeneratorRK::jsmntok_t *container, const char *name, const JsonParserGeneratorRK::jsmntok_t *&value) const {

	const JsonParserGeneratorRK::jsmntok_t *key;
	String keyName;
 80810fe:	a804      	add	r0, sp, #16
 8081100:	f001 f819 	bl	8082136 <_ZN6StringD1Ev>
		if (getTokenValue(key, keyName) && keyName == name) {
			return true;
		}
	}
	return false;
}
 8081104:	4620      	mov	r0, r4
 8081106:	b009      	add	sp, #36	; 0x24
 8081108:	e8bd 83f0 	ldmia.w	sp!, {r4, r5, r6, r7, r8, r9, pc}
 808110c:	08087ab0 	.word	0x08087ab0

08081110 <_ZNK13JsonReference3keyEPKc>:
}

JsonReference::JsonReference(const JsonParser *parser, const JsonParserGeneratorRK::jsmntok_t *token) : parser(parser), token(token) {
}

JsonReference JsonReference::key(const char *name) const {
 8081110:	b573      	push	{r0, r1, r4, r5, r6, lr}
 8081112:	460d      	mov	r5, r1
	const JsonParserGeneratorRK::jsmntok_t *newToken;

	if (token && parser->getValueTokenByKey(token, name, newToken)) {
 8081114:	6889      	ldr	r1, [r1, #8]
}

JsonReference::JsonReference(const JsonParser *parser, const JsonParserGeneratorRK::jsmntok_t *token) : parser(parser), token(token) {
}

JsonReference JsonReference::key(const char *name) const {
 8081116:	4604      	mov	r4, r0
 8081118:	4e09      	ldr	r6, [pc, #36]	; (8081140 <_ZNK13JsonReference3keyEPKc+0x30>)
	const JsonParserGeneratorRK::jsmntok_t *newToken;

	if (token && parser->getValueTokenByKey(token, name, newToken)) {
 808111a:	b121      	cbz	r1, 8081126 <_ZNK13JsonReference3keyEPKc+0x16>
 808111c:	ab01      	add	r3, sp, #4
 808111e:	6868      	ldr	r0, [r5, #4]
 8081120:	f7ff ffca 	bl	80810b8 <_ZNK10JsonParser18getValueTokenByKeyEPKN21JsonParserGeneratorRK9jsmntok_tEPKcRS3_>
 8081124:	b920      	cbnz	r0, 8081130 <_ZNK13JsonReference3keyEPKc+0x20>
		return JsonReference(parser, newToken);
	}
	else {
		return JsonReference(parser);
 8081126:	686b      	ldr	r3, [r5, #4]

//
//
//

JsonReference::JsonReference(const JsonParser *parser) : parser(parser), token(0) {
 8081128:	6026      	str	r6, [r4, #0]
 808112a:	6063      	str	r3, [r4, #4]
 808112c:	2300      	movs	r3, #0
 808112e:	e003      	b.n	8081138 <_ZNK13JsonReference3keyEPKc+0x28>

JsonReference JsonReference::key(const char *name) const {
	const JsonParserGeneratorRK::jsmntok_t *newToken;

	if (token && parser->getValueTokenByKey(token, name, newToken)) {
		return JsonReference(parser, newToken);
 8081130:	686b      	ldr	r3, [r5, #4]
}

JsonReference::~JsonReference() {
}

JsonReference::JsonReference(const JsonParser *parser, const JsonParserGeneratorRK::jsmntok_t *token) : parser(parser), token(token) {
 8081132:	6026      	str	r6, [r4, #0]
 8081134:	6063      	str	r3, [r4, #4]
 8081136:	9b01      	ldr	r3, [sp, #4]
		return JsonReference(parser, newToken);
	}
	else {
		return JsonReference(parser);
	}
}
 8081138:	4620      	mov	r0, r4
}

JsonReference::~JsonReference() {
}

JsonReference::JsonReference(const JsonParser *parser, const JsonParserGeneratorRK::jsmntok_t *token) : parser(parser), token(token) {
 808113a:	60a3      	str	r3, [r4, #8]
		return JsonReference(parser, newToken);
	}
	else {
		return JsonReference(parser);
	}
}
 808113c:	b002      	add	sp, #8
 808113e:	bd70      	pop	{r4, r5, r6, pc}
 8081140:	08087680 	.word	0x08087680

08081144 <_ZN21JsonParserGeneratorRK10jsmn_parseEPNS_11jsmn_parserEPKcjPNS_9jsmntok_tEj>:

/**
 * Parse JSON string and fill tokens.
 */
int jsmn_parse(jsmn_parser *parser, const char *js, size_t len,
		jsmntok_t *tokens, unsigned int num_tokens) {
 8081144:	e92d 4ff0 	stmdb	sp!, {r4, r5, r6, r7, r8, r9, sl, fp, lr}
	int r;
	int i;
	jsmntok_t *token;
	int count = parser->toknext;
 8081148:	6844      	ldr	r4, [r0, #4]
	jsmntok_t *tok;
	if (parser->toknext >= num_tokens) {
		return NULL;
	}
	tok = &tokens[parser->toknext++];
	tok->start = tok->end = -1;
 808114a:	f04f 35ff 	mov.w	r5, #4294967295
/**
 * Fills token type and boundaries.
 */
static void jsmn_fill_token(jsmntok_t *token, jsmntype_t type,
                            int start, int end) {
	token->type = type;
 808114e:	f04f 0e03 	mov.w	lr, #3
	int r;
	int i;
	jsmntok_t *token;
	int count = parser->toknext;

	for (; parser->pos < len && js[parser->pos] != '\0'; parser->pos++) {
 8081152:	f8d0 c000 	ldr.w	ip, [r0]
 8081156:	4594      	cmp	ip, r2
 8081158:	f080 819d 	bcs.w	8081496 <_ZN21JsonParserGeneratorRK10jsmn_parseEPNS_11jsmn_parserEPKcjPNS_9jsmntok_tEj+0x352>
 808115c:	f811 800c 	ldrb.w	r8, [r1, ip]
 8081160:	f1b8 0f00 	cmp.w	r8, #0
 8081164:	f000 8197 	beq.w	8081496 <_ZN21JsonParserGeneratorRK10jsmn_parseEPNS_11jsmn_parserEPKcjPNS_9jsmntok_tEj+0x352>
		char c;
		jsmntype_t type;

		c = js[parser->pos];
		switch (c) {
 8081168:	f1b8 0f2c 	cmp.w	r8, #44	; 0x2c
 808116c:	f000 8116 	beq.w	808139c <_ZN21JsonParserGeneratorRK10jsmn_parseEPNS_11jsmn_parserEPKcjPNS_9jsmntok_tEj+0x258>
 8081170:	d818      	bhi.n	80811a4 <_ZN21JsonParserGeneratorRK10jsmn_parseEPNS_11jsmn_parserEPKcjPNS_9jsmntok_tEj+0x60>
 8081172:	f1b8 0f0d 	cmp.w	r8, #13
 8081176:	f000 818a 	beq.w	808148e <_ZN21JsonParserGeneratorRK10jsmn_parseEPNS_11jsmn_parserEPKcjPNS_9jsmntok_tEj+0x34a>
 808117a:	d806      	bhi.n	808118a <_ZN21JsonParserGeneratorRK10jsmn_parseEPNS_11jsmn_parserEPKcjPNS_9jsmntok_tEj+0x46>
 808117c:	f1a8 0809 	sub.w	r8, r8, #9
 8081180:	f1b8 0f01 	cmp.w	r8, #1
 8081184:	f240 8183 	bls.w	808148e <_ZN21JsonParserGeneratorRK10jsmn_parseEPNS_11jsmn_parserEPKcjPNS_9jsmntok_tEj+0x34a>
 8081188:	e13d      	b.n	8081406 <_ZN21JsonParserGeneratorRK10jsmn_parseEPNS_11jsmn_parserEPKcjPNS_9jsmntok_tEj+0x2c2>
 808118a:	f1b8 0f20 	cmp.w	r8, #32
 808118e:	f000 817e 	beq.w	808148e <_ZN21JsonParserGeneratorRK10jsmn_parseEPNS_11jsmn_parserEPKcjPNS_9jsmntok_tEj+0x34a>
 8081192:	f1b8 0f22 	cmp.w	r8, #34	; 0x22
 8081196:	f040 8136 	bne.w	8081406 <_ZN21JsonParserGeneratorRK10jsmn_parseEPNS_11jsmn_parserEPKcjPNS_9jsmntok_tEj+0x2c2>
		size_t len, jsmntok_t *tokens, size_t num_tokens) {
	jsmntok_t *token;

	int start = parser->pos;

	parser->pos++;
 808119a:	f10c 0901 	add.w	r9, ip, #1
 808119e:	f8c0 9000 	str.w	r9, [r0]
 80811a2:	e092      	b.n	80812ca <_ZN21JsonParserGeneratorRK10jsmn_parseEPNS_11jsmn_parserEPKcjPNS_9jsmntok_tEj+0x186>
	for (; parser->pos < len && js[parser->pos] != '\0'; parser->pos++) {
		char c;
		jsmntype_t type;

		c = js[parser->pos];
		switch (c) {
 80811a4:	f1b8 0f5d 	cmp.w	r8, #93	; 0x5d
 80811a8:	d03c      	beq.n	8081224 <_ZN21JsonParserGeneratorRK10jsmn_parseEPNS_11jsmn_parserEPKcjPNS_9jsmntok_tEj+0xe0>
 80811aa:	d807      	bhi.n	80811bc <_ZN21JsonParserGeneratorRK10jsmn_parseEPNS_11jsmn_parserEPKcjPNS_9jsmntok_tEj+0x78>
 80811ac:	f1b8 0f3a 	cmp.w	r8, #58	; 0x3a
 80811b0:	f000 80f0 	beq.w	8081394 <_ZN21JsonParserGeneratorRK10jsmn_parseEPNS_11jsmn_parserEPKcjPNS_9jsmntok_tEj+0x250>
 80811b4:	f1b8 0f5b 	cmp.w	r8, #91	; 0x5b
 80811b8:	d007      	beq.n	80811ca <_ZN21JsonParserGeneratorRK10jsmn_parseEPNS_11jsmn_parserEPKcjPNS_9jsmntok_tEj+0x86>
 80811ba:	e124      	b.n	8081406 <_ZN21JsonParserGeneratorRK10jsmn_parseEPNS_11jsmn_parserEPKcjPNS_9jsmntok_tEj+0x2c2>
 80811bc:	f1b8 0f7b 	cmp.w	r8, #123	; 0x7b
 80811c0:	d003      	beq.n	80811ca <_ZN21JsonParserGeneratorRK10jsmn_parseEPNS_11jsmn_parserEPKcjPNS_9jsmntok_tEj+0x86>
 80811c2:	f1b8 0f7d 	cmp.w	r8, #125	; 0x7d
 80811c6:	d02d      	beq.n	8081224 <_ZN21JsonParserGeneratorRK10jsmn_parseEPNS_11jsmn_parserEPKcjPNS_9jsmntok_tEj+0xe0>
 80811c8:	e11d      	b.n	8081406 <_ZN21JsonParserGeneratorRK10jsmn_parseEPNS_11jsmn_parserEPKcjPNS_9jsmntok_tEj+0x2c2>
			case '{': case '[':
				count++;
 80811ca:	3401      	adds	r4, #1
				if (tokens == NULL) {
 80811cc:	2b00      	cmp	r3, #0
 80811ce:	f000 815e 	beq.w	808148e <_ZN21JsonParserGeneratorRK10jsmn_parseEPNS_11jsmn_parserEPKcjPNS_9jsmntok_tEj+0x34a>
 * Allocates a fresh unused token from the token pull.
 */
static jsmntok_t *jsmn_alloc_token(jsmn_parser *parser,
		jsmntok_t *tokens, size_t num_tokens) {
	jsmntok_t *tok;
	if (parser->toknext >= num_tokens) {
 80811d2:	6847      	ldr	r7, [r0, #4]
 80811d4:	9e09      	ldr	r6, [sp, #36]	; 0x24
 80811d6:	42be      	cmp	r6, r7
 80811d8:	f240 817c 	bls.w	80814d4 <_ZN21JsonParserGeneratorRK10jsmn_parseEPNS_11jsmn_parserEPKcjPNS_9jsmntok_tEj+0x390>
		return NULL;
	}
	tok = &tokens[parser->toknext++];
 80811dc:	f107 0c01 	add.w	ip, r7, #1
 80811e0:	f8c0 c004 	str.w	ip, [r0, #4]
 80811e4:	ea4f 1c07 	mov.w	ip, r7, lsl #4
 80811e8:	eb03 0a0c 	add.w	sl, r3, ip
	tok->start = tok->end = -1;
	tok->size = 0;
 80811ec:	2600      	movs	r6, #0
	jsmntok_t *tok;
	if (parser->toknext >= num_tokens) {
		return NULL;
	}
	tok = &tokens[parser->toknext++];
	tok->start = tok->end = -1;
 80811ee:	f8ca 5004 	str.w	r5, [sl, #4]
	tok->size = 0;
 80811f2:	f8ca 600c 	str.w	r6, [sl, #12]
	jsmntok_t *tok;
	if (parser->toknext >= num_tokens) {
		return NULL;
	}
	tok = &tokens[parser->toknext++];
	tok->start = tok->end = -1;
 80811f6:	f8ca 5008 	str.w	r5, [sl, #8]
					break;
				}
				token = jsmn_alloc_token(parser, tokens, num_tokens);
				if (token == NULL)
					return JSMN_ERROR_NOMEM;
				if (parser->toksuper != -1) {
 80811fa:	6887      	ldr	r7, [r0, #8]
 80811fc:	1c7e      	adds	r6, r7, #1
					tokens[parser->toksuper].size++;
 80811fe:	bf1f      	itttt	ne
 8081200:	eb03 1907 	addne.w	r9, r3, r7, lsl #4
 8081204:	f8d9 700c 	ldrne.w	r7, [r9, #12]
 8081208:	3701      	addne	r7, #1
 808120a:	f8c9 700c 	strne.w	r7, [r9, #12]
#ifdef JSMN_PARENT_LINKS
					token->parent = parser->toksuper;
#endif
				}
				token->type = (c == '{' ? JSMN_OBJECT : JSMN_ARRAY);
 808120e:	f1b8 0f7b 	cmp.w	r8, #123	; 0x7b
 8081212:	bf14      	ite	ne
 8081214:	2702      	movne	r7, #2
 8081216:	2701      	moveq	r7, #1
 8081218:	f803 700c 	strb.w	r7, [r3, ip]
				token->start = parser->pos;
 808121c:	6807      	ldr	r7, [r0, #0]
 808121e:	f8ca 7004 	str.w	r7, [sl, #4]
 8081222:	e0b7      	b.n	8081394 <_ZN21JsonParserGeneratorRK10jsmn_parseEPNS_11jsmn_parserEPKcjPNS_9jsmntok_tEj+0x250>
				parser->toksuper = parser->toknext - 1;
				break;
			case '}': case ']':
				if (tokens == NULL)
 8081224:	2b00      	cmp	r3, #0
 8081226:	f000 8132 	beq.w	808148e <_ZN21JsonParserGeneratorRK10jsmn_parseEPNS_11jsmn_parserEPKcjPNS_9jsmntok_tEj+0x34a>
						break;
					}
					token = &tokens[token->parent];
				}
#else
				for (i = parser->toknext - 1; i >= 0; i--) {
 808122a:	6847      	ldr	r7, [r0, #4]
				parser->toksuper = parser->toknext - 1;
				break;
			case '}': case ']':
				if (tokens == NULL)
					break;
				type = (c == '}' ? JSMN_OBJECT : JSMN_ARRAY);
 808122c:	f1b8 0f7d 	cmp.w	r8, #125	; 0x7d
 8081230:	f107 5880 	add.w	r8, r7, #268435456	; 0x10000000
 8081234:	f108 38ff 	add.w	r8, r8, #4294967295
 8081238:	bf14      	ite	ne
 808123a:	f04f 0a02 	movne.w	sl, #2
 808123e:	f04f 0a01 	moveq.w	sl, #1
						break;
					}
					token = &tokens[token->parent];
				}
#else
				for (i = parser->toknext - 1; i >= 0; i--) {
 8081242:	f107 39ff 	add.w	r9, r7, #4294967295
 8081246:	eb03 1808 	add.w	r8, r3, r8, lsl #4
 808124a:	f1b9 0f00 	cmp.w	r9, #0
 808124e:	db19      	blt.n	8081284 <_ZN21JsonParserGeneratorRK10jsmn_parseEPNS_11jsmn_parserEPKcjPNS_9jsmntok_tEj+0x140>
					token = &tokens[i];
					if (token->start != -1 && token->end == -1) {
 8081250:	f8d8 7004 	ldr.w	r7, [r8, #4]
 8081254:	3701      	adds	r7, #1
 8081256:	d010      	beq.n	808127a <_ZN21JsonParserGeneratorRK10jsmn_parseEPNS_11jsmn_parserEPKcjPNS_9jsmntok_tEj+0x136>
 8081258:	f8d8 7008 	ldr.w	r7, [r8, #8]
 808125c:	1c7e      	adds	r6, r7, #1
 808125e:	d10c      	bne.n	808127a <_ZN21JsonParserGeneratorRK10jsmn_parseEPNS_11jsmn_parserEPKcjPNS_9jsmntok_tEj+0x136>
						if (token->type != type) {
 8081260:	f898 b000 	ldrb.w	fp, [r8]
 8081264:	45d3      	cmp	fp, sl
 8081266:	f040 8128 	bne.w	80814ba <_ZN21JsonParserGeneratorRK10jsmn_parseEPNS_11jsmn_parserEPKcjPNS_9jsmntok_tEj+0x376>
							return JSMN_ERROR_INVAL;
						}
						parser->toksuper = -1;
 808126a:	6087      	str	r7, [r0, #8]
						token->end = parser->pos + 1;
 808126c:	f10c 0701 	add.w	r7, ip, #1
 8081270:	f8c8 7008 	str.w	r7, [r8, #8]
 8081274:	eb03 1c09 	add.w	ip, r3, r9, lsl #4
 8081278:	e011      	b.n	808129e <_ZN21JsonParserGeneratorRK10jsmn_parseEPNS_11jsmn_parserEPKcjPNS_9jsmntok_tEj+0x15a>
						break;
					}
					token = &tokens[token->parent];
				}
#else
				for (i = parser->toknext - 1; i >= 0; i--) {
 808127a:	f109 39ff 	add.w	r9, r9, #4294967295
 808127e:	f1a8 0810 	sub.w	r8, r8, #16
 8081282:	e7e2      	b.n	808124a <_ZN21JsonParserGeneratorRK10jsmn_parseEPNS_11jsmn_parserEPKcjPNS_9jsmntok_tEj+0x106>
						token->end = parser->pos + 1;
						break;
					}
				}
				/* Error if unmatched closing bracket */
				if (i == -1) return JSMN_ERROR_INVAL;
 8081284:	f1b9 3fff 	cmp.w	r9, #4294967295
 8081288:	f040 8101 	bne.w	808148e <_ZN21JsonParserGeneratorRK10jsmn_parseEPNS_11jsmn_parserEPKcjPNS_9jsmntok_tEj+0x34a>
 808128c:	e115      	b.n	80814ba <_ZN21JsonParserGeneratorRK10jsmn_parseEPNS_11jsmn_parserEPKcjPNS_9jsmntok_tEj+0x376>
				for (; i >= 0; i--) {
 808128e:	f109 39ff 	add.w	r9, r9, #4294967295
 8081292:	f1b9 3fff 	cmp.w	r9, #4294967295
 8081296:	f1ac 0c10 	sub.w	ip, ip, #16
 808129a:	f000 80f8 	beq.w	808148e <_ZN21JsonParserGeneratorRK10jsmn_parseEPNS_11jsmn_parserEPKcjPNS_9jsmntok_tEj+0x34a>
					token = &tokens[i];
					if (token->start != -1 && token->end == -1) {
 808129e:	f8dc 7004 	ldr.w	r7, [ip, #4]
 80812a2:	3701      	adds	r7, #1
 80812a4:	d0f3      	beq.n	808128e <_ZN21JsonParserGeneratorRK10jsmn_parseEPNS_11jsmn_parserEPKcjPNS_9jsmntok_tEj+0x14a>
 80812a6:	f8dc 7008 	ldr.w	r7, [ip, #8]
 80812aa:	3701      	adds	r7, #1
 80812ac:	d1ef      	bne.n	808128e <_ZN21JsonParserGeneratorRK10jsmn_parseEPNS_11jsmn_parserEPKcjPNS_9jsmntok_tEj+0x14a>
						parser->toksuper = i;
 80812ae:	f8c0 9008 	str.w	r9, [r0, #8]
						break;
 80812b2:	e0ec      	b.n	808148e <_ZN21JsonParserGeneratorRK10jsmn_parseEPNS_11jsmn_parserEPKcjPNS_9jsmntok_tEj+0x34a>
	int start = parser->pos;

	parser->pos++;

	/* Skip starting quote */
	for (; parser->pos < len && js[parser->pos] != '\0'; parser->pos++) {
 80812b4:	f811 7008 	ldrb.w	r7, [r1, r8]
 80812b8:	2f00      	cmp	r7, #0
 80812ba:	d068      	beq.n	808138e <_ZN21JsonParserGeneratorRK10jsmn_parseEPNS_11jsmn_parserEPKcjPNS_9jsmntok_tEj+0x24a>
		char c = js[parser->pos];

		/* Quote: end of string */
		if (c == '\"') {
 80812bc:	2f22      	cmp	r7, #34	; 0x22
 80812be:	d009      	beq.n	80812d4 <_ZN21JsonParserGeneratorRK10jsmn_parseEPNS_11jsmn_parserEPKcjPNS_9jsmntok_tEj+0x190>
#endif
			return 0;
		}

		/* Backslash: Quoted symbol expected */
		if (c == '\\' && parser->pos + 1 < len) {
 80812c0:	2f5c      	cmp	r7, #92	; 0x5c
 80812c2:	d026      	beq.n	8081312 <_ZN21JsonParserGeneratorRK10jsmn_parseEPNS_11jsmn_parserEPKcjPNS_9jsmntok_tEj+0x1ce>
	int start = parser->pos;

	parser->pos++;

	/* Skip starting quote */
	for (; parser->pos < len && js[parser->pos] != '\0'; parser->pos++) {
 80812c4:	6807      	ldr	r7, [r0, #0]
 80812c6:	3701      	adds	r7, #1
 80812c8:	6007      	str	r7, [r0, #0]
 80812ca:	f8d0 8000 	ldr.w	r8, [r0]
 80812ce:	4542      	cmp	r2, r8
 80812d0:	d8f0      	bhi.n	80812b4 <_ZN21JsonParserGeneratorRK10jsmn_parseEPNS_11jsmn_parserEPKcjPNS_9jsmntok_tEj+0x170>
 80812d2:	e05c      	b.n	808138e <_ZN21JsonParserGeneratorRK10jsmn_parseEPNS_11jsmn_parserEPKcjPNS_9jsmntok_tEj+0x24a>
		char c = js[parser->pos];

		/* Quote: end of string */
		if (c == '\"') {
			if (tokens == NULL) {
 80812d4:	2b00      	cmp	r3, #0
 80812d6:	f000 80ce 	beq.w	8081476 <_ZN21JsonParserGeneratorRK10jsmn_parseEPNS_11jsmn_parserEPKcjPNS_9jsmntok_tEj+0x332>
 * Allocates a fresh unused token from the token pull.
 */
static jsmntok_t *jsmn_alloc_token(jsmn_parser *parser,
		jsmntok_t *tokens, size_t num_tokens) {
	jsmntok_t *tok;
	if (parser->toknext >= num_tokens) {
 80812da:	6847      	ldr	r7, [r0, #4]
 80812dc:	9e09      	ldr	r6, [sp, #36]	; 0x24
 80812de:	42be      	cmp	r6, r7
 80812e0:	f240 80f6 	bls.w	80814d0 <_ZN21JsonParserGeneratorRK10jsmn_parseEPNS_11jsmn_parserEPKcjPNS_9jsmntok_tEj+0x38c>
		return NULL;
	}
	tok = &tokens[parser->toknext++];
 80812e4:	f107 0c01 	add.w	ip, r7, #1
 80812e8:	013f      	lsls	r7, r7, #4
 80812ea:	f8c0 c004 	str.w	ip, [r0, #4]
	tok->start = tok->end = -1;
	tok->size = 0;
 80812ee:	2600      	movs	r6, #0
		jsmntok_t *tokens, size_t num_tokens) {
	jsmntok_t *tok;
	if (parser->toknext >= num_tokens) {
		return NULL;
	}
	tok = &tokens[parser->toknext++];
 80812f0:	eb03 0c07 	add.w	ip, r3, r7
	tok->start = tok->end = -1;
 80812f4:	f8cc 5008 	str.w	r5, [ip, #8]
 80812f8:	f8cc 5004 	str.w	r5, [ip, #4]
	tok->size = 0;
 80812fc:	f8cc 600c 	str.w	r6, [ip, #12]
			token = jsmn_alloc_token(parser, tokens, num_tokens);
			if (token == NULL) {
				parser->pos = start;
				return JSMN_ERROR_NOMEM;
			}
			jsmn_fill_token(token, JSMN_STRING, start+1, parser->pos);
 8081300:	f8d0 8000 	ldr.w	r8, [r0]
/**
 * Fills token type and boundaries.
 */
static void jsmn_fill_token(jsmntok_t *token, jsmntype_t type,
                            int start, int end) {
	token->type = type;
 8081304:	f803 e007 	strb.w	lr, [r3, r7]
	token->start = start;
 8081308:	f8cc 9004 	str.w	r9, [ip, #4]
	token->end = end;
 808130c:	f8cc 8008 	str.w	r8, [ip, #8]
 8081310:	e0b1      	b.n	8081476 <_ZN21JsonParserGeneratorRK10jsmn_parseEPNS_11jsmn_parserEPKcjPNS_9jsmntok_tEj+0x332>
#endif
			return 0;
		}

		/* Backslash: Quoted symbol expected */
		if (c == '\\' && parser->pos + 1 < len) {
 8081312:	f108 0701 	add.w	r7, r8, #1
 8081316:	42ba      	cmp	r2, r7
 8081318:	d9d4      	bls.n	80812c4 <_ZN21JsonParserGeneratorRK10jsmn_parseEPNS_11jsmn_parserEPKcjPNS_9jsmntok_tEj+0x180>
			int i;
			parser->pos++;
 808131a:	6007      	str	r7, [r0, #0]
			switch (js[parser->pos]) {
 808131c:	5dcf      	ldrb	r7, [r1, r7]
 808131e:	2f66      	cmp	r7, #102	; 0x66
 8081320:	d0d0      	beq.n	80812c4 <_ZN21JsonParserGeneratorRK10jsmn_parseEPNS_11jsmn_parserEPKcjPNS_9jsmntok_tEj+0x180>
 8081322:	d808      	bhi.n	8081336 <_ZN21JsonParserGeneratorRK10jsmn_parseEPNS_11jsmn_parserEPKcjPNS_9jsmntok_tEj+0x1f2>
 8081324:	2f2f      	cmp	r7, #47	; 0x2f
 8081326:	d0cd      	beq.n	80812c4 <_ZN21JsonParserGeneratorRK10jsmn_parseEPNS_11jsmn_parserEPKcjPNS_9jsmntok_tEj+0x180>
 8081328:	d801      	bhi.n	808132e <_ZN21JsonParserGeneratorRK10jsmn_parseEPNS_11jsmn_parserEPKcjPNS_9jsmntok_tEj+0x1ea>
 808132a:	2f22      	cmp	r7, #34	; 0x22
 808132c:	e007      	b.n	808133e <_ZN21JsonParserGeneratorRK10jsmn_parseEPNS_11jsmn_parserEPKcjPNS_9jsmntok_tEj+0x1fa>
 808132e:	2f5c      	cmp	r7, #92	; 0x5c
 8081330:	d0c8      	beq.n	80812c4 <_ZN21JsonParserGeneratorRK10jsmn_parseEPNS_11jsmn_parserEPKcjPNS_9jsmntok_tEj+0x180>
 8081332:	2f62      	cmp	r7, #98	; 0x62
 8081334:	e003      	b.n	808133e <_ZN21JsonParserGeneratorRK10jsmn_parseEPNS_11jsmn_parserEPKcjPNS_9jsmntok_tEj+0x1fa>
 8081336:	2f72      	cmp	r7, #114	; 0x72
 8081338:	d0c4      	beq.n	80812c4 <_ZN21JsonParserGeneratorRK10jsmn_parseEPNS_11jsmn_parserEPKcjPNS_9jsmntok_tEj+0x180>
 808133a:	d802      	bhi.n	8081342 <_ZN21JsonParserGeneratorRK10jsmn_parseEPNS_11jsmn_parserEPKcjPNS_9jsmntok_tEj+0x1fe>
 808133c:	2f6e      	cmp	r7, #110	; 0x6e
 808133e:	d175      	bne.n	808142c <_ZN21JsonParserGeneratorRK10jsmn_parseEPNS_11jsmn_parserEPKcjPNS_9jsmntok_tEj+0x2e8>
 8081340:	e7c0      	b.n	80812c4 <_ZN21JsonParserGeneratorRK10jsmn_parseEPNS_11jsmn_parserEPKcjPNS_9jsmntok_tEj+0x180>
 8081342:	2f74      	cmp	r7, #116	; 0x74
 8081344:	d0be      	beq.n	80812c4 <_ZN21JsonParserGeneratorRK10jsmn_parseEPNS_11jsmn_parserEPKcjPNS_9jsmntok_tEj+0x180>
 8081346:	2f75      	cmp	r7, #117	; 0x75
 8081348:	d170      	bne.n	808142c <_ZN21JsonParserGeneratorRK10jsmn_parseEPNS_11jsmn_parserEPKcjPNS_9jsmntok_tEj+0x2e8>
				case '\"': case '/' : case '\\' : case 'b' :
				case 'f' : case 'r' : case 'n'  : case 't' :
					break;
				/* Allows escaped symbol \uXXXX */
				case 'u':
					parser->pos++;
 808134a:	f108 0702 	add.w	r7, r8, #2
 808134e:	6007      	str	r7, [r0, #0]
 8081350:	f04f 0a04 	mov.w	sl, #4
					for(i = 0; i < 4 && parser->pos < len && js[parser->pos] != '\0'; i++) {
 8081354:	f8d0 8000 	ldr.w	r8, [r0]
 8081358:	4542      	cmp	r2, r8
 808135a:	d803      	bhi.n	8081364 <_ZN21JsonParserGeneratorRK10jsmn_parseEPNS_11jsmn_parserEPKcjPNS_9jsmntok_tEj+0x220>
							parser->pos = start;
							return JSMN_ERROR_INVAL;
						}
						parser->pos++;
					}
					parser->pos--;
 808135c:	6807      	ldr	r7, [r0, #0]
 808135e:	3f01      	subs	r7, #1
 8081360:	6007      	str	r7, [r0, #0]
 8081362:	e7af      	b.n	80812c4 <_ZN21JsonParserGeneratorRK10jsmn_parseEPNS_11jsmn_parserEPKcjPNS_9jsmntok_tEj+0x180>
				case 'f' : case 'r' : case 'n'  : case 't' :
					break;
				/* Allows escaped symbol \uXXXX */
				case 'u':
					parser->pos++;
					for(i = 0; i < 4 && parser->pos < len && js[parser->pos] != '\0'; i++) {
 8081364:	f811 7008 	ldrb.w	r7, [r1, r8]
 8081368:	2f00      	cmp	r7, #0
 808136a:	d0f7      	beq.n	808135c <_ZN21JsonParserGeneratorRK10jsmn_parseEPNS_11jsmn_parserEPKcjPNS_9jsmntok_tEj+0x218>
						/* If it isn't a hex character we have an error */
						if(!((js[parser->pos] >= 48 && js[parser->pos] <= 57) || /* 0-9 */
 808136c:	f1a7 0b30 	sub.w	fp, r7, #48	; 0x30
 8081370:	f1bb 0f09 	cmp.w	fp, #9
 8081374:	d904      	bls.n	8081380 <_ZN21JsonParserGeneratorRK10jsmn_parseEPNS_11jsmn_parserEPKcjPNS_9jsmntok_tEj+0x23c>
 8081376:	f027 0720 	bic.w	r7, r7, #32
 808137a:	3f41      	subs	r7, #65	; 0x41
 808137c:	2f05      	cmp	r7, #5
 808137e:	d855      	bhi.n	808142c <_ZN21JsonParserGeneratorRK10jsmn_parseEPNS_11jsmn_parserEPKcjPNS_9jsmntok_tEj+0x2e8>
									(js[parser->pos] >= 65 && js[parser->pos] <= 70) || /* A-F */
									(js[parser->pos] >= 97 && js[parser->pos] <= 102))) { /* a-f */
							parser->pos = start;
							return JSMN_ERROR_INVAL;
						}
						parser->pos++;
 8081380:	f108 0701 	add.w	r7, r8, #1
				case 'f' : case 'r' : case 'n'  : case 't' :
					break;
				/* Allows escaped symbol \uXXXX */
				case 'u':
					parser->pos++;
					for(i = 0; i < 4 && parser->pos < len && js[parser->pos] != '\0'; i++) {
 8081384:	f1ba 0a01 	subs.w	sl, sl, #1
									(js[parser->pos] >= 65 && js[parser->pos] <= 70) || /* A-F */
									(js[parser->pos] >= 97 && js[parser->pos] <= 102))) { /* a-f */
							parser->pos = start;
							return JSMN_ERROR_INVAL;
						}
						parser->pos++;
 8081388:	6007      	str	r7, [r0, #0]
				case 'f' : case 'r' : case 'n'  : case 't' :
					break;
				/* Allows escaped symbol \uXXXX */
				case 'u':
					parser->pos++;
					for(i = 0; i < 4 && parser->pos < len && js[parser->pos] != '\0'; i++) {
 808138a:	d1e3      	bne.n	8081354 <_ZN21JsonParserGeneratorRK10jsmn_parseEPNS_11jsmn_parserEPKcjPNS_9jsmntok_tEj+0x210>
 808138c:	e7e6      	b.n	808135c <_ZN21JsonParserGeneratorRK10jsmn_parseEPNS_11jsmn_parserEPKcjPNS_9jsmntok_tEj+0x218>
					parser->pos = start;
					return JSMN_ERROR_INVAL;
			}
		}
	}
	parser->pos = start;
 808138e:	f8c0 c000 	str.w	ip, [r0]
 8081392:	e099      	b.n	80814c8 <_ZN21JsonParserGeneratorRK10jsmn_parseEPNS_11jsmn_parserEPKcjPNS_9jsmntok_tEj+0x384>
					tokens[parser->toksuper].size++;
				break;
			case '\t' : case '\r' : case '\n' : case ' ':
				break;
			case ':':
				parser->toksuper = parser->toknext - 1;
 8081394:	6847      	ldr	r7, [r0, #4]
 8081396:	3f01      	subs	r7, #1
 8081398:	6087      	str	r7, [r0, #8]
				break;
 808139a:	e078      	b.n	808148e <_ZN21JsonParserGeneratorRK10jsmn_parseEPNS_11jsmn_parserEPKcjPNS_9jsmntok_tEj+0x34a>
			case ',':
				if (tokens != NULL && parser->toksuper != -1 &&
 808139c:	2b00      	cmp	r3, #0
 808139e:	d076      	beq.n	808148e <_ZN21JsonParserGeneratorRK10jsmn_parseEPNS_11jsmn_parserEPKcjPNS_9jsmntok_tEj+0x34a>
 80813a0:	6887      	ldr	r7, [r0, #8]
 80813a2:	1c7e      	adds	r6, r7, #1
 80813a4:	d073      	beq.n	808148e <_ZN21JsonParserGeneratorRK10jsmn_parseEPNS_11jsmn_parserEPKcjPNS_9jsmntok_tEj+0x34a>
						tokens[parser->toksuper].type != JSMN_ARRAY &&
 80813a6:	013f      	lsls	r7, r7, #4
 80813a8:	5ddf      	ldrb	r7, [r3, r7]
 80813aa:	3f01      	subs	r7, #1
 80813ac:	2f01      	cmp	r7, #1
 80813ae:	d96e      	bls.n	808148e <_ZN21JsonParserGeneratorRK10jsmn_parseEPNS_11jsmn_parserEPKcjPNS_9jsmntok_tEj+0x34a>
						tokens[parser->toksuper].type != JSMN_OBJECT) {
#ifdef JSMN_PARENT_LINKS
					parser->toksuper = tokens[parser->toksuper].parent;
#else
					for (i = parser->toknext - 1; i >= 0; i--) {
 80813b0:	6847      	ldr	r7, [r0, #4]
 80813b2:	f107 38ff 	add.w	r8, r7, #4294967295
 80813b6:	eb03 1c07 	add.w	ip, r3, r7, lsl #4
 80813ba:	f1b8 0f00 	cmp.w	r8, #0
 80813be:	db66      	blt.n	808148e <_ZN21JsonParserGeneratorRK10jsmn_parseEPNS_11jsmn_parserEPKcjPNS_9jsmntok_tEj+0x34a>
						if (tokens[i].type == JSMN_ARRAY || tokens[i].type == JSMN_OBJECT) {
 80813c0:	f81c 7c10 	ldrb.w	r7, [ip, #-16]
 80813c4:	3f01      	subs	r7, #1
 80813c6:	2f01      	cmp	r7, #1
 80813c8:	d80a      	bhi.n	80813e0 <_ZN21JsonParserGeneratorRK10jsmn_parseEPNS_11jsmn_parserEPKcjPNS_9jsmntok_tEj+0x29c>
							if (tokens[i].start != -1 && tokens[i].end == -1) {
 80813ca:	f85c 7c0c 	ldr.w	r7, [ip, #-12]
 80813ce:	3701      	adds	r7, #1
 80813d0:	d006      	beq.n	80813e0 <_ZN21JsonParserGeneratorRK10jsmn_parseEPNS_11jsmn_parserEPKcjPNS_9jsmntok_tEj+0x29c>
 80813d2:	f85c 7c08 	ldr.w	r7, [ip, #-8]
 80813d6:	3701      	adds	r7, #1
 80813d8:	d102      	bne.n	80813e0 <_ZN21JsonParserGeneratorRK10jsmn_parseEPNS_11jsmn_parserEPKcjPNS_9jsmntok_tEj+0x29c>
								parser->toksuper = i;
 80813da:	f8c0 8008 	str.w	r8, [r0, #8]
								break;
 80813de:	e056      	b.n	808148e <_ZN21JsonParserGeneratorRK10jsmn_parseEPNS_11jsmn_parserEPKcjPNS_9jsmntok_tEj+0x34a>
						tokens[parser->toksuper].type != JSMN_ARRAY &&
						tokens[parser->toksuper].type != JSMN_OBJECT) {
#ifdef JSMN_PARENT_LINKS
					parser->toksuper = tokens[parser->toksuper].parent;
#else
					for (i = parser->toknext - 1; i >= 0; i--) {
 80813e0:	f108 38ff 	add.w	r8, r8, #4294967295
 80813e4:	f1ac 0c10 	sub.w	ip, ip, #16
 80813e8:	e7e7      	b.n	80813ba <_ZN21JsonParserGeneratorRK10jsmn_parseEPNS_11jsmn_parserEPKcjPNS_9jsmntok_tEj+0x276>
	jsmntok_t *token;
	int start;

	start = parser->pos;

	for (; parser->pos < len && js[parser->pos] != '\0'; parser->pos++) {
 80813ea:	f811 7008 	ldrb.w	r7, [r1, r8]
 80813ee:	b307      	cbz	r7, 8081432 <_ZN21JsonParserGeneratorRK10jsmn_parseEPNS_11jsmn_parserEPKcjPNS_9jsmntok_tEj+0x2ee>
		switch (js[parser->pos]) {
 80813f0:	2f20      	cmp	r7, #32
 80813f2:	d01e      	beq.n	8081432 <_ZN21JsonParserGeneratorRK10jsmn_parseEPNS_11jsmn_parserEPKcjPNS_9jsmntok_tEj+0x2ee>
 80813f4:	d810      	bhi.n	8081418 <_ZN21JsonParserGeneratorRK10jsmn_parseEPNS_11jsmn_parserEPKcjPNS_9jsmntok_tEj+0x2d4>
 80813f6:	2f09      	cmp	r7, #9
 80813f8:	d20a      	bcs.n	8081410 <_ZN21JsonParserGeneratorRK10jsmn_parseEPNS_11jsmn_parserEPKcjPNS_9jsmntok_tEj+0x2cc>
#endif
			case '\t' : case '\r' : case '\n' : case ' ' :
			case ','  : case ']'  : case '}' :
				goto found;
		}
		if (js[parser->pos] < 32 || js[parser->pos] >= 127) {
 80813fa:	3f20      	subs	r7, #32
 80813fc:	2f5e      	cmp	r7, #94	; 0x5e
 80813fe:	d815      	bhi.n	808142c <_ZN21JsonParserGeneratorRK10jsmn_parseEPNS_11jsmn_parserEPKcjPNS_9jsmntok_tEj+0x2e8>
	jsmntok_t *token;
	int start;

	start = parser->pos;

	for (; parser->pos < len && js[parser->pos] != '\0'; parser->pos++) {
 8081400:	f108 0701 	add.w	r7, r8, #1
 8081404:	6007      	str	r7, [r0, #0]
 8081406:	f8d0 8000 	ldr.w	r8, [r0]
 808140a:	4542      	cmp	r2, r8
 808140c:	d8ed      	bhi.n	80813ea <_ZN21JsonParserGeneratorRK10jsmn_parseEPNS_11jsmn_parserEPKcjPNS_9jsmntok_tEj+0x2a6>
 808140e:	e010      	b.n	8081432 <_ZN21JsonParserGeneratorRK10jsmn_parseEPNS_11jsmn_parserEPKcjPNS_9jsmntok_tEj+0x2ee>
		switch (js[parser->pos]) {
 8081410:	2f0a      	cmp	r7, #10
 8081412:	d90e      	bls.n	8081432 <_ZN21JsonParserGeneratorRK10jsmn_parseEPNS_11jsmn_parserEPKcjPNS_9jsmntok_tEj+0x2ee>
 8081414:	2f0d      	cmp	r7, #13
 8081416:	e007      	b.n	8081428 <_ZN21JsonParserGeneratorRK10jsmn_parseEPNS_11jsmn_parserEPKcjPNS_9jsmntok_tEj+0x2e4>
 8081418:	2f3a      	cmp	r7, #58	; 0x3a
 808141a:	d00a      	beq.n	8081432 <_ZN21JsonParserGeneratorRK10jsmn_parseEPNS_11jsmn_parserEPKcjPNS_9jsmntok_tEj+0x2ee>
 808141c:	d801      	bhi.n	8081422 <_ZN21JsonParserGeneratorRK10jsmn_parseEPNS_11jsmn_parserEPKcjPNS_9jsmntok_tEj+0x2de>
 808141e:	2f2c      	cmp	r7, #44	; 0x2c
 8081420:	e002      	b.n	8081428 <_ZN21JsonParserGeneratorRK10jsmn_parseEPNS_11jsmn_parserEPKcjPNS_9jsmntok_tEj+0x2e4>
 8081422:	2f5d      	cmp	r7, #93	; 0x5d
 8081424:	d005      	beq.n	8081432 <_ZN21JsonParserGeneratorRK10jsmn_parseEPNS_11jsmn_parserEPKcjPNS_9jsmntok_tEj+0x2ee>
 8081426:	2f7d      	cmp	r7, #125	; 0x7d
 8081428:	d1e7      	bne.n	80813fa <_ZN21JsonParserGeneratorRK10jsmn_parseEPNS_11jsmn_parserEPKcjPNS_9jsmntok_tEj+0x2b6>
 808142a:	e002      	b.n	8081432 <_ZN21JsonParserGeneratorRK10jsmn_parseEPNS_11jsmn_parserEPKcjPNS_9jsmntok_tEj+0x2ee>
			case '\t' : case '\r' : case '\n' : case ' ' :
			case ','  : case ']'  : case '}' :
				goto found;
		}
		if (js[parser->pos] < 32 || js[parser->pos] >= 127) {
			parser->pos = start;
 808142c:	f8c0 c000 	str.w	ip, [r0]
 8081430:	e043      	b.n	80814ba <_ZN21JsonParserGeneratorRK10jsmn_parseEPNS_11jsmn_parserEPKcjPNS_9jsmntok_tEj+0x376>
	parser->pos = start;
	return JSMN_ERROR_PART;
#endif

found:
	if (tokens == NULL) {
 8081432:	b913      	cbnz	r3, 808143a <_ZN21JsonParserGeneratorRK10jsmn_parseEPNS_11jsmn_parserEPKcjPNS_9jsmntok_tEj+0x2f6>
		parser->pos--;
 8081434:	f108 37ff 	add.w	r7, r8, #4294967295
 8081438:	e01c      	b.n	8081474 <_ZN21JsonParserGeneratorRK10jsmn_parseEPNS_11jsmn_parserEPKcjPNS_9jsmntok_tEj+0x330>
 * Allocates a fresh unused token from the token pull.
 */
static jsmntok_t *jsmn_alloc_token(jsmn_parser *parser,
		jsmntok_t *tokens, size_t num_tokens) {
	jsmntok_t *tok;
	if (parser->toknext >= num_tokens) {
 808143a:	6847      	ldr	r7, [r0, #4]
 808143c:	9e09      	ldr	r6, [sp, #36]	; 0x24
 808143e:	42be      	cmp	r6, r7
 8081440:	d946      	bls.n	80814d0 <_ZN21JsonParserGeneratorRK10jsmn_parseEPNS_11jsmn_parserEPKcjPNS_9jsmntok_tEj+0x38c>
		return NULL;
	}
	tok = &tokens[parser->toknext++];
 8081442:	f107 0801 	add.w	r8, r7, #1
 8081446:	013f      	lsls	r7, r7, #4
 8081448:	f8c0 8004 	str.w	r8, [r0, #4]
	tok->start = tok->end = -1;
	tok->size = 0;
 808144c:	2600      	movs	r6, #0
		jsmntok_t *tokens, size_t num_tokens) {
	jsmntok_t *tok;
	if (parser->toknext >= num_tokens) {
		return NULL;
	}
	tok = &tokens[parser->toknext++];
 808144e:	eb03 0807 	add.w	r8, r3, r7
	tok->start = tok->end = -1;
	tok->size = 0;
 8081452:	f8c8 600c 	str.w	r6, [r8, #12]
/**
 * Fills token type and boundaries.
 */
static void jsmn_fill_token(jsmntok_t *token, jsmntype_t type,
                            int start, int end) {
	token->type = type;
 8081456:	f04f 0604 	mov.w	r6, #4
	jsmntok_t *tok;
	if (parser->toknext >= num_tokens) {
		return NULL;
	}
	tok = &tokens[parser->toknext++];
	tok->start = tok->end = -1;
 808145a:	f8c8 5008 	str.w	r5, [r8, #8]
 808145e:	f8c8 5004 	str.w	r5, [r8, #4]
	token = jsmn_alloc_token(parser, tokens, num_tokens);
	if (token == NULL) {
		parser->pos = start;
		return JSMN_ERROR_NOMEM;
	}
	jsmn_fill_token(token, JSMN_PRIMITIVE, start, parser->pos);
 8081462:	f8d0 9000 	ldr.w	r9, [r0]
/**
 * Fills token type and boundaries.
 */
static void jsmn_fill_token(jsmntok_t *token, jsmntype_t type,
                            int start, int end) {
	token->type = type;
 8081466:	55de      	strb	r6, [r3, r7]
	token->start = start;
 8081468:	f8c8 c004 	str.w	ip, [r8, #4]
	token->end = end;
 808146c:	f8c8 9008 	str.w	r9, [r8, #8]
	}
	jsmn_fill_token(token, JSMN_PRIMITIVE, start, parser->pos);
#ifdef JSMN_PARENT_LINKS
	token->parent = parser->toksuper;
#endif
	parser->pos--;
 8081470:	6807      	ldr	r7, [r0, #0]
 8081472:	3f01      	subs	r7, #1
 8081474:	6007      	str	r7, [r0, #0]
			default:
#endif
				r = jsmn_parse_primitive(parser, js, len, tokens, num_tokens);
				if (r < 0) return r;
				count++;
				if (parser->toksuper != -1 && tokens != NULL)
 8081476:	6887      	ldr	r7, [r0, #8]
			/* In non-strict mode every unquoted value is a primitive */
			default:
#endif
				r = jsmn_parse_primitive(parser, js, len, tokens, num_tokens);
				if (r < 0) return r;
				count++;
 8081478:	3401      	adds	r4, #1
				if (parser->toksuper != -1 && tokens != NULL)
 808147a:	1c7e      	adds	r6, r7, #1
 808147c:	d007      	beq.n	808148e <_ZN21JsonParserGeneratorRK10jsmn_parseEPNS_11jsmn_parserEPKcjPNS_9jsmntok_tEj+0x34a>
 808147e:	b133      	cbz	r3, 808148e <_ZN21JsonParserGeneratorRK10jsmn_parseEPNS_11jsmn_parserEPKcjPNS_9jsmntok_tEj+0x34a>
					tokens[parser->toksuper].size++;
 8081480:	eb03 1c07 	add.w	ip, r3, r7, lsl #4
 8081484:	f8dc 700c 	ldr.w	r7, [ip, #12]
 8081488:	3701      	adds	r7, #1
 808148a:	f8cc 700c 	str.w	r7, [ip, #12]
	int r;
	int i;
	jsmntok_t *token;
	int count = parser->toknext;

	for (; parser->pos < len && js[parser->pos] != '\0'; parser->pos++) {
 808148e:	6807      	ldr	r7, [r0, #0]
 8081490:	3701      	adds	r7, #1
 8081492:	6007      	str	r7, [r0, #0]
 8081494:	e65d      	b.n	8081152 <_ZN21JsonParserGeneratorRK10jsmn_parseEPNS_11jsmn_parserEPKcjPNS_9jsmntok_tEj+0xe>
				return JSMN_ERROR_INVAL;
#endif
		}
	}

	if (tokens != NULL) {
 8081496:	b1a3      	cbz	r3, 80814c2 <_ZN21JsonParserGeneratorRK10jsmn_parseEPNS_11jsmn_parserEPKcjPNS_9jsmntok_tEj+0x37e>
		for (i = parser->toknext - 1; i >= 0; i--) {
 8081498:	6842      	ldr	r2, [r0, #4]
 808149a:	1e51      	subs	r1, r2, #1
 808149c:	eb03 1302 	add.w	r3, r3, r2, lsl #4
 80814a0:	2900      	cmp	r1, #0
 80814a2:	db0e      	blt.n	80814c2 <_ZN21JsonParserGeneratorRK10jsmn_parseEPNS_11jsmn_parserEPKcjPNS_9jsmntok_tEj+0x37e>
			/* Unmatched opened object or array */
			if (tokens[i].start != -1 && tokens[i].end == -1) {
 80814a4:	f853 2c0c 	ldr.w	r2, [r3, #-12]
 80814a8:	3201      	adds	r2, #1
 80814aa:	d003      	beq.n	80814b4 <_ZN21JsonParserGeneratorRK10jsmn_parseEPNS_11jsmn_parserEPKcjPNS_9jsmntok_tEj+0x370>
 80814ac:	f853 2c08 	ldr.w	r2, [r3, #-8]
 80814b0:	3201      	adds	r2, #1
 80814b2:	d009      	beq.n	80814c8 <_ZN21JsonParserGeneratorRK10jsmn_parseEPNS_11jsmn_parserEPKcjPNS_9jsmntok_tEj+0x384>
#endif
		}
	}

	if (tokens != NULL) {
		for (i = parser->toknext - 1; i >= 0; i--) {
 80814b4:	3901      	subs	r1, #1
 80814b6:	3b10      	subs	r3, #16
 80814b8:	e7f2      	b.n	80814a0 <_ZN21JsonParserGeneratorRK10jsmn_parseEPNS_11jsmn_parserEPKcjPNS_9jsmntok_tEj+0x35c>
#else
				for (i = parser->toknext - 1; i >= 0; i--) {
					token = &tokens[i];
					if (token->start != -1 && token->end == -1) {
						if (token->type != type) {
							return JSMN_ERROR_INVAL;
 80814ba:	f06f 0001 	mvn.w	r0, #1
 80814be:	e8bd 8ff0 	ldmia.w	sp!, {r4, r5, r6, r7, r8, r9, sl, fp, pc}
 80814c2:	4620      	mov	r0, r4
 80814c4:	e8bd 8ff0 	ldmia.w	sp!, {r4, r5, r6, r7, r8, r9, sl, fp, pc}

	if (tokens != NULL) {
		for (i = parser->toknext - 1; i >= 0; i--) {
			/* Unmatched opened object or array */
			if (tokens[i].start != -1 && tokens[i].end == -1) {
				return JSMN_ERROR_PART;
 80814c8:	f06f 0002 	mvn.w	r0, #2
 80814cc:	e8bd 8ff0 	ldmia.w	sp!, {r4, r5, r6, r7, r8, r9, sl, fp, pc}
		parser->pos--;
		return 0;
	}
	token = jsmn_alloc_token(parser, tokens, num_tokens);
	if (token == NULL) {
		parser->pos = start;
 80814d0:	f8c0 c000 	str.w	ip, [r0]
		return JSMN_ERROR_NOMEM;
 80814d4:	f04f 30ff 	mov.w	r0, #4294967295
 80814d8:	e8bd 8ff0 	ldmia.w	sp!, {r4, r5, r6, r7, r8, r9, sl, fp, pc}

080814dc <_ZN10JsonParser5parseEv>:
	else {
		return false;
	}
}

bool JsonParser::parse() {
 80814dc:	b5f7      	push	{r0, r1, r2, r4, r5, r6, r7, lr}
	if (tokens) {
 80814de:	6943      	ldr	r3, [r0, #20]
	else {
		return false;
	}
}

bool JsonParser::parse() {
 80814e0:	4604      	mov	r4, r0
 80814e2:	f100 0620 	add.w	r6, r0, #32
	if (tokens) {
 80814e6:	b1f3      	cbz	r3, 8081526 <_ZN10JsonParser5parseEv+0x4a>
/**
 * Creates a new parser based over a given  buffer with an array of tokens
 * available.
 */
void jsmn_init(jsmn_parser *parser) {
	parser->pos = 0;
 80814e8:	2200      	movs	r2, #0
 80814ea:	6202      	str	r2, [r0, #32]
	parser->toknext = 0;
 80814ec:	6242      	str	r2, [r0, #36]	; 0x24
	parser->toksuper = -1;
 80814ee:	f04f 32ff 	mov.w	r2, #4294967295
 80814f2:	6282      	str	r2, [r0, #40]	; 0x28

bool JsonParser::parse() {
	if (tokens) {
		// Try to use the existing token buffer if possible
		JsonParserGeneratorRK::jsmn_init(&parser);
		int result = JsonParserGeneratorRK::jsmn_parse(&parser, buffer, offset, tokens, maxTokens);
 80814f4:	69c2      	ldr	r2, [r0, #28]
 80814f6:	9200      	str	r2, [sp, #0]
 80814f8:	68c2      	ldr	r2, [r0, #12]
 80814fa:	6841      	ldr	r1, [r0, #4]
 80814fc:	4630      	mov	r0, r6
 80814fe:	f7ff fe21 	bl	8081144 <_ZN21JsonParserGeneratorRK10jsmn_parseEPNS_11jsmn_parserEPKcjPNS_9jsmntok_tEj>
		if (result == JsonParserGeneratorRK::JSMN_ERROR_NOMEM) {
 8081502:	1c43      	adds	r3, r0, #1
 8081504:	d109      	bne.n	808151a <_ZN10JsonParser5parseEv+0x3e>
			if (staticBuffers) {
 8081506:	7c25      	ldrb	r5, [r4, #16]
 8081508:	b10d      	cbz	r5, 808150e <_ZN10JsonParser5parseEv+0x32>
				// If using static buffers and there is not enough space, fail
				return false;
 808150a:	2000      	movs	r0, #0
 808150c:	e033      	b.n	8081576 <_ZN10JsonParser5parseEv+0x9a>
			}
			free(tokens);
 808150e:	6960      	ldr	r0, [r4, #20]
 8081510:	f000 fd14 	bl	8081f3c <free>
			tokens = 0;
 8081514:	6165      	str	r5, [r4, #20]
			maxTokens = 0;
 8081516:	61e5      	str	r5, [r4, #28]
 8081518:	e005      	b.n	8081526 <_ZN10JsonParser5parseEv+0x4a>
		}
		else
		if (result < 0) {
 808151a:	2800      	cmp	r0, #0
 808151c:	dbf5      	blt.n	808150a <_ZN10JsonParser5parseEv+0x2e>
			// Failed to parse: JSMN_ERROR_INVAL or JSMN_ERROR_PART
			return false;
		}
		else {
			tokensEnd = &tokens[result];
 808151e:	6963      	ldr	r3, [r4, #20]
 8081520:	eb03 1300 	add.w	r3, r3, r0, lsl #4
 8081524:	e025      	b.n	8081572 <_ZN10JsonParser5parseEv+0x96>
/**
 * Creates a new parser based over a given  buffer with an array of tokens
 * available.
 */
void jsmn_init(jsmn_parser *parser) {
	parser->pos = 0;
 8081526:	2500      	movs	r5, #0
	parser->toknext = 0;
	parser->toksuper = -1;
 8081528:	f04f 37ff 	mov.w	r7, #4294967295
/**
 * Creates a new parser based over a given  buffer with an array of tokens
 * available.
 */
void jsmn_init(jsmn_parser *parser) {
	parser->pos = 0;
 808152c:	6225      	str	r5, [r4, #32]
	parser->toknext = 0;
 808152e:	6265      	str	r5, [r4, #36]	; 0x24
	parser->toksuper = -1;
 8081530:	62a7      	str	r7, [r4, #40]	; 0x28
		}
	}

	// Pass 1: determine now many tokens we need
	JsonParserGeneratorRK::jsmn_init(&parser);
	int result = JsonParserGeneratorRK::jsmn_parse(&parser, buffer, offset, 0, 0);
 8081532:	9500      	str	r5, [sp, #0]
 8081534:	462b      	mov	r3, r5
 8081536:	68e2      	ldr	r2, [r4, #12]
 8081538:	6861      	ldr	r1, [r4, #4]
 808153a:	4630      	mov	r0, r6
 808153c:	f7ff fe02 	bl	8081144 <_ZN21JsonParserGeneratorRK10jsmn_parseEPNS_11jsmn_parserEPKcjPNS_9jsmntok_tEj>
	if (result < 0) {
 8081540:	2800      	cmp	r0, #0
 8081542:	dbe2      	blt.n	808150a <_ZN10JsonParser5parseEv+0x2e>
	}

	// If we get here, tokens will always be == 0; it would have been freed if it was
	// too small, and this code is never executed for staticBuffers == true

	maxTokens = (size_t) result;
 8081544:	61e0      	str	r0, [r4, #28]
	if (maxTokens > 0) {
 8081546:	d013      	beq.n	8081570 <_ZN10JsonParser5parseEv+0x94>
		tokens = (JsonParserGeneratorRK::jsmntok_t *)malloc(sizeof(JsonParserGeneratorRK::jsmntok_t) * maxTokens);
 8081548:	0100      	lsls	r0, r0, #4
 808154a:	f000 fcef 	bl	8081f2c <malloc>

		JsonParserGeneratorRK::jsmn_init(&parser);
		int result = JsonParserGeneratorRK::jsmn_parse(&parser, buffer, offset, tokens, maxTokens);
 808154e:	69e2      	ldr	r2, [r4, #28]
	// If we get here, tokens will always be == 0; it would have been freed if it was
	// too small, and this code is never executed for staticBuffers == true

	maxTokens = (size_t) result;
	if (maxTokens > 0) {
		tokens = (JsonParserGeneratorRK::jsmntok_t *)malloc(sizeof(JsonParserGeneratorRK::jsmntok_t) * maxTokens);
 8081550:	4603      	mov	r3, r0
 8081552:	6160      	str	r0, [r4, #20]

		JsonParserGeneratorRK::jsmn_init(&parser);
		int result = JsonParserGeneratorRK::jsmn_parse(&parser, buffer, offset, tokens, maxTokens);
 8081554:	9200      	str	r2, [sp, #0]
/**
 * Creates a new parser based over a given  buffer with an array of tokens
 * available.
 */
void jsmn_init(jsmn_parser *parser) {
	parser->pos = 0;
 8081556:	6225      	str	r5, [r4, #32]
	parser->toknext = 0;
 8081558:	6265      	str	r5, [r4, #36]	; 0x24
	parser->toksuper = -1;
 808155a:	62a7      	str	r7, [r4, #40]	; 0x28
	maxTokens = (size_t) result;
	if (maxTokens > 0) {
		tokens = (JsonParserGeneratorRK::jsmntok_t *)malloc(sizeof(JsonParserGeneratorRK::jsmntok_t) * maxTokens);

		JsonParserGeneratorRK::jsmn_init(&parser);
		int result = JsonParserGeneratorRK::jsmn_parse(&parser, buffer, offset, tokens, maxTokens);
 808155c:	68e2      	ldr	r2, [r4, #12]
 808155e:	6861      	ldr	r1, [r4, #4]
 8081560:	4630      	mov	r0, r6
 8081562:	f7ff fdef 	bl	8081144 <_ZN21JsonParserGeneratorRK10jsmn_parseEPNS_11jsmn_parserEPKcjPNS_9jsmntok_tEj>

		tokensEnd = &tokens[result];
 8081566:	6963      	ldr	r3, [r4, #20]
 8081568:	eb03 1000 	add.w	r0, r3, r0, lsl #4
 808156c:	61a0      	str	r0, [r4, #24]
 808156e:	e001      	b.n	8081574 <_ZN10JsonParser5parseEv+0x98>
	}
	else {
		tokensEnd = tokens;
 8081570:	6963      	ldr	r3, [r4, #20]
 8081572:	61a3      	str	r3, [r4, #24]
	for(const JsonParserGeneratorRK::jsmntok_t *token = tokens; token < tokensEnd; token++) {
		printf("%d, %d, %d, %d\n", token->type, token->start, token->end, token->size);
	}
	*/

	return true;
 8081574:	2001      	movs	r0, #1
}
 8081576:	b003      	add	sp, #12
 8081578:	bdf0      	pop	{r4, r5, r6, r7, pc}

0808157a <_GLOBAL__sub_I__ZN10JsonBufferC2Ev>:
 808157a:	f000 baab 	b.w	8081ad4 <HAL_Pin_Map>

0808157e <_ZN14RunningAverageD1Ev>:
    _ar = (double*) malloc(_size * sizeof(double));
    if (_ar == NULL) _size = 0;
    clear();
}

RunningAverage::~RunningAverage()
 808157e:	b510      	push	{r4, lr}
 8081580:	4604      	mov	r4, r0
{
    if (_ar != NULL) free(_ar);
 8081582:	6900      	ldr	r0, [r0, #16]
 8081584:	b108      	cbz	r0, 808158a <_ZN14RunningAverageD1Ev+0xc>
 8081586:	f000 fcd9 	bl	8081f3c <free>
}
 808158a:	4620      	mov	r0, r4
 808158c:	bd10      	pop	{r4, pc}

0808158e <_ZN14RunningAverage5clearEv>:

// resets all counters
void RunningAverage::clear()
{
 808158e:	b530      	push	{r4, r5, lr}
    _cnt = 0;
    _idx = 0;
    _sum = 0.0;
 8081590:	2400      	movs	r4, #0
 8081592:	2500      	movs	r5, #0
 8081594:	e9c0 4502 	strd	r4, r5, [r0, #8]
}

// resets all counters
void RunningAverage::clear()
{
    _cnt = 0;
 8081598:	2300      	movs	r3, #0
 808159a:	7043      	strb	r3, [r0, #1]
    _idx = 0;
 808159c:	7083      	strb	r3, [r0, #2]
    _sum = 0.0;
    for (uint8_t i = 0; i< _size; i++)
 808159e:	7802      	ldrb	r2, [r0, #0]
 80815a0:	1c59      	adds	r1, r3, #1
 80815a2:	b2db      	uxtb	r3, r3
 80815a4:	429a      	cmp	r2, r3
 80815a6:	d906      	bls.n	80815b6 <_ZN14RunningAverage5clearEv+0x28>
    {
        _ar[i] = 0.0; // keeps addValue simple
 80815a8:	6902      	ldr	r2, [r0, #16]
 80815aa:	eb02 03c3 	add.w	r3, r2, r3, lsl #3
 80815ae:	e9c3 4500 	strd	r4, r5, [r3]
void RunningAverage::clear()
{
    _cnt = 0;
    _idx = 0;
    _sum = 0.0;
    for (uint8_t i = 0; i< _size; i++)
 80815b2:	460b      	mov	r3, r1
 80815b4:	e7f3      	b.n	808159e <_ZN14RunningAverage5clearEv+0x10>
 80815b6:	bd30      	pop	{r4, r5, pc}

080815b8 <_ZN14RunningAverageC1Eh>:
//

#include "RunningAverage.h"
#include <stdlib.h>

RunningAverage::RunningAverage(uint8_t size)
 80815b8:	b510      	push	{r4, lr}
 80815ba:	4604      	mov	r4, r0
{
    _size = size;
 80815bc:	7001      	strb	r1, [r0, #0]
    _ar = (double*) malloc(_size * sizeof(double));
 80815be:	00c8      	lsls	r0, r1, #3
 80815c0:	f000 fcb4 	bl	8081f2c <malloc>
 80815c4:	6120      	str	r0, [r4, #16]
    if (_ar == NULL) _size = 0;
 80815c6:	b900      	cbnz	r0, 80815ca <_ZN14RunningAverageC1Eh+0x12>
 80815c8:	7020      	strb	r0, [r4, #0]
    clear();
 80815ca:	4620      	mov	r0, r4
 80815cc:	f7ff ffdf 	bl	808158e <_ZN14RunningAverage5clearEv>
}
 80815d0:	4620      	mov	r0, r4
 80815d2:	bd10      	pop	{r4, pc}

080815d4 <_ZN14RunningAverage8addValueEd>:
    }
}

// adds a new value to the data-set
void RunningAverage::addValue(double value)
{
 80815d4:	b5f8      	push	{r3, r4, r5, r6, r7, lr}
 80815d6:	461f      	mov	r7, r3
    if (_ar == NULL) return;
 80815d8:	6903      	ldr	r3, [r0, #16]
    }
}

// adds a new value to the data-set
void RunningAverage::addValue(double value)
{
 80815da:	4604      	mov	r4, r0
 80815dc:	4616      	mov	r6, r2
    if (_ar == NULL) return;
 80815de:	b343      	cbz	r3, 8081632 <_ZN14RunningAverage8addValueEd+0x5e>
    _sum -= _ar[_idx];
 80815e0:	7885      	ldrb	r5, [r0, #2]
 80815e2:	f100 0108 	add.w	r1, r0, #8
 80815e6:	e9d1 0100 	ldrd	r0, r1, [r1]
 80815ea:	eb03 05c5 	add.w	r5, r3, r5, lsl #3
 80815ee:	e9d5 2300 	ldrd	r2, r3, [r5]
 80815f2:	f002 f987 	bl	8083904 <__aeabi_dsub>
 80815f6:	e9c4 0102 	strd	r0, r1, [r4, #8]
    _ar[_idx] = value;
 80815fa:	e9c5 6700 	strd	r6, r7, [r5]
    _sum += _ar[_idx];
 80815fe:	78a5      	ldrb	r5, [r4, #2]
 8081600:	6923      	ldr	r3, [r4, #16]
 8081602:	e9d4 0102 	ldrd	r0, r1, [r4, #8]
 8081606:	eb03 03c5 	add.w	r3, r3, r5, lsl #3
 808160a:	e9d3 2300 	ldrd	r2, r3, [r3]
 808160e:	f002 f97b 	bl	8083908 <__adddf3>
    _idx++;
 8081612:	3501      	adds	r5, #1
    if (_idx == _size) _idx = 0;  // faster than %
 8081614:	7822      	ldrb	r2, [r4, #0]
{
    if (_ar == NULL) return;
    _sum -= _ar[_idx];
    _ar[_idx] = value;
    _sum += _ar[_idx];
    _idx++;
 8081616:	b2ed      	uxtb	r5, r5
    if (_idx == _size) _idx = 0;  // faster than %
 8081618:	4295      	cmp	r5, r2
 808161a:	bf08      	it	eq
 808161c:	2300      	moveq	r3, #0
{
    if (_ar == NULL) return;
    _sum -= _ar[_idx];
    _ar[_idx] = value;
    _sum += _ar[_idx];
    _idx++;
 808161e:	70a5      	strb	r5, [r4, #2]
    if (_idx == _size) _idx = 0;  // faster than %
 8081620:	bf08      	it	eq
 8081622:	70a3      	strbeq	r3, [r4, #2]
    if (_cnt < _size) _cnt++;
 8081624:	7863      	ldrb	r3, [r4, #1]
void RunningAverage::addValue(double value)
{
    if (_ar == NULL) return;
    _sum -= _ar[_idx];
    _ar[_idx] = value;
    _sum += _ar[_idx];
 8081626:	e9c4 0102 	strd	r0, r1, [r4, #8]
    _idx++;
    if (_idx == _size) _idx = 0;  // faster than %
    if (_cnt < _size) _cnt++;
 808162a:	429a      	cmp	r2, r3
 808162c:	bf84      	itt	hi
 808162e:	3301      	addhi	r3, #1
 8081630:	7063      	strbhi	r3, [r4, #1]
 8081632:	bdf8      	pop	{r3, r4, r5, r6, r7, pc}

08081634 <_ZN14RunningAverage10getAverageEv>:
}

// returns the average of the data-set added sofar
double RunningAverage::getAverage()
{
 8081634:	b510      	push	{r4, lr}
 8081636:	4604      	mov	r4, r0
    if (_cnt == 0) return 0;
 8081638:	7840      	ldrb	r0, [r0, #1]
 808163a:	b140      	cbz	r0, 808164e <_ZN14RunningAverage10getAverageEv+0x1a>
    return _sum / _cnt;
 808163c:	f002 fab0 	bl	8083ba0 <__aeabi_i2d>
 8081640:	4602      	mov	r2, r0
 8081642:	460b      	mov	r3, r1
 8081644:	e9d4 0102 	ldrd	r0, r1, [r4, #8]
 8081648:	f002 fc3a 	bl	8083ec0 <__aeabi_ddiv>
 808164c:	bd10      	pop	{r4, pc}
}

// returns the average of the data-set added sofar
double RunningAverage::getAverage()
{
    if (_cnt == 0) return 0;
 808164e:	2000      	movs	r0, #0
 8081650:	2100      	movs	r1, #0
    return _sum / _cnt;
}
 8081652:	bd10      	pop	{r4, pc}

08081654 <_ZN14RunningAverage9fillValueEdh>:

// fill the average with a value
// the param number determines how often value is added (weight)
// number should preferably be between 1 and size
void RunningAverage::fillValue(double value, uint8_t number)
{
 8081654:	e92d 41f0 	stmdb	sp!, {r4, r5, r6, r7, r8, lr}
 8081658:	4605      	mov	r5, r0
 808165a:	4616      	mov	r6, r2
 808165c:	461f      	mov	r7, r3
 808165e:	f89d 8018 	ldrb.w	r8, [sp, #24]
    clear(); // TODO conditional?  if (clr) clear();
 8081662:	f7ff ff94 	bl	808158e <_ZN14RunningAverage5clearEv>
 8081666:	2400      	movs	r4, #0

    for (uint8_t i = 0; i < number; i++)
 8081668:	4544      	cmp	r4, r8
 808166a:	d006      	beq.n	808167a <_ZN14RunningAverage9fillValueEdh+0x26>
    {
        addValue(value);
 808166c:	4632      	mov	r2, r6
 808166e:	463b      	mov	r3, r7
 8081670:	4628      	mov	r0, r5
 8081672:	f7ff ffaf 	bl	80815d4 <_ZN14RunningAverage8addValueEd>
 8081676:	3401      	adds	r4, #1
// number should preferably be between 1 and size
void RunningAverage::fillValue(double value, uint8_t number)
{
    clear(); // TODO conditional?  if (clr) clear();

    for (uint8_t i = 0; i < number; i++)
 8081678:	e7f6      	b.n	8081668 <_ZN14RunningAverage9fillValueEdh+0x14>
 808167a:	e8bd 81f0 	ldmia.w	sp!, {r4, r5, r6, r7, r8, pc}

0808167e <_GLOBAL__sub_I__ZN14RunningAverageC2Eh>:
 808167e:	f000 ba29 	b.w	8081ad4 <HAL_Pin_Map>

08081682 <_ZL8i2cwriteh>:
/**************************************************************************/
/*!
    @brief  Abstract away platform differences in Arduino wire library
*/
/**************************************************************************/
static void i2cwrite(uint8_t x) {
 8081682:	b510      	push	{r4, lr}
 8081684:	4604      	mov	r4, r0
  #if ARDUINO >= 100
  Wire.write((uint8_t)x);
 8081686:	f001 ffa7 	bl	80835d8 <_Z19__fetch_global_Wirev>
 808168a:	6803      	ldr	r3, [r0, #0]
 808168c:	4621      	mov	r1, r4
  #else
  Wire.send(x);
  #endif
}
 808168e:	e8bd 4010 	ldmia.w	sp!, {r4, lr}
    @brief  Abstract away platform differences in Arduino wire library
*/
/**************************************************************************/
static void i2cwrite(uint8_t x) {
  #if ARDUINO >= 100
  Wire.write((uint8_t)x);
 8081692:	689b      	ldr	r3, [r3, #8]
 8081694:	4718      	bx	r3

08081696 <_ZL7i2creadv>:
/**************************************************************************/
/*!
    @brief  Abstract away platform differences in Arduino wire library
*/
/**************************************************************************/
static uint8_t i2cread(void) {
 8081696:	b508      	push	{r3, lr}
  #if ARDUINO >= 100
  return Wire.read();
 8081698:	f001 ff9e 	bl	80835d8 <_Z19__fetch_global_Wirev>
 808169c:	6803      	ldr	r3, [r0, #0]
 808169e:	695b      	ldr	r3, [r3, #20]
 80816a0:	4798      	blx	r3
  #else
  return Wire.receive();
  #endif
}
 80816a2:	b2c0      	uxtb	r0, r0
 80816a4:	bd08      	pop	{r3, pc}

080816a6 <_ZL13writeRegisterhht>:
/**************************************************************************/
/*!
    @brief  Writes 16-bits to the specified destination register
*/
/**************************************************************************/
static void writeRegister(uint8_t i2cAddress, uint8_t reg, uint16_t value) {
 80816a6:	b570      	push	{r4, r5, r6, lr}
 80816a8:	4606      	mov	r6, r0
 80816aa:	460d      	mov	r5, r1
 80816ac:	4614      	mov	r4, r2
  Wire.beginTransmission(i2cAddress);
 80816ae:	f001 ff93 	bl	80835d8 <_Z19__fetch_global_Wirev>
 80816b2:	4631      	mov	r1, r6
 80816b4:	f001 fe79 	bl	80833aa <_ZN7TwoWire17beginTransmissionEh>
  i2cwrite((uint8_t)reg);
 80816b8:	4628      	mov	r0, r5
 80816ba:	f7ff ffe2 	bl	8081682 <_ZL8i2cwriteh>
  i2cwrite((uint8_t)(value>>8));
 80816be:	0a20      	lsrs	r0, r4, #8
 80816c0:	f7ff ffdf 	bl	8081682 <_ZL8i2cwriteh>
  i2cwrite((uint8_t)(value & 0xFF));
 80816c4:	b2e0      	uxtb	r0, r4
 80816c6:	f7ff ffdc 	bl	8081682 <_ZL8i2cwriteh>
  Wire.endTransmission();
 80816ca:	f001 ff85 	bl	80835d8 <_Z19__fetch_global_Wirev>
}
 80816ce:	e8bd 4070 	ldmia.w	sp!, {r4, r5, r6, lr}
static void writeRegister(uint8_t i2cAddress, uint8_t reg, uint16_t value) {
  Wire.beginTransmission(i2cAddress);
  i2cwrite((uint8_t)reg);
  i2cwrite((uint8_t)(value>>8));
  i2cwrite((uint8_t)(value & 0xFF));
  Wire.endTransmission();
 80816d2:	f001 be72 	b.w	80833ba <_ZN7TwoWire15endTransmissionEv>

080816d6 <_ZL12readRegisterhh.isra.0>:
/**************************************************************************/
/*!
    @brief  Writes 16-bits to the specified destination register
*/
/**************************************************************************/
static uint16_t readRegister(uint8_t i2cAddress, uint8_t reg) {
 80816d6:	b510      	push	{r4, lr}
 80816d8:	4604      	mov	r4, r0
  Wire.beginTransmission(i2cAddress);
 80816da:	f001 ff7d 	bl	80835d8 <_Z19__fetch_global_Wirev>
 80816de:	4621      	mov	r1, r4
 80816e0:	f001 fe63 	bl	80833aa <_ZN7TwoWire17beginTransmissionEh>
  i2cwrite(ADS1015_REG_POINTER_CONVERT);
 80816e4:	2000      	movs	r0, #0
 80816e6:	f7ff ffcc 	bl	8081682 <_ZL8i2cwriteh>
  Wire.endTransmission();
 80816ea:	f001 ff75 	bl	80835d8 <_Z19__fetch_global_Wirev>
 80816ee:	f001 fe64 	bl	80833ba <_ZN7TwoWire15endTransmissionEv>
  Wire.requestFrom(i2cAddress, (uint8_t)2);
 80816f2:	f001 ff71 	bl	80835d8 <_Z19__fetch_global_Wirev>
 80816f6:	4621      	mov	r1, r4
 80816f8:	2202      	movs	r2, #2
 80816fa:	f001 fe53 	bl	80833a4 <_ZN7TwoWire11requestFromEhj>
  return ((i2cread() << 8) | i2cread());  
 80816fe:	f7ff ffca 	bl	8081696 <_ZL7i2creadv>
 8081702:	4604      	mov	r4, r0
 8081704:	f7ff ffc7 	bl	8081696 <_ZL7i2creadv>
 8081708:	ea40 2004 	orr.w	r0, r0, r4, lsl #8
}
 808170c:	b280      	uxth	r0, r0
 808170e:	bd10      	pop	{r4, pc}

08081710 <_ZN16Adafruit_ADS1115C1Eh>:
Adafruit_ADS1015::Adafruit_ADS1015(uint8_t i2cAddress) 
{
   m_i2cAddress = i2cAddress;
   m_conversionDelay = ADS1015_CONVERSIONDELAY;
   m_bitShift = 4;
   m_gain = GAIN_TWOTHIRDS; /* +/- 6.144V range (limited to VDD +0.3V max!) */
 8081710:	2200      	movs	r2, #0
    @brief  Instantiates a new ADS1115 class w/appropriate properties
*/
/**************************************************************************/
Adafruit_ADS1115::Adafruit_ADS1115(uint8_t i2cAddress)
{
   m_i2cAddress = i2cAddress;
 8081712:	7001      	strb	r1, [r0, #0]
   m_conversionDelay = ADS1115_CONVERSIONDELAY;
 8081714:	2102      	movs	r1, #2
Adafruit_ADS1015::Adafruit_ADS1015(uint8_t i2cAddress) 
{
   m_i2cAddress = i2cAddress;
   m_conversionDelay = ADS1015_CONVERSIONDELAY;
   m_bitShift = 4;
   m_gain = GAIN_TWOTHIRDS; /* +/- 6.144V range (limited to VDD +0.3V max!) */
 8081716:	8082      	strh	r2, [r0, #4]
*/
/**************************************************************************/
Adafruit_ADS1115::Adafruit_ADS1115(uint8_t i2cAddress)
{
   m_i2cAddress = i2cAddress;
   m_conversionDelay = ADS1115_CONVERSIONDELAY;
 8081718:	7041      	strb	r1, [r0, #1]
   m_bitShift = 0;
 808171a:	7082      	strb	r2, [r0, #2]
   m_gain = GAIN_TWOTHIRDS; /* +/- 6.144V range (limited to VDD +0.3V max!) */
}
 808171c:	4770      	bx	lr

0808171e <_ZN16Adafruit_ADS10155beginEv>:
/**************************************************************************/
/*!
    @brief  Sets up the HW (reads coefficients values, etc.)
*/
/**************************************************************************/
void Adafruit_ADS1015::begin() {
 808171e:	b508      	push	{r3, lr}
  Wire.begin();
 8081720:	f001 ff5a 	bl	80835d8 <_Z19__fetch_global_Wirev>
}
 8081724:	e8bd 4008 	ldmia.w	sp!, {r3, lr}
/*!
    @brief  Sets up the HW (reads coefficients values, etc.)
*/
/**************************************************************************/
void Adafruit_ADS1015::begin() {
  Wire.begin();
 8081728:	f001 be08 	b.w	808333c <_ZN7TwoWire5beginEv>

0808172c <_ZN16Adafruit_ADS10157setGainE9adsGain_t>:
    @brief  Sets the gain and input voltage range
*/
/**************************************************************************/
void Adafruit_ADS1015::setGain(adsGain_t gain)
{
  m_gain = gain;
 808172c:	8081      	strh	r1, [r0, #4]
 808172e:	4770      	bx	lr

08081730 <_ZN16Adafruit_ADS101519readADC_SingleEndedEh>:
/*!
    @brief  Gets a single-ended ADC reading from the specified channel
*/
/**************************************************************************/
uint16_t Adafruit_ADS1015::readADC_SingleEnded(uint8_t channel) {
  if (channel > 3)
 8081730:	2903      	cmp	r1, #3
/**************************************************************************/
/*!
    @brief  Gets a single-ended ADC reading from the specified channel
*/
/**************************************************************************/
uint16_t Adafruit_ADS1015::readADC_SingleEnded(uint8_t channel) {
 8081732:	b510      	push	{r4, lr}
 8081734:	4604      	mov	r4, r0
  if (channel > 3)
 8081736:	d822      	bhi.n	808177e <_ZN16Adafruit_ADS101519readADC_SingleEndedEh+0x4e>

  // Set PGA/voltage range
  config |= m_gain;

  // Set single-ended input channel
  switch (channel)
 8081738:	2902      	cmp	r1, #2
                    ADS1015_REG_CONFIG_CMODE_TRAD   | // Traditional comparator (default val)
                    ADS1015_REG_CONFIG_DR_1600SPS   | // 1600 samples per second (default)
                    ADS1015_REG_CONFIG_MODE_SINGLE;   // Single-shot mode (default)

  // Set PGA/voltage range
  config |= m_gain;
 808173a:	8882      	ldrh	r2, [r0, #4]

  // Set single-ended input channel
  switch (channel)
 808173c:	d008      	beq.n	8081750 <_ZN16Adafruit_ADS101519readADC_SingleEndedEh+0x20>
 808173e:	2903      	cmp	r1, #3
 8081740:	d009      	beq.n	8081756 <_ZN16Adafruit_ADS101519readADC_SingleEndedEh+0x26>
 8081742:	2901      	cmp	r1, #1
  {
    case (0):
      config |= ADS1015_REG_CONFIG_MUX_SINGLE_0;
 8081744:	bf14      	ite	ne
 8081746:	f442 4283 	orrne.w	r2, r2, #16768	; 0x4180
      break;
    case (1):
      config |= ADS1015_REG_CONFIG_MUX_SINGLE_1;
 808174a:	f442 42a3 	orreq.w	r2, r2, #20864	; 0x5180
 808174e:	e004      	b.n	808175a <_ZN16Adafruit_ADS101519readADC_SingleEndedEh+0x2a>
      break;
    case (2):
      config |= ADS1015_REG_CONFIG_MUX_SINGLE_2;
 8081750:	f442 42c3 	orr.w	r2, r2, #24960	; 0x6180
 8081754:	e001      	b.n	808175a <_ZN16Adafruit_ADS101519readADC_SingleEndedEh+0x2a>
      break;
    case (3):
      config |= ADS1015_REG_CONFIG_MUX_SINGLE_3;
 8081756:	f442 42e3 	orr.w	r2, r2, #29056	; 0x7180
 808175a:	f042 0203 	orr.w	r2, r2, #3

  // Set 'start single-conversion' bit
  config |= ADS1015_REG_CONFIG_OS_SINGLE;

  // Write config register to the ADC
  writeRegister(m_i2cAddress, ADS1015_REG_POINTER_CONFIG, config);
 808175e:	f442 4200 	orr.w	r2, r2, #32768	; 0x8000
 8081762:	2101      	movs	r1, #1
 8081764:	7820      	ldrb	r0, [r4, #0]
 8081766:	f7ff ff9e 	bl	80816a6 <_ZL13writeRegisterhht>

  // Wait for the conversion to complete
  delay(m_conversionDelay);
 808176a:	7860      	ldrb	r0, [r4, #1]
 808176c:	f000 ffc0 	bl	80826f0 <delay>

  // Read the conversion results
  // Shift 12-bit results right 4 bits for the ADS1015
  return readRegister(m_i2cAddress, ADS1015_REG_POINTER_CONVERT) >> m_bitShift;  
 8081770:	7820      	ldrb	r0, [r4, #0]
 8081772:	f7ff ffb0 	bl	80816d6 <_ZL12readRegisterhh.isra.0>
 8081776:	78a3      	ldrb	r3, [r4, #2]
 8081778:	4118      	asrs	r0, r3
 808177a:	b280      	uxth	r0, r0
 808177c:	bd10      	pop	{r4, pc}
*/
/**************************************************************************/
uint16_t Adafruit_ADS1015::readADC_SingleEnded(uint8_t channel) {
  if (channel > 3)
  {
    return 0;
 808177e:	2000      	movs	r0, #0
  delay(m_conversionDelay);

  // Read the conversion results
  // Shift 12-bit results right 4 bits for the ADS1015
  return readRegister(m_i2cAddress, ADS1015_REG_POINTER_CONVERT) >> m_bitShift;  
}
 8081780:	bd10      	pop	{r4, pc}

08081782 <_GLOBAL__sub_I__ZN16Adafruit_ADS1015C2Eh>:
 8081782:	f000 b9a7 	b.w	8081ad4 <HAL_Pin_Map>

08081786 <_ZN19CellularHelperClass16responseCallbackEiPKciPv>:
	}
	return bars;
}

// static
int CellularHelperClass::responseCallback(int type, const char* buf, int len, void *param) {
 8081786:	b430      	push	{r4, r5}
 8081788:	461c      	mov	r4, r3
	CellularHelperCommonResponse *presp = (CellularHelperCommonResponse *)param;

	return presp->parse(type, buf, len);
 808178a:	681b      	ldr	r3, [r3, #0]
 808178c:	681d      	ldr	r5, [r3, #0]
 808178e:	4613      	mov	r3, r2
 8081790:	46ac      	mov	ip, r5
 8081792:	460a      	mov	r2, r1
 8081794:	4601      	mov	r1, r0
 8081796:	4620      	mov	r0, r4
}
 8081798:	bc30      	pop	{r4, r5}

// static
int CellularHelperClass::responseCallback(int type, const char* buf, int len, void *param) {
	CellularHelperCommonResponse *presp = (CellularHelperCommonResponse *)param;

	return presp->parse(type, buf, len);
 808179a:	4760      	bx	ip

0808179c <_ZNK5spark6Logger4infoEPKcz>:
    va_start(args, fmt);
    log(LOG_LEVEL_TRACE, fmt, args);
    va_end(args);
}

inline void spark::Logger::info(const char *fmt, ...) const {
 808179c:	b40e      	push	{r1, r2, r3}
 808179e:	b500      	push	{lr}
 80817a0:	b08c      	sub	sp, #48	; 0x30
 80817a2:	aa0d      	add	r2, sp, #52	; 0x34
 80817a4:	f852 1b04 	ldr.w	r1, [r2], #4
    va_end(args);
}

inline void spark::Logger::log(LogLevel level, const char *fmt, va_list args) const {
    LogAttributes attr;
    attr.size = sizeof(LogAttributes);
 80817a8:	2320      	movs	r3, #32
    attr.flags = 0;
    log_message_v(level, name_, &attr, nullptr, fmt, args);
 80817aa:	e88d 0006 	stmia.w	sp, {r1, r2}
    va_end(args);
}

inline void spark::Logger::info(const char *fmt, ...) const {
    va_list args;
    va_start(args, fmt);
 80817ae:	9203      	str	r2, [sp, #12]
    va_end(args);
}

inline void spark::Logger::log(LogLevel level, const char *fmt, va_list args) const {
    LogAttributes attr;
    attr.size = sizeof(LogAttributes);
 80817b0:	9304      	str	r3, [sp, #16]
    attr.flags = 0;
    log_message_v(level, name_, &attr, nullptr, fmt, args);
 80817b2:	6801      	ldr	r1, [r0, #0]
}

inline void spark::Logger::log(LogLevel level, const char *fmt, va_list args) const {
    LogAttributes attr;
    attr.size = sizeof(LogAttributes);
    attr.flags = 0;
 80817b4:	2300      	movs	r3, #0
    log_message_v(level, name_, &attr, nullptr, fmt, args);
 80817b6:	aa04      	add	r2, sp, #16
 80817b8:	201e      	movs	r0, #30
}

inline void spark::Logger::log(LogLevel level, const char *fmt, va_list args) const {
    LogAttributes attr;
    attr.size = sizeof(LogAttributes);
    attr.flags = 0;
 80817ba:	9305      	str	r3, [sp, #20]
    log_message_v(level, name_, &attr, nullptr, fmt, args);
 80817bc:	f000 fad2 	bl	8081d64 <log_message_v>
inline void spark::Logger::info(const char *fmt, ...) const {
    va_list args;
    va_start(args, fmt);
    log(LOG_LEVEL_INFO, fmt, args);
    va_end(args);
}
 80817c0:	b00c      	add	sp, #48	; 0x30
 80817c2:	f85d eb04 	ldr.w	lr, [sp], #4
 80817c6:	b003      	add	sp, #12
 80817c8:	4770      	bx	lr
	...

080817cc <_ZNK28CellularHelperCommonResponse16logCellularDebugEiPKci>:
static LogClass Log;
#endif

CellularHelperClass CellularHelper;

void CellularHelperCommonResponse::logCellularDebug(int type, const char *buf, int len) const {
 80817cc:	b570      	push	{r4, r5, r6, lr}
 80817ce:	460c      	mov	r4, r1
 80817d0:	b08c      	sub	sp, #48	; 0x30
	String typeStr;
 80817d2:	494c      	ldr	r1, [pc, #304]	; (8081904 <_ZNK28CellularHelperCommonResponse16logCellularDebugEiPKci+0x138>)
 80817d4:	a804      	add	r0, sp, #16
static LogClass Log;
#endif

CellularHelperClass CellularHelper;

void CellularHelperCommonResponse::logCellularDebug(int type, const char *buf, int len) const {
 80817d6:	4615      	mov	r5, r2
 80817d8:	461e      	mov	r6, r3
	String typeStr;
 80817da:	f000 fcf3 	bl	80821c4 <_ZN6StringC1EPK19__FlashStringHelper>
	switch(type) {
 80817de:	f5b4 1f10 	cmp.w	r4, #2359296	; 0x240000
 80817e2:	d035      	beq.n	8081850 <_ZNK28CellularHelperCommonResponse16logCellularDebugEiPKci+0x84>
 80817e4:	dc13      	bgt.n	808180e <_ZNK28CellularHelperCommonResponse16logCellularDebugEiPKci+0x42>
 80817e6:	f5b4 1f90 	cmp.w	r4, #1179648	; 0x120000
 80817ea:	d028      	beq.n	808183e <_ZNK28CellularHelperCommonResponse16logCellularDebugEiPKci+0x72>
 80817ec:	dc05      	bgt.n	80817fa <_ZNK28CellularHelperCommonResponse16logCellularDebugEiPKci+0x2e>
 80817ee:	b324      	cbz	r4, 808183a <_ZNK28CellularHelperCommonResponse16logCellularDebugEiPKci+0x6e>
 80817f0:	f5b4 1f88 	cmp.w	r4, #1114112	; 0x110000
 80817f4:	d136      	bne.n	8081864 <_ZNK28CellularHelperCommonResponse16logCellularDebugEiPKci+0x98>
	case TYPE_UNKNOWN:
		typeStr = "TYPE_UNKNOWN";
		break;

	case TYPE_OK:
		typeStr = "TYPE_OK";
 80817f6:	4944      	ldr	r1, [pc, #272]	; (8081908 <_ZNK28CellularHelperCommonResponse16logCellularDebugEiPKci+0x13c>)
 80817f8:	e022      	b.n	8081840 <_ZNK28CellularHelperCommonResponse16logCellularDebugEiPKci+0x74>

CellularHelperClass CellularHelper;

void CellularHelperCommonResponse::logCellularDebug(int type, const char *buf, int len) const {
	String typeStr;
	switch(type) {
 80817fa:	f5b4 1f08 	cmp.w	r4, #2228224	; 0x220000
 80817fe:	d023      	beq.n	8081848 <_ZNK28CellularHelperCommonResponse16logCellularDebugEiPKci+0x7c>
 8081800:	f5b4 1f0c 	cmp.w	r4, #2293760	; 0x230000
 8081804:	d022      	beq.n	808184c <_ZNK28CellularHelperCommonResponse16logCellularDebugEiPKci+0x80>
 8081806:	f5b4 1f04 	cmp.w	r4, #2162688	; 0x210000
 808180a:	d12b      	bne.n	8081864 <_ZNK28CellularHelperCommonResponse16logCellularDebugEiPKci+0x98>
 808180c:	e017      	b.n	808183e <_ZNK28CellularHelperCommonResponse16logCellularDebugEiPKci+0x72>
 808180e:	f5b4 1f40 	cmp.w	r4, #3145728	; 0x300000
 8081812:	d021      	beq.n	8081858 <_ZNK28CellularHelperCommonResponse16logCellularDebugEiPKci+0x8c>
 8081814:	dc07      	bgt.n	8081826 <_ZNK28CellularHelperCommonResponse16logCellularDebugEiPKci+0x5a>
 8081816:	f5b4 1f14 	cmp.w	r4, #2424832	; 0x250000
 808181a:	d01b      	beq.n	8081854 <_ZNK28CellularHelperCommonResponse16logCellularDebugEiPKci+0x88>
 808181c:	f5b4 1f18 	cmp.w	r4, #2490368	; 0x260000
 8081820:	d120      	bne.n	8081864 <_ZNK28CellularHelperCommonResponse16logCellularDebugEiPKci+0x98>
	case TYPE_BUSY:
		typeStr = "TYPE_BUSY";
		break;

	case TYPE_NOANSWER:
		typeStr = "TYPE_NOANSWER";
 8081822:	493a      	ldr	r1, [pc, #232]	; (808190c <_ZNK28CellularHelperCommonResponse16logCellularDebugEiPKci+0x140>)
 8081824:	e00c      	b.n	8081840 <_ZNK28CellularHelperCommonResponse16logCellularDebugEiPKci+0x74>

CellularHelperClass CellularHelper;

void CellularHelperCommonResponse::logCellularDebug(int type, const char *buf, int len) const {
	String typeStr;
	switch(type) {
 8081826:	f5b4 0fa0 	cmp.w	r4, #5242880	; 0x500000
 808182a:	d017      	beq.n	808185c <_ZNK28CellularHelperCommonResponse16logCellularDebugEiPKci+0x90>
 808182c:	f5b4 0fc0 	cmp.w	r4, #6291456	; 0x600000
 8081830:	d016      	beq.n	8081860 <_ZNK28CellularHelperCommonResponse16logCellularDebugEiPKci+0x94>
 8081832:	f5b4 0f80 	cmp.w	r4, #4194304	; 0x400000
 8081836:	d115      	bne.n	8081864 <_ZNK28CellularHelperCommonResponse16logCellularDebugEiPKci+0x98>
 8081838:	e010      	b.n	808185c <_ZNK28CellularHelperCommonResponse16logCellularDebugEiPKci+0x90>
	case TYPE_UNKNOWN:
		typeStr = "TYPE_UNKNOWN";
 808183a:	4935      	ldr	r1, [pc, #212]	; (8081910 <_ZNK28CellularHelperCommonResponse16logCellularDebugEiPKci+0x144>)
 808183c:	e000      	b.n	8081840 <_ZNK28CellularHelperCommonResponse16logCellularDebugEiPKci+0x74>
	case TYPE_ERROR:
		typeStr = "TYPE_ERROR";
		break;

	case TYPE_RING:
		typeStr = "TYPE_ERROR";
 808183e:	4935      	ldr	r1, [pc, #212]	; (8081914 <_ZNK28CellularHelperCommonResponse16logCellularDebugEiPKci+0x148>)
	case TYPE_UNKNOWN:
		typeStr = "TYPE_UNKNOWN";
		break;

	case TYPE_OK:
		typeStr = "TYPE_OK";
 8081840:	a804      	add	r0, sp, #16
 8081842:	f000 fd11 	bl	8082268 <_ZN6StringaSEPKc>
		break;
 8081846:	e019      	b.n	808187c <_ZNK28CellularHelperCommonResponse16logCellularDebugEiPKci+0xb0>
	case TYPE_RING:
		typeStr = "TYPE_ERROR";
		break;

	case TYPE_CONNECT:
		typeStr = "TYPE_CONNECT";
 8081848:	4933      	ldr	r1, [pc, #204]	; (8081918 <_ZNK28CellularHelperCommonResponse16logCellularDebugEiPKci+0x14c>)
 808184a:	e7f9      	b.n	8081840 <_ZNK28CellularHelperCommonResponse16logCellularDebugEiPKci+0x74>
		break;

	case TYPE_NOCARRIER:
		typeStr = "TYPE_NOCARRIER";
 808184c:	4933      	ldr	r1, [pc, #204]	; (808191c <_ZNK28CellularHelperCommonResponse16logCellularDebugEiPKci+0x150>)
 808184e:	e7f7      	b.n	8081840 <_ZNK28CellularHelperCommonResponse16logCellularDebugEiPKci+0x74>
		break;

	case TYPE_NODIALTONE:
		typeStr = "TYPE_NODIALTONE";
 8081850:	4933      	ldr	r1, [pc, #204]	; (8081920 <_ZNK28CellularHelperCommonResponse16logCellularDebugEiPKci+0x154>)
 8081852:	e7f5      	b.n	8081840 <_ZNK28CellularHelperCommonResponse16logCellularDebugEiPKci+0x74>
		break;

	case TYPE_BUSY:
		typeStr = "TYPE_BUSY";
 8081854:	4933      	ldr	r1, [pc, #204]	; (8081924 <_ZNK28CellularHelperCommonResponse16logCellularDebugEiPKci+0x158>)
 8081856:	e7f3      	b.n	8081840 <_ZNK28CellularHelperCommonResponse16logCellularDebugEiPKci+0x74>
	case TYPE_NOANSWER:
		typeStr = "TYPE_NOANSWER";
		break;

	case TYPE_PROMPT:
		typeStr = "TYPE_PROMPT";
 8081858:	4933      	ldr	r1, [pc, #204]	; (8081928 <_ZNK28CellularHelperCommonResponse16logCellularDebugEiPKci+0x15c>)
 808185a:	e7f1      	b.n	8081840 <_ZNK28CellularHelperCommonResponse16logCellularDebugEiPKci+0x74>
	case TYPE_PLUS:
		typeStr = "TYPE_PLUS";
		break;

	case TYPE_TEXT:
		typeStr = "TYPE_PLUS";
 808185c:	4933      	ldr	r1, [pc, #204]	; (808192c <_ZNK28CellularHelperCommonResponse16logCellularDebugEiPKci+0x160>)
 808185e:	e7ef      	b.n	8081840 <_ZNK28CellularHelperCommonResponse16logCellularDebugEiPKci+0x74>
		break;

	case TYPE_ABORTED:
		typeStr = "TYPE_ABORTED";
 8081860:	4933      	ldr	r1, [pc, #204]	; (8081930 <_ZNK28CellularHelperCommonResponse16logCellularDebugEiPKci+0x164>)
 8081862:	e7ed      	b.n	8081840 <_ZNK28CellularHelperCommonResponse16logCellularDebugEiPKci+0x74>
		break;

	default:
		typeStr = String::format("type=0x%x", type);
 8081864:	4622      	mov	r2, r4
 8081866:	4933      	ldr	r1, [pc, #204]	; (8081934 <_ZNK28CellularHelperCommonResponse16logCellularDebugEiPKci+0x168>)
 8081868:	a808      	add	r0, sp, #32
 808186a:	f000 fd85 	bl	8082378 <_ZN6String6formatEPKcz>
 808186e:	a908      	add	r1, sp, #32
 8081870:	a804      	add	r0, sp, #16
 8081872:	f000 fcf1 	bl	8082258 <_ZN6StringaSEOS_>
 8081876:	a808      	add	r0, sp, #32
 8081878:	f000 fc5d 	bl	8082136 <_ZN6StringD1Ev>
		break;
	}

	Log.info("cellular response type=%s len=%d", typeStr.c_str(), len);
 808187c:	4633      	mov	r3, r6
 808187e:	9a04      	ldr	r2, [sp, #16]
 8081880:	492d      	ldr	r1, [pc, #180]	; (8081938 <_ZNK28CellularHelperCommonResponse16logCellularDebugEiPKci+0x16c>)
 8081882:	482e      	ldr	r0, [pc, #184]	; (808193c <_ZNK28CellularHelperCommonResponse16logCellularDebugEiPKci+0x170>)
 8081884:	f7ff ff8a 	bl	808179c <_ZNK5spark6Logger4infoEPKcz>
	String out;
 8081888:	491e      	ldr	r1, [pc, #120]	; (8081904 <_ZNK28CellularHelperCommonResponse16logCellularDebugEiPKci+0x138>)
 808188a:	a808      	add	r0, sp, #32
 808188c:	f000 fc9a 	bl	80821c4 <_ZN6StringC1EPK19__FlashStringHelper>
 8081890:	462c      	mov	r4, r5
	for(int ii = 0; ii < len; ii++) {
 8081892:	1b63      	subs	r3, r4, r5
 8081894:	429e      	cmp	r6, r3
 8081896:	dd27      	ble.n	80818e8 <_ZNK28CellularHelperCommonResponse16logCellularDebugEiPKci+0x11c>
		if (buf[ii] == '\n') {
 8081898:	f814 3b01 	ldrb.w	r3, [r4], #1
 808189c:	2b0a      	cmp	r3, #10
 808189e:	d10c      	bne.n	80818ba <_ZNK28CellularHelperCommonResponse16logCellularDebugEiPKci+0xee>
	unsigned char concat(double num);

	// if there's not enough memory for the concatenated value, the string
	// will be left unchanged (but this isn't signalled in any way)
	String & operator += (const String &rhs)	{concat(rhs); return (*this);}
	String & operator += (const char *cstr)		{concat(cstr); return (*this);}
 80818a0:	4927      	ldr	r1, [pc, #156]	; (8081940 <_ZNK28CellularHelperCommonResponse16logCellularDebugEiPKci+0x174>)
 80818a2:	a808      	add	r0, sp, #32
 80818a4:	f000 fd1b 	bl	80822de <_ZN6String6concatEPKc>
			out += "\\n";
			Log.info(out);
 80818a8:	9908      	ldr	r1, [sp, #32]
 80818aa:	4824      	ldr	r0, [pc, #144]	; (808193c <_ZNK28CellularHelperCommonResponse16logCellularDebugEiPKci+0x170>)
 80818ac:	f7ff ff76 	bl	808179c <_ZNK5spark6Logger4infoEPKcz>
			out = "";
 80818b0:	4914      	ldr	r1, [pc, #80]	; (8081904 <_ZNK28CellularHelperCommonResponse16logCellularDebugEiPKci+0x138>)
 80818b2:	a808      	add	r0, sp, #32
 80818b4:	f000 fcd8 	bl	8082268 <_ZN6StringaSEPKc>
 80818b8:	e7eb      	b.n	8081892 <_ZNK28CellularHelperCommonResponse16logCellularDebugEiPKci+0xc6>
		}
		else
		if (buf[ii] == '\r') {
 80818ba:	2b0d      	cmp	r3, #13
 80818bc:	d101      	bne.n	80818c2 <_ZNK28CellularHelperCommonResponse16logCellularDebugEiPKci+0xf6>
 80818be:	4921      	ldr	r1, [pc, #132]	; (8081944 <_ZNK28CellularHelperCommonResponse16logCellularDebugEiPKci+0x178>)
 80818c0:	e009      	b.n	80818d6 <_ZNK28CellularHelperCommonResponse16logCellularDebugEiPKci+0x10a>
			out += "\\r";
		}
		else
		if (buf[ii] < ' ' || buf[ii] >= 127) {
 80818c2:	f1a3 0220 	sub.w	r2, r3, #32
 80818c6:	2a5e      	cmp	r2, #94	; 0x5e
 80818c8:	d909      	bls.n	80818de <_ZNK28CellularHelperCommonResponse16logCellularDebugEiPKci+0x112>
			char hex[10];
			snprintf(hex, sizeof(hex), "0x%02x", buf[ii]);
 80818ca:	210a      	movs	r1, #10
 80818cc:	4a1e      	ldr	r2, [pc, #120]	; (8081948 <_ZNK28CellularHelperCommonResponse16logCellularDebugEiPKci+0x17c>)
 80818ce:	a801      	add	r0, sp, #4
 80818d0:	f000 fb5c 	bl	8081f8c <snprintf>
			out.concat(hex);
 80818d4:	a901      	add	r1, sp, #4
 80818d6:	a808      	add	r0, sp, #32
 80818d8:	f000 fd01 	bl	80822de <_ZN6String6concatEPKc>
 80818dc:	e7d9      	b.n	8081892 <_ZNK28CellularHelperCommonResponse16logCellularDebugEiPKci+0xc6>
		}
		else {
			out.concat(buf[ii]);
 80818de:	4619      	mov	r1, r3
 80818e0:	a808      	add	r0, sp, #32
 80818e2:	f000 fd0b 	bl	80822fc <_ZN6String6concatEc>
		break;
	}

	Log.info("cellular response type=%s len=%d", typeStr.c_str(), len);
	String out;
	for(int ii = 0; ii < len; ii++) {
 80818e6:	e7d4      	b.n	8081892 <_ZNK28CellularHelperCommonResponse16logCellularDebugEiPKci+0xc6>
		}
		else {
			out.concat(buf[ii]);
		}
	}
	if (out.length() > 0) {
 80818e8:	9b0a      	ldr	r3, [sp, #40]	; 0x28
 80818ea:	b11b      	cbz	r3, 80818f4 <_ZNK28CellularHelperCommonResponse16logCellularDebugEiPKci+0x128>
		Log.info(out);
 80818ec:	9908      	ldr	r1, [sp, #32]
 80818ee:	4813      	ldr	r0, [pc, #76]	; (808193c <_ZNK28CellularHelperCommonResponse16logCellularDebugEiPKci+0x170>)
 80818f0:	f7ff ff54 	bl	808179c <_ZNK5spark6Logger4infoEPKcz>
		typeStr = String::format("type=0x%x", type);
		break;
	}

	Log.info("cellular response type=%s len=%d", typeStr.c_str(), len);
	String out;
 80818f4:	a808      	add	r0, sp, #32
 80818f6:	f000 fc1e 	bl	8082136 <_ZN6StringD1Ev>
#endif

CellularHelperClass CellularHelper;

void CellularHelperCommonResponse::logCellularDebug(int type, const char *buf, int len) const {
	String typeStr;
 80818fa:	a804      	add	r0, sp, #16
 80818fc:	f000 fc1b 	bl	8082136 <_ZN6StringD1Ev>
		}
	}
	if (out.length() > 0) {
		Log.info(out);
	}
}
 8081900:	b00c      	add	sp, #48	; 0x30
 8081902:	bd70      	pop	{r4, r5, r6, pc}
 8081904:	08087ab0 	.word	0x08087ab0
 8081908:	080876e9 	.word	0x080876e9
 808190c:	08087732 	.word	0x08087732
 8081910:	080876dc 	.word	0x080876dc
 8081914:	080876f1 	.word	0x080876f1
 8081918:	080876fc 	.word	0x080876fc
 808191c:	08087709 	.word	0x08087709
 8081920:	08087718 	.word	0x08087718
 8081924:	08087728 	.word	0x08087728
 8081928:	08087740 	.word	0x08087740
 808192c:	0808774c 	.word	0x0808774c
 8081930:	08087756 	.word	0x08087756
 8081934:	08087763 	.word	0x08087763
 8081938:	0808776d 	.word	0x0808776d
 808193c:	20000414 	.word	0x20000414
 8081940:	0808778e 	.word	0x0808778e
 8081944:	08087791 	.word	0x08087791
 8081948:	08087794 	.word	0x08087794

0808194c <_ZN30CellularHelperRSSIQualResponse11postProcessEv>:

	return result;
}


void CellularHelperRSSIQualResponse::postProcess() {
 808194c:	b510      	push	{r4, lr}
	if (sscanf(string.c_str(), "%d,%d", &rssi, &qual) == 2) {
 808194e:	f100 0330 	add.w	r3, r0, #48	; 0x30
 8081952:	f100 022c 	add.w	r2, r0, #44	; 0x2c

	return result;
}


void CellularHelperRSSIQualResponse::postProcess() {
 8081956:	4604      	mov	r4, r0
	if (sscanf(string.c_str(), "%d,%d", &rssi, &qual) == 2) {
 8081958:	4909      	ldr	r1, [pc, #36]	; (8081980 <_ZN30CellularHelperRSSIQualResponse11postProcessEv+0x34>)
 808195a:	69c0      	ldr	r0, [r0, #28]
 808195c:	f000 fb06 	bl	8081f6c <sscanf>
 8081960:	2802      	cmp	r0, #2
 8081962:	d109      	bne.n	8081978 <_ZN30CellularHelperRSSIQualResponse11postProcessEv+0x2c>
		// 0: -113 dBm or less
		// 1: -111 dBm
		// 2..30: from -109 to -53 dBm with 2 dBm steps
		// 31: -51 dBm or greater
		// 99: not known or not detectable or currently not available
		if (rssi < 99) {
 8081964:	6ae3      	ldr	r3, [r4, #44]	; 0x2c
 8081966:	2b62      	cmp	r3, #98	; 0x62
			rssi = -113 + (rssi * 2);
 8081968:	bfda      	itte	le
 808196a:	005b      	lslle	r3, r3, #1
 808196c:	3b71      	suble	r3, #113	; 0x71
		}
		else {
			rssi = 0;
 808196e:	2300      	movgt	r3, #0
 8081970:	62e3      	str	r3, [r4, #44]	; 0x2c
		}

		resp = RESP_OK;
 8081972:	f06f 0301 	mvn.w	r3, #1
 8081976:	e001      	b.n	808197c <_ZN30CellularHelperRSSIQualResponse11postProcessEv+0x30>
	}
	else {
		// Failed to parse result
		resp = RESP_ERROR;
 8081978:	f06f 0302 	mvn.w	r3, #2
 808197c:	6063      	str	r3, [r4, #4]
 808197e:	bd10      	pop	{r4, pc}
 8081980:	0808779b 	.word	0x0808779b

08081984 <_ZN32CellularHelperPlusStringResponseC1Ev>:
 8081984:	b538      	push	{r3, r4, r5, lr}
 8081986:	4604      	mov	r4, r0

/**
 * All response objects inherit from this, so the parse() method can be called
 * in the subclass, and also the resp and enableDebug members are always available.
 */
class CellularHelperCommonResponse {
 8081988:	f06f 0302 	mvn.w	r3, #2
 808198c:	6043      	str	r3, [r0, #4]
 808198e:	2300      	movs	r3, #0
 8081990:	7203      	strb	r3, [r0, #8]
 * Things that return a + response and a string use this.
 *
 * Since it inherits from CellularHelperPlusStringResponse and CellularHelperCommonResponse you
 * can check resp == RESP_OK to make sure the call succeeded.
 */
class CellularHelperPlusStringResponse : public CellularHelperCommonResponse {
 8081992:	4d07      	ldr	r5, [pc, #28]	; (80819b0 <_ZN32CellularHelperPlusStringResponseC1Ev+0x2c>)
 8081994:	4b07      	ldr	r3, [pc, #28]	; (80819b4 <_ZN32CellularHelperPlusStringResponseC1Ev+0x30>)
 8081996:	4629      	mov	r1, r5
 8081998:	f840 3b0c 	str.w	r3, [r0], #12
 808199c:	f000 fc12 	bl	80821c4 <_ZN6StringC1EPK19__FlashStringHelper>
 80819a0:	4629      	mov	r1, r5
 80819a2:	f104 001c 	add.w	r0, r4, #28
 80819a6:	f000 fc0d 	bl	80821c4 <_ZN6StringC1EPK19__FlashStringHelper>
 80819aa:	4620      	mov	r0, r4
 80819ac:	bd38      	pop	{r3, r4, r5, pc}
 80819ae:	bf00      	nop
 80819b0:	08087ab0 	.word	0x08087ab0
 80819b4:	08087acc 	.word	0x08087acc

080819b8 <_ZNK19CellularHelperClass11getRSSIQualEv>:
/**
 * Get the RSSI and qual values for the receiving cell site.
 *
 * The qual value is always 99 for me on the G350 (2G).
 */
CellularHelperRSSIQualResponse CellularHelperClass::getRSSIQual() const {
 80819b8:	b510      	push	{r4, lr}
 80819ba:	4604      	mov	r4, r0
 * Note that for 2G, qual is not available and 99 is always returned.
 *
 * Since it inherits from CellularHelperPlusStringResponse and CellularHelperCommonResponse you
 * can check resp == RESP_OK to make sure the call succeeded.
 */
class CellularHelperRSSIQualResponse : public CellularHelperPlusStringResponse {
 80819bc:	f7ff ffe2 	bl	8081984 <_ZN32CellularHelperPlusStringResponseC1Ev>
 80819c0:	4b0c      	ldr	r3, [pc, #48]	; (80819f4 <_ZNK19CellularHelperClass11getRSSIQualEv+0x3c>)
	CellularHelperRSSIQualResponse resp;
	resp.command = "CSQ";
 80819c2:	490d      	ldr	r1, [pc, #52]	; (80819f8 <_ZNK19CellularHelperClass11getRSSIQualEv+0x40>)
 80819c4:	6023      	str	r3, [r4, #0]
 80819c6:	2300      	movs	r3, #0
 80819c8:	62e3      	str	r3, [r4, #44]	; 0x2c
 80819ca:	6323      	str	r3, [r4, #48]	; 0x30
 80819cc:	f104 000c 	add.w	r0, r4, #12
 80819d0:	f000 fc4a 	bl	8082268 <_ZN6StringaSEPKc>

    template<typename T, typename... Targs>
    inline int command(int (*cb)(int type, const char* buf, int len, T* param),
            T* param, system_tick_t timeout_ms, const char* format, Targs... Fargs)
    {
        return cellular_command((_CALLBACKPTR_MDM)cb, (void*)param, timeout_ms, format, Fargs...);
 80819d4:	4b09      	ldr	r3, [pc, #36]	; (80819fc <_ZNK19CellularHelperClass11getRSSIQualEv+0x44>)
 80819d6:	f242 7210 	movw	r2, #10000	; 0x2710
 80819da:	4621      	mov	r1, r4
 80819dc:	4808      	ldr	r0, [pc, #32]	; (8081a00 <_ZNK19CellularHelperClass11getRSSIQualEv+0x48>)
 80819de:	f000 f989 	bl	8081cf4 <cellular_command>

	resp.resp = Cellular.command(responseCallback, (void *)&resp, DEFAULT_TIMEOUT, "AT+CSQ\r\n");
 80819e2:	6060      	str	r0, [r4, #4]

	if (resp.resp == RESP_OK) {
 80819e4:	3002      	adds	r0, #2
 80819e6:	d102      	bne.n	80819ee <_ZNK19CellularHelperClass11getRSSIQualEv+0x36>
		resp.postProcess();
 80819e8:	4620      	mov	r0, r4
 80819ea:	f7ff ffaf 	bl	808194c <_ZN30CellularHelperRSSIQualResponse11postProcessEv>
	}

	return resp;
}
 80819ee:	4620      	mov	r0, r4
 80819f0:	bd10      	pop	{r4, pc}
 80819f2:	bf00      	nop
 80819f4:	080876d8 	.word	0x080876d8
 80819f8:	080879d3 	.word	0x080879d3
 80819fc:	080879d7 	.word	0x080879d7
 8081a00:	08081787 	.word	0x08081787

08081a04 <_ZNK19CellularHelperClass20appendBufferToStringER6StringPKcib>:



// There isn't an overload of String that takes a buffer and length, but that's what comes back from
// the Cellular.command callback, so that's why this method exists.
void CellularHelperClass::appendBufferToString(String &str, const char *buf, int len, bool noEOL) const {
 8081a04:	e92d 41f0 	stmdb	sp!, {r4, r5, r6, r7, r8, lr}
 8081a08:	460d      	mov	r5, r1
 8081a0a:	4616      	mov	r6, r2
	str.reserve(str.length() + (size_t)len + 1);
 8081a0c:	1c59      	adds	r1, r3, #1



// There isn't an overload of String that takes a buffer and length, but that's what comes back from
// the Cellular.command callback, so that's why this method exists.
void CellularHelperClass::appendBufferToString(String &str, const char *buf, int len, bool noEOL) const {
 8081a0e:	461f      	mov	r7, r3
	str.reserve(str.length() + (size_t)len + 1);
 8081a10:	68ab      	ldr	r3, [r5, #8]
 8081a12:	4628      	mov	r0, r5
 8081a14:	4419      	add	r1, r3



// There isn't an overload of String that takes a buffer and length, but that's what comes back from
// the Cellular.command callback, so that's why this method exists.
void CellularHelperClass::appendBufferToString(String &str, const char *buf, int len, bool noEOL) const {
 8081a16:	f89d 8018 	ldrb.w	r8, [sp, #24]
	str.reserve(str.length() + (size_t)len + 1);
 8081a1a:	4634      	mov	r4, r6
 8081a1c:	f000 fba9 	bl	8082172 <_ZN6String7reserveEj>
	for(int ii = 0; ii < len; ii++) {
 8081a20:	1ba3      	subs	r3, r4, r6
 8081a22:	429f      	cmp	r7, r3
 8081a24:	dd0d      	ble.n	8081a42 <_ZNK19CellularHelperClass20appendBufferToStringER6StringPKcib+0x3e>
		if (!noEOL || (buf[ii] != '\r' && buf[ii] != '\n')) {
 8081a26:	f1b8 0f00 	cmp.w	r8, #0
 8081a2a:	d004      	beq.n	8081a36 <_ZNK19CellularHelperClass20appendBufferToStringER6StringPKcib+0x32>
 8081a2c:	7823      	ldrb	r3, [r4, #0]
 8081a2e:	2b0d      	cmp	r3, #13
 8081a30:	d005      	beq.n	8081a3e <_ZNK19CellularHelperClass20appendBufferToStringER6StringPKcib+0x3a>
 8081a32:	2b0a      	cmp	r3, #10
 8081a34:	d003      	beq.n	8081a3e <_ZNK19CellularHelperClass20appendBufferToStringER6StringPKcib+0x3a>
			str.concat(buf[ii]);
 8081a36:	7821      	ldrb	r1, [r4, #0]
 8081a38:	4628      	mov	r0, r5
 8081a3a:	f000 fc5f 	bl	80822fc <_ZN6String6concatEc>
 8081a3e:	3401      	adds	r4, #1

// There isn't an overload of String that takes a buffer and length, but that's what comes back from
// the Cellular.command callback, so that's why this method exists.
void CellularHelperClass::appendBufferToString(String &str, const char *buf, int len, bool noEOL) const {
	str.reserve(str.length() + (size_t)len + 1);
	for(int ii = 0; ii < len; ii++) {
 8081a40:	e7ee      	b.n	8081a20 <_ZNK19CellularHelperClass20appendBufferToStringER6StringPKcib+0x1c>
 8081a42:	e8bd 81f0 	ldmia.w	sp!, {r4, r5, r6, r7, r8, pc}
	...

08081a48 <_ZN32CellularHelperPlusStringResponse5parseEiPKci>:
	}
	return WAIT;
}


int CellularHelperPlusStringResponse::parse(int type, const char *buf, int len) {
 8081a48:	b5f0      	push	{r4, r5, r6, r7, lr}
	if (enableDebug) {
 8081a4a:	f890 e008 	ldrb.w	lr, [r0, #8]
	}
	return WAIT;
}


int CellularHelperPlusStringResponse::parse(int type, const char *buf, int len) {
 8081a4e:	b08b      	sub	sp, #44	; 0x2c
 8081a50:	4606      	mov	r6, r0
 8081a52:	460d      	mov	r5, r1
 8081a54:	4617      	mov	r7, r2
 8081a56:	461c      	mov	r4, r3
	if (enableDebug) {
 8081a58:	f1be 0f00 	cmp.w	lr, #0
 8081a5c:	d001      	beq.n	8081a62 <_ZN32CellularHelperPlusStringResponse5parseEiPKci+0x1a>
		logCellularDebug(type, buf, len);
 8081a5e:	f7ff feb5 	bl	80817cc <_ZNK28CellularHelperCommonResponse16logCellularDebugEiPKci>
	}
	if (type == TYPE_PLUS) {
 8081a62:	f5b5 0f80 	cmp.w	r5, #4194304	; 0x400000
 8081a66:	d12a      	bne.n	8081abe <_ZN32CellularHelperPlusStringResponse5parseEiPKci+0x76>
		// Copy to temporary string to make processing easier
		char *copy = (char *) malloc(len + 1);
 8081a68:	1c60      	adds	r0, r4, #1
 8081a6a:	f000 fa5f 	bl	8081f2c <malloc>
		if (copy) {
 8081a6e:	4605      	mov	r5, r0
 8081a70:	b328      	cbz	r0, 8081abe <_ZN32CellularHelperPlusStringResponse5parseEiPKci+0x76>
			strncpy(copy, buf, len);
 8081a72:	4622      	mov	r2, r4
 8081a74:	4639      	mov	r1, r7
 8081a76:	f003 fb34 	bl	80850e2 <strncpy>
			copy[len] = 0;
 8081a7a:	2300      	movs	r3, #0
 8081a7c:	552b      	strb	r3, [r5, r4]

			// We return the parts of the + response corresponding to the command we requested
			char searchFor[32];
			snprintf(searchFor, sizeof(searchFor), "\n+%s: ", command.c_str());
 8081a7e:	68f3      	ldr	r3, [r6, #12]
 8081a80:	4a11      	ldr	r2, [pc, #68]	; (8081ac8 <_ZN32CellularHelperPlusStringResponse5parseEiPKci+0x80>)
 8081a82:	2120      	movs	r1, #32
 8081a84:	a802      	add	r0, sp, #8
 8081a86:	f000 fa81 	bl	8081f8c <snprintf>

			//Log.info("searching for: +%s:", command.c_str());

			char *start = strstr(copy, searchFor);
 8081a8a:	a902      	add	r1, sp, #8
 8081a8c:	4628      	mov	r0, r5
 8081a8e:	f003 fb3b 	bl	8085108 <strstr>
			if (start) {
 8081a92:	4604      	mov	r4, r0
 8081a94:	b180      	cbz	r0, 8081ab8 <_ZN32CellularHelperPlusStringResponse5parseEiPKci+0x70>
				start += strlen(searchFor);
 8081a96:	a802      	add	r0, sp, #8
 8081a98:	f003 fb06 	bl	80850a8 <strlen>
 8081a9c:	4404      	add	r4, r0

				char *end = strchr(start, '\r');
 8081a9e:	210d      	movs	r1, #13
 8081aa0:	4620      	mov	r0, r4
 8081aa2:	f002 fdb1 	bl	8084608 <strchr>
				CellularHelper.appendBufferToString(string, start, end - start);
 8081aa6:	2301      	movs	r3, #1
 8081aa8:	9300      	str	r3, [sp, #0]
 8081aaa:	4622      	mov	r2, r4
 8081aac:	1b03      	subs	r3, r0, r4
 8081aae:	f106 011c 	add.w	r1, r6, #28
 8081ab2:	4806      	ldr	r0, [pc, #24]	; (8081acc <_ZN32CellularHelperPlusStringResponse5parseEiPKci+0x84>)
 8081ab4:	f7ff ffa6 	bl	8081a04 <_ZNK19CellularHelperClass20appendBufferToStringER6StringPKcib>
			}
			else {
				//Log.info("not found");
			}

			free(copy);
 8081ab8:	4628      	mov	r0, r5
 8081aba:	f000 fa3f 	bl	8081f3c <free>
		}
	}
	return WAIT;
}
 8081abe:	f04f 30ff 	mov.w	r0, #4294967295
 8081ac2:	b00b      	add	sp, #44	; 0x2c
 8081ac4:	bdf0      	pop	{r4, r5, r6, r7, pc}
 8081ac6:	bf00      	nop
 8081ac8:	08087abd 	.word	0x08087abd
 8081acc:	20000404 	.word	0x20000404

08081ad0 <_GLOBAL__sub_I_CellularHelper>:
 8081ad0:	f000 b800 	b.w	8081ad4 <HAL_Pin_Map>

08081ad4 <HAL_Pin_Map>:
// New HAL functions must be added to the end of this list.
// GNINRAW

DYNALIB_BEGIN(hal_gpio)

DYNALIB_FN(0, hal_gpio, HAL_Pin_Map, Hal_Pin_Info*(void))
 8081ad4:	b508      	push	{r3, lr}
 8081ad6:	4b02      	ldr	r3, [pc, #8]	; (8081ae0 <HAL_Pin_Map+0xc>)
 8081ad8:	681b      	ldr	r3, [r3, #0]
 8081ada:	681b      	ldr	r3, [r3, #0]
 8081adc:	9301      	str	r3, [sp, #4]
 8081ade:	bd08      	pop	{r3, pc}
 8081ae0:	080401b0 	.word	0x080401b0

08081ae4 <HAL_Pin_Mode>:
DYNALIB_FN(1, hal_gpio, HAL_Validate_Pin_Function, PinFunction(pin_t, PinFunction))
DYNALIB_FN(2, hal_gpio, HAL_Pin_Mode, void(pin_t, PinMode))
 8081ae4:	b508      	push	{r3, lr}
 8081ae6:	4b02      	ldr	r3, [pc, #8]	; (8081af0 <HAL_Pin_Mode+0xc>)
 8081ae8:	681b      	ldr	r3, [r3, #0]
 8081aea:	689b      	ldr	r3, [r3, #8]
 8081aec:	9301      	str	r3, [sp, #4]
 8081aee:	bd08      	pop	{r3, pc}
 8081af0:	080401b0 	.word	0x080401b0

08081af4 <HAL_Get_Pin_Mode>:
DYNALIB_FN(3, hal_gpio, HAL_Get_Pin_Mode, PinMode(pin_t))
 8081af4:	b508      	push	{r3, lr}
 8081af6:	4b02      	ldr	r3, [pc, #8]	; (8081b00 <HAL_Get_Pin_Mode+0xc>)
 8081af8:	681b      	ldr	r3, [r3, #0]
 8081afa:	68db      	ldr	r3, [r3, #12]
 8081afc:	9301      	str	r3, [sp, #4]
 8081afe:	bd08      	pop	{r3, pc}
 8081b00:	080401b0 	.word	0x080401b0

08081b04 <HAL_GPIO_Write>:
DYNALIB_FN(4, hal_gpio, HAL_GPIO_Write, void(pin_t, uint8_t))
 8081b04:	b508      	push	{r3, lr}
 8081b06:	4b02      	ldr	r3, [pc, #8]	; (8081b10 <HAL_GPIO_Write+0xc>)
 8081b08:	681b      	ldr	r3, [r3, #0]
 8081b0a:	691b      	ldr	r3, [r3, #16]
 8081b0c:	9301      	str	r3, [sp, #4]
 8081b0e:	bd08      	pop	{r3, pc}
 8081b10:	080401b0 	.word	0x080401b0

08081b14 <HAL_SPI_Init>:
DYNALIB_FN(2, hal_spi, HAL_SPI_Set_Bit_Order, void(HAL_SPI_Interface, uint8_t))
DYNALIB_FN(3, hal_spi, HAL_SPI_Set_Data_Mode, void(HAL_SPI_Interface, uint8_t))
DYNALIB_FN(4, hal_spi, HAL_SPI_Set_Clock_Divider, void(HAL_SPI_Interface, uint8_t))
DYNALIB_FN(5, hal_spi, HAL_SPI_Send_Receive_Data, uint16_t(HAL_SPI_Interface, uint16_t))
DYNALIB_FN(6, hal_spi, HAL_SPI_Is_Enabled_Old, bool(void))
DYNALIB_FN(7, hal_spi, HAL_SPI_Init, void(HAL_SPI_Interface))
 8081b14:	b508      	push	{r3, lr}
 8081b16:	4b02      	ldr	r3, [pc, #8]	; (8081b20 <HAL_SPI_Init+0xc>)
 8081b18:	681b      	ldr	r3, [r3, #0]
 8081b1a:	69db      	ldr	r3, [r3, #28]
 8081b1c:	9301      	str	r3, [sp, #4]
 8081b1e:	bd08      	pop	{r3, pc}
 8081b20:	080401b4 	.word	0x080401b4

08081b24 <HAL_SPI_Is_Enabled>:
DYNALIB_FN(8, hal_spi, HAL_SPI_Is_Enabled, bool(HAL_SPI_Interface))
 8081b24:	b508      	push	{r3, lr}
 8081b26:	4b02      	ldr	r3, [pc, #8]	; (8081b30 <HAL_SPI_Is_Enabled+0xc>)
 8081b28:	681b      	ldr	r3, [r3, #0]
 8081b2a:	6a1b      	ldr	r3, [r3, #32]
 8081b2c:	9301      	str	r3, [sp, #4]
 8081b2e:	bd08      	pop	{r3, pc}
 8081b30:	080401b4 	.word	0x080401b4

08081b34 <HAL_RNG_GetRandomNumber>:

DYNALIB_BEGIN(hal)

#if PLATFORM_ID > 3
DYNALIB_FN(0, hal, HAL_RNG_Configuration, void(void))
DYNALIB_FN(1, hal, HAL_RNG_GetRandomNumber, uint32_t(void))
 8081b34:	b508      	push	{r3, lr}
 8081b36:	4b02      	ldr	r3, [pc, #8]	; (8081b40 <HAL_RNG_GetRandomNumber+0xc>)
 8081b38:	681b      	ldr	r3, [r3, #0]
 8081b3a:	685b      	ldr	r3, [r3, #4]
 8081b3c:	9301      	str	r3, [sp, #4]
 8081b3e:	bd08      	pop	{r3, pc}
 8081b40:	0804019c 	.word	0x0804019c

08081b44 <HAL_Timer_Get_Milli_Seconds>:
#endif

DYNALIB_FN(BASE_IDX + 0, hal, HAL_Delay_Milliseconds, void(uint32_t))
DYNALIB_FN(BASE_IDX + 1, hal, HAL_Delay_Microseconds, void(uint32_t))
DYNALIB_FN(BASE_IDX + 2, hal, HAL_Timer_Get_Micro_Seconds, system_tick_t(void))
DYNALIB_FN(BASE_IDX + 3, hal, HAL_Timer_Get_Milli_Seconds, system_tick_t(void))
 8081b44:	b508      	push	{r3, lr}
 8081b46:	4b02      	ldr	r3, [pc, #8]	; (8081b50 <HAL_Timer_Get_Milli_Seconds+0xc>)
 8081b48:	681b      	ldr	r3, [r3, #0]
 8081b4a:	695b      	ldr	r3, [r3, #20]
 8081b4c:	9301      	str	r3, [sp, #4]
 8081b4e:	bd08      	pop	{r3, pc}
 8081b50:	0804019c 	.word	0x0804019c

08081b54 <HAL_RTC_Get_UnixTime>:

DYNALIB_FN(BASE_IDX + 4, hal, HAL_RTC_Configuration, void(void))
DYNALIB_FN(BASE_IDX + 5, hal, HAL_RTC_Get_UnixTime, time_t(void))
 8081b54:	b508      	push	{r3, lr}
 8081b56:	4b02      	ldr	r3, [pc, #8]	; (8081b60 <HAL_RTC_Get_UnixTime+0xc>)
 8081b58:	681b      	ldr	r3, [r3, #0]
 8081b5a:	69db      	ldr	r3, [r3, #28]
 8081b5c:	9301      	str	r3, [sp, #4]
 8081b5e:	bd08      	pop	{r3, pc}
 8081b60:	0804019c 	.word	0x0804019c

08081b64 <HAL_RTC_Time_Is_Valid>:
DYNALIB_FN(BASE_IDX + 15, hal,HAL_EEPROM_Get, void(uint32_t, void *, size_t))
DYNALIB_FN(BASE_IDX + 16, hal,HAL_EEPROM_Put, void(uint32_t, const void *, size_t))
DYNALIB_FN(BASE_IDX + 17, hal,HAL_EEPROM_Clear, void(void))
DYNALIB_FN(BASE_IDX + 18, hal,HAL_EEPROM_Has_Pending_Erase, bool(void))
DYNALIB_FN(BASE_IDX + 19, hal,HAL_EEPROM_Perform_Pending_Erase, void(void))
DYNALIB_FN(BASE_IDX + 20, hal, HAL_RTC_Time_Is_Valid, uint8_t(void*))
 8081b64:	b508      	push	{r3, lr}
 8081b66:	4b02      	ldr	r3, [pc, #8]	; (8081b70 <HAL_RTC_Time_Is_Valid+0xc>)
 8081b68:	681b      	ldr	r3, [r3, #0]
 8081b6a:	6d9b      	ldr	r3, [r3, #88]	; 0x58
 8081b6c:	9301      	str	r3, [sp, #4]
 8081b6e:	bd08      	pop	{r3, pc}
 8081b70:	0804019c 	.word	0x0804019c

08081b74 <HAL_Core_System_Reset_Ex>:
DYNALIB_FN(21, hal_core, HAL_Core_Runtime_Info, uint32_t(runtime_info_t*, void*))
DYNALIB_FN(22, hal_core, HAL_Set_System_Config, int(hal_system_config_t, const void*, unsigned))
DYNALIB_FN(23, hal_core, HAL_Core_Enter_Safe_Mode, void(void*))
DYNALIB_FN(24, hal_core, HAL_Feature_Get, bool(HAL_Feature))
DYNALIB_FN(25, hal_core, HAL_Feature_Set, int(HAL_Feature, bool))
DYNALIB_FN(26, hal_core, HAL_Core_System_Reset_Ex, void(int, uint32_t, void*))
 8081b74:	b508      	push	{r3, lr}
 8081b76:	4b02      	ldr	r3, [pc, #8]	; (8081b80 <HAL_Core_System_Reset_Ex+0xc>)
 8081b78:	681b      	ldr	r3, [r3, #0]
 8081b7a:	6e9b      	ldr	r3, [r3, #104]	; 0x68
 8081b7c:	9301      	str	r3, [sp, #4]
 8081b7e:	bd08      	pop	{r3, pc}
 8081b80:	080401b8 	.word	0x080401b8

08081b84 <os_mutex_recursive_create>:
DYNALIB_FN(13, hal_concurrent, os_mutex_destroy, int(os_mutex_t))
DYNALIB_FN(14, hal_concurrent, os_mutex_lock, int(os_mutex_t))
DYNALIB_FN(15, hal_concurrent, os_mutex_trylock, int(os_mutex_t))
DYNALIB_FN(16, hal_concurrent, os_mutex_unlock, int(os_mutex_t))

DYNALIB_FN(17, hal_concurrent, os_mutex_recursive_create, int(os_mutex_recursive_t*))
 8081b84:	b508      	push	{r3, lr}
 8081b86:	4b02      	ldr	r3, [pc, #8]	; (8081b90 <os_mutex_recursive_create+0xc>)
 8081b88:	681b      	ldr	r3, [r3, #0]
 8081b8a:	6c5b      	ldr	r3, [r3, #68]	; 0x44
 8081b8c:	9301      	str	r3, [sp, #4]
 8081b8e:	bd08      	pop	{r3, pc}
 8081b90:	080401d0 	.word	0x080401d0

08081b94 <os_mutex_recursive_destroy>:
DYNALIB_FN(18, hal_concurrent, os_mutex_recursive_destroy, int(os_mutex_recursive_t))
 8081b94:	b508      	push	{r3, lr}
 8081b96:	4b02      	ldr	r3, [pc, #8]	; (8081ba0 <os_mutex_recursive_destroy+0xc>)
 8081b98:	681b      	ldr	r3, [r3, #0]
 8081b9a:	6c9b      	ldr	r3, [r3, #72]	; 0x48
 8081b9c:	9301      	str	r3, [sp, #4]
 8081b9e:	bd08      	pop	{r3, pc}
 8081ba0:	080401d0 	.word	0x080401d0

08081ba4 <HAL_USART_Init>:
#define BASE_IDX 6 // Base index for all subsequent functions
#else
#define BASE_IDX 0
#endif

DYNALIB_FN(BASE_IDX + 0, hal_usart, HAL_USART_Init, void(HAL_USART_Serial, Ring_Buffer*, Ring_Buffer*))
 8081ba4:	b508      	push	{r3, lr}
 8081ba6:	4b02      	ldr	r3, [pc, #8]	; (8081bb0 <HAL_USART_Init+0xc>)
 8081ba8:	681b      	ldr	r3, [r3, #0]
 8081baa:	699b      	ldr	r3, [r3, #24]
 8081bac:	9301      	str	r3, [sp, #4]
 8081bae:	bd08      	pop	{r3, pc}
 8081bb0:	080401c4 	.word	0x080401c4

08081bb4 <HAL_USART_Write_Data>:
DYNALIB_FN(BASE_IDX + 1, hal_usart, HAL_USART_Begin, void(HAL_USART_Serial, uint32_t))
DYNALIB_FN(BASE_IDX + 2, hal_usart, HAL_USART_End, void(HAL_USART_Serial))
DYNALIB_FN(BASE_IDX + 3, hal_usart, HAL_USART_Write_Data, uint32_t(HAL_USART_Serial, uint8_t))
 8081bb4:	b508      	push	{r3, lr}
 8081bb6:	4b02      	ldr	r3, [pc, #8]	; (8081bc0 <HAL_USART_Write_Data+0xc>)
 8081bb8:	681b      	ldr	r3, [r3, #0]
 8081bba:	6a5b      	ldr	r3, [r3, #36]	; 0x24
 8081bbc:	9301      	str	r3, [sp, #4]
 8081bbe:	bd08      	pop	{r3, pc}
 8081bc0:	080401c4 	.word	0x080401c4

08081bc4 <HAL_USART_Available_Data>:
DYNALIB_FN(BASE_IDX + 4, hal_usart, HAL_USART_Available_Data, int32_t(HAL_USART_Serial))
 8081bc4:	b508      	push	{r3, lr}
 8081bc6:	4b02      	ldr	r3, [pc, #8]	; (8081bd0 <HAL_USART_Available_Data+0xc>)
 8081bc8:	681b      	ldr	r3, [r3, #0]
 8081bca:	6a9b      	ldr	r3, [r3, #40]	; 0x28
 8081bcc:	9301      	str	r3, [sp, #4]
 8081bce:	bd08      	pop	{r3, pc}
 8081bd0:	080401c4 	.word	0x080401c4

08081bd4 <HAL_USART_Read_Data>:
DYNALIB_FN(BASE_IDX + 5, hal_usart, HAL_USART_Read_Data, int32_t(HAL_USART_Serial))
 8081bd4:	b508      	push	{r3, lr}
 8081bd6:	4b02      	ldr	r3, [pc, #8]	; (8081be0 <HAL_USART_Read_Data+0xc>)
 8081bd8:	681b      	ldr	r3, [r3, #0]
 8081bda:	6adb      	ldr	r3, [r3, #44]	; 0x2c
 8081bdc:	9301      	str	r3, [sp, #4]
 8081bde:	bd08      	pop	{r3, pc}
 8081be0:	080401c4 	.word	0x080401c4

08081be4 <HAL_USART_Peek_Data>:
DYNALIB_FN(BASE_IDX + 6, hal_usart, HAL_USART_Peek_Data, int32_t(HAL_USART_Serial))
 8081be4:	b508      	push	{r3, lr}
 8081be6:	4b02      	ldr	r3, [pc, #8]	; (8081bf0 <HAL_USART_Peek_Data+0xc>)
 8081be8:	681b      	ldr	r3, [r3, #0]
 8081bea:	6b1b      	ldr	r3, [r3, #48]	; 0x30
 8081bec:	9301      	str	r3, [sp, #4]
 8081bee:	bd08      	pop	{r3, pc}
 8081bf0:	080401c4 	.word	0x080401c4

08081bf4 <HAL_USART_Flush_Data>:
DYNALIB_FN(BASE_IDX + 7, hal_usart, HAL_USART_Flush_Data, void(HAL_USART_Serial))
 8081bf4:	b508      	push	{r3, lr}
 8081bf6:	4b02      	ldr	r3, [pc, #8]	; (8081c00 <HAL_USART_Flush_Data+0xc>)
 8081bf8:	681b      	ldr	r3, [r3, #0]
 8081bfa:	6b5b      	ldr	r3, [r3, #52]	; 0x34
 8081bfc:	9301      	str	r3, [sp, #4]
 8081bfe:	bd08      	pop	{r3, pc}
 8081c00:	080401c4 	.word	0x080401c4

08081c04 <HAL_USART_Is_Enabled>:
DYNALIB_FN(BASE_IDX + 8, hal_usart, HAL_USART_Is_Enabled, bool(HAL_USART_Serial))
 8081c04:	b508      	push	{r3, lr}
 8081c06:	4b02      	ldr	r3, [pc, #8]	; (8081c10 <HAL_USART_Is_Enabled+0xc>)
 8081c08:	681b      	ldr	r3, [r3, #0]
 8081c0a:	6b9b      	ldr	r3, [r3, #56]	; 0x38
 8081c0c:	9301      	str	r3, [sp, #4]
 8081c0e:	bd08      	pop	{r3, pc}
 8081c10:	080401c4 	.word	0x080401c4

08081c14 <HAL_USART_Available_Data_For_Write>:
DYNALIB_FN(BASE_IDX + 9, hal_usart, HAL_USART_Half_Duplex, void(HAL_USART_Serial, bool))
DYNALIB_FN(BASE_IDX + 10, hal_usart, HAL_USART_Available_Data_For_Write, int32_t(HAL_USART_Serial))
 8081c14:	b508      	push	{r3, lr}
 8081c16:	4b02      	ldr	r3, [pc, #8]	; (8081c20 <HAL_USART_Available_Data_For_Write+0xc>)
 8081c18:	681b      	ldr	r3, [r3, #0]
 8081c1a:	6c1b      	ldr	r3, [r3, #64]	; 0x40
 8081c1c:	9301      	str	r3, [sp, #4]
 8081c1e:	bd08      	pop	{r3, pc}
 8081c20:	080401c4 	.word	0x080401c4

08081c24 <HAL_I2C_Begin>:
#endif

DYNALIB_FN(BASE_IDX + 0, hal_i2c, HAL_I2C_Set_Speed, void(HAL_I2C_Interface, uint32_t, void*))
DYNALIB_FN(BASE_IDX + 1, hal_i2c, HAL_I2C_Enable_DMA_Mode, void(HAL_I2C_Interface, bool, void*))
DYNALIB_FN(BASE_IDX + 2, hal_i2c, HAL_I2C_Stretch_Clock, void(HAL_I2C_Interface, bool, void*))
DYNALIB_FN(BASE_IDX + 3, hal_i2c, HAL_I2C_Begin, void(HAL_I2C_Interface, I2C_Mode, uint8_t, void*))
 8081c24:	b508      	push	{r3, lr}
 8081c26:	4b02      	ldr	r3, [pc, #8]	; (8081c30 <HAL_I2C_Begin+0xc>)
 8081c28:	681b      	ldr	r3, [r3, #0]
 8081c2a:	68db      	ldr	r3, [r3, #12]
 8081c2c:	9301      	str	r3, [sp, #4]
 8081c2e:	bd08      	pop	{r3, pc}
 8081c30:	080401ac 	.word	0x080401ac

08081c34 <HAL_I2C_Begin_Transmission>:
DYNALIB_FN(BASE_IDX + 4, hal_i2c, HAL_I2C_End, void(HAL_I2C_Interface, void*))
DYNALIB_FN(BASE_IDX + 5, hal_i2c, HAL_I2C_Request_Data, uint32_t(HAL_I2C_Interface, uint8_t, uint8_t, uint8_t, void*))
DYNALIB_FN(BASE_IDX + 6, hal_i2c, HAL_I2C_Begin_Transmission, void(HAL_I2C_Interface, uint8_t, const HAL_I2C_Transmission_Config*))
 8081c34:	b508      	push	{r3, lr}
 8081c36:	4b02      	ldr	r3, [pc, #8]	; (8081c40 <HAL_I2C_Begin_Transmission+0xc>)
 8081c38:	681b      	ldr	r3, [r3, #0]
 8081c3a:	699b      	ldr	r3, [r3, #24]
 8081c3c:	9301      	str	r3, [sp, #4]
 8081c3e:	bd08      	pop	{r3, pc}
 8081c40:	080401ac 	.word	0x080401ac

08081c44 <HAL_I2C_End_Transmission>:
DYNALIB_FN(BASE_IDX + 7, hal_i2c, HAL_I2C_End_Transmission, uint8_t(HAL_I2C_Interface, uint8_t, void*))
 8081c44:	b508      	push	{r3, lr}
 8081c46:	4b02      	ldr	r3, [pc, #8]	; (8081c50 <HAL_I2C_End_Transmission+0xc>)
 8081c48:	681b      	ldr	r3, [r3, #0]
 8081c4a:	69db      	ldr	r3, [r3, #28]
 8081c4c:	9301      	str	r3, [sp, #4]
 8081c4e:	bd08      	pop	{r3, pc}
 8081c50:	080401ac 	.word	0x080401ac

08081c54 <HAL_I2C_Write_Data>:
DYNALIB_FN(BASE_IDX + 8, hal_i2c, HAL_I2C_Write_Data, uint32_t(HAL_I2C_Interface, uint8_t, void*))
 8081c54:	b508      	push	{r3, lr}
 8081c56:	4b02      	ldr	r3, [pc, #8]	; (8081c60 <HAL_I2C_Write_Data+0xc>)
 8081c58:	681b      	ldr	r3, [r3, #0]
 8081c5a:	6a1b      	ldr	r3, [r3, #32]
 8081c5c:	9301      	str	r3, [sp, #4]
 8081c5e:	bd08      	pop	{r3, pc}
 8081c60:	080401ac 	.word	0x080401ac

08081c64 <HAL_I2C_Available_Data>:
DYNALIB_FN(BASE_IDX + 9, hal_i2c, HAL_I2C_Available_Data, int32_t(HAL_I2C_Interface, void*))
 8081c64:	b508      	push	{r3, lr}
 8081c66:	4b02      	ldr	r3, [pc, #8]	; (8081c70 <HAL_I2C_Available_Data+0xc>)
 8081c68:	681b      	ldr	r3, [r3, #0]
 8081c6a:	6a5b      	ldr	r3, [r3, #36]	; 0x24
 8081c6c:	9301      	str	r3, [sp, #4]
 8081c6e:	bd08      	pop	{r3, pc}
 8081c70:	080401ac 	.word	0x080401ac

08081c74 <HAL_I2C_Read_Data>:
DYNALIB_FN(BASE_IDX + 10, hal_i2c, HAL_I2C_Read_Data, int32_t(HAL_I2C_Interface, void*))
 8081c74:	b508      	push	{r3, lr}
 8081c76:	4b02      	ldr	r3, [pc, #8]	; (8081c80 <HAL_I2C_Read_Data+0xc>)
 8081c78:	681b      	ldr	r3, [r3, #0]
 8081c7a:	6a9b      	ldr	r3, [r3, #40]	; 0x28
 8081c7c:	9301      	str	r3, [sp, #4]
 8081c7e:	bd08      	pop	{r3, pc}
 8081c80:	080401ac 	.word	0x080401ac

08081c84 <HAL_I2C_Peek_Data>:
DYNALIB_FN(BASE_IDX + 11, hal_i2c, HAL_I2C_Peek_Data, int32_t(HAL_I2C_Interface, void*))
 8081c84:	b508      	push	{r3, lr}
 8081c86:	4b02      	ldr	r3, [pc, #8]	; (8081c90 <HAL_I2C_Peek_Data+0xc>)
 8081c88:	681b      	ldr	r3, [r3, #0]
 8081c8a:	6adb      	ldr	r3, [r3, #44]	; 0x2c
 8081c8c:	9301      	str	r3, [sp, #4]
 8081c8e:	bd08      	pop	{r3, pc}
 8081c90:	080401ac 	.word	0x080401ac

08081c94 <HAL_I2C_Flush_Data>:
DYNALIB_FN(BASE_IDX + 12, hal_i2c, HAL_I2C_Flush_Data, void(HAL_I2C_Interface, void*))
 8081c94:	b508      	push	{r3, lr}
 8081c96:	4b02      	ldr	r3, [pc, #8]	; (8081ca0 <HAL_I2C_Flush_Data+0xc>)
 8081c98:	681b      	ldr	r3, [r3, #0]
 8081c9a:	6b1b      	ldr	r3, [r3, #48]	; 0x30
 8081c9c:	9301      	str	r3, [sp, #4]
 8081c9e:	bd08      	pop	{r3, pc}
 8081ca0:	080401ac 	.word	0x080401ac

08081ca4 <HAL_I2C_Is_Enabled>:
DYNALIB_FN(BASE_IDX + 13, hal_i2c, HAL_I2C_Is_Enabled, bool(HAL_I2C_Interface, void*))
 8081ca4:	b508      	push	{r3, lr}
 8081ca6:	4b02      	ldr	r3, [pc, #8]	; (8081cb0 <HAL_I2C_Is_Enabled+0xc>)
 8081ca8:	681b      	ldr	r3, [r3, #0]
 8081caa:	6b5b      	ldr	r3, [r3, #52]	; 0x34
 8081cac:	9301      	str	r3, [sp, #4]
 8081cae:	bd08      	pop	{r3, pc}
 8081cb0:	080401ac 	.word	0x080401ac

08081cb4 <HAL_I2C_Init>:
DYNALIB_FN(BASE_IDX + 14, hal_i2c, HAL_I2C_Set_Callback_On_Receive, void(HAL_I2C_Interface, void(*)(int), void*))
DYNALIB_FN(BASE_IDX + 15, hal_i2c, HAL_I2C_Set_Callback_On_Request, void(HAL_I2C_Interface, void(*)(void), void*))
DYNALIB_FN(BASE_IDX + 16, hal_i2c, HAL_I2C_Init, int(HAL_I2C_Interface, const HAL_I2C_Config*))
 8081cb4:	b508      	push	{r3, lr}
 8081cb6:	4b02      	ldr	r3, [pc, #8]	; (8081cc0 <HAL_I2C_Init+0xc>)
 8081cb8:	681b      	ldr	r3, [r3, #0]
 8081cba:	6c1b      	ldr	r3, [r3, #64]	; 0x40
 8081cbc:	9301      	str	r3, [sp, #4]
 8081cbe:	bd08      	pop	{r3, pc}
 8081cc0:	080401ac 	.word	0x080401ac

08081cc4 <HAL_I2C_Request_Data_Ex>:
DYNALIB_FN(BASE_IDX + 17, hal_i2c, HAL_I2C_Reset, uint8_t(HAL_I2C_Interface, uint32_t, void*))
DYNALIB_FN(BASE_IDX + 18, hal_i2c, HAL_I2C_Acquire, int32_t(HAL_I2C_Interface, void*))
DYNALIB_FN(BASE_IDX + 19, hal_i2c, HAL_I2C_Release, int32_t(HAL_I2C_Interface, void*))
DYNALIB_FN(BASE_IDX + 20, hal_i2c, HAL_I2C_Request_Data_Ex, int32_t(HAL_I2C_Interface, const HAL_I2C_Transmission_Config*, void*))
 8081cc4:	b508      	push	{r3, lr}
 8081cc6:	4b02      	ldr	r3, [pc, #8]	; (8081cd0 <HAL_I2C_Request_Data_Ex+0xc>)
 8081cc8:	681b      	ldr	r3, [r3, #0]
 8081cca:	6d1b      	ldr	r3, [r3, #80]	; 0x50
 8081ccc:	9301      	str	r3, [sp, #4]
 8081cce:	bd08      	pop	{r3, pc}
 8081cd0:	080401ac 	.word	0x080401ac

08081cd4 <cellular_credentials_set>:
DYNALIB_FN(5, hal_cellular, cellular_pdp_deactivate, cellular_result_t(void*))
DYNALIB_FN(6, hal_cellular, cellular_gprs_attach, cellular_result_t(CellularCredentials*, void*))
DYNALIB_FN(7, hal_cellular, cellular_gprs_detach, cellular_result_t(void*))
DYNALIB_FN(8, hal_cellular, cellular_fetch_ipconfig, cellular_result_t(CellularConfig*, void*))
DYNALIB_FN(9, hal_cellular, cellular_device_info, cellular_result_t(CellularDevice*, void*))
DYNALIB_FN(10, hal_cellular, cellular_credentials_set, cellular_result_t(const char*, const char*, const char*, void*))
 8081cd4:	b508      	push	{r3, lr}
 8081cd6:	4b02      	ldr	r3, [pc, #8]	; (8081ce0 <cellular_credentials_set+0xc>)
 8081cd8:	681b      	ldr	r3, [r3, #0]
 8081cda:	6a9b      	ldr	r3, [r3, #40]	; 0x28
 8081cdc:	9301      	str	r3, [sp, #4]
 8081cde:	bd08      	pop	{r3, pc}
 8081ce0:	08060020 	.word	0x08060020

08081ce4 <inet_gethostbyname>:
DYNALIB_FN(11, hal_cellular, cellular_credentials_get, CellularCredentials*(void*))
DYNALIB_FN(12, hal_cellular, cellular_sim_ready, bool(void*))
DYNALIB_FN(13, hal_cellular, cellular_cancel, void(bool, bool, void*))
DYNALIB_FN(14, hal_cellular, HAL_NET_SetNetWatchDog, uint32_t(uint32_t))
DYNALIB_FN(15, hal_cellular, inet_gethostbyname, int(const char*, uint16_t, HAL_IPAddress*, network_interface_t, void*))
 8081ce4:	b508      	push	{r3, lr}
 8081ce6:	4b02      	ldr	r3, [pc, #8]	; (8081cf0 <inet_gethostbyname+0xc>)
 8081ce8:	681b      	ldr	r3, [r3, #0]
 8081cea:	6bdb      	ldr	r3, [r3, #60]	; 0x3c
 8081cec:	9301      	str	r3, [sp, #4]
 8081cee:	bd08      	pop	{r3, pc}
 8081cf0:	08060020 	.word	0x08060020

08081cf4 <cellular_command>:
DYNALIB_FN(16, hal_cellular, inet_ping, int(const HAL_IPAddress*, network_interface_t, uint8_t, void*))
DYNALIB_FN(17, hal_cellular, cellular_signal, cellular_result_t(CellularSignalHal*, cellular_signal_t*))
DYNALIB_FN(18, hal_cellular, cellular_command, cellular_result_t(_CALLBACKPTR_MDM, void*, system_tick_t, const char*, ...))
 8081cf4:	b508      	push	{r3, lr}
 8081cf6:	4b02      	ldr	r3, [pc, #8]	; (8081d00 <cellular_command+0xc>)
 8081cf8:	681b      	ldr	r3, [r3, #0]
 8081cfa:	6c9b      	ldr	r3, [r3, #72]	; 0x48
 8081cfc:	9301      	str	r3, [sp, #4]
 8081cfe:	bd08      	pop	{r3, pc}
 8081d00:	08060020 	.word	0x08060020

08081d04 <HAL_USB_USART_Init>:
#endif

DYNALIB_BEGIN(hal_usb)

#ifdef USB_CDC_ENABLE
DYNALIB_FN(0, hal_usb, HAL_USB_USART_Init, void(HAL_USB_USART_Serial, const HAL_USB_USART_Config*))
 8081d04:	b508      	push	{r3, lr}
 8081d06:	4b02      	ldr	r3, [pc, #8]	; (8081d10 <HAL_USB_USART_Init+0xc>)
 8081d08:	681b      	ldr	r3, [r3, #0]
 8081d0a:	681b      	ldr	r3, [r3, #0]
 8081d0c:	9301      	str	r3, [sp, #4]
 8081d0e:	bd08      	pop	{r3, pc}
 8081d10:	0806001c 	.word	0x0806001c

08081d14 <HAL_USB_USART_Available_Data>:
DYNALIB_FN(1, hal_usb, HAL_USB_USART_Begin, void(HAL_USB_USART_Serial, uint32_t, void *))
DYNALIB_FN(2, hal_usb, HAL_USB_USART_End, void(HAL_USB_USART_Serial))
DYNALIB_FN(3, hal_usb, HAL_USB_USART_Baud_Rate, unsigned int(HAL_USB_USART_Serial))
DYNALIB_FN(4, hal_usb, HAL_USB_USART_Available_Data, int32_t(HAL_USB_USART_Serial))
 8081d14:	b508      	push	{r3, lr}
 8081d16:	4b02      	ldr	r3, [pc, #8]	; (8081d20 <HAL_USB_USART_Available_Data+0xc>)
 8081d18:	681b      	ldr	r3, [r3, #0]
 8081d1a:	691b      	ldr	r3, [r3, #16]
 8081d1c:	9301      	str	r3, [sp, #4]
 8081d1e:	bd08      	pop	{r3, pc}
 8081d20:	0806001c 	.word	0x0806001c

08081d24 <HAL_USB_USART_Available_Data_For_Write>:
DYNALIB_FN(5, hal_usb, HAL_USB_USART_Available_Data_For_Write, int32_t(HAL_USB_USART_Serial))
 8081d24:	b508      	push	{r3, lr}
 8081d26:	4b02      	ldr	r3, [pc, #8]	; (8081d30 <HAL_USB_USART_Available_Data_For_Write+0xc>)
 8081d28:	681b      	ldr	r3, [r3, #0]
 8081d2a:	695b      	ldr	r3, [r3, #20]
 8081d2c:	9301      	str	r3, [sp, #4]
 8081d2e:	bd08      	pop	{r3, pc}
 8081d30:	0806001c 	.word	0x0806001c

08081d34 <HAL_USB_USART_Receive_Data>:
DYNALIB_FN(6, hal_usb, HAL_USB_USART_Receive_Data, int32_t(HAL_USB_USART_Serial, uint8_t))
 8081d34:	b508      	push	{r3, lr}
 8081d36:	4b02      	ldr	r3, [pc, #8]	; (8081d40 <HAL_USB_USART_Receive_Data+0xc>)
 8081d38:	681b      	ldr	r3, [r3, #0]
 8081d3a:	699b      	ldr	r3, [r3, #24]
 8081d3c:	9301      	str	r3, [sp, #4]
 8081d3e:	bd08      	pop	{r3, pc}
 8081d40:	0806001c 	.word	0x0806001c

08081d44 <HAL_USB_USART_Send_Data>:
DYNALIB_FN(7, hal_usb, HAL_USB_USART_Send_Data, int32_t(HAL_USB_USART_Serial, uint8_t))
 8081d44:	b508      	push	{r3, lr}
 8081d46:	4b02      	ldr	r3, [pc, #8]	; (8081d50 <HAL_USB_USART_Send_Data+0xc>)
 8081d48:	681b      	ldr	r3, [r3, #0]
 8081d4a:	69db      	ldr	r3, [r3, #28]
 8081d4c:	9301      	str	r3, [sp, #4]
 8081d4e:	bd08      	pop	{r3, pc}
 8081d50:	0806001c 	.word	0x0806001c

08081d54 <HAL_USB_USART_Flush_Data>:
DYNALIB_FN(8, hal_usb, HAL_USB_USART_Flush_Data, void(HAL_USB_USART_Serial))
 8081d54:	b508      	push	{r3, lr}
 8081d56:	4b02      	ldr	r3, [pc, #8]	; (8081d60 <HAL_USB_USART_Flush_Data+0xc>)
 8081d58:	681b      	ldr	r3, [r3, #0]
 8081d5a:	6a1b      	ldr	r3, [r3, #32]
 8081d5c:	9301      	str	r3, [sp, #4]
 8081d5e:	bd08      	pop	{r3, pc}
 8081d60:	0806001c 	.word	0x0806001c

08081d64 <log_message_v>:
DYNALIB_FN(17, services, LED_RGB_SetChangeHandler, void(led_update_handler_fn, void*))
DYNALIB_FN(18, services, log_print_direct_, void(int, void*, const char*, ...)) // Deprecated
DYNALIB_FN(19, services, LED_GetColor, uint32_t(uint32_t, void*))

DYNALIB_FN(20, services, log_message, void(int, const char*, LogAttributes*, void*, const char*, ...))
DYNALIB_FN(21, services, log_message_v, void(int, const char*, LogAttributes*, void*, const char*, va_list))
 8081d64:	b508      	push	{r3, lr}
 8081d66:	4b02      	ldr	r3, [pc, #8]	; (8081d70 <log_message_v+0xc>)
 8081d68:	681b      	ldr	r3, [r3, #0]
 8081d6a:	6d5b      	ldr	r3, [r3, #84]	; 0x54
 8081d6c:	9301      	str	r3, [sp, #4]
 8081d6e:	bd08      	pop	{r3, pc}
 8081d70:	080201a0 	.word	0x080201a0

08081d74 <system_mode>:
#include "system_power.h"
#endif

DYNALIB_BEGIN(system)

DYNALIB_FN(0, system, system_mode, System_Mode_TypeDef(void))
 8081d74:	b508      	push	{r3, lr}
 8081d76:	4b02      	ldr	r3, [pc, #8]	; (8081d80 <system_mode+0xc>)
 8081d78:	681b      	ldr	r3, [r3, #0]
 8081d7a:	681b      	ldr	r3, [r3, #0]
 8081d7c:	9301      	str	r3, [sp, #4]
 8081d7e:	bd08      	pop	{r3, pc}
 8081d80:	080401a4 	.word	0x080401a4

08081d84 <set_system_mode>:
DYNALIB_FN(1, system, set_system_mode, void(System_Mode_TypeDef))
 8081d84:	b508      	push	{r3, lr}
 8081d86:	4b02      	ldr	r3, [pc, #8]	; (8081d90 <set_system_mode+0xc>)
 8081d88:	681b      	ldr	r3, [r3, #0]
 8081d8a:	685b      	ldr	r3, [r3, #4]
 8081d8c:	9301      	str	r3, [sp, #4]
 8081d8e:	bd08      	pop	{r3, pc}
 8081d90:	080401a4 	.word	0x080401a4

08081d94 <system_delay_ms>:

DYNALIB_FN(2, system, set_ymodem_serial_flash_update_handler, void(ymodem_serial_flash_update_handler))
DYNALIB_FN(3, system, system_firmwareUpdate, bool(Stream*, void*))
DYNALIB_FN(4, system, system_fileTransfer, bool(system_file_transfer_t*, void*))

DYNALIB_FN(5, system, system_delay_ms, void(unsigned long, bool))
 8081d94:	b508      	push	{r3, lr}
 8081d96:	4b02      	ldr	r3, [pc, #8]	; (8081da0 <system_delay_ms+0xc>)
 8081d98:	681b      	ldr	r3, [r3, #0]
 8081d9a:	695b      	ldr	r3, [r3, #20]
 8081d9c:	9301      	str	r3, [sp, #4]
 8081d9e:	bd08      	pop	{r3, pc}
 8081da0:	080401a4 	.word	0x080401a4

08081da4 <application_thread_current>:
DYNALIB_FN(15, system, system_get_flag, int(system_flag_t, uint8_t*, void*))
DYNALIB_FN(16, system, Spark_Prepare_For_Firmware_Update, int(FileTransfer::Descriptor&, uint32_t, void*))
DYNALIB_FN(17, system, Spark_Save_Firmware_Chunk, int(FileTransfer::Descriptor&, const uint8_t*, void*))
DYNALIB_FN(18, system, Spark_Finish_Firmware_Update, int(FileTransfer::Descriptor&, uint32_t, void*))

DYNALIB_FN(19, system, application_thread_current, uint8_t(void*))
 8081da4:	b508      	push	{r3, lr}
 8081da6:	4b02      	ldr	r3, [pc, #8]	; (8081db0 <application_thread_current+0xc>)
 8081da8:	681b      	ldr	r3, [r3, #0]
 8081daa:	6cdb      	ldr	r3, [r3, #76]	; 0x4c
 8081dac:	9301      	str	r3, [sp, #4]
 8081dae:	bd08      	pop	{r3, pc}
 8081db0:	080401a4 	.word	0x080401a4

08081db4 <application_thread_invoke>:
DYNALIB_FN(20, system, system_thread_current, uint8_t(void*))
DYNALIB_FN(21, system, application_thread_invoke, uint8_t(void(*)(void*), void*, void*))
 8081db4:	b508      	push	{r3, lr}
 8081db6:	4b02      	ldr	r3, [pc, #8]	; (8081dc0 <application_thread_invoke+0xc>)
 8081db8:	681b      	ldr	r3, [r3, #0]
 8081dba:	6d5b      	ldr	r3, [r3, #84]	; 0x54
 8081dbc:	9301      	str	r3, [sp, #4]
 8081dbe:	bd08      	pop	{r3, pc}
 8081dc0:	080401a4 	.word	0x080401a4

08081dc4 <system_thread_get_state>:
DYNALIB_FN(22, system, system_thread_get_state, spark::feature::State(void*))
 8081dc4:	b508      	push	{r3, lr}
 8081dc6:	4b02      	ldr	r3, [pc, #8]	; (8081dd0 <system_thread_get_state+0xc>)
 8081dc8:	681b      	ldr	r3, [r3, #0]
 8081dca:	6d9b      	ldr	r3, [r3, #88]	; 0x58
 8081dcc:	9301      	str	r3, [sp, #4]
 8081dce:	bd08      	pop	{r3, pc}
 8081dd0:	080401a4 	.word	0x080401a4

08081dd4 <system_ctrl_set_app_request_handler>:
DYNALIB_FN(BASE_IDX + 6, system, led_pattern_period, uint16_t(int, int, void*))
DYNALIB_FN(BASE_IDX + 7, system, system_set_tester_handlers, int(system_tester_handlers_t*, void*))
DYNALIB_FN(BASE_IDX + 8, system, system_format_diag_data, int(const uint16_t*, size_t, unsigned, appender_fn, void*, void*))

// Control requests
DYNALIB_FN(BASE_IDX + 9, system, system_ctrl_set_app_request_handler, int(ctrl_request_handler_fn, void*))
 8081dd4:	b508      	push	{r3, lr}
 8081dd6:	4b03      	ldr	r3, [pc, #12]	; (8081de4 <system_ctrl_set_app_request_handler+0x10>)
 8081dd8:	681b      	ldr	r3, [r3, #0]
 8081dda:	f8d3 3090 	ldr.w	r3, [r3, #144]	; 0x90
 8081dde:	9301      	str	r3, [sp, #4]
 8081de0:	bd08      	pop	{r3, pc}
 8081de2:	0000      	.short	0x0000
 8081de4:	080401a4 	.word	0x080401a4

08081de8 <system_ctrl_set_result>:
DYNALIB_FN(BASE_IDX + 10, system, system_ctrl_alloc_reply_data, int(ctrl_request*, size_t, void*))
DYNALIB_FN(BASE_IDX + 11, system, system_ctrl_free_request_data, void(ctrl_request*, void*))
DYNALIB_FN(BASE_IDX + 12, system, system_ctrl_set_result, void(ctrl_request*, int, ctrl_completion_handler_fn, void*, void*))
 8081de8:	b508      	push	{r3, lr}
 8081dea:	4b03      	ldr	r3, [pc, #12]	; (8081df8 <system_ctrl_set_result+0x10>)
 8081dec:	681b      	ldr	r3, [r3, #0]
 8081dee:	f8d3 309c 	ldr.w	r3, [r3, #156]	; 0x9c
 8081df2:	9301      	str	r3, [sp, #4]
 8081df4:	bd08      	pop	{r3, pc}
 8081df6:	0000      	.short	0x0000
 8081df8:	080401a4 	.word	0x080401a4

08081dfc <network_connect>:
#endif

DYNALIB_BEGIN(system_net)

DYNALIB_FN(0, system_net, network_config, const void*(network_handle_t, uint32_t, void*))
DYNALIB_FN(1, system_net, network_connect, void(network_handle_t, uint32_t, uint32_t, void*))
 8081dfc:	b508      	push	{r3, lr}
 8081dfe:	4b02      	ldr	r3, [pc, #8]	; (8081e08 <network_connect+0xc>)
 8081e00:	681b      	ldr	r3, [r3, #0]
 8081e02:	685b      	ldr	r3, [r3, #4]
 8081e04:	9301      	str	r3, [sp, #4]
 8081e06:	bd08      	pop	{r3, pc}
 8081e08:	080401c8 	.word	0x080401c8

08081e0c <network_connecting>:
DYNALIB_FN(2, system_net, network_connecting, bool(network_handle_t, uint32_t, void*))
 8081e0c:	b508      	push	{r3, lr}
 8081e0e:	4b02      	ldr	r3, [pc, #8]	; (8081e18 <network_connecting+0xc>)
 8081e10:	681b      	ldr	r3, [r3, #0]
 8081e12:	689b      	ldr	r3, [r3, #8]
 8081e14:	9301      	str	r3, [sp, #4]
 8081e16:	bd08      	pop	{r3, pc}
 8081e18:	080401c8 	.word	0x080401c8

08081e1c <network_disconnect>:
DYNALIB_FN(3, system_net, network_disconnect, void(network_handle_t, uint32_t, void*))
 8081e1c:	b508      	push	{r3, lr}
 8081e1e:	4b02      	ldr	r3, [pc, #8]	; (8081e28 <network_disconnect+0xc>)
 8081e20:	681b      	ldr	r3, [r3, #0]
 8081e22:	68db      	ldr	r3, [r3, #12]
 8081e24:	9301      	str	r3, [sp, #4]
 8081e26:	bd08      	pop	{r3, pc}
 8081e28:	080401c8 	.word	0x080401c8

08081e2c <network_ready>:
DYNALIB_FN(4, system_net, network_ready, bool(network_handle_t, uint32_t, void*))
 8081e2c:	b508      	push	{r3, lr}
 8081e2e:	4b02      	ldr	r3, [pc, #8]	; (8081e38 <network_ready+0xc>)
 8081e30:	681b      	ldr	r3, [r3, #0]
 8081e32:	691b      	ldr	r3, [r3, #16]
 8081e34:	9301      	str	r3, [sp, #4]
 8081e36:	bd08      	pop	{r3, pc}
 8081e38:	080401c8 	.word	0x080401c8

08081e3c <network_on>:
DYNALIB_FN(5, system_net, network_on, void(network_handle_t, uint32_t, uint32_t, void*))
 8081e3c:	b508      	push	{r3, lr}
 8081e3e:	4b02      	ldr	r3, [pc, #8]	; (8081e48 <network_on+0xc>)
 8081e40:	681b      	ldr	r3, [r3, #0]
 8081e42:	695b      	ldr	r3, [r3, #20]
 8081e44:	9301      	str	r3, [sp, #4]
 8081e46:	bd08      	pop	{r3, pc}
 8081e48:	080401c8 	.word	0x080401c8

08081e4c <network_off>:
DYNALIB_FN(6, system_net, network_off, void(network_handle_t, uint32_t, uint32_t, void*))
 8081e4c:	b508      	push	{r3, lr}
 8081e4e:	4b02      	ldr	r3, [pc, #8]	; (8081e58 <network_off+0xc>)
 8081e50:	681b      	ldr	r3, [r3, #0]
 8081e52:	699b      	ldr	r3, [r3, #24]
 8081e54:	9301      	str	r3, [sp, #4]
 8081e56:	bd08      	pop	{r3, pc}
 8081e58:	080401c8 	.word	0x080401c8

08081e5c <network_listen>:
DYNALIB_FN(7, system_net, network_listen, void(network_handle_t, uint32_t, void*))
 8081e5c:	b508      	push	{r3, lr}
 8081e5e:	4b02      	ldr	r3, [pc, #8]	; (8081e68 <network_listen+0xc>)
 8081e60:	681b      	ldr	r3, [r3, #0]
 8081e62:	69db      	ldr	r3, [r3, #28]
 8081e64:	9301      	str	r3, [sp, #4]
 8081e66:	bd08      	pop	{r3, pc}
 8081e68:	080401c8 	.word	0x080401c8

08081e6c <network_listening>:
DYNALIB_FN(8, system_net, network_listening, bool(network_handle_t, uint32_t, void*))
 8081e6c:	b508      	push	{r3, lr}
 8081e6e:	4b02      	ldr	r3, [pc, #8]	; (8081e78 <network_listening+0xc>)
 8081e70:	681b      	ldr	r3, [r3, #0]
 8081e72:	6a1b      	ldr	r3, [r3, #32]
 8081e74:	9301      	str	r3, [sp, #4]
 8081e76:	bd08      	pop	{r3, pc}
 8081e78:	080401c8 	.word	0x080401c8

08081e7c <network_set_listen_timeout>:
DYNALIB_FN(9, system_net, network_has_credentials, bool(network_handle_t, uint32_t, void*))
DYNALIB_FN(10, system_net, network_set_credentials, int(network_handle_t, uint32_t, NetworkCredentials*, void*))
DYNALIB_FN(11, system_net, network_clear_credentials, bool(network_handle_t, uint32_t, NetworkCredentials*, void*))
DYNALIB_FN(12, system_net, network_set_listen_timeout, void(network_handle_t, uint16_t, void*))
 8081e7c:	b508      	push	{r3, lr}
 8081e7e:	4b02      	ldr	r3, [pc, #8]	; (8081e88 <network_set_listen_timeout+0xc>)
 8081e80:	681b      	ldr	r3, [r3, #0]
 8081e82:	6b1b      	ldr	r3, [r3, #48]	; 0x30
 8081e84:	9301      	str	r3, [sp, #4]
 8081e86:	bd08      	pop	{r3, pc}
 8081e88:	080401c8 	.word	0x080401c8

08081e8c <network_get_listen_timeout>:
DYNALIB_FN(13, system_net, network_get_listen_timeout, uint16_t(network_handle_t, uint32_t, void*))
 8081e8c:	b508      	push	{r3, lr}
 8081e8e:	4b02      	ldr	r3, [pc, #8]	; (8081e98 <network_get_listen_timeout+0xc>)
 8081e90:	681b      	ldr	r3, [r3, #0]
 8081e92:	6b5b      	ldr	r3, [r3, #52]	; 0x34
 8081e94:	9301      	str	r3, [sp, #4]
 8081e96:	bd08      	pop	{r3, pc}
 8081e98:	080401c8 	.word	0x080401c8

08081e9c <spark_function>:


DYNALIB_BEGIN(system_cloud)

DYNALIB_FN(0, system_cloud, spark_variable, bool(const char*, const void*, Spark_Data_TypeDef, spark_variable_t*))
DYNALIB_FN(1, system_cloud, spark_function, bool(const char*, p_user_function_int_str_t, void*))
 8081e9c:	b508      	push	{r3, lr}
 8081e9e:	4b02      	ldr	r3, [pc, #8]	; (8081ea8 <spark_function+0xc>)
 8081ea0:	681b      	ldr	r3, [r3, #0]
 8081ea2:	685b      	ldr	r3, [r3, #4]
 8081ea4:	9301      	str	r3, [sp, #4]
 8081ea6:	bd08      	pop	{r3, pc}
 8081ea8:	080401cc 	.word	0x080401cc

08081eac <spark_process>:
DYNALIB_FN(2, system_cloud, spark_process, void(void))
 8081eac:	b508      	push	{r3, lr}
 8081eae:	4b02      	ldr	r3, [pc, #8]	; (8081eb8 <spark_process+0xc>)
 8081eb0:	681b      	ldr	r3, [r3, #0]
 8081eb2:	689b      	ldr	r3, [r3, #8]
 8081eb4:	9301      	str	r3, [sp, #4]
 8081eb6:	bd08      	pop	{r3, pc}
 8081eb8:	080401cc 	.word	0x080401cc

08081ebc <spark_cloud_flag_connect>:
DYNALIB_FN(3, system_cloud, spark_cloud_flag_connect, void(void))
 8081ebc:	b508      	push	{r3, lr}
 8081ebe:	4b02      	ldr	r3, [pc, #8]	; (8081ec8 <spark_cloud_flag_connect+0xc>)
 8081ec0:	681b      	ldr	r3, [r3, #0]
 8081ec2:	68db      	ldr	r3, [r3, #12]
 8081ec4:	9301      	str	r3, [sp, #4]
 8081ec6:	bd08      	pop	{r3, pc}
 8081ec8:	080401cc 	.word	0x080401cc

08081ecc <spark_cloud_flag_connected>:
DYNALIB_FN(4, system_cloud, spark_cloud_flag_disconnect, void(void))
DYNALIB_FN(5, system_cloud, spark_cloud_flag_connected, bool(void))
 8081ecc:	b508      	push	{r3, lr}
 8081ece:	4b02      	ldr	r3, [pc, #8]	; (8081ed8 <spark_cloud_flag_connected+0xc>)
 8081ed0:	681b      	ldr	r3, [r3, #0]
 8081ed2:	695b      	ldr	r3, [r3, #20]
 8081ed4:	9301      	str	r3, [sp, #4]
 8081ed6:	bd08      	pop	{r3, pc}
 8081ed8:	080401cc 	.word	0x080401cc

08081edc <spark_send_event>:
DYNALIB_FN(6, system_cloud, system_cloud_protocol_instance, ProtocolFacade*(void))
DYNALIB_FN(7, system_cloud, spark_deviceID, String(void))
DYNALIB_FN(8, system_cloud, spark_send_event, bool(const char*, const char*, int, uint32_t, void*))
 8081edc:	b508      	push	{r3, lr}
 8081ede:	4b02      	ldr	r3, [pc, #8]	; (8081ee8 <spark_send_event+0xc>)
 8081ee0:	681b      	ldr	r3, [r3, #0]
 8081ee2:	6a1b      	ldr	r3, [r3, #32]
 8081ee4:	9301      	str	r3, [sp, #4]
 8081ee6:	bd08      	pop	{r3, pc}
 8081ee8:	080401cc 	.word	0x080401cc

08081eec <spark_subscribe>:
DYNALIB_FN(9, system_cloud, spark_subscribe, bool(const char*, EventHandler, void*, Spark_Subscription_Scope_TypeDef, const char*, void*))
 8081eec:	b508      	push	{r3, lr}
 8081eee:	4b02      	ldr	r3, [pc, #8]	; (8081ef8 <spark_subscribe+0xc>)
 8081ef0:	681b      	ldr	r3, [r3, #0]
 8081ef2:	6a5b      	ldr	r3, [r3, #36]	; 0x24
 8081ef4:	9301      	str	r3, [sp, #4]
 8081ef6:	bd08      	pop	{r3, pc}
 8081ef8:	080401cc 	.word	0x080401cc

08081efc <spark_sync_time_pending>:
DYNALIB_FN(10, system_cloud, spark_unsubscribe, void(void*))
DYNALIB_FN(11, system_cloud, spark_sync_time, bool(void*))
DYNALIB_FN(12, system_cloud, spark_sync_time_pending, bool(void*))
 8081efc:	b508      	push	{r3, lr}
 8081efe:	4b02      	ldr	r3, [pc, #8]	; (8081f08 <spark_sync_time_pending+0xc>)
 8081f00:	681b      	ldr	r3, [r3, #0]
 8081f02:	6b1b      	ldr	r3, [r3, #48]	; 0x30
 8081f04:	9301      	str	r3, [sp, #4]
 8081f06:	bd08      	pop	{r3, pc}
 8081f08:	080401cc 	.word	0x080401cc

08081f0c <spark_set_connection_property>:
DYNALIB_FN(13, system_cloud, spark_sync_time_last, system_tick_t(time_t*, void*))
DYNALIB_FN(14, system_cloud, spark_set_connection_property, int(unsigned, unsigned, particle::protocol::connection_properties_t*, void*))
 8081f0c:	b508      	push	{r3, lr}
 8081f0e:	4b02      	ldr	r3, [pc, #8]	; (8081f18 <spark_set_connection_property+0xc>)
 8081f10:	681b      	ldr	r3, [r3, #0]
 8081f12:	6b9b      	ldr	r3, [r3, #56]	; 0x38
 8081f14:	9301      	str	r3, [sp, #4]
 8081f16:	bd08      	pop	{r3, pc}
 8081f18:	080401cc 	.word	0x080401cc

08081f1c <spark_set_random_seed_from_cloud_handler>:
DYNALIB_FN(15, system_cloud, spark_set_random_seed_from_cloud_handler, int(void (*handler)(unsigned int), void*))
 8081f1c:	b508      	push	{r3, lr}
 8081f1e:	4b02      	ldr	r3, [pc, #8]	; (8081f28 <spark_set_random_seed_from_cloud_handler+0xc>)
 8081f20:	681b      	ldr	r3, [r3, #0]
 8081f22:	6bdb      	ldr	r3, [r3, #60]	; 0x3c
 8081f24:	9301      	str	r3, [sp, #4]
 8081f26:	bd08      	pop	{r3, pc}
 8081f28:	080401cc 	.word	0x080401cc

08081f2c <malloc>:
#include <assert.h>
#endif

DYNALIB_BEGIN(rt)

DYNALIB_FN(0, rt, malloc, void*(size_t))
 8081f2c:	b508      	push	{r3, lr}
 8081f2e:	4b02      	ldr	r3, [pc, #8]	; (8081f38 <malloc+0xc>)
 8081f30:	681b      	ldr	r3, [r3, #0]
 8081f32:	681b      	ldr	r3, [r3, #0]
 8081f34:	9301      	str	r3, [sp, #4]
 8081f36:	bd08      	pop	{r3, pc}
 8081f38:	080401a0 	.word	0x080401a0

08081f3c <free>:
DYNALIB_FN(1, rt, free, void(void*))
 8081f3c:	b508      	push	{r3, lr}
 8081f3e:	4b02      	ldr	r3, [pc, #8]	; (8081f48 <free+0xc>)
 8081f40:	681b      	ldr	r3, [r3, #0]
 8081f42:	685b      	ldr	r3, [r3, #4]
 8081f44:	9301      	str	r3, [sp, #4]
 8081f46:	bd08      	pop	{r3, pc}
 8081f48:	080401a0 	.word	0x080401a0

08081f4c <realloc>:
DYNALIB_FN(2, rt, realloc, void*(void*, size_t))
 8081f4c:	b508      	push	{r3, lr}
 8081f4e:	4b02      	ldr	r3, [pc, #8]	; (8081f58 <realloc+0xc>)
 8081f50:	681b      	ldr	r3, [r3, #0]
 8081f52:	689b      	ldr	r3, [r3, #8]
 8081f54:	9301      	str	r3, [sp, #4]
 8081f56:	bd08      	pop	{r3, pc}
 8081f58:	080401a0 	.word	0x080401a0

08081f5c <siprintf>:
DYNALIB_FN(3, rt, sprintf, int(char*, const char*, ...))
DYNALIB_FN(4, rt, siprintf, int(char*, const char*, ...))
 8081f5c:	b508      	push	{r3, lr}
 8081f5e:	4b02      	ldr	r3, [pc, #8]	; (8081f68 <siprintf+0xc>)
 8081f60:	681b      	ldr	r3, [r3, #0]
 8081f62:	691b      	ldr	r3, [r3, #16]
 8081f64:	9301      	str	r3, [sp, #4]
 8081f66:	bd08      	pop	{r3, pc}
 8081f68:	080401a0 	.word	0x080401a0

08081f6c <sscanf>:
DYNALIB_FN(5, rt, sscanf, int(const char*, const char*, ...))
 8081f6c:	b508      	push	{r3, lr}
 8081f6e:	4b02      	ldr	r3, [pc, #8]	; (8081f78 <sscanf+0xc>)
 8081f70:	681b      	ldr	r3, [r3, #0]
 8081f72:	695b      	ldr	r3, [r3, #20]
 8081f74:	9301      	str	r3, [sp, #4]
 8081f76:	bd08      	pop	{r3, pc}
 8081f78:	080401a0 	.word	0x080401a0

08081f7c <siscanf>:
DYNALIB_FN(6, rt, siscanf, int(const char*, const char*, ...))
 8081f7c:	b508      	push	{r3, lr}
 8081f7e:	4b02      	ldr	r3, [pc, #8]	; (8081f88 <siscanf+0xc>)
 8081f80:	681b      	ldr	r3, [r3, #0]
 8081f82:	699b      	ldr	r3, [r3, #24]
 8081f84:	9301      	str	r3, [sp, #4]
 8081f86:	bd08      	pop	{r3, pc}
 8081f88:	080401a0 	.word	0x080401a0

08081f8c <snprintf>:
DYNALIB_FN(7, rt, snprintf, int(char*, size_t, const char*, ...))
 8081f8c:	b508      	push	{r3, lr}
 8081f8e:	4b02      	ldr	r3, [pc, #8]	; (8081f98 <snprintf+0xc>)
 8081f90:	681b      	ldr	r3, [r3, #0]
 8081f92:	69db      	ldr	r3, [r3, #28]
 8081f94:	9301      	str	r3, [sp, #4]
 8081f96:	bd08      	pop	{r3, pc}
 8081f98:	080401a0 	.word	0x080401a0

08081f9c <sniprintf>:
DYNALIB_FN(8, rt, sniprintf, int(char*, size_t, const char*, ...))
 8081f9c:	b508      	push	{r3, lr}
 8081f9e:	4b02      	ldr	r3, [pc, #8]	; (8081fa8 <sniprintf+0xc>)
 8081fa0:	681b      	ldr	r3, [r3, #0]
 8081fa2:	6a1b      	ldr	r3, [r3, #32]
 8081fa4:	9301      	str	r3, [sp, #4]
 8081fa6:	bd08      	pop	{r3, pc}
 8081fa8:	080401a0 	.word	0x080401a0

08081fac <vsnprintf>:
DYNALIB_FN(9, rt, vsnprintf, int(char*, size_t, const char*, va_list))
 8081fac:	b508      	push	{r3, lr}
 8081fae:	4b02      	ldr	r3, [pc, #8]	; (8081fb8 <vsnprintf+0xc>)
 8081fb0:	681b      	ldr	r3, [r3, #0]
 8081fb2:	6a5b      	ldr	r3, [r3, #36]	; 0x24
 8081fb4:	9301      	str	r3, [sp, #4]
 8081fb6:	bd08      	pop	{r3, pc}
 8081fb8:	080401a0 	.word	0x080401a0

08081fbc <abort>:
DYNALIB_FN(10, rt, vsniprintf, int(char*, size_t, const char*, va_list))
DYNALIB_FN(11, rt, abort, void(void))
 8081fbc:	b508      	push	{r3, lr}
 8081fbe:	4b02      	ldr	r3, [pc, #8]	; (8081fc8 <abort+0xc>)
 8081fc0:	681b      	ldr	r3, [r3, #0]
 8081fc2:	6adb      	ldr	r3, [r3, #44]	; 0x2c
 8081fc4:	9301      	str	r3, [sp, #4]
 8081fc6:	bd08      	pop	{r3, pc}
 8081fc8:	080401a0 	.word	0x080401a0

08081fcc <_malloc_r>:
DYNALIB_FN(12, rt, _malloc_r, void*(struct _reent*, size_t))
 8081fcc:	b508      	push	{r3, lr}
 8081fce:	4b02      	ldr	r3, [pc, #8]	; (8081fd8 <_malloc_r+0xc>)
 8081fd0:	681b      	ldr	r3, [r3, #0]
 8081fd2:	6b1b      	ldr	r3, [r3, #48]	; 0x30
 8081fd4:	9301      	str	r3, [sp, #4]
 8081fd6:	bd08      	pop	{r3, pc}
 8081fd8:	080401a0 	.word	0x080401a0

08081fdc <_ZN8SPIClassD1Ev>:
  RecursiveMutex _mutex;
#endif

public:
  SPIClass(HAL_SPI_Interface spi);
  virtual ~SPIClass() {};
 8081fdc:	b510      	push	{r4, lr}
 8081fde:	4b04      	ldr	r3, [pc, #16]	; (8081ff0 <_ZN8SPIClassD1Ev+0x14>)
 8081fe0:	4604      	mov	r4, r0
 8081fe2:	6003      	str	r3, [r0, #0]
        dispose();
    }

    void dispose()
    {
        if (handle_) {
 8081fe4:	68c0      	ldr	r0, [r0, #12]
 8081fe6:	b108      	cbz	r0, 8081fec <_ZN8SPIClassD1Ev+0x10>
            os_mutex_recursive_destroy(handle_);
 8081fe8:	f7ff fdd4 	bl	8081b94 <os_mutex_recursive_destroy>
 8081fec:	4620      	mov	r0, r4
 8081fee:	bd10      	pop	{r4, pc}
 8081ff0:	08087ad8 	.word	0x08087ad8

08081ff4 <_ZN8SPIClassD0Ev>:
 8081ff4:	b510      	push	{r4, lr}
 8081ff6:	4604      	mov	r4, r0
 8081ff8:	f7ff fff0 	bl	8081fdc <_ZN8SPIClassD1Ev>
 8081ffc:	4620      	mov	r0, r4
 8081ffe:	2110      	movs	r1, #16
 8082000:	f001 fb1e 	bl	8083640 <_ZdlPvj>
 8082004:	4620      	mov	r0, r4
 8082006:	bd10      	pop	{r4, pc}

08082008 <_ZN8SPIClassC1E17HAL_SPI_Interface>:
    }
    return particle::__SPISettings(info->clock, info->bit_order, info->data_mode);
}
} // namespace

SPIClass::SPIClass(HAL_SPI_Interface spi)
 8082008:	b570      	push	{r4, r5, r6, lr}
 808200a:	4604      	mov	r4, r0
 808200c:	460e      	mov	r6, r1
 808200e:	4b07      	ldr	r3, [pc, #28]	; (808202c <_ZN8SPIClassC1E17HAL_SPI_Interface+0x24>)
    /**
     * Creates a shared mutex.
     */
    RecursiveMutex(os_mutex_recursive_t handle) : handle_(handle) {}

    RecursiveMutex() : handle_(nullptr)
 8082010:	2500      	movs	r5, #0
 8082012:	6003      	str	r3, [r0, #0]
 8082014:	f840 5f0c 	str.w	r5, [r0, #12]!
    {
        os_mutex_recursive_create(&handle_);
 8082018:	f7ff fdb4 	bl	8081b84 <os_mutex_recursive_create>
{
    _spi = spi;
    HAL_SPI_Init(_spi);
 808201c:	4630      	mov	r0, r6
}
} // namespace

SPIClass::SPIClass(HAL_SPI_Interface spi)
{
    _spi = spi;
 808201e:	7126      	strb	r6, [r4, #4]
    HAL_SPI_Init(_spi);
 8082020:	f7ff fd78 	bl	8081b14 <HAL_SPI_Init>
    _dividerReference = SPI_CLK_SYSTEM; // 0 indicates the system clock
 8082024:	60a5      	str	r5, [r4, #8]
}
 8082026:	4620      	mov	r0, r4
 8082028:	bd70      	pop	{r4, r5, r6, pc}
 808202a:	bf00      	nop
 808202c:	08087ad8 	.word	0x08087ad8

08082030 <_ZN8SPIClass9isEnabledEv>:
bool SPIClass::isEnabled()
{
    // XXX: pinAvailable() will call this method potentially even from
    // interrupt context. `enabled` flag in HAL is usually just a volatile
    // variable, so it's fine not to acquire the lock here.
    return HAL_SPI_Is_Enabled(_spi);
 8082030:	7900      	ldrb	r0, [r0, #4]
 8082032:	f7ff bd77 	b.w	8081b24 <HAL_SPI_Is_Enabled>

08082036 <_ZN17SystemSleepResult22freeWakeupSourceMemoryEv.isra.2>:
    operator SleepResult() {
        return toSleepResult();
    }

private:
    void freeWakeupSourceMemory() {
 8082036:	b510      	push	{r4, lr}
 8082038:	4604      	mov	r4, r0
        if (wakeupSource_) {
 808203a:	6800      	ldr	r0, [r0, #0]
 808203c:	b118      	cbz	r0, 8082046 <_ZN17SystemSleepResult22freeWakeupSourceMemoryEv.isra.2+0x10>
            free(wakeupSource_);
 808203e:	f7ff ff7d 	bl	8081f3c <free>
            wakeupSource_ = nullptr;
 8082042:	2300      	movs	r3, #0
 8082044:	6023      	str	r3, [r4, #0]
 8082046:	bd10      	pop	{r4, pc}

08082048 <_ZN11SystemClassD1Ev>:
    system_error_t error_;
    SleepResult compatResult_;
};


class SystemClass {
 8082048:	b510      	push	{r4, lr}
 808204a:	4604      	mov	r4, r0
        }
        return *this;
    }

    ~SystemSleepResult() {
        freeWakeupSourceMemory();
 808204c:	f7ff fff3 	bl	8082036 <_ZN17SystemSleepResult22freeWakeupSourceMemoryEv.isra.2>
    system_error_t error_;
    SleepResult compatResult_;
};


class SystemClass {
 8082050:	4620      	mov	r0, r4
 8082052:	bd10      	pop	{r4, pc}

08082054 <_ZN11SystemClass5resetEm>:
    reset(0);
}

void SystemClass::reset(uint32_t data)
{
    HAL_Core_System_Reset_Ex(RESET_REASON_USER, data, nullptr);
 8082054:	4601      	mov	r1, r0
 8082056:	2200      	movs	r2, #0
 8082058:	208c      	movs	r0, #140	; 0x8c
 808205a:	f7ff bd8b 	b.w	8081b74 <HAL_Core_System_Reset_Ex>

0808205e <_ZN11SystemClass5resetEv>:
    HAL_Core_Enter_Bootloader(persist);
}

void SystemClass::reset(void)
{
    reset(0);
 808205e:	2000      	movs	r0, #0
 8082060:	f7ff bff8 	b.w	8082054 <_ZN11SystemClass5resetEm>

08082064 <_GLOBAL__sub_I_System>:
    WAKEUP_REASON_PIN_OR_RTC = 3,
    WAKEUP_REASON_UNKNOWN = 4
};

struct SleepResult {
    SleepResult() {}
 8082064:	f64f 73ff 	movw	r3, #65535	; 0xffff
    return wokenUpByRtc();
}

system_error_t SleepResult::error() const {
    return err_;
 8082068:	b510      	push	{r4, lr}

class SystemSleepResult {
public:
    SystemSleepResult()
            : wakeupSource_(nullptr),
              error_(SYSTEM_ERROR_NONE) {
 808206a:	4c08      	ldr	r4, [pc, #32]	; (808208c <_GLOBAL__sub_I_System+0x28>)
 808206c:	2000      	movs	r0, #0
 808206e:	6020      	str	r0, [r4, #0]
 8082070:	80a0      	strh	r0, [r4, #4]
    WAKEUP_REASON_PIN_OR_RTC = 3,
    WAKEUP_REASON_UNKNOWN = 4
};

struct SleepResult {
    SleepResult() {}
 8082072:	71a0      	strb	r0, [r4, #6]
 8082074:	8120      	strh	r0, [r4, #8]
 8082076:	8163      	strh	r3, [r4, #10]

class SystemClass {
public:

    SystemClass(System_Mode_TypeDef mode = DEFAULT) {
        set_system_mode(mode);
 8082078:	f7ff fe84 	bl	8081d84 <set_system_mode>

#if Wiring_LogConfig
extern void(*log_process_ctrl_request_callback)(ctrl_request* req);
#endif

SystemClass System;
 808207c:	4620      	mov	r0, r4
    return wokenUpByRtc();
}

system_error_t SleepResult::error() const {
    return err_;
 808207e:	e8bd 4010 	ldmia.w	sp!, {r4, lr}

#if Wiring_LogConfig
extern void(*log_process_ctrl_request_callback)(ctrl_request* req);
#endif

SystemClass System;
 8082082:	4a03      	ldr	r2, [pc, #12]	; (8082090 <_GLOBAL__sub_I_System+0x2c>)
 8082084:	4903      	ldr	r1, [pc, #12]	; (8082094 <_GLOBAL__sub_I_System+0x30>)
 8082086:	f001 bacd 	b.w	8083624 <__aeabi_atexit>
 808208a:	bf00      	nop
 808208c:	20000408 	.word	0x20000408
 8082090:	20000100 	.word	0x20000100
 8082094:	08082049 	.word	0x08082049

08082098 <_Z11str_reversePc>:

//------------------------------------------------------------------------------------------
#define BUFSIZE (sizeof(long) * 8 + 1)

//utility function used by ultoa()
__attribute__((weak)) void str_reverse(char* buffer){
 8082098:	b510      	push	{r4, lr}
 808209a:	4604      	mov	r4, r0
	char *i, *j;
	char c;
	i=buffer;
	j=buffer + strlen(buffer)-1;
 808209c:	f003 f804 	bl	80850a8 <strlen>
 80820a0:	3801      	subs	r0, #1
 80820a2:	1823      	adds	r3, r4, r0
 80820a4:	4620      	mov	r0, r4
	while(i<j){
 80820a6:	4298      	cmp	r0, r3
 80820a8:	d206      	bcs.n	80820b8 <_Z11str_reversePc+0x20>
		c = *i;
 80820aa:	7802      	ldrb	r2, [r0, #0]
		*i = *j;
 80820ac:	7819      	ldrb	r1, [r3, #0]
 80820ae:	f800 1b01 	strb.w	r1, [r0], #1
		*j = c;
 80820b2:	f803 2901 	strb.w	r2, [r3], #-1
__attribute__((weak)) void str_reverse(char* buffer){
	char *i, *j;
	char c;
	i=buffer;
	j=buffer + strlen(buffer)-1;
	while(i<j){
 80820b6:	e7f6      	b.n	80820a6 <_Z11str_reversePc+0xe>
 80820b8:	bd10      	pop	{r4, pc}

080820ba <ultoa>:
      memcpy(head, ++tail, i);
      return str;
}

//convert unsigned long to string
__attribute__((weak)) char* ultoa(unsigned long a, char* buffer, int radix, char pad){
 80820ba:	b570      	push	{r4, r5, r6, lr}
 80820bc:	460c      	mov	r4, r1
	if(radix<2 || radix>36){
 80820be:	1e91      	subs	r1, r2, #2
 80820c0:	2922      	cmp	r1, #34	; 0x22
 80820c2:	d820      	bhi.n	8082106 <ultoa+0x4c>
 80820c4:	4625      	mov	r5, r4
 80820c6:	4629      	mov	r1, r5
		return NULL;
	}
	char* ptr=buffer;

	div_t result;
	while(a){
 80820c8:	b910      	cbnz	r0, 80820d0 <ultoa+0x16>
                *ptr += 'a'-10;
            }
            ++ptr;
            a = result.quot;
	}
        while (ptr < buffer+pad)
 80820ca:	4423      	add	r3, r4
            *ptr++ = '0';
 80820cc:	2230      	movs	r2, #48	; 0x30
 80820ce:	e00e      	b.n	80820ee <ultoa+0x34>
	div_t result;
	while(a){
            /* toolchain bug??
            result = div(a, radix);
            */
            result.quot = a/radix;
 80820d0:	fbb0 f6f2 	udiv	r6, r0, r2
            result.rem = a%radix;
 80820d4:	fb02 0016 	mls	r0, r2, r6, r0
            *ptr = result.rem;
 80820d8:	b2c1      	uxtb	r1, r0
            if(result.rem<10){
 80820da:	2809      	cmp	r0, #9
            /* toolchain bug??
            result = div(a, radix);
            */
            result.quot = a/radix;
            result.rem = a%radix;
            *ptr = result.rem;
 80820dc:	f805 1b01 	strb.w	r1, [r5], #1
            if(result.rem<10){
                *ptr += '0';
 80820e0:	bf94      	ite	ls
 80820e2:	3130      	addls	r1, #48	; 0x30
            }else{
                *ptr += 'a'-10;
 80820e4:	3157      	addhi	r1, #87	; 0x57
 80820e6:	f805 1c01 	strb.w	r1, [r5, #-1]
            }
            ++ptr;
            a = result.quot;
 80820ea:	4630      	mov	r0, r6
		return NULL;
	}
	char* ptr=buffer;

	div_t result;
	while(a){
 80820ec:	e7eb      	b.n	80820c6 <ultoa+0xc>
                *ptr += 'a'-10;
            }
            ++ptr;
            a = result.quot;
	}
        while (ptr < buffer+pad)
 80820ee:	4299      	cmp	r1, r3
 80820f0:	d202      	bcs.n	80820f8 <ultoa+0x3e>
            *ptr++ = '0';
 80820f2:	f801 2b01 	strb.w	r2, [r1], #1
                *ptr += 'a'-10;
            }
            ++ptr;
            a = result.quot;
	}
        while (ptr < buffer+pad)
 80820f6:	e7fa      	b.n	80820ee <ultoa+0x34>
            *ptr++ = '0';

	*ptr = '\0';
 80820f8:	2300      	movs	r3, #0
	str_reverse(buffer);
 80820fa:	4620      	mov	r0, r4
            a = result.quot;
	}
        while (ptr < buffer+pad)
            *ptr++ = '0';

	*ptr = '\0';
 80820fc:	700b      	strb	r3, [r1, #0]
	str_reverse(buffer);
 80820fe:	f7ff ffcb 	bl	8082098 <_Z11str_reversePc>
	return buffer;
 8082102:	4620      	mov	r0, r4
 8082104:	bd70      	pop	{r4, r5, r6, pc}
}

//convert unsigned long to string
__attribute__((weak)) char* ultoa(unsigned long a, char* buffer, int radix, char pad){
	if(radix<2 || radix>36){
		return NULL;
 8082106:	2000      	movs	r0, #0
            *ptr++ = '0';

	*ptr = '\0';
	str_reverse(buffer);
	return buffer;
}
 8082108:	bd70      	pop	{r4, r5, r6, pc}

0808210a <itoa>:

__attribute__((weak)) char* itoa(int a, char* buffer, int radix){
 808210a:	b538      	push	{r3, r4, r5, lr}
	if(a<0){
 808210c:	1e03      	subs	r3, r0, #0
	*ptr = '\0';
	str_reverse(buffer);
	return buffer;
}

__attribute__((weak)) char* itoa(int a, char* buffer, int radix){
 808210e:	460c      	mov	r4, r1
 8082110:	4615      	mov	r5, r2
	if(a<0){
 8082112:	da0b      	bge.n	808212c <itoa+0x22>
		*buffer = '-';
		unsigned v = a==INT_MIN ? ((unsigned)INT_MAX+1) : -a;
 8082114:	f1b3 4f00 	cmp.w	r3, #2147483648	; 0x80000000
	return buffer;
}

__attribute__((weak)) char* itoa(int a, char* buffer, int radix){
	if(a<0){
		*buffer = '-';
 8082118:	f04f 022d 	mov.w	r2, #45	; 0x2d
		unsigned v = a==INT_MIN ? ((unsigned)INT_MAX+1) : -a;
 808211c:	bf14      	ite	ne
 808211e:	4258      	negne	r0, r3
 8082120:	4618      	moveq	r0, r3
		ultoa((unsigned)v, buffer + 1, radix);
 8082122:	2301      	movs	r3, #1
	return buffer;
}

__attribute__((weak)) char* itoa(int a, char* buffer, int radix){
	if(a<0){
		*buffer = '-';
 8082124:	700a      	strb	r2, [r1, #0]
		unsigned v = a==INT_MIN ? ((unsigned)INT_MAX+1) : -a;
		ultoa((unsigned)v, buffer + 1, radix);
 8082126:	462a      	mov	r2, r5
 8082128:	4419      	add	r1, r3
 808212a:	e000      	b.n	808212e <itoa+0x24>
	}else{
		ultoa(a, buffer, radix);
 808212c:	2301      	movs	r3, #1
 808212e:	f7ff ffc4 	bl	80820ba <ultoa>
	}
	return buffer;
}
 8082132:	4620      	mov	r0, r4
 8082134:	bd38      	pop	{r3, r4, r5, pc}

08082136 <_ZN6StringD1Ev>:
	init();
	char buf[33];
	dtoa(value, decimalPlaces, buf);
        *this = buf;
}
String::~String()
 8082136:	b510      	push	{r4, lr}
 8082138:	4604      	mov	r4, r0
{
	free(buffer);
 808213a:	6800      	ldr	r0, [r0, #0]
 808213c:	f7ff fefe 	bl	8081f3c <free>
}
 8082140:	4620      	mov	r0, r4
 8082142:	bd10      	pop	{r4, pc}

08082144 <_ZN6String10invalidateEv>:
	len = 0;
	flags = 0;
}

void String::invalidate(void)
{
 8082144:	b510      	push	{r4, lr}
 8082146:	4604      	mov	r4, r0
	if (buffer) free(buffer);
 8082148:	6800      	ldr	r0, [r0, #0]
 808214a:	b108      	cbz	r0, 8082150 <_ZN6String10invalidateEv+0xc>
 808214c:	f7ff fef6 	bl	8081f3c <free>
	buffer = NULL;
 8082150:	2300      	movs	r3, #0
 8082152:	6023      	str	r3, [r4, #0]
	capacity = len = 0;
 8082154:	60a3      	str	r3, [r4, #8]
 8082156:	6063      	str	r3, [r4, #4]
 8082158:	bd10      	pop	{r4, pc}

0808215a <_ZN6String12changeBufferEj>:
	}
	return 0;
}

unsigned char String::changeBuffer(unsigned int maxStrLen)
{
 808215a:	b538      	push	{r3, r4, r5, lr}
 808215c:	4604      	mov	r4, r0
 808215e:	460d      	mov	r5, r1
	char *newbuffer = (char *)realloc(buffer, maxStrLen + 1);
 8082160:	6800      	ldr	r0, [r0, #0]
 8082162:	3101      	adds	r1, #1
 8082164:	f7ff fef2 	bl	8081f4c <realloc>
	if (newbuffer) {
 8082168:	b110      	cbz	r0, 8082170 <_ZN6String12changeBufferEj+0x16>
		buffer = newbuffer;
		capacity = maxStrLen;
 808216a:	e884 0021 	stmia.w	r4, {r0, r5}
		return 1;
 808216e:	2001      	movs	r0, #1
	}
	return 0;
}
 8082170:	bd38      	pop	{r3, r4, r5, pc}

08082172 <_ZN6String7reserveEj>:
	buffer = NULL;
	capacity = len = 0;
}

unsigned char String::reserve(unsigned int size)
{
 8082172:	b510      	push	{r4, lr}
	if (buffer && capacity >= size) return 1;
 8082174:	6803      	ldr	r3, [r0, #0]
	buffer = NULL;
	capacity = len = 0;
}

unsigned char String::reserve(unsigned int size)
{
 8082176:	4604      	mov	r4, r0
	if (buffer && capacity >= size) return 1;
 8082178:	b113      	cbz	r3, 8082180 <_ZN6String7reserveEj+0xe>
 808217a:	6843      	ldr	r3, [r0, #4]
 808217c:	428b      	cmp	r3, r1
 808217e:	d207      	bcs.n	8082190 <_ZN6String7reserveEj+0x1e>
	if (changeBuffer(size)) {
 8082180:	4620      	mov	r0, r4
 8082182:	f7ff ffea 	bl	808215a <_ZN6String12changeBufferEj>
 8082186:	b120      	cbz	r0, 8082192 <_ZN6String7reserveEj+0x20>
		if (len == 0) buffer[0] = 0;
 8082188:	68a3      	ldr	r3, [r4, #8]
 808218a:	b90b      	cbnz	r3, 8082190 <_ZN6String7reserveEj+0x1e>
 808218c:	6822      	ldr	r2, [r4, #0]
 808218e:	7013      	strb	r3, [r2, #0]
 8082190:	2001      	movs	r0, #1
		return 1;
	}
	return 0;
}
 8082192:	bd10      	pop	{r4, pc}

08082194 <_ZN6String4copyEPKcj>:
/*********************************************/
/*  Copy and Move                            */
/*********************************************/

String & String::copy(const char *cstr, unsigned int length)
{
 8082194:	b570      	push	{r4, r5, r6, lr}
 8082196:	460e      	mov	r6, r1
	if (!reserve(length)) {
 8082198:	4611      	mov	r1, r2
/*********************************************/
/*  Copy and Move                            */
/*********************************************/

String & String::copy(const char *cstr, unsigned int length)
{
 808219a:	4604      	mov	r4, r0
 808219c:	4615      	mov	r5, r2
	if (!reserve(length)) {
 808219e:	f7ff ffe8 	bl	8082172 <_ZN6String7reserveEj>
 80821a2:	b918      	cbnz	r0, 80821ac <_ZN6String4copyEPKcj+0x18>
		invalidate();
 80821a4:	4620      	mov	r0, r4
 80821a6:	f7ff ffcd 	bl	8082144 <_ZN6String10invalidateEv>
		return *this;
 80821aa:	e009      	b.n	80821c0 <_ZN6String4copyEPKcj+0x2c>
	}
	len = length;
	memcpy(buffer, cstr, length);
 80821ac:	462a      	mov	r2, r5
 80821ae:	4631      	mov	r1, r6
{
	if (!reserve(length)) {
		invalidate();
		return *this;
	}
	len = length;
 80821b0:	60a5      	str	r5, [r4, #8]
	memcpy(buffer, cstr, length);
 80821b2:	6820      	ldr	r0, [r4, #0]
 80821b4:	f002 f9ec 	bl	8084590 <memcpy>
	buffer[len] = 0;
 80821b8:	6822      	ldr	r2, [r4, #0]
 80821ba:	68a3      	ldr	r3, [r4, #8]
 80821bc:	2100      	movs	r1, #0
 80821be:	54d1      	strb	r1, [r2, r3]
	return *this;
}
 80821c0:	4620      	mov	r0, r4
 80821c2:	bd70      	pop	{r4, r5, r6, pc}

080821c4 <_ZN6StringC1EPK19__FlashStringHelper>:
{
	init();
	*this = value;
}

String::String(const __FlashStringHelper *pstr)
 80821c4:	b538      	push	{r3, r4, r5, lr}
/*  Memory Management                        */
/*********************************************/

inline void String::init(void)
{
	buffer = NULL;
 80821c6:	2300      	movs	r3, #0
{
	init();
	*this = value;
}

String::String(const __FlashStringHelper *pstr)
 80821c8:	4604      	mov	r4, r0
/*  Memory Management                        */
/*********************************************/

inline void String::init(void)
{
	buffer = NULL;
 80821ca:	6003      	str	r3, [r0, #0]
	capacity = 0;
 80821cc:	6043      	str	r3, [r0, #4]
	len = 0;
 80821ce:	6083      	str	r3, [r0, #8]
	flags = 0;
 80821d0:	7303      	strb	r3, [r0, #12]

String::String(const __FlashStringHelper *pstr)
{
	init();
	const char* cstr = reinterpret_cast<const char*>(pstr);
	if (cstr) copy(cstr, strlen(cstr));
 80821d2:	460d      	mov	r5, r1
 80821d4:	b139      	cbz	r1, 80821e6 <_ZN6StringC1EPK19__FlashStringHelper+0x22>
 80821d6:	4608      	mov	r0, r1
 80821d8:	f002 ff66 	bl	80850a8 <strlen>
 80821dc:	4629      	mov	r1, r5
 80821de:	4602      	mov	r2, r0
 80821e0:	4620      	mov	r0, r4
 80821e2:	f7ff ffd7 	bl	8082194 <_ZN6String4copyEPKcj>
}
 80821e6:	4620      	mov	r0, r4
 80821e8:	bd38      	pop	{r3, r4, r5, pc}

080821ea <_ZN6String4moveERS_>:
    return copy(reinterpret_cast<const char*>(pstr), length);
}

#ifdef __GXX_EXPERIMENTAL_CXX0X__
void String::move(String &rhs)
{
 80821ea:	b538      	push	{r3, r4, r5, lr}
 80821ec:	4605      	mov	r5, r0
	if (buffer) {
 80821ee:	6800      	ldr	r0, [r0, #0]
    return copy(reinterpret_cast<const char*>(pstr), length);
}

#ifdef __GXX_EXPERIMENTAL_CXX0X__
void String::move(String &rhs)
{
 80821f0:	460c      	mov	r4, r1
	if (buffer) {
 80821f2:	b160      	cbz	r0, 808220e <_ZN6String4moveERS_+0x24>
		if (capacity >= rhs.len) {
 80821f4:	686a      	ldr	r2, [r5, #4]
 80821f6:	688b      	ldr	r3, [r1, #8]
 80821f8:	429a      	cmp	r2, r3
 80821fa:	d306      	bcc.n	808220a <_ZN6String4moveERS_+0x20>
			strcpy(buffer, rhs.buffer);
 80821fc:	6809      	ldr	r1, [r1, #0]
 80821fe:	f002 fa1b 	bl	8084638 <strcpy>
			len = rhs.len;
 8082202:	68a3      	ldr	r3, [r4, #8]
 8082204:	60ab      	str	r3, [r5, #8]
			rhs.len = 0;
 8082206:	2300      	movs	r3, #0
 8082208:	e00a      	b.n	8082220 <_ZN6String4moveERS_+0x36>
			return;
		} else {
			free(buffer);
 808220a:	f7ff fe97 	bl	8081f3c <free>
		}
	}
	buffer = rhs.buffer;
 808220e:	6823      	ldr	r3, [r4, #0]
 8082210:	602b      	str	r3, [r5, #0]
	capacity = rhs.capacity;
 8082212:	6863      	ldr	r3, [r4, #4]
 8082214:	606b      	str	r3, [r5, #4]
	len = rhs.len;
 8082216:	68a3      	ldr	r3, [r4, #8]
 8082218:	60ab      	str	r3, [r5, #8]
	rhs.buffer = NULL;
 808221a:	2300      	movs	r3, #0
 808221c:	6023      	str	r3, [r4, #0]
	rhs.capacity = 0;
 808221e:	6063      	str	r3, [r4, #4]
	rhs.len = 0;
 8082220:	60a3      	str	r3, [r4, #8]
 8082222:	bd38      	pop	{r3, r4, r5, pc}

08082224 <_ZN6StringaSERKS_>:
}
#endif

String & String::operator = (const String &rhs)
{
	if (this == &rhs) return *this;
 8082224:	4288      	cmp	r0, r1
	rhs.len = 0;
}
#endif

String & String::operator = (const String &rhs)
{
 8082226:	b510      	push	{r4, lr}
 8082228:	460b      	mov	r3, r1
 808222a:	4604      	mov	r4, r0
	if (this == &rhs) return *this;
 808222c:	d007      	beq.n	808223e <_ZN6StringaSERKS_+0x1a>

	if (rhs.buffer) copy(rhs.buffer, rhs.len);
 808222e:	6809      	ldr	r1, [r1, #0]
 8082230:	b119      	cbz	r1, 808223a <_ZN6StringaSERKS_+0x16>
 8082232:	689a      	ldr	r2, [r3, #8]
 8082234:	f7ff ffae 	bl	8082194 <_ZN6String4copyEPKcj>
 8082238:	e001      	b.n	808223e <_ZN6StringaSERKS_+0x1a>
	else invalidate();
 808223a:	f7ff ff83 	bl	8082144 <_ZN6String10invalidateEv>

	return *this;
}
 808223e:	4620      	mov	r0, r4
 8082240:	bd10      	pop	{r4, pc}

08082242 <_ZN6StringC1ERKS_>:
{
	init();
	if (cstr) copy(cstr, length);
}

String::String(const String &value)
 8082242:	b510      	push	{r4, lr}
 8082244:	4604      	mov	r4, r0
/*  Memory Management                        */
/*********************************************/

inline void String::init(void)
{
	buffer = NULL;
 8082246:	2300      	movs	r3, #0
 8082248:	6003      	str	r3, [r0, #0]
	capacity = 0;
 808224a:	6043      	str	r3, [r0, #4]
	len = 0;
 808224c:	6083      	str	r3, [r0, #8]
	flags = 0;
 808224e:	7303      	strb	r3, [r0, #12]
}

String::String(const String &value)
{
	init();
	*this = value;
 8082250:	f7ff ffe8 	bl	8082224 <_ZN6StringaSERKS_>
}
 8082254:	4620      	mov	r0, r4
 8082256:	bd10      	pop	{r4, pc}

08082258 <_ZN6StringaSEOS_>:
}

#ifdef __GXX_EXPERIMENTAL_CXX0X__
String & String::operator = (String &&rval)
{
	if (this != &rval) move(rval);
 8082258:	4288      	cmp	r0, r1
    return *this;
}

#ifdef __GXX_EXPERIMENTAL_CXX0X__
String & String::operator = (String &&rval)
{
 808225a:	b510      	push	{r4, lr}
 808225c:	4604      	mov	r4, r0
	if (this != &rval) move(rval);
 808225e:	d001      	beq.n	8082264 <_ZN6StringaSEOS_+0xc>
 8082260:	f7ff ffc3 	bl	80821ea <_ZN6String4moveERS_>
	return *this;
}
 8082264:	4620      	mov	r0, r4
 8082266:	bd10      	pop	{r4, pc}

08082268 <_ZN6StringaSEPKc>:
	return *this;
}
#endif

String & String::operator = (const char *cstr)
{
 8082268:	b538      	push	{r3, r4, r5, lr}
 808226a:	4605      	mov	r5, r0
	if (cstr) copy(cstr, strlen(cstr));
 808226c:	460c      	mov	r4, r1
 808226e:	b141      	cbz	r1, 8082282 <_ZN6StringaSEPKc+0x1a>
 8082270:	4608      	mov	r0, r1
 8082272:	f002 ff19 	bl	80850a8 <strlen>
 8082276:	4621      	mov	r1, r4
 8082278:	4602      	mov	r2, r0
 808227a:	4628      	mov	r0, r5
 808227c:	f7ff ff8a 	bl	8082194 <_ZN6String4copyEPKcj>
 8082280:	e001      	b.n	8082286 <_ZN6StringaSEPKc+0x1e>
	else invalidate();
 8082282:	f7ff ff5f 	bl	8082144 <_ZN6String10invalidateEv>

	return *this;
}
 8082286:	4628      	mov	r0, r5
 8082288:	bd38      	pop	{r3, r4, r5, pc}

0808228a <_ZN6StringC1Eih>:
	char buf[9];
	utoa(value, buf, base);
	*this = buf;
}

String::String(int value, unsigned char base)
 808228a:	b510      	push	{r4, lr}
 808228c:	4604      	mov	r4, r0
/*  Memory Management                        */
/*********************************************/

inline void String::init(void)
{
	buffer = NULL;
 808228e:	2300      	movs	r3, #0
	char buf[9];
	utoa(value, buf, base);
	*this = buf;
}

String::String(int value, unsigned char base)
 8082290:	b08a      	sub	sp, #40	; 0x28
/*  Memory Management                        */
/*********************************************/

inline void String::init(void)
{
	buffer = NULL;
 8082292:	6023      	str	r3, [r4, #0]
	capacity = 0;
 8082294:	6063      	str	r3, [r4, #4]
	len = 0;
 8082296:	60a3      	str	r3, [r4, #8]
	flags = 0;
 8082298:	7323      	strb	r3, [r4, #12]
	char buf[9];
	utoa(value, buf, base);
	*this = buf;
}

String::String(int value, unsigned char base)
 808229a:	4608      	mov	r0, r1
{
	init();
	char buf[34];
	itoa(value, buf, base);
 808229c:	a901      	add	r1, sp, #4
 808229e:	f7ff ff34 	bl	808210a <itoa>
	*this = buf;
 80822a2:	a901      	add	r1, sp, #4
 80822a4:	4620      	mov	r0, r4
 80822a6:	f7ff ffdf 	bl	8082268 <_ZN6StringaSEPKc>
}
 80822aa:	4620      	mov	r0, r4
 80822ac:	b00a      	add	sp, #40	; 0x28
 80822ae:	bd10      	pop	{r4, pc}

080822b0 <_ZN6String6concatEPKcj>:
{
	return concat(s.buffer, s.len);
}

unsigned char String::concat(const char *cstr, unsigned int length)
{
 80822b0:	b570      	push	{r4, r5, r6, lr}
 80822b2:	4604      	mov	r4, r0
	unsigned int newlen = len + length;
	if (!cstr) return 0;
 80822b4:	460e      	mov	r6, r1
 80822b6:	b909      	cbnz	r1, 80822bc <_ZN6String6concatEPKcj+0xc>
 80822b8:	2000      	movs	r0, #0
 80822ba:	bd70      	pop	{r4, r5, r6, pc}
	if (length == 0) return 1;
 80822bc:	b16a      	cbz	r2, 80822da <_ZN6String6concatEPKcj+0x2a>
	return concat(s.buffer, s.len);
}

unsigned char String::concat(const char *cstr, unsigned int length)
{
	unsigned int newlen = len + length;
 80822be:	6883      	ldr	r3, [r0, #8]
 80822c0:	18d5      	adds	r5, r2, r3
	if (!cstr) return 0;
	if (length == 0) return 1;
	if (!reserve(newlen)) return 0;
 80822c2:	4629      	mov	r1, r5
 80822c4:	f7ff ff55 	bl	8082172 <_ZN6String7reserveEj>
 80822c8:	2800      	cmp	r0, #0
 80822ca:	d0f5      	beq.n	80822b8 <_ZN6String6concatEPKcj+0x8>
	strcpy(buffer + len, cstr);
 80822cc:	6820      	ldr	r0, [r4, #0]
 80822ce:	68a3      	ldr	r3, [r4, #8]
 80822d0:	4631      	mov	r1, r6
 80822d2:	4418      	add	r0, r3
 80822d4:	f002 f9b0 	bl	8084638 <strcpy>
	len = newlen;
 80822d8:	60a5      	str	r5, [r4, #8]

unsigned char String::concat(const char *cstr, unsigned int length)
{
	unsigned int newlen = len + length;
	if (!cstr) return 0;
	if (length == 0) return 1;
 80822da:	2001      	movs	r0, #1
	if (!reserve(newlen)) return 0;
	strcpy(buffer + len, cstr);
	len = newlen;
	return 1;
}
 80822dc:	bd70      	pop	{r4, r5, r6, pc}

080822de <_ZN6String6concatEPKc>:

unsigned char String::concat(const char *cstr)
{
 80822de:	b538      	push	{r3, r4, r5, lr}
 80822e0:	4605      	mov	r5, r0
	if (!cstr) return 0;
 80822e2:	460c      	mov	r4, r1
	return concat(cstr, strlen(cstr));
}
 80822e4:	4608      	mov	r0, r1
	return 1;
}

unsigned char String::concat(const char *cstr)
{
	if (!cstr) return 0;
 80822e6:	b141      	cbz	r1, 80822fa <_ZN6String6concatEPKc+0x1c>
	return concat(cstr, strlen(cstr));
 80822e8:	f002 fede 	bl	80850a8 <strlen>
 80822ec:	4621      	mov	r1, r4
 80822ee:	4602      	mov	r2, r0
 80822f0:	4628      	mov	r0, r5
}
 80822f2:	e8bd 4038 	ldmia.w	sp!, {r3, r4, r5, lr}
}

unsigned char String::concat(const char *cstr)
{
	if (!cstr) return 0;
	return concat(cstr, strlen(cstr));
 80822f6:	f7ff bfdb 	b.w	80822b0 <_ZN6String6concatEPKcj>
}
 80822fa:	bd38      	pop	{r3, r4, r5, pc}

080822fc <_ZN6String6concatEc>:
unsigned char String::concat(const __FlashStringHelper * str) {
	return concat(reinterpret_cast<const char*>(str));
}

unsigned char String::concat(char c)
{
 80822fc:	b507      	push	{r0, r1, r2, lr}
	char buf[2];
	buf[0] = c;
	buf[1] = 0;
 80822fe:	2300      	movs	r3, #0
}

unsigned char String::concat(char c)
{
	char buf[2];
	buf[0] = c;
 8082300:	f88d 1004 	strb.w	r1, [sp, #4]
	buf[1] = 0;
	return concat(buf, 1);
 8082304:	2201      	movs	r2, #1
 8082306:	a901      	add	r1, sp, #4

unsigned char String::concat(char c)
{
	char buf[2];
	buf[0] = c;
	buf[1] = 0;
 8082308:	f88d 3005 	strb.w	r3, [sp, #5]
	return concat(buf, 1);
 808230c:	f7ff ffd0 	bl	80822b0 <_ZN6String6concatEPKcj>
}
 8082310:	b003      	add	sp, #12
 8082312:	f85d fb04 	ldr.w	pc, [sp], #4

08082316 <_ZplRK15StringSumHelperRK6String>:
/*********************************************/
/*  Concatenate                              */
/*********************************************/

StringSumHelper & operator + (const StringSumHelper &lhs, const String &rhs)
{
 8082316:	b510      	push	{r4, lr}
	StringSumHelper &a = const_cast<StringSumHelper&>(lhs);
	if (!a.concat(rhs.buffer, rhs.len)) a.invalidate();
 8082318:	688a      	ldr	r2, [r1, #8]
 808231a:	6809      	ldr	r1, [r1, #0]
/*********************************************/
/*  Concatenate                              */
/*********************************************/

StringSumHelper & operator + (const StringSumHelper &lhs, const String &rhs)
{
 808231c:	4604      	mov	r4, r0
	StringSumHelper &a = const_cast<StringSumHelper&>(lhs);
	if (!a.concat(rhs.buffer, rhs.len)) a.invalidate();
 808231e:	f7ff ffc7 	bl	80822b0 <_ZN6String6concatEPKcj>
 8082322:	b910      	cbnz	r0, 808232a <_ZplRK15StringSumHelperRK6String+0x14>
 8082324:	4620      	mov	r0, r4
 8082326:	f7ff ff0d 	bl	8082144 <_ZN6String10invalidateEv>
	return a;
}
 808232a:	4620      	mov	r0, r4
 808232c:	bd10      	pop	{r4, pc}

0808232e <_ZplRK15StringSumHelperPKc>:

StringSumHelper & operator + (const StringSumHelper &lhs, const char *cstr)
{
 808232e:	b538      	push	{r3, r4, r5, lr}
 8082330:	4604      	mov	r4, r0
	StringSumHelper &a = const_cast<StringSumHelper&>(lhs);
	if (!cstr || !a.concat(cstr, strlen(cstr))) a.invalidate();
 8082332:	460d      	mov	r5, r1
 8082334:	b141      	cbz	r1, 8082348 <_ZplRK15StringSumHelperPKc+0x1a>
 8082336:	4608      	mov	r0, r1
 8082338:	f002 feb6 	bl	80850a8 <strlen>
 808233c:	4629      	mov	r1, r5
 808233e:	4602      	mov	r2, r0
 8082340:	4620      	mov	r0, r4
 8082342:	f7ff ffb5 	bl	80822b0 <_ZN6String6concatEPKcj>
 8082346:	b910      	cbnz	r0, 808234e <_ZplRK15StringSumHelperPKc+0x20>
 8082348:	4620      	mov	r0, r4
 808234a:	f7ff fefb 	bl	8082144 <_ZN6String10invalidateEv>
	return a;
}
 808234e:	4620      	mov	r0, r4
 8082350:	bd38      	pop	{r3, r4, r5, pc}

08082352 <_ZNK6String6equalsEPKc>:
{
	return (len == s2.len && compareTo(s2) == 0);
}

unsigned char String::equals(const char *cstr) const
{
 8082352:	b508      	push	{r3, lr}
	if (len == 0) return (cstr == NULL || *cstr == 0);
 8082354:	6882      	ldr	r2, [r0, #8]
{
	return (len == s2.len && compareTo(s2) == 0);
}

unsigned char String::equals(const char *cstr) const
{
 8082356:	460b      	mov	r3, r1
	if (len == 0) return (cstr == NULL || *cstr == 0);
 8082358:	b912      	cbnz	r2, 8082360 <_ZNK6String6equalsEPKc+0xe>
 808235a:	b919      	cbnz	r1, 8082364 <_ZNK6String6equalsEPKc+0x12>
 808235c:	2001      	movs	r0, #1
 808235e:	bd08      	pop	{r3, pc}
	if (cstr == NULL) return buffer[0] == 0;
 8082360:	b911      	cbnz	r1, 8082368 <_ZNK6String6equalsEPKc+0x16>
 8082362:	6803      	ldr	r3, [r0, #0]
 8082364:	7818      	ldrb	r0, [r3, #0]
 8082366:	e002      	b.n	808236e <_ZNK6String6equalsEPKc+0x1c>
	return strcmp(buffer, cstr) == 0;
 8082368:	6800      	ldr	r0, [r0, #0]
 808236a:	f002 f95b 	bl	8084624 <strcmp>
 808236e:	fab0 f080 	clz	r0, r0
 8082372:	0940      	lsrs	r0, r0, #5
}
 8082374:	bd08      	pop	{r3, pc}
	...

08082378 <_ZN6String6formatEPKcz>:
    StringPrintableHelper help(*this);
    printable.printTo(help);
}

String String::format(const char* fmt, ...)
{
 8082378:	b40e      	push	{r1, r2, r3}
 808237a:	b5ff      	push	{r0, r1, r2, r3, r4, r5, r6, r7, lr}
 808237c:	ac09      	add	r4, sp, #36	; 0x24
 808237e:	f854 7b04 	ldr.w	r7, [r4], #4
 8082382:	4605      	mov	r5, r0
    va_list marker;
    va_start(marker, fmt);
    const int bufsize = 5;
    char test[bufsize];
    size_t n = vsnprintf(test, bufsize, fmt, marker);
 8082384:	4623      	mov	r3, r4
 8082386:	463a      	mov	r2, r7
 8082388:	2105      	movs	r1, #5
 808238a:	a802      	add	r0, sp, #8
}

String String::format(const char* fmt, ...)
{
    va_list marker;
    va_start(marker, fmt);
 808238c:	9401      	str	r4, [sp, #4]
    const int bufsize = 5;
    char test[bufsize];
    size_t n = vsnprintf(test, bufsize, fmt, marker);
 808238e:	f7ff fe0d 	bl	8081fac <vsnprintf>
 8082392:	4606      	mov	r6, r0
    va_end(marker);

    String result;
 8082394:	490b      	ldr	r1, [pc, #44]	; (80823c4 <_ZN6String6formatEPKcz+0x4c>)
 8082396:	4628      	mov	r0, r5
 8082398:	f7ff ff14 	bl	80821c4 <_ZN6StringC1EPK19__FlashStringHelper>
    result.reserve(n);  // internally adds +1 for null terminator
 808239c:	4631      	mov	r1, r6
 808239e:	4628      	mov	r0, r5
 80823a0:	f7ff fee7 	bl	8082172 <_ZN6String7reserveEj>
    if (result.buffer) {
 80823a4:	6828      	ldr	r0, [r5, #0]
 80823a6:	b130      	cbz	r0, 80823b6 <_ZN6String6formatEPKcz+0x3e>
        va_start(marker, fmt);
        n = vsnprintf(result.buffer, n+1, fmt, marker);
 80823a8:	4623      	mov	r3, r4
 80823aa:	463a      	mov	r2, r7
 80823ac:	1c71      	adds	r1, r6, #1
    va_end(marker);

    String result;
    result.reserve(n);  // internally adds +1 for null terminator
    if (result.buffer) {
        va_start(marker, fmt);
 80823ae:	9401      	str	r4, [sp, #4]
        n = vsnprintf(result.buffer, n+1, fmt, marker);
 80823b0:	f7ff fdfc 	bl	8081fac <vsnprintf>
        va_end(marker);
        result.len = n;
 80823b4:	60a8      	str	r0, [r5, #8]
    }
    return result;
}
 80823b6:	4628      	mov	r0, r5
 80823b8:	b004      	add	sp, #16
 80823ba:	e8bd 40f0 	ldmia.w	sp!, {r4, r5, r6, r7, lr}
 80823be:	b003      	add	sp, #12
 80823c0:	4770      	bx	lr
 80823c2:	bf00      	nop
 80823c4:	08087ab0 	.word	0x08087ab0

080823c8 <_ZN5Print5writeEPKhj>:

// Public Methods //////////////////////////////////////////////////////////////

/* default implementation: may be overridden */
size_t Print::write(const uint8_t *buffer, size_t size)
{
 80823c8:	b5f8      	push	{r3, r4, r5, r6, r7, lr}
 80823ca:	4606      	mov	r6, r0
 80823cc:	460d      	mov	r5, r1
 80823ce:	188f      	adds	r7, r1, r2
  size_t n = 0;
 80823d0:	2400      	movs	r4, #0
  while (size--) {
 80823d2:	42bd      	cmp	r5, r7
 80823d4:	d00c      	beq.n	80823f0 <_ZN5Print5writeEPKhj+0x28>
     int chunk = write(*buffer++);
 80823d6:	6833      	ldr	r3, [r6, #0]
 80823d8:	f815 1b01 	ldrb.w	r1, [r5], #1
 80823dc:	689b      	ldr	r3, [r3, #8]
 80823de:	4630      	mov	r0, r6
 80823e0:	4798      	blx	r3
     if (chunk>=0)
 80823e2:	2800      	cmp	r0, #0
 80823e4:	db01      	blt.n	80823ea <_ZN5Print5writeEPKhj+0x22>
         n += chunk;
 80823e6:	4404      	add	r4, r0

/* default implementation: may be overridden */
size_t Print::write(const uint8_t *buffer, size_t size)
{
  size_t n = 0;
  while (size--) {
 80823e8:	e7f3      	b.n	80823d2 <_ZN5Print5writeEPKhj+0xa>
     int chunk = write(*buffer++);
 80823ea:	2c00      	cmp	r4, #0
 80823ec:	bf08      	it	eq
 80823ee:	4604      	moveq	r4, r0
             n = chunk;
         break;
     }
  }
  return n;
}
 80823f0:	4620      	mov	r0, r4
 80823f2:	bdf8      	pop	{r3, r4, r5, r6, r7, pc}

080823f4 <_ZN5Print5writeEPKc>:

    int getWriteError() { return write_error; }
    void clearWriteError() { setWriteError(0); }

    virtual size_t write(uint8_t) = 0;
    size_t write(const char *str) {
 80823f4:	b570      	push	{r4, r5, r6, lr}
 80823f6:	4605      	mov	r5, r0
      if (str == NULL) return 0;
 80823f8:	460c      	mov	r4, r1
      return write((const uint8_t *)str, strlen(str));
    }
 80823fa:	4608      	mov	r0, r1
    int getWriteError() { return write_error; }
    void clearWriteError() { setWriteError(0); }

    virtual size_t write(uint8_t) = 0;
    size_t write(const char *str) {
      if (str == NULL) return 0;
 80823fc:	b149      	cbz	r1, 8082412 <_ZN5Print5writeEPKc+0x1e>
      return write((const uint8_t *)str, strlen(str));
 80823fe:	f002 fe53 	bl	80850a8 <strlen>
 8082402:	682b      	ldr	r3, [r5, #0]
 8082404:	4602      	mov	r2, r0
 8082406:	4621      	mov	r1, r4
 8082408:	4628      	mov	r0, r5
    }
 808240a:	e8bd 4070 	ldmia.w	sp!, {r4, r5, r6, lr}
    void clearWriteError() { setWriteError(0); }

    virtual size_t write(uint8_t) = 0;
    size_t write(const char *str) {
      if (str == NULL) return 0;
      return write((const uint8_t *)str, strlen(str));
 808240e:	68db      	ldr	r3, [r3, #12]
 8082410:	4718      	bx	r3
    }
 8082412:	bd70      	pop	{r4, r5, r6, pc}

08082414 <_ZN5Print5printEc>:
  return write(str);
}

size_t Print::print(char c)
{
  return write(c);
 8082414:	6803      	ldr	r3, [r0, #0]
 8082416:	689b      	ldr	r3, [r3, #8]
 8082418:	4718      	bx	r3

0808241a <_ZN5Print7printlnEv>:
{
  return print(reinterpret_cast<const char*>(str));
}

size_t Print::println(void)
{
 808241a:	b538      	push	{r3, r4, r5, lr}
  size_t n = print('\r');
 808241c:	210d      	movs	r1, #13
{
  return print(reinterpret_cast<const char*>(str));
}

size_t Print::println(void)
{
 808241e:	4605      	mov	r5, r0
  size_t n = print('\r');
 8082420:	f7ff fff8 	bl	8082414 <_ZN5Print5printEc>
  n += print('\n');
 8082424:	210a      	movs	r1, #10
  return print(reinterpret_cast<const char*>(str));
}

size_t Print::println(void)
{
  size_t n = print('\r');
 8082426:	4604      	mov	r4, r0
  n += print('\n');
 8082428:	4628      	mov	r0, r5
 808242a:	f7ff fff3 	bl	8082414 <_ZN5Print5printEc>
  return n;
}
 808242e:	4420      	add	r0, r4
 8082430:	bd38      	pop	{r3, r4, r5, pc}

08082432 <_ZN5Print11printNumberEmh>:
  char *str = &buf[sizeof(buf) - 1];

  *str = '\0';

  // prevent crash if called with base == 1
  if (base < 2) base = 10;
 8082432:	2a01      	cmp	r2, #1
 8082434:	bf98      	it	ls
 8082436:	220a      	movls	r2, #10
  return println(reinterpret_cast<const char*>(str));
}

// Private Methods /////////////////////////////////////////////////////////////

size_t Print::printNumber(unsigned long n, uint8_t base) {
 8082438:	b530      	push	{r4, r5, lr}
 808243a:	460b      	mov	r3, r1
 808243c:	b08b      	sub	sp, #44	; 0x2c
  char buf[8 * sizeof(n) + 1]; // Assumes 8-bit chars plus zero byte.
  char *str = &buf[sizeof(buf) - 1];

  *str = '\0';
 808243e:	2100      	movs	r1, #0
 8082440:	f88d 1024 	strb.w	r1, [sp, #36]	; 0x24
 8082444:	f10d 0423 	add.w	r4, sp, #35	; 0x23
  // prevent crash if called with base == 1
  if (base < 2) base = 10;

  do {
   decltype(n) m = n;
   n /= base;
 8082448:	fbb3 f5f2 	udiv	r5, r3, r2
   char c = m - base * n;
 808244c:	fb05 3312 	mls	r3, r5, r2, r3
 8082450:	b2db      	uxtb	r3, r3
   *--str = c < 10 ? c + '0' : c + 'A' - 10;
 8082452:	2b09      	cmp	r3, #9
 8082454:	bf94      	ite	ls
 8082456:	3330      	addls	r3, #48	; 0x30
 8082458:	3337      	addhi	r3, #55	; 0x37
 808245a:	b2db      	uxtb	r3, r3
 808245c:	4621      	mov	r1, r4
 808245e:	f804 3901 	strb.w	r3, [r4], #-1
 8082462:	462b      	mov	r3, r5
  *str = '\0';

  // prevent crash if called with base == 1
  if (base < 2) base = 10;

  do {
 8082464:	2d00      	cmp	r5, #0
 8082466:	d1ef      	bne.n	8082448 <_ZN5Print11printNumberEmh+0x16>
   n /= base;
   char c = m - base * n;
   *--str = c < 10 ? c + '0' : c + 'A' - 10;
  } while(n);

  return write(str);
 8082468:	f7ff ffc4 	bl	80823f4 <_ZN5Print5writeEPKc>
}
 808246c:	b00b      	add	sp, #44	; 0x2c
 808246e:	bd30      	pop	{r4, r5, pc}

08082470 <_ZN5Print11printf_implEbPKcz>:

  return n;
}

size_t Print::printf_impl(bool newline, const char* format, ...)
{
 8082470:	b40c      	push	{r2, r3}
 8082472:	e92d 43f0 	stmdb	sp!, {r4, r5, r6, r7, r8, r9, lr}
 8082476:	b087      	sub	sp, #28
 8082478:	af00      	add	r7, sp, #0
 808247a:	f107 0438 	add.w	r4, r7, #56	; 0x38
 808247e:	f854 9b04 	ldr.w	r9, [r4], #4
 8082482:	4605      	mov	r5, r0
 8082484:	460e      	mov	r6, r1
    const int bufsize = 20;
    char test[bufsize];
    va_list marker;
    va_start(marker, format);
    size_t n = vsnprintf(test, bufsize, format, marker);
 8082486:	4623      	mov	r3, r4
 8082488:	464a      	mov	r2, r9
 808248a:	2114      	movs	r1, #20
 808248c:	1d38      	adds	r0, r7, #4
size_t Print::printf_impl(bool newline, const char* format, ...)
{
    const int bufsize = 20;
    char test[bufsize];
    va_list marker;
    va_start(marker, format);
 808248e:	603c      	str	r4, [r7, #0]
    size_t n = vsnprintf(test, bufsize, format, marker);
 8082490:	f7ff fd8c 	bl	8081fac <vsnprintf>
    va_end(marker);

    if (n<bufsize)
 8082494:	2813      	cmp	r0, #19
 8082496:	d805      	bhi.n	80824a4 <_ZN5Print11printf_implEbPKcz+0x34>
  return n;
}

size_t Print::print(const char str[])
{
  return write(str);
 8082498:	1d39      	adds	r1, r7, #4
 808249a:	4628      	mov	r0, r5
 808249c:	f7ff ffaa 	bl	80823f4 <_ZN5Print5writeEPKc>
 80824a0:	4604      	mov	r4, r0
 80824a2:	e013      	b.n	80824cc <_ZN5Print11printf_implEbPKcz+0x5c>
    {
        n = print(test);
    }
    else
    {
        char bigger[n+1];
 80824a4:	f100 0308 	add.w	r3, r0, #8
 80824a8:	f023 0307 	bic.w	r3, r3, #7
        va_start(marker, format);
        n = vsnprintf(bigger, n+1, format, marker);
        va_end(marker);
        n = print(bigger);
 80824ac:	46e8      	mov	r8, sp
    {
        n = print(test);
    }
    else
    {
        char bigger[n+1];
 80824ae:	ebad 0d03 	sub.w	sp, sp, r3
        va_start(marker, format);
        n = vsnprintf(bigger, n+1, format, marker);
 80824b2:	1c41      	adds	r1, r0, #1
 80824b4:	4623      	mov	r3, r4
 80824b6:	464a      	mov	r2, r9
 80824b8:	4668      	mov	r0, sp
        n = print(test);
    }
    else
    {
        char bigger[n+1];
        va_start(marker, format);
 80824ba:	603c      	str	r4, [r7, #0]
        n = vsnprintf(bigger, n+1, format, marker);
 80824bc:	f7ff fd76 	bl	8081fac <vsnprintf>
  return n;
}

size_t Print::print(const char str[])
{
  return write(str);
 80824c0:	4669      	mov	r1, sp
 80824c2:	4628      	mov	r0, r5
 80824c4:	f7ff ff96 	bl	80823f4 <_ZN5Print5writeEPKc>
 80824c8:	4604      	mov	r4, r0
 80824ca:	46c5      	mov	sp, r8
        va_start(marker, format);
        n = vsnprintf(bigger, n+1, format, marker);
        va_end(marker);
        n = print(bigger);
    }
    if (newline)
 80824cc:	b11e      	cbz	r6, 80824d6 <_ZN5Print11printf_implEbPKcz+0x66>
        n += println();
 80824ce:	4628      	mov	r0, r5
 80824d0:	f7ff ffa3 	bl	808241a <_ZN5Print7printlnEv>
 80824d4:	4404      	add	r4, r0
    return n;
}
 80824d6:	4620      	mov	r0, r4
 80824d8:	371c      	adds	r7, #28
 80824da:	46bd      	mov	sp, r7
 80824dc:	e8bd 43f0 	ldmia.w	sp!, {r4, r5, r6, r7, r8, r9, lr}
 80824e0:	b002      	add	sp, #8
 80824e2:	4770      	bx	lr

080824e4 <_ZNSt14__shared_countILN9__gnu_cxx12_Lock_policyE0EEC1ERKS2_>:
	if (_M_pi != nullptr)
	  _M_pi->_M_release();
      }

      __shared_count(const __shared_count& __r) noexcept
      : _M_pi(__r._M_pi)
 80824e4:	680b      	ldr	r3, [r1, #0]
 80824e6:	6003      	str	r3, [r0, #0]
      {
	if (_M_pi != 0)
 80824e8:	b113      	cbz	r3, 80824f0 <_ZNSt14__shared_countILN9__gnu_cxx12_Lock_policyE0EEC1ERKS2_+0xc>
    }

  template<>
    inline void
    _Sp_counted_base<_S_single>::_M_add_ref_copy()
    { ++_M_use_count; }
 80824ea:	685a      	ldr	r2, [r3, #4]
 80824ec:	3201      	adds	r2, #1
 80824ee:	605a      	str	r2, [r3, #4]
      __shared_count(const __shared_count& __r) noexcept
      : _M_pi(__r._M_pi)
      {
	if (_M_pi != 0)
	  _M_pi->_M_add_ref_copy();
      }
 80824f0:	4770      	bx	lr
	...

080824f4 <_GLOBAL__sub_I__ZN5spark3LogE>:
    // This handler doesn't support direct logging
}

// spark::Logger
inline spark::Logger::Logger(const char *name) :
        name_(name) {
 80824f4:	4a01      	ldr	r2, [pc, #4]	; (80824fc <_GLOBAL__sub_I__ZN5spark3LogE+0x8>)
 80824f6:	4b02      	ldr	r3, [pc, #8]	; (8082500 <_GLOBAL__sub_I__ZN5spark3LogE+0xc>)
 80824f8:	601a      	str	r2, [r3, #0]
 80824fa:	4770      	bx	lr
 80824fc:	08087b56 	.word	0x08087b56
 8082500:	20000414 	.word	0x20000414

08082504 <_ZN10CloudClass12syncTimeDoneEv.isra.1>:
    bool syncTimePending(void)
    {
        return connected() && spark_sync_time_pending(nullptr);
    }

    bool syncTimeDone(void)
 8082504:	b508      	push	{r3, lr}
    {
        return !spark_sync_time_pending(nullptr) || disconnected();
 8082506:	2000      	movs	r0, #0
 8082508:	f7ff fcf8 	bl	8081efc <spark_sync_time_pending>
 808250c:	b128      	cbz	r0, 808251a <_ZN10CloudClass12syncTimeDoneEv.isra.1+0x16>
    static void sleep(Spark_Sleep_TypeDef sleepMode, long seconds=0) __attribute__ ((deprecated("Please use System.sleep() instead.")))
    { SystemClass::sleep(sleepMode, seconds); }
    static void sleep(uint16_t wakeUpPin, InterruptMode edgeTriggerMode, long seconds=0) __attribute__ ((deprecated("Please use System.sleep() instead.")))
    { SystemClass::sleep(wakeUpPin, edgeTriggerMode, seconds); }

    static bool connected(void) { return spark_cloud_flag_connected(); }
 808250e:	f7ff fcdd 	bl	8081ecc <spark_cloud_flag_connected>
        return connected() && spark_sync_time_pending(nullptr);
    }

    bool syncTimeDone(void)
    {
        return !spark_sync_time_pending(nullptr) || disconnected();
 8082512:	f080 0001 	eor.w	r0, r0, #1
 8082516:	b2c0      	uxtb	r0, r0
 8082518:	bd08      	pop	{r3, pc}
 808251a:	2001      	movs	r0, #1
    }
 808251c:	bd08      	pop	{r3, pc}
	...

08082520 <_ZN9TimeClass7timeStrEl>:
    system_notify_time_changed((uint32_t)time_changed_manually, nullptr, nullptr);
}

/* return string representation for the given time */
String TimeClass::timeStr(time_t t)
{
 8082520:	b537      	push	{r0, r1, r2, r4, r5, lr}
	t += time_zone_cache;
    t += dst_current_cache;
 8082522:	4b0e      	ldr	r3, [pc, #56]	; (808255c <_ZN9TimeClass7timeStrEl+0x3c>)
    system_notify_time_changed((uint32_t)time_changed_manually, nullptr, nullptr);
}

/* return string representation for the given time */
String TimeClass::timeStr(time_t t)
{
 8082524:	4604      	mov	r4, r0
	t += time_zone_cache;
    t += dst_current_cache;
 8082526:	681b      	ldr	r3, [r3, #0]
 8082528:	a802      	add	r0, sp, #8
 808252a:	4419      	add	r1, r3
 808252c:	4b0c      	ldr	r3, [pc, #48]	; (8082560 <_ZN9TimeClass7timeStrEl+0x40>)
 808252e:	681b      	ldr	r3, [r3, #0]
 8082530:	4419      	add	r1, r3
 8082532:	f840 1d04 	str.w	r1, [r0, #-4]!
	tm* calendar_time = localtime(&t);
 8082536:	f001 ff2f 	bl	8084398 <localtime>
        char* ascstr = asctime(calendar_time);
 808253a:	f001 fedf 	bl	80842fc <asctime>
 808253e:	4605      	mov	r5, r0
        int len = strlen(ascstr);
 8082540:	f002 fdb2 	bl	80850a8 <strlen>
        ascstr[len-1] = 0; // remove final newline
 8082544:	2300      	movs	r3, #0
 8082546:	4428      	add	r0, r5
 8082548:	f800 3c01 	strb.w	r3, [r0, #-1]
	return String(ascstr);
 808254c:	4629      	mov	r1, r5
 808254e:	4620      	mov	r0, r4
 8082550:	f7ff fe38 	bl	80821c4 <_ZN6StringC1EPK19__FlashStringHelper>
}
 8082554:	4620      	mov	r0, r4
 8082556:	b003      	add	sp, #12
 8082558:	bd30      	pop	{r4, r5, pc}
 808255a:	bf00      	nop
 808255c:	20000420 	.word	0x20000420
 8082560:	2000041c 	.word	0x2000041c

08082564 <_ZN9TimeClass14timeFormatImplEP2tmPKci>:
    tm* calendar_time = localtime(&t);
    return timeFormatImpl(calendar_time, format_spec, time_zone_cache + dst_current_cache);
}

String TimeClass::timeFormatImpl(tm* calendar_time, const char* format, int time_zone)
{
 8082564:	e92d 47f0 	stmdb	sp!, {r4, r5, r6, r7, r8, r9, sl, lr}
 8082568:	b0a4      	sub	sp, #144	; 0x90
    char format_str[64];
    // only copy up to n-1 to dest if no null terminator found
    strncpy(format_str, format, sizeof(format_str) - 1); // Flawfinder: ignore (ch42318)
 808256a:	ac14      	add	r4, sp, #80	; 0x50
    tm* calendar_time = localtime(&t);
    return timeFormatImpl(calendar_time, format_spec, time_zone_cache + dst_current_cache);
}

String TimeClass::timeFormatImpl(tm* calendar_time, const char* format, int time_zone)
{
 808256c:	4607      	mov	r7, r0
 808256e:	4689      	mov	r9, r1
    char format_str[64];
    // only copy up to n-1 to dest if no null terminator found
    strncpy(format_str, format, sizeof(format_str) - 1); // Flawfinder: ignore (ch42318)
 8082570:	4620      	mov	r0, r4
    tm* calendar_time = localtime(&t);
    return timeFormatImpl(calendar_time, format_spec, time_zone_cache + dst_current_cache);
}

String TimeClass::timeFormatImpl(tm* calendar_time, const char* format, int time_zone)
{
 8082572:	4611      	mov	r1, r2
    char format_str[64];
    // only copy up to n-1 to dest if no null terminator found
    strncpy(format_str, format, sizeof(format_str) - 1); // Flawfinder: ignore (ch42318)
 8082574:	223f      	movs	r2, #63	; 0x3f
    tm* calendar_time = localtime(&t);
    return timeFormatImpl(calendar_time, format_spec, time_zone_cache + dst_current_cache);
}

String TimeClass::timeFormatImpl(tm* calendar_time, const char* format, int time_zone)
{
 8082576:	461d      	mov	r5, r3
    char format_str[64];
    // only copy up to n-1 to dest if no null terminator found
    strncpy(format_str, format, sizeof(format_str) - 1); // Flawfinder: ignore (ch42318)
 8082578:	f002 fdb3 	bl	80850e2 <strncpy>
    format_str[sizeof(format_str) - 1] = '\0'; // ensure null termination
 808257c:	2300      	movs	r3, #0
    size_t len = strlen(format_str); // Flawfinder: ignore (ch42318)
 808257e:	4620      	mov	r0, r4
String TimeClass::timeFormatImpl(tm* calendar_time, const char* format, int time_zone)
{
    char format_str[64];
    // only copy up to n-1 to dest if no null terminator found
    strncpy(format_str, format, sizeof(format_str) - 1); // Flawfinder: ignore (ch42318)
    format_str[sizeof(format_str) - 1] = '\0'; // ensure null termination
 8082580:	f88d 308f 	strb.w	r3, [sp, #143]	; 0x8f
    size_t len = strlen(format_str); // Flawfinder: ignore (ch42318)
 8082584:	f002 fd90 	bl	80850a8 <strlen>
 8082588:	4680      	mov	r8, r0

    char time_zone_str[16];
    // while we are not using stdlib for managing the timezone, we have to do this manually
    if (!time_zone) {
 808258a:	b925      	cbnz	r5, 8082596 <_ZN9TimeClass14timeFormatImplEP2tmPKci+0x32>
        strcpy(time_zone_str, "Z");
 808258c:	4924      	ldr	r1, [pc, #144]	; (8082620 <_ZN9TimeClass14timeFormatImplEP2tmPKci+0xbc>)
 808258e:	a803      	add	r0, sp, #12
 8082590:	f002 f852 	bl	8084638 <strcpy>
 8082594:	e013      	b.n	80825be <_ZN9TimeClass14timeFormatImplEP2tmPKci+0x5a>
    }
    else {
        snprintf(time_zone_str, sizeof(time_zone_str), "%+03d:%02u", time_zone/3600, abs(time_zone/60)%60);
 8082596:	213c      	movs	r1, #60	; 0x3c
 8082598:	fb95 f2f1 	sdiv	r2, r5, r1
 808259c:	2a00      	cmp	r2, #0
 808259e:	bfb8      	it	lt
 80825a0:	4252      	neglt	r2, r2
 80825a2:	fb92 f3f1 	sdiv	r3, r2, r1
 80825a6:	fb01 2213 	mls	r2, r1, r3, r2
 80825aa:	f44f 6361 	mov.w	r3, #3600	; 0xe10
 80825ae:	9200      	str	r2, [sp, #0]
 80825b0:	fb95 f3f3 	sdiv	r3, r5, r3
 80825b4:	4a1b      	ldr	r2, [pc, #108]	; (8082624 <_ZN9TimeClass14timeFormatImplEP2tmPKci+0xc0>)
 80825b6:	2110      	movs	r1, #16
 80825b8:	a803      	add	r0, sp, #12
 80825ba:	f7ff fce7 	bl	8081f8c <snprintf>
    tm* calendar_time = localtime(&t);
    return timeFormatImpl(calendar_time, format_spec, time_zone_cache + dst_current_cache);
}

String TimeClass::timeFormatImpl(tm* calendar_time, const char* format, int time_zone)
{
 80825be:	4625      	mov	r5, r4
 80825c0:	1b2e      	subs	r6, r5, r4
    else {
        snprintf(time_zone_str, sizeof(time_zone_str), "%+03d:%02u", time_zone/3600, abs(time_zone/60)%60);
    }

    // replace %z with the timezone
    for (size_t i=0; i<len-1; i++)
 80825c2:	f108 3aff 	add.w	sl, r8, #4294967295
 80825c6:	45b2      	cmp	sl, r6
 80825c8:	d91b      	bls.n	8082602 <_ZN9TimeClass14timeFormatImplEP2tmPKci+0x9e>
    {
        if (format_str[i]=='%' && format_str[i+1]=='z')
 80825ca:	782b      	ldrb	r3, [r5, #0]
 80825cc:	2b25      	cmp	r3, #37	; 0x25
 80825ce:	d116      	bne.n	80825fe <_ZN9TimeClass14timeFormatImplEP2tmPKci+0x9a>
 80825d0:	786b      	ldrb	r3, [r5, #1]
 80825d2:	2b7a      	cmp	r3, #122	; 0x7a
 80825d4:	d113      	bne.n	80825fe <_ZN9TimeClass14timeFormatImplEP2tmPKci+0x9a>
        {
            size_t tzlen = strlen(time_zone_str);
 80825d6:	a803      	add	r0, sp, #12
 80825d8:	f002 fd66 	bl	80850a8 <strlen>
 80825dc:	4680      	mov	r8, r0
            memcpy(format_str+i+tzlen, format_str+i+2, len-i-1);    // +1 include the 0 char
 80825de:	4430      	add	r0, r6
 80825e0:	ebc6 020a 	rsb	r2, r6, sl
 80825e4:	1ca9      	adds	r1, r5, #2
 80825e6:	4420      	add	r0, r4
 80825e8:	f001 ffd2 	bl	8084590 <memcpy>
            memcpy(format_str+i, time_zone_str, tzlen);
 80825ec:	4642      	mov	r2, r8
 80825ee:	a903      	add	r1, sp, #12
 80825f0:	4628      	mov	r0, r5
 80825f2:	f001 ffcd 	bl	8084590 <memcpy>
            len = strlen(format_str);
 80825f6:	4620      	mov	r0, r4
 80825f8:	f002 fd56 	bl	80850a8 <strlen>
 80825fc:	4680      	mov	r8, r0
 80825fe:	3501      	adds	r5, #1
    else {
        snprintf(time_zone_str, sizeof(time_zone_str), "%+03d:%02u", time_zone/3600, abs(time_zone/60)%60);
    }

    // replace %z with the timezone
    for (size_t i=0; i<len-1; i++)
 8082600:	e7de      	b.n	80825c0 <_ZN9TimeClass14timeFormatImplEP2tmPKci+0x5c>
            len = strlen(format_str);
        }
    }

    char buf[50];
    strftime(buf, 50, format_str, calendar_time);
 8082602:	464b      	mov	r3, r9
 8082604:	4622      	mov	r2, r4
 8082606:	2132      	movs	r1, #50	; 0x32
 8082608:	a807      	add	r0, sp, #28
 808260a:	f002 f899 	bl	8084740 <strftime>
    return String(buf);
 808260e:	a907      	add	r1, sp, #28
 8082610:	4638      	mov	r0, r7
 8082612:	f7ff fdd7 	bl	80821c4 <_ZN6StringC1EPK19__FlashStringHelper>
}
 8082616:	4638      	mov	r0, r7
 8082618:	b024      	add	sp, #144	; 0x90
 808261a:	e8bd 87f0 	ldmia.w	sp!, {r4, r5, r6, r7, r8, r9, sl, pc}
 808261e:	bf00      	nop
 8082620:	080881fd 	.word	0x080881fd
 8082624:	08087bb0 	.word	0x08087bb0

08082628 <_ZN9TimeClass6formatElPKc>:
        ascstr[len-1] = 0; // remove final newline
	return String(ascstr);
}

String TimeClass::format(time_t t, const char* format_spec)
{
 8082628:	b5f7      	push	{r0, r1, r2, r4, r5, r6, r7, lr}
 808262a:	4605      	mov	r5, r0
 808262c:	9201      	str	r2, [sp, #4]
    if (format_spec==NULL)
 808262e:	461c      	mov	r4, r3
 8082630:	b913      	cbnz	r3, 8082638 <_ZN9TimeClass6formatElPKc+0x10>
        format_spec = this->format_spec;
 8082632:	4b12      	ldr	r3, [pc, #72]	; (808267c <_ZN9TimeClass6formatElPKc+0x54>)
 8082634:	681c      	ldr	r4, [r3, #0]

    if (!format_spec || !strcmp(format_spec,TIME_FORMAT_DEFAULT)) {
 8082636:	b12c      	cbz	r4, 8082644 <_ZN9TimeClass6formatElPKc+0x1c>
 8082638:	4b11      	ldr	r3, [pc, #68]	; (8082680 <_ZN9TimeClass6formatElPKc+0x58>)
 808263a:	4620      	mov	r0, r4
 808263c:	6819      	ldr	r1, [r3, #0]
 808263e:	f001 fff1 	bl	8084624 <strcmp>
 8082642:	b920      	cbnz	r0, 808264e <_ZN9TimeClass6formatElPKc+0x26>
        return timeStr(t);
 8082644:	9901      	ldr	r1, [sp, #4]
 8082646:	4628      	mov	r0, r5
 8082648:	f7ff ff6a 	bl	8082520 <_ZN9TimeClass7timeStrEl>
 808264c:	e013      	b.n	8082676 <_ZN9TimeClass6formatElPKc+0x4e>
    }
    t += time_zone_cache;
 808264e:	4f0d      	ldr	r7, [pc, #52]	; (8082684 <_ZN9TimeClass6formatElPKc+0x5c>)
    t += dst_current_cache;
 8082650:	9a01      	ldr	r2, [sp, #4]
 8082652:	683b      	ldr	r3, [r7, #0]
 8082654:	4e0c      	ldr	r6, [pc, #48]	; (8082688 <_ZN9TimeClass6formatElPKc+0x60>)
 8082656:	441a      	add	r2, r3
 8082658:	6833      	ldr	r3, [r6, #0]
 808265a:	a802      	add	r0, sp, #8
 808265c:	4413      	add	r3, r2
 808265e:	f840 3d04 	str.w	r3, [r0, #-4]!
    tm* calendar_time = localtime(&t);
 8082662:	f001 fe99 	bl	8084398 <localtime>
    return timeFormatImpl(calendar_time, format_spec, time_zone_cache + dst_current_cache);
 8082666:	683a      	ldr	r2, [r7, #0]
 8082668:	6833      	ldr	r3, [r6, #0]
 808266a:	4601      	mov	r1, r0
 808266c:	4413      	add	r3, r2
 808266e:	4628      	mov	r0, r5
 8082670:	4622      	mov	r2, r4
 8082672:	f7ff ff77 	bl	8082564 <_ZN9TimeClass14timeFormatImplEP2tmPKci>
}
 8082676:	4628      	mov	r0, r5
 8082678:	b003      	add	sp, #12
 808267a:	bdf0      	pop	{r4, r5, r6, r7, pc}
 808267c:	20000418 	.word	0x20000418
 8082680:	20000010 	.word	0x20000010
 8082684:	20000420 	.word	0x20000420
 8082688:	2000041c 	.word	0x2000041c

0808268c <_ZN9TimeClass7isValidEv>:
    strftime(buf, 50, format_str, calendar_time);
    return String(buf);
}

bool TimeClass::isValid()
{
 808268c:	b510      	push	{r4, lr}
    bool rtcstate = HAL_RTC_Time_Is_Valid(nullptr);
 808268e:	2000      	movs	r0, #0
 8082690:	f7ff fa68 	bl	8081b64 <HAL_RTC_Time_Is_Valid>
    if (rtcstate)
 8082694:	4604      	mov	r4, r0
 8082696:	b968      	cbnz	r0, 80826b4 <_ZN9TimeClass7isValidEv+0x28>
    }

    static System_Mode_TypeDef mode(void) {
        return system_mode();
 8082698:	f7ff fb6c 	bl	8081d74 <system_mode>
        return rtcstate;
    if (System.mode() == AUTOMATIC && system_thread_get_state(nullptr) == spark::feature::DISABLED)
 808269c:	2801      	cmp	r0, #1
 808269e:	d10b      	bne.n	80826b8 <_ZN9TimeClass7isValidEv+0x2c>
 80826a0:	4620      	mov	r0, r4
 80826a2:	f7ff fb8f 	bl	8081dc4 <system_thread_get_state>
 80826a6:	b938      	cbnz	r0, 80826b8 <_ZN9TimeClass7isValidEv+0x2c>
    {
        waitUntil(Particle.syncTimeDone);
 80826a8:	f7ff ff2c 	bl	8082504 <_ZN10CloudClass12syncTimeDoneEv.isra.1>


    static uint32_t freeMemory();

    template<typename Condition, typename While> static bool waitConditionWhile(Condition _condition, While _while) {
        while (_while() && !_condition()) {
 80826ac:	b930      	cbnz	r0, 80826bc <_ZN9TimeClass7isValidEv+0x30>
            spark_process();
 80826ae:	f7ff fbfd 	bl	8081eac <spark_process>
 80826b2:	e7f9      	b.n	80826a8 <_ZN9TimeClass7isValidEv+0x1c>

bool TimeClass::isValid()
{
    bool rtcstate = HAL_RTC_Time_Is_Valid(nullptr);
    if (rtcstate)
        return rtcstate;
 80826b4:	2001      	movs	r0, #1
 80826b6:	bd10      	pop	{r4, pc}
    if (System.mode() == AUTOMATIC && system_thread_get_state(nullptr) == spark::feature::DISABLED)
    {
        waitUntil(Particle.syncTimeDone);
        return HAL_RTC_Time_Is_Valid(nullptr);
    }
    return rtcstate;
 80826b8:	2000      	movs	r0, #0
 80826ba:	bd10      	pop	{r4, pc}
    bool rtcstate = HAL_RTC_Time_Is_Valid(nullptr);
    if (rtcstate)
        return rtcstate;
    if (System.mode() == AUTOMATIC && system_thread_get_state(nullptr) == spark::feature::DISABLED)
    {
        waitUntil(Particle.syncTimeDone);
 80826bc:	f7ff ff22 	bl	8082504 <_ZN10CloudClass12syncTimeDoneEv.isra.1>
        return HAL_RTC_Time_Is_Valid(nullptr);
 80826c0:	2000      	movs	r0, #0
 80826c2:	f7ff fa4f 	bl	8081b64 <HAL_RTC_Time_Is_Valid>
 80826c6:	3000      	adds	r0, #0
 80826c8:	bf18      	it	ne
 80826ca:	2001      	movne	r0, #1
    }
    return rtcstate;
}
 80826cc:	bd10      	pop	{r4, pc}

080826ce <_ZN9TimeClass3nowEv>:
	return calendar_time_cache.tm_year;
}

/* return the current time as seconds since Jan 1 1970 */
time_t TimeClass::now()
{
 80826ce:	b508      	push	{r3, lr}
    (void)isValid();
 80826d0:	f7ff ffdc 	bl	808268c <_ZN9TimeClass7isValidEv>
	return HAL_RTC_Get_UnixTime();
}
 80826d4:	e8bd 4008 	ldmia.w	sp!, {r3, lr}

/* return the current time as seconds since Jan 1 1970 */
time_t TimeClass::now()
{
    (void)isValid();
	return HAL_RTC_Get_UnixTime();
 80826d8:	f7ff ba3c 	b.w	8081b54 <HAL_RTC_Get_UnixTime>

080826dc <_GLOBAL__sub_I_TIME_FORMAT_DEFAULT>:
            calendar_time_cache = Convert_UnixTime_To_CalendarTime(unix_time);
            unix_time_cache = unix_time;
    }
}

const char* TimeClass::format_spec = TIME_FORMAT_DEFAULT;
 80826dc:	4b02      	ldr	r3, [pc, #8]	; (80826e8 <_GLOBAL__sub_I_TIME_FORMAT_DEFAULT+0xc>)
 80826de:	681a      	ldr	r2, [r3, #0]
 80826e0:	4b02      	ldr	r3, [pc, #8]	; (80826ec <_GLOBAL__sub_I_TIME_FORMAT_DEFAULT+0x10>)
 80826e2:	601a      	str	r2, [r3, #0]
 80826e4:	4770      	bx	lr
 80826e6:	bf00      	nop
 80826e8:	20000010 	.word	0x20000010
 80826ec:	20000418 	.word	0x20000418

080826f0 <delay>:
    return (value - fromStart) * (toEnd - toStart) / (fromEnd - fromStart) + toStart;
}

void delay(unsigned long ms)
{
    system_delay_ms(ms, false);
 80826f0:	2100      	movs	r1, #0
 80826f2:	f7ff bb4f 	b.w	8081d94 <system_delay_ms>

080826f6 <_ZNSt14_Function_baseD1Ev>:
	}
      };

    _Function_base() : _M_manager(nullptr) { }

    ~_Function_base()
 80826f6:	b510      	push	{r4, lr}
    {
      if (_M_manager)
 80826f8:	6883      	ldr	r3, [r0, #8]
	}
      };

    _Function_base() : _M_manager(nullptr) { }

    ~_Function_base()
 80826fa:	4604      	mov	r4, r0
    {
      if (_M_manager)
 80826fc:	b113      	cbz	r3, 8082704 <_ZNSt14_Function_baseD1Ev+0xe>
	_M_manager(_M_functor, _M_functor, __destroy_functor);
 80826fe:	2203      	movs	r2, #3
 8082700:	4601      	mov	r1, r0
 8082702:	4798      	blx	r3
    }
 8082704:	4620      	mov	r0, r4
 8082706:	bd10      	pop	{r4, pc}

08082708 <_ZN8RGBClassD1Ev>:
#include "rgbled.h"

typedef void (raw_rgb_change_handler_t)(uint8_t, uint8_t, uint8_t);
typedef std::function<raw_rgb_change_handler_t> wiring_rgb_change_handler_t;

class RGBClass {
 8082708:	b510      	push	{r4, lr}
 808270a:	4604      	mov	r4, r0
   *  @ingroup functors
   *
   *  Polymorphic function wrapper.
   */
  template<typename _Res, typename... _ArgTypes>
    class function<_Res(_ArgTypes...)>
 808270c:	f7ff fff3 	bl	80826f6 <_ZNSt14_Function_baseD1Ev>
 8082710:	4620      	mov	r0, r4
 8082712:	bd10      	pop	{r4, pc}

08082714 <_ZSt4swapISt9_Any_dataEvRT_S2_>:
   *  @param  __b  Another thing of arbitrary type.
   *  @return   Nothing.
  */
  template<typename _Tp>
    inline void
    swap(_Tp& __a, _Tp& __b)
 8082714:	b513      	push	{r0, r1, r4, lr}
 8082716:	460b      	mov	r3, r1
 8082718:	4604      	mov	r4, r0
#endif
    {
      // concept requirements
      __glibcxx_function_requires(_SGIAssignableConcept<_Tp>)

      _Tp __tmp = _GLIBCXX_MOVE(__a);
 808271a:	c803      	ldmia	r0, {r0, r1}
 808271c:	e88d 0003 	stmia.w	sp, {r0, r1}
      __a = _GLIBCXX_MOVE(__b);
 8082720:	e893 0003 	ldmia.w	r3, {r0, r1}
 8082724:	e884 0003 	stmia.w	r4, {r0, r1}
      __b = _GLIBCXX_MOVE(__tmp);
 8082728:	e89d 0003 	ldmia.w	sp, {r0, r1}
 808272c:	e883 0003 	stmia.w	r3, {r0, r1}
    }
 8082730:	b002      	add	sp, #8
 8082732:	bd10      	pop	{r4, pc}

08082734 <_GLOBAL__sub_I_RGB>:
	{
	  _Base::_M_init_functor(__functor, std::__addressof(__f.get()));
	}
      };

    _Function_base() : _M_manager(nullptr) { }
 8082734:	4803      	ldr	r0, [pc, #12]	; (8082744 <_GLOBAL__sub_I_RGB+0x10>)
 8082736:	2300      	movs	r3, #0
 8082738:	6083      	str	r3, [r0, #8]
#include "spark_wiring_rgb.h"
#include "spark_wiring_interrupts.h"

#include "core_hal.h"

RGBClass RGB;
 808273a:	4a03      	ldr	r2, [pc, #12]	; (8082748 <_GLOBAL__sub_I_RGB+0x14>)
 808273c:	4903      	ldr	r1, [pc, #12]	; (808274c <_GLOBAL__sub_I_RGB+0x18>)
 808273e:	f000 bf71 	b.w	8083624 <__aeabi_atexit>
 8082742:	bf00      	nop
 8082744:	20000428 	.word	0x20000428
 8082748:	20000100 	.word	0x20000100
 808274c:	08082709 	.word	0x08082709

08082750 <serialEventRun>:

/**
 * Provides background processing of serial data.
 */
void serialEventRun()
{
 8082750:	b508      	push	{r3, lr}
    if (serialEvent && Serial.available()>0)
 8082752:	4b18      	ldr	r3, [pc, #96]	; (80827b4 <serialEventRun+0x64>)
 8082754:	b133      	cbz	r3, 8082764 <serialEventRun+0x14>
 8082756:	f000 fc41 	bl	8082fdc <_Z16_fetch_usbserialv>
 808275a:	6803      	ldr	r3, [r0, #0]
 808275c:	691b      	ldr	r3, [r3, #16]
 808275e:	4798      	blx	r3
 8082760:	2800      	cmp	r0, #0
 8082762:	dc1e      	bgt.n	80827a2 <serialEventRun+0x52>
        serialEvent();

    if (serialEvent1 && Serial1.available()>0)
 8082764:	4b14      	ldr	r3, [pc, #80]	; (80827b8 <serialEventRun+0x68>)
 8082766:	b133      	cbz	r3, 8082776 <serialEventRun+0x26>
 8082768:	f000 fd56 	bl	8083218 <_Z22__fetch_global_Serial1v>
 808276c:	6803      	ldr	r3, [r0, #0]
 808276e:	691b      	ldr	r3, [r3, #16]
 8082770:	4798      	blx	r3
 8082772:	2800      	cmp	r0, #0
 8082774:	dc18      	bgt.n	80827a8 <serialEventRun+0x58>
        serialEvent1();

#if Wiring_Serial2
    if (serialEventRun2) serialEventRun2();
 8082776:	4b11      	ldr	r3, [pc, #68]	; (80827bc <serialEventRun+0x6c>)
 8082778:	b10b      	cbz	r3, 808277e <serialEventRun+0x2e>
 808277a:	f3af 8000 	nop.w
#if Wiring_Serial3
    if (serialEventRun3) serialEventRun3();
#endif

#if Wiring_Serial4
    if (serialEventRun4) serialEventRun4();
 808277e:	4b10      	ldr	r3, [pc, #64]	; (80827c0 <serialEventRun+0x70>)
 8082780:	b10b      	cbz	r3, 8082786 <serialEventRun+0x36>
 8082782:	f3af 8000 	nop.w
#endif

#if Wiring_Serial5
    if (serialEventRun5) serialEventRun5();
 8082786:	4b0f      	ldr	r3, [pc, #60]	; (80827c4 <serialEventRun+0x74>)
 8082788:	b10b      	cbz	r3, 808278e <serialEventRun+0x3e>
 808278a:	f3af 8000 	nop.w
#endif

#if Wiring_USBSerial1
    if (usbSerialEvent1 && USBSerial1.available()>0)
 808278e:	4b0e      	ldr	r3, [pc, #56]	; (80827c8 <serialEventRun+0x78>)
 8082790:	b17b      	cbz	r3, 80827b2 <serialEventRun+0x62>
 8082792:	f000 fc51 	bl	8083038 <_Z17_fetch_usbserial1v>
 8082796:	6803      	ldr	r3, [r0, #0]
 8082798:	691b      	ldr	r3, [r3, #16]
 808279a:	4798      	blx	r3
 808279c:	2800      	cmp	r0, #0
 808279e:	dc06      	bgt.n	80827ae <serialEventRun+0x5e>
 80827a0:	bd08      	pop	{r3, pc}
 * Provides background processing of serial data.
 */
void serialEventRun()
{
    if (serialEvent && Serial.available()>0)
        serialEvent();
 80827a2:	f3af 8000 	nop.w
 80827a6:	e7dd      	b.n	8082764 <serialEventRun+0x14>

    if (serialEvent1 && Serial1.available()>0)
        serialEvent1();
 80827a8:	f3af 8000 	nop.w
 80827ac:	e7e3      	b.n	8082776 <serialEventRun+0x26>
    if (serialEventRun5) serialEventRun5();
#endif

#if Wiring_USBSerial1
    if (usbSerialEvent1 && USBSerial1.available()>0)
        usbSerialEvent1();
 80827ae:	f3af 8000 	nop.w
 80827b2:	bd08      	pop	{r3, pc}
	...

080827cc <_post_loop>:
#if Wiring_Serial5
void serialEvent5() __attribute__((weak));
#endif

void _post_loop()
{
 80827cc:	b508      	push	{r3, lr}
	serialEventRun();
 80827ce:	f7ff ffbf 	bl	8082750 <serialEventRun>
		return !timeout_fn;
	}

	static inline system_tick_t current_time()
	{
		return HAL_Timer_Get_Milli_Seconds();
 80827d2:	f7ff f9b7 	bl	8081b44 <HAL_Timer_Get_Milli_Seconds>
	/**
	 * Lifesign that the application is still working normally.
	 */
	static void checkin()
	{
		last_checkin = current_time();
 80827d6:	4b01      	ldr	r3, [pc, #4]	; (80827dc <_post_loop+0x10>)
 80827d8:	6018      	str	r0, [r3, #0]
 80827da:	bd08      	pop	{r3, pc}
 80827dc:	200004dc 	.word	0x200004dc

080827e0 <_Z33system_initialize_user_backup_ramv>:
 * the dynamically linked application module.
 */
void system_initialize_user_backup_ram()
{
    size_t len = &link_global_retained_end-&link_global_retained_start;
    memcpy(&link_global_retained_start, &link_global_retained_initial_values, len);
 80827e0:	4802      	ldr	r0, [pc, #8]	; (80827ec <_Z33system_initialize_user_backup_ramv+0xc>)
 80827e2:	4a03      	ldr	r2, [pc, #12]	; (80827f0 <_Z33system_initialize_user_backup_ramv+0x10>)
 80827e4:	4903      	ldr	r1, [pc, #12]	; (80827f4 <_Z33system_initialize_user_backup_ramv+0x14>)
 80827e6:	1a12      	subs	r2, r2, r0
 80827e8:	f001 bed2 	b.w	8084590 <memcpy>
 80827ec:	40024000 	.word	0x40024000
 80827f0:	40024004 	.word	0x40024004
 80827f4:	08088380 	.word	0x08088380

080827f8 <_Z27ctrl_request_custom_handlerP12ctrl_request>:
bool __backup_ram_was_valid() { return false; }

#endif

// Default handler for CTRL_REQUEST_APP_CUSTOM requests
void __attribute((weak)) ctrl_request_custom_handler(ctrl_request* req) {
 80827f8:	b507      	push	{r0, r1, r2, lr}
    system_ctrl_set_result(req, SYSTEM_ERROR_NOT_SUPPORTED, nullptr, nullptr, nullptr);
 80827fa:	2300      	movs	r3, #0
 80827fc:	9300      	str	r3, [sp, #0]
 80827fe:	461a      	mov	r2, r3
 8082800:	f06f 0177 	mvn.w	r1, #119	; 0x77
 8082804:	f7ff faf0 	bl	8081de8 <system_ctrl_set_result>
}
 8082808:	b003      	add	sp, #12
 808280a:	f85d fb04 	ldr.w	pc, [sp], #4
	...

08082810 <_ZL20ctrl_request_handlerP12ctrl_request>:
// Callback invoked to process a logging configuration request
void(*log_process_ctrl_request_callback)(ctrl_request* req) = nullptr;
#endif

// Application handler for control requests
static void ctrl_request_handler(ctrl_request* req) {
 8082810:	b507      	push	{r0, r1, r2, lr}
    switch (req->type) {
 8082812:	8843      	ldrh	r3, [r0, #2]
 8082814:	2b0a      	cmp	r3, #10
 8082816:	d008      	beq.n	808282a <_ZL20ctrl_request_handlerP12ctrl_request+0x1a>
 8082818:	2b50      	cmp	r3, #80	; 0x50
 808281a:	d109      	bne.n	8082830 <_ZL20ctrl_request_handlerP12ctrl_request+0x20>
#if Wiring_LogConfig
    case CTRL_REQUEST_LOG_CONFIG: {
        if (log_process_ctrl_request_callback) {
 808281c:	4b09      	ldr	r3, [pc, #36]	; (8082844 <_ZL20ctrl_request_handlerP12ctrl_request+0x34>)
 808281e:	681b      	ldr	r3, [r3, #0]
 8082820:	b13b      	cbz	r3, 8082832 <_ZL20ctrl_request_handlerP12ctrl_request+0x22>
    }
    default:
        system_ctrl_set_result(req, SYSTEM_ERROR_NOT_SUPPORTED, nullptr, nullptr, nullptr);
        break;
    }
}
 8082822:	b003      	add	sp, #12
 8082824:	f85d eb04 	ldr.w	lr, [sp], #4
static void ctrl_request_handler(ctrl_request* req) {
    switch (req->type) {
#if Wiring_LogConfig
    case CTRL_REQUEST_LOG_CONFIG: {
        if (log_process_ctrl_request_callback) {
            log_process_ctrl_request_callback(req);
 8082828:	4718      	bx	r3
        }
        break;
    }
#endif
    case CTRL_REQUEST_APP_CUSTOM: {
        ctrl_request_custom_handler(req);
 808282a:	f7ff ffe5 	bl	80827f8 <_Z27ctrl_request_custom_handlerP12ctrl_request>
        break;
 808282e:	e006      	b.n	808283e <_ZL20ctrl_request_handlerP12ctrl_request+0x2e>
    }
    default:
        system_ctrl_set_result(req, SYSTEM_ERROR_NOT_SUPPORTED, nullptr, nullptr, nullptr);
 8082830:	2300      	movs	r3, #0
 8082832:	9300      	str	r3, [sp, #0]
 8082834:	461a      	mov	r2, r3
 8082836:	f06f 0177 	mvn.w	r1, #119	; 0x77
 808283a:	f7ff fad5 	bl	8081de8 <system_ctrl_set_result>
        break;
    }
}
 808283e:	b003      	add	sp, #12
 8082840:	f85d fb04 	ldr.w	pc, [sp], #4
 8082844:	20000438 	.word	0x20000438

08082848 <module_user_init_hook>:

void module_user_init_hook()
{
 8082848:	b538      	push	{r3, r4, r5, lr}
#if HAL_PLATFORM_BACKUP_RAM
    backup_ram_was_valid_ =  __backup_sram_signature==signature;
 808284a:	4c10      	ldr	r4, [pc, #64]	; (808288c <module_user_init_hook+0x44>)
 808284c:	4d10      	ldr	r5, [pc, #64]	; (8082890 <module_user_init_hook+0x48>)
 808284e:	6823      	ldr	r3, [r4, #0]
 8082850:	42ab      	cmp	r3, r5
 8082852:	4b10      	ldr	r3, [pc, #64]	; (8082894 <module_user_init_hook+0x4c>)
 8082854:	bf0c      	ite	eq
 8082856:	2201      	moveq	r2, #1
 8082858:	2200      	movne	r2, #0
 808285a:	701a      	strb	r2, [r3, #0]
    if (!backup_ram_was_valid_) {
 808285c:	d002      	beq.n	8082864 <module_user_init_hook+0x1c>
        system_initialize_user_backup_ram();
 808285e:	f7ff ffbf 	bl	80827e0 <_Z33system_initialize_user_backup_ramv>
        __backup_sram_signature = signature;
 8082862:	6025      	str	r5, [r4, #0]
    }
#endif

#if HAL_PLATFORM_RNG
    // Initialize the default stdlib PRNG using hardware RNG as a seed
    const uint32_t seed = HAL_RNG_GetRandomNumber();
 8082864:	f7ff f966 	bl	8081b34 <HAL_RNG_GetRandomNumber>
 8082868:	4604      	mov	r4, r0
    srand(seed);
 808286a:	f001 fea5 	bl	80845b8 <srand>

    // If the user defines random_seed_from_cloud, call it with a seed value
    // generated by a hardware RNG as well.
    if (random_seed_from_cloud) {
 808286e:	4b0a      	ldr	r3, [pc, #40]	; (8082898 <module_user_init_hook+0x50>)
 8082870:	b113      	cbz	r3, 8082878 <module_user_init_hook+0x30>
        random_seed_from_cloud(seed);
 8082872:	4620      	mov	r0, r4
 8082874:	f3af 8000 	nop.w
    }
#endif
    // Register the random_seed_from_cloud handler
    spark_set_random_seed_from_cloud_handler(&random_seed_from_cloud, nullptr);
 8082878:	2100      	movs	r1, #0
 808287a:	4807      	ldr	r0, [pc, #28]	; (8082898 <module_user_init_hook+0x50>)
 808287c:	f7ff fb4e 	bl	8081f1c <spark_set_random_seed_from_cloud_handler>

    // Register application handler for the control requests
    system_ctrl_set_app_request_handler(ctrl_request_handler, nullptr);
}
 8082880:	e8bd 4038 	ldmia.w	sp!, {r3, r4, r5, lr}
#endif
    // Register the random_seed_from_cloud handler
    spark_set_random_seed_from_cloud_handler(&random_seed_from_cloud, nullptr);

    // Register application handler for the control requests
    system_ctrl_set_app_request_handler(ctrl_request_handler, nullptr);
 8082884:	2100      	movs	r1, #0
 8082886:	4805      	ldr	r0, [pc, #20]	; (808289c <module_user_init_hook+0x54>)
 8082888:	f7ff baa4 	b.w	8081dd4 <system_ctrl_set_app_request_handler>
 808288c:	40024000 	.word	0x40024000
 8082890:	9a271c1e 	.word	0x9a271c1e
 8082894:	2000043c 	.word	0x2000043c
 8082898:	00000000 	.word	0x00000000
 808289c:	08082811 	.word	0x08082811

080828a0 <_ZNSt15_Sp_counted_ptrIPN8particle6detail10FutureImplIbNS1_13FutureContextEEELN9__gnu_cxx12_Lock_policyE0EED1Ev>:
    class __shared_count;


  // Counted ptr with no deleter or allocator support
  template<typename _Ptr, _Lock_policy _Lp>
    class _Sp_counted_ptr final : public _Sp_counted_base<_Lp>
 80828a0:	4770      	bx	lr

080828a2 <_ZNSt15_Sp_counted_ptrIPN8particle6detail10FutureImplIbNS1_13FutureContextEEELN9__gnu_cxx12_Lock_policyE0EE14_M_get_deleterERKSt9type_info>:
      _M_destroy() noexcept
      { delete this; }

      virtual void*
      _M_get_deleter(const std::type_info&) noexcept
      { return nullptr; }
 80828a2:	2000      	movs	r0, #0
 80828a4:	4770      	bx	lr

080828a6 <_ZNSt15_Sp_counted_ptrIPN8particle6detail10FutureImplIbNS1_13FutureContextEEELN9__gnu_cxx12_Lock_policyE0EED0Ev>:
    class __shared_count;


  // Counted ptr with no deleter or allocator support
  template<typename _Ptr, _Lock_policy _Lp>
    class _Sp_counted_ptr final : public _Sp_counted_base<_Lp>
 80828a6:	b510      	push	{r4, lr}
 80828a8:	4604      	mov	r4, r0
 80828aa:	2110      	movs	r1, #16
 80828ac:	f000 fec8 	bl	8083640 <_ZdlPvj>
 80828b0:	4620      	mov	r0, r4
 80828b2:	bd10      	pop	{r4, pc}

080828b4 <_ZNSt15_Sp_counted_ptrIPN8particle6detail10FutureImplIbNS1_13FutureContextEEELN9__gnu_cxx12_Lock_policyE0EE10_M_destroyEv>:
      virtual void
      _M_dispose() noexcept
      { delete _M_ptr; }

      virtual void
      _M_destroy() noexcept
 80828b4:	b508      	push	{r3, lr}
      { delete this; }
 80828b6:	b108      	cbz	r0, 80828bc <_ZNSt15_Sp_counted_ptrIPN8particle6detail10FutureImplIbNS1_13FutureContextEEELN9__gnu_cxx12_Lock_policyE0EE10_M_destroyEv+0x8>
 80828b8:	f7ff fff5 	bl	80828a6 <_ZNSt15_Sp_counted_ptrIPN8particle6detail10FutureImplIbNS1_13FutureContextEEELN9__gnu_cxx12_Lock_policyE0EED0Ev>
 80828bc:	bd08      	pop	{r3, pc}

080828be <_ZN8particle5ErrorC1EOS0_>:

} // namespace particle

inline particle::Error::Error(Type type) :
        msg_(nullptr),
        type_(type) {
 80828be:	2200      	movs	r2, #0
 80828c0:	6002      	str	r2, [r0, #0]
 80828c2:	f64f 729c 	movw	r2, #65436	; 0xff9c
 80828c6:	8082      	strh	r2, [r0, #4]

inline particle::Error::Error(const Error& error) :
        Error(error.type_, error.msg_) {
}

inline particle::Error::Error(Error&& error) :
 80828c8:	b510      	push	{r4, lr}
    {
      // concept requirements
      __glibcxx_function_requires(_SGIAssignableConcept<_Tp>)

      _Tp __tmp = _GLIBCXX_MOVE(__a);
      __a = _GLIBCXX_MOVE(__b);
 80828ca:	f9b1 4004 	ldrsh.w	r4, [r1, #4]
 80828ce:	8084      	strh	r4, [r0, #4]
      __b = _GLIBCXX_MOVE(__tmp);
 80828d0:	808a      	strh	r2, [r1, #4]
#endif
    {
      // concept requirements
      __glibcxx_function_requires(_SGIAssignableConcept<_Tp>)

      _Tp __tmp = _GLIBCXX_MOVE(__a);
 80828d2:	6802      	ldr	r2, [r0, #0]
      __a = _GLIBCXX_MOVE(__b);
 80828d4:	680c      	ldr	r4, [r1, #0]
 80828d6:	6004      	str	r4, [r0, #0]
      __b = _GLIBCXX_MOVE(__tmp);
 80828d8:	600a      	str	r2, [r1, #0]
        Error() {
    swap(*this, error);
}
 80828da:	bd10      	pop	{r4, pc}

080828dc <_ZN8particle5ErrorD1Ev>:

inline particle::Error::~Error() {
 80828dc:	b510      	push	{r4, lr}
 80828de:	4604      	mov	r4, r0
    free((void*)msg_);
 80828e0:	6800      	ldr	r0, [r0, #0]
 80828e2:	f7ff fb2b 	bl	8081f3c <free>
}
 80828e6:	4620      	mov	r0, r4
 80828e8:	bd10      	pop	{r4, pc}

080828ea <_ZNSt15_Sp_counted_ptrIPN8particle6detail10FutureImplIbNS1_13FutureContextEEELN9__gnu_cxx12_Lock_policyE0EE10_M_disposeEv>:
      explicit
      _Sp_counted_ptr(_Ptr __p) noexcept
      : _M_ptr(__p) { }

      virtual void
      _M_dispose() noexcept
 80828ea:	b538      	push	{r3, r4, r5, lr}
      { delete _M_ptr; }
 80828ec:	68c4      	ldr	r4, [r0, #12]
 80828ee:	b1f4      	cbz	r4, 808292e <_ZNSt15_Sp_counted_ptrIPN8particle6detail10FutureImplIbNS1_13FutureContextEEELN9__gnu_cxx12_Lock_policyE0EE10_M_disposeEv+0x44>

      _Tp
      load(memory_order __m = memory_order_seq_cst) const noexcept
      { 
        _Tp tmp;
	__atomic_load(&_M_i, &tmp, __m);
 80828f0:	7823      	ldrb	r3, [r4, #0]
    ~FutureImpl() {
        // Call destructor of the appropriate unnamed enum's field
        const State s = this->state();
        if (s == State::SUCCEEDED) {
            result_.~ResultT();
        } else if (s == State::FAILED) {
 80828f2:	2b02      	cmp	r3, #2
 80828f4:	d103      	bne.n	80828fe <_ZNSt15_Sp_counted_ptrIPN8particle6detail10FutureImplIbNS1_13FutureContextEEELN9__gnu_cxx12_Lock_policyE0EE10_M_disposeEv+0x14>
            error_.~Error();
 80828f6:	f104 000c 	add.w	r0, r4, #12
 80828fa:	f7ff ffef 	bl	80828dc <_ZN8particle5ErrorD1Ev>
      {
        memory_order __b = __m & __memory_order_mask;
	__glibcxx_assert(__b != memory_order_release);
	__glibcxx_assert(__b != memory_order_acq_rel);

	return __atomic_load_n(&_M_p, __m);
 80828fe:	6865      	ldr	r5, [r4, #4]
    // Completion callback types
    typedef typename detail::FutureCallbackTypes<ResultT>::OnSuccess OnSuccessCallback;
    typedef typename detail::FutureCallbackTypes<ResultT>::OnError OnErrorCallback;

    ~FutureImplBase() {
        delete onSuccess_.load(std::memory_order_relaxed);
 8082900:	b135      	cbz	r5, 8082910 <_ZNSt15_Sp_counted_ptrIPN8particle6detail10FutureImplIbNS1_13FutureContextEEELN9__gnu_cxx12_Lock_policyE0EE10_M_disposeEv+0x26>
   *  @ingroup functors
   *
   *  Polymorphic function wrapper.
   */
  template<typename _Res, typename... _ArgTypes>
    class function<_Res(_ArgTypes...)>
 8082902:	4628      	mov	r0, r5
 8082904:	f7ff fef7 	bl	80826f6 <_ZNSt14_Function_baseD1Ev>
 8082908:	2110      	movs	r1, #16
 808290a:	4628      	mov	r0, r5
 808290c:	f000 fe98 	bl	8083640 <_ZdlPvj>
 8082910:	68a5      	ldr	r5, [r4, #8]
        delete onError_.load(std::memory_order_relaxed);
 8082912:	b135      	cbz	r5, 8082922 <_ZNSt15_Sp_counted_ptrIPN8particle6detail10FutureImplIbNS1_13FutureContextEEELN9__gnu_cxx12_Lock_policyE0EE10_M_disposeEv+0x38>
 8082914:	4628      	mov	r0, r5
 8082916:	f7ff feee 	bl	80826f6 <_ZNSt14_Function_baseD1Ev>
 808291a:	2110      	movs	r1, #16
 808291c:	4628      	mov	r0, r5
 808291e:	f000 fe8f 	bl	8083640 <_ZdlPvj>
 8082922:	4620      	mov	r0, r4
 8082924:	e8bd 4038 	ldmia.w	sp!, {r3, r4, r5, lr}
 8082928:	2114      	movs	r1, #20
 808292a:	f000 be89 	b.w	8083640 <_ZdlPvj>
 808292e:	bd38      	pop	{r3, r4, r5, pc}

08082930 <_ZN10CloudClass22call_raw_user_functionEPvPKcS0_>:
}

} // namespace

int CloudClass::call_raw_user_function(void* data, const char* param, void* reserved)
{
 8082930:	b510      	push	{r4, lr}
 8082932:	b088      	sub	sp, #32
 8082934:	4604      	mov	r4, r0
    user_function_int_str_t* fn = (user_function_int_str_t*)(data);
    String p(param);
 8082936:	4668      	mov	r0, sp
 8082938:	f7ff fc44 	bl	80821c4 <_ZN6StringC1EPK19__FlashStringHelper>
    return (*fn)(p);
 808293c:	4669      	mov	r1, sp
 808293e:	a804      	add	r0, sp, #16
 8082940:	f7ff fc7f 	bl	8082242 <_ZN6StringC1ERKS_>
 8082944:	a804      	add	r0, sp, #16
 8082946:	47a0      	blx	r4
 8082948:	4604      	mov	r4, r0
 808294a:	a804      	add	r0, sp, #16
 808294c:	f7ff fbf3 	bl	8082136 <_ZN6StringD1Ev>
} // namespace

int CloudClass::call_raw_user_function(void* data, const char* param, void* reserved)
{
    user_function_int_str_t* fn = (user_function_int_str_t*)(data);
    String p(param);
 8082950:	4668      	mov	r0, sp
 8082952:	f7ff fbf0 	bl	8082136 <_ZN6StringD1Ev>
    return (*fn)(p);
}
 8082956:	4620      	mov	r0, r4
 8082958:	b008      	add	sp, #32
 808295a:	bd10      	pop	{r4, pc}

0808295c <_ZN10CloudClass17register_functionEPFiPvPKcS0_ES0_S2_>:
    wiring_event_handler_t* fn = (wiring_event_handler_t*)(handler_data);
    (*fn)(event_name, data);
}

bool CloudClass::register_function(cloud_function_t fn, void* data, const char* funcKey)
{
 808295c:	b5f0      	push	{r4, r5, r6, r7, lr}
 808295e:	4607      	mov	r7, r0
 8082960:	460e      	mov	r6, r1
 8082962:	4615      	mov	r5, r2
 8082964:	b085      	sub	sp, #20
    const char *funcKey;
    cloud_function_t fn;
    void* data;

     cloud_function_descriptor() {
         memset(this, 0, sizeof(*this));
 8082966:	2410      	movs	r4, #16
 8082968:	4622      	mov	r2, r4
 808296a:	2100      	movs	r1, #0
 808296c:	4668      	mov	r0, sp
 808296e:	f001 fe1a 	bl	80845a6 <memset>
    cloud_function_descriptor desc = {};
    desc.size = sizeof(desc);
    desc.fn = fn;
    desc.data = (void*)data;
    desc.funcKey = funcKey;
    return spark_function(NULL, (user_function_int_str_t*)&desc, NULL);
 8082972:	2200      	movs	r2, #0
 8082974:	4669      	mov	r1, sp
 8082976:	4610      	mov	r0, r2
         size = sizeof(*this);
 8082978:	f8ad 4000 	strh.w	r4, [sp]

bool CloudClass::register_function(cloud_function_t fn, void* data, const char* funcKey)
{
    cloud_function_descriptor desc = {};
    desc.size = sizeof(desc);
    desc.fn = fn;
 808297c:	9702      	str	r7, [sp, #8]
    desc.data = (void*)data;
 808297e:	9603      	str	r6, [sp, #12]
    desc.funcKey = funcKey;
 8082980:	9501      	str	r5, [sp, #4]
    return spark_function(NULL, (user_function_int_str_t*)&desc, NULL);
 8082982:	f7ff fa8b 	bl	8081e9c <spark_function>
}
 8082986:	b005      	add	sp, #20
 8082988:	bdf0      	pop	{r4, r5, r6, r7, pc}

0808298a <_ZN8particle6FutureIbNS_6detail13FutureContextEEC1ESt10shared_ptrINS1_10FutureImplIbS2_EEE>:
};

template<typename ResultT, typename ContextT = detail::FutureContext>
class Future: public FutureBase<ResultT, ContextT> {
public:
    using FutureBase<ResultT, ContextT>::FutureBase;
 808298a:	b513      	push	{r0, r1, r4, lr}
 808298c:	4604      	mov	r4, r0
      }

      void
      _M_swap(__shared_count& __r) noexcept
      {
	_Sp_counted_base<_Lp>* __tmp = __r._M_pi;
 808298e:	e891 0005 	ldmia.w	r1, {r0, r2}
	__r._M_pi = _M_pi;
 8082992:	2300      	movs	r3, #0
 8082994:	604b      	str	r3, [r1, #4]

      __shared_ptr(__shared_ptr&& __r) noexcept
      : _M_ptr(__r._M_ptr), _M_refcount()
      {
	_M_refcount._M_swap(__r._M_refcount);
	__r._M_ptr = 0;
 8082996:	600b      	str	r3, [r1, #0]
	__shared_ptr(const __shared_ptr<_Tp1, _Lp>& __r) noexcept
	: _M_ptr(__r._M_ptr), _M_refcount(__r._M_refcount)
	{ }

      __shared_ptr(__shared_ptr&& __r) noexcept
      : _M_ptr(__r._M_ptr), _M_refcount()
 8082998:	6020      	str	r0, [r4, #0]
      void
      _M_swap(__shared_count& __r) noexcept
      {
	_Sp_counted_base<_Lp>* __tmp = __r._M_pi;
	__r._M_pi = _M_pi;
	_M_pi = __tmp;
 808299a:	6062      	str	r2, [r4, #4]
	: _M_ptr(__p), _M_refcount(__r._M_refcount) // never throws
	{ }

      __shared_ptr(const __shared_ptr&) noexcept = default;
      __shared_ptr& operator=(const __shared_ptr&) noexcept = default;
      ~__shared_ptr() = default;
 808299c:	a801      	add	r0, sp, #4

      void
      _M_swap(__shared_count& __r) noexcept
      {
	_Sp_counted_base<_Lp>* __tmp = __r._M_pi;
	__r._M_pi = _M_pi;
 808299e:	9301      	str	r3, [sp, #4]

      __shared_ptr(__shared_ptr&& __r) noexcept
      : _M_ptr(__r._M_ptr), _M_refcount()
      {
	_M_refcount._M_swap(__r._M_refcount);
	__r._M_ptr = 0;
 80829a0:	9300      	str	r3, [sp, #0]
	: _M_ptr(__p), _M_refcount(__r._M_refcount) // never throws
	{ }

      __shared_ptr(const __shared_ptr&) noexcept = default;
      __shared_ptr& operator=(const __shared_ptr&) noexcept = default;
      ~__shared_ptr() = default;
 80829a2:	f7fd fbd8 	bl	8080156 <_ZNSt14__shared_countILN9__gnu_cxx12_Lock_policyE0EED1Ev>
 80829a6:	4620      	mov	r0, r4
 80829a8:	b002      	add	sp, #8
 80829aa:	bd10      	pop	{r4, pc}

080829ac <_ZN8particle11PromiseBaseIbNS_6detail13FutureContextEE11fromDataPtrEPv>:
        // TODO: Use custom reference counting object to avoid unnecessary memory allocation
        return new detail::FutureImplPtr<ResultT, ContextT>(p_);
    }

    // Unwraps promise from an object pointer created via dataPtr() method
    static Promise<ResultT, ContextT> fromDataPtr(void* data) {
 80829ac:	b5f7      	push	{r0, r1, r2, r4, r5, r6, r7, lr}
      template<typename _Tp1>
	__shared_ptr(const __shared_ptr<_Tp1, _Lp>& __r, _Tp* __p) noexcept
	: _M_ptr(__p), _M_refcount(__r._M_refcount) // never throws
	{ }

      __shared_ptr(const __shared_ptr&) noexcept = default;
 80829ae:	460c      	mov	r4, r1
 80829b0:	4606      	mov	r6, r0
 80829b2:	460f      	mov	r7, r1
 80829b4:	f854 3b04 	ldr.w	r3, [r4], #4
 80829b8:	ad02      	add	r5, sp, #8
 80829ba:	f845 3d08 	str.w	r3, [r5, #-8]!
 80829be:	4621      	mov	r1, r4
 80829c0:	a801      	add	r0, sp, #4
 80829c2:	f7ff fd8f 	bl	80824e4 <_ZNSt14__shared_countILN9__gnu_cxx12_Lock_policyE0EEC1ERKS2_>
        auto d = static_cast<detail::FutureImplPtr<ResultT, ContextT>*>(data);
        const Promise<ResultT, ContextT> p(*d);
 80829c6:	4629      	mov	r1, r5
 80829c8:	4630      	mov	r0, r6
 80829ca:	f7ff ffde 	bl	808298a <_ZN8particle6FutureIbNS_6detail13FutureContextEEC1ESt10shared_ptrINS1_10FutureImplIbS2_EEE>
      __shared_ptr& operator=(const __shared_ptr&) noexcept = default;
      ~__shared_ptr() = default;
 80829ce:	a801      	add	r0, sp, #4
 80829d0:	f7fd fbc1 	bl	8080156 <_ZNSt14__shared_countILN9__gnu_cxx12_Lock_policyE0EED1Ev>
 80829d4:	4620      	mov	r0, r4
 80829d6:	f7fd fbbe 	bl	8080156 <_ZNSt14__shared_countILN9__gnu_cxx12_Lock_policyE0EED1Ev>
        delete d;
 80829da:	4638      	mov	r0, r7
 80829dc:	2108      	movs	r1, #8
 80829de:	f000 fe2f 	bl	8083640 <_ZdlPvj>
        return p;
    }
 80829e2:	4630      	mov	r0, r6
 80829e4:	b003      	add	sp, #12
 80829e6:	bdf0      	pop	{r4, r5, r6, r7, pc}

080829e8 <_ZNSt14__shared_countILN9__gnu_cxx12_Lock_policyE0EEC1IPN8particle6detail10FutureImplIbNS5_13FutureContextEEEEET_>:
      constexpr __shared_count() noexcept : _M_pi(0)
      { }

      template<typename _Ptr>
        explicit
	__shared_count(_Ptr __p) : _M_pi(0)
 80829e8:	b538      	push	{r3, r4, r5, lr}
 80829ea:	2300      	movs	r3, #0
 80829ec:	4604      	mov	r4, r0
 80829ee:	6003      	str	r3, [r0, #0]
	{
	  __try
	    {
	      _M_pi = new _Sp_counted_ptr<_Ptr, _Lp>(__p);
 80829f0:	2010      	movs	r0, #16
      constexpr __shared_count() noexcept : _M_pi(0)
      { }

      template<typename _Ptr>
        explicit
	__shared_count(_Ptr __p) : _M_pi(0)
 80829f2:	460d      	mov	r5, r1
	{
	  __try
	    {
	      _M_pi = new _Sp_counted_ptr<_Ptr, _Lp>(__p);
 80829f4:	f7fd fb53 	bl	808009e <_Znwj>
 80829f8:	b128      	cbz	r0, 8082a06 <_ZNSt14__shared_countILN9__gnu_cxx12_Lock_policyE0EEC1IPN8particle6detail10FutureImplIbNS5_13FutureContextEEEEET_+0x1e>
    class _Sp_counted_base
    : public _Mutex_base<_Lp>
    {
    public:  
      _Sp_counted_base() noexcept
      : _M_use_count(1), _M_weak_count(1) { }
 80829fa:	2301      	movs	r3, #1
 80829fc:	6043      	str	r3, [r0, #4]
 80829fe:	6083      	str	r3, [r0, #8]
    class _Sp_counted_ptr final : public _Sp_counted_base<_Lp>
    {
    public:
      explicit
      _Sp_counted_ptr(_Ptr __p) noexcept
      : _M_ptr(__p) { }
 8082a00:	4b02      	ldr	r3, [pc, #8]	; (8082a0c <_ZNSt14__shared_countILN9__gnu_cxx12_Lock_policyE0EEC1IPN8particle6detail10FutureImplIbNS5_13FutureContextEEEEET_+0x24>)
 8082a02:	60c5      	str	r5, [r0, #12]
 8082a04:	6003      	str	r3, [r0, #0]
        explicit
	__shared_count(_Ptr __p) : _M_pi(0)
	{
	  __try
	    {
	      _M_pi = new _Sp_counted_ptr<_Ptr, _Lp>(__p);
 8082a06:	6020      	str	r0, [r4, #0]
	  __catch(...)
	    {
	      delete __p;
	      __throw_exception_again;
	    }
	}
 8082a08:	4620      	mov	r0, r4
 8082a0a:	bd38      	pop	{r3, r4, r5, pc}
 8082a0c:	08087be0 	.word	0x08087be0

08082a10 <_ZNKSt8functionIFvRKN8particle5ErrorEEEclES3_>:
  template<typename _Res, typename... _ArgTypes>
    _Res
    function<_Res(_ArgTypes...)>::
    operator()(_ArgTypes... __args) const
    {
      if (_M_empty())
 8082a10:	6882      	ldr	r2, [r0, #8]
	  }
      }

  template<typename _Res, typename... _ArgTypes>
    _Res
    function<_Res(_ArgTypes...)>::
 8082a12:	b510      	push	{r4, lr}
    operator()(_ArgTypes... __args) const
    {
      if (_M_empty())
 8082a14:	b90a      	cbnz	r2, 8082a1a <_ZNKSt8functionIFvRKN8particle5ErrorEEEclES3_+0xa>
	__throw_bad_function_call();
 8082a16:	f000 fe26 	bl	8083666 <_ZSt25__throw_bad_function_callv>
      return _M_invoker(_M_functor, std::forward<_ArgTypes>(__args)...);
 8082a1a:	68c3      	ldr	r3, [r0, #12]
    }
 8082a1c:	e8bd 4010 	ldmia.w	sp!, {r4, lr}
    function<_Res(_ArgTypes...)>::
    operator()(_ArgTypes... __args) const
    {
      if (_M_empty())
	__throw_bad_function_call();
      return _M_invoker(_M_functor, std::forward<_ArgTypes>(__args)...);
 8082a20:	4718      	bx	r3

08082a22 <_ZNSt17_Function_handlerIFvvESt5_BindIFSt8functionIFvRKN8particle5ErrorEEES4_EEE9_M_invokeERKSt9_Any_data>:
    {
      typedef _Function_base::_Base_manager<_Functor> _Base;

     public:
      static void
      _M_invoke(const _Any_data& __functor, _ArgTypes&&... __args)
 8082a22:	b508      	push	{r3, lr}
	static _Functor*
	_M_get_pointer(const _Any_data& __source)
	{
	  const _Functor* __ptr =
	    __stored_locally? std::__addressof(__source._M_access<_Functor>())
	    /* have stored a pointer */ : __source._M_access<_Functor*>();
 8082a24:	6800      	ldr	r0, [r0, #0]
      template<typename _Result, typename... _Args, std::size_t... _Indexes>
	_Result
	__call(tuple<_Args...>&& __args, _Index_tuple<_Indexes...>)
	{
	  return _M_f(_Mu<_Bound_args>()
		      (std::get<_Indexes>(_M_bound_args), __args)...);
 8082a26:	f100 0110 	add.w	r1, r0, #16
 8082a2a:	f7ff fff1 	bl	8082a10 <_ZNKSt8functionIFvRKN8particle5ErrorEEEclES3_>
 8082a2e:	bd08      	pop	{r3, pc}

08082a30 <_ZNKSt8functionIFvRKbEEclES1_>:
  template<typename _Res, typename... _ArgTypes>
    _Res
    function<_Res(_ArgTypes...)>::
    operator()(_ArgTypes... __args) const
    {
      if (_M_empty())
 8082a30:	6882      	ldr	r2, [r0, #8]
	  }
      }

  template<typename _Res, typename... _ArgTypes>
    _Res
    function<_Res(_ArgTypes...)>::
 8082a32:	b510      	push	{r4, lr}
    operator()(_ArgTypes... __args) const
    {
      if (_M_empty())
 8082a34:	b90a      	cbnz	r2, 8082a3a <_ZNKSt8functionIFvRKbEEclES1_+0xa>
	__throw_bad_function_call();
 8082a36:	f000 fe16 	bl	8083666 <_ZSt25__throw_bad_function_callv>
      return _M_invoker(_M_functor, std::forward<_ArgTypes>(__args)...);
 8082a3a:	68c3      	ldr	r3, [r0, #12]
    }
 8082a3c:	e8bd 4010 	ldmia.w	sp!, {r4, lr}
    function<_Res(_ArgTypes...)>::
    operator()(_ArgTypes... __args) const
    {
      if (_M_empty())
	__throw_bad_function_call();
      return _M_invoker(_M_functor, std::forward<_ArgTypes>(__args)...);
 8082a40:	4718      	bx	r3

08082a42 <_ZNSt17_Function_handlerIFvvESt5_BindIFSt8functionIFvRKbEEbEEE9_M_invokeERKSt9_Any_data>:
    {
      typedef _Function_base::_Base_manager<_Functor> _Base;

     public:
      static void
      _M_invoke(const _Any_data& __functor, _ArgTypes&&... __args)
 8082a42:	b508      	push	{r3, lr}
	static _Functor*
	_M_get_pointer(const _Any_data& __source)
	{
	  const _Functor* __ptr =
	    __stored_locally? std::__addressof(__source._M_access<_Functor>())
	    /* have stored a pointer */ : __source._M_access<_Functor*>();
 8082a44:	6800      	ldr	r0, [r0, #0]
      template<typename _Result, typename... _Args, std::size_t... _Indexes>
	_Result
	__call(tuple<_Args...>&& __args, _Index_tuple<_Indexes...>)
	{
	  return _M_f(_Mu<_Bound_args>()
		      (std::get<_Indexes>(_M_bound_args), __args)...);
 8082a46:	f100 0110 	add.w	r1, r0, #16
 8082a4a:	f7ff fff1 	bl	8082a30 <_ZNKSt8functionIFvRKbEEclES1_>
 8082a4e:	bd08      	pop	{r3, pc}

08082a50 <_ZNSt8functionIFvRKN8particle5ErrorEEEC1ERKS5_>:
      _Invoker_type _M_invoker;
  };

  // Out-of-line member definitions.
  template<typename _Res, typename... _ArgTypes>
    function<_Res(_ArgTypes...)>::
 8082a50:	b538      	push	{r3, r4, r5, lr}
	{
	  _Base::_M_init_functor(__functor, std::__addressof(__f.get()));
	}
      };

    _Function_base() : _M_manager(nullptr) { }
 8082a52:	2300      	movs	r3, #0
 8082a54:	6083      	str	r3, [r0, #8]
 8082a56:	688b      	ldr	r3, [r1, #8]
      _Invoker_type _M_invoker;
  };

  // Out-of-line member definitions.
  template<typename _Res, typename... _ArgTypes>
    function<_Res(_ArgTypes...)>::
 8082a58:	4604      	mov	r4, r0
 8082a5a:	460d      	mov	r5, r1
    function(const function& __x)
    : _Function_base()
    {
      if (static_cast<bool>(__x))
 8082a5c:	b12b      	cbz	r3, 8082a6a <_ZNSt8functionIFvRKN8particle5ErrorEEEC1ERKS5_+0x1a>
	{
	  __x._M_manager(_M_functor, __x._M_functor, __clone_functor);
 8082a5e:	2202      	movs	r2, #2
 8082a60:	4798      	blx	r3
	  _M_invoker = __x._M_invoker;
 8082a62:	68eb      	ldr	r3, [r5, #12]
 8082a64:	60e3      	str	r3, [r4, #12]
	  _M_manager = __x._M_manager;
 8082a66:	68ab      	ldr	r3, [r5, #8]
 8082a68:	60a3      	str	r3, [r4, #8]
	}
    }
 8082a6a:	4620      	mov	r0, r4
 8082a6c:	bd38      	pop	{r3, r4, r5, pc}
	...

08082a70 <_ZN8particle11PromiseBaseIbNS_6detail13FutureContextEE8setErrorENS_5ErrorE>:

    explicit PromiseBase(detail::FutureImplPtr<ResultT, ContextT> ptr) :
            p_(std::move(ptr)) {
    }

    void setError(Error error) {
 8082a70:	b5f0      	push	{r4, r5, r6, r7, lr}
 8082a72:	b089      	sub	sp, #36	; 0x24
 8082a74:	6804      	ldr	r4, [r0, #0]
        p_->setError(std::move(error));
 8082a76:	4668      	mov	r0, sp
 8082a78:	f7ff ff21 	bl	80828be <_ZN8particle5ErrorC1EOS0_>

      bool
      compare_exchange_strong(_Tp& __e, _Tp __i, memory_order __s, 
			      memory_order __f) noexcept
      {
	return __atomic_compare_exchange(&_M_i, &__e, &__i, false, __s, __f);
 8082a7c:	f04f 0202 	mov.w	r2, #2
            onSuccess_(nullptr),
            onError_(nullptr) {
    }

    bool changeState(State state) {
        State s = State::RUNNING; // Expected state
 8082a80:	2300      	movs	r3, #0
 8082a82:	f88d 3008 	strb.w	r3, [sp, #8]
 8082a86:	e8d4 3f4f 	ldrexb	r3, [r4]
 8082a8a:	2b00      	cmp	r3, #0
 8082a8c:	d103      	bne.n	8082a96 <_ZN8particle11PromiseBaseIbNS_6detail13FutureContextEE8setErrorENS_5ErrorE+0x26>
 8082a8e:	e8c4 2f41 	strexb	r1, r2, [r4]
 8082a92:	2900      	cmp	r1, #0
 8082a94:	d1f7      	bne.n	8082a86 <_ZN8particle11PromiseBaseIbNS_6detail13FutureContextEE8setErrorENS_5ErrorE+0x16>
 8082a96:	d002      	beq.n	8082a9e <_ZN8particle11PromiseBaseIbNS_6detail13FutureContextEE8setErrorENS_5ErrorE+0x2e>
 8082a98:	f88d 3008 	strb.w	r3, [sp, #8]
 8082a9c:	e063      	b.n	8082b66 <_ZN8particle11PromiseBaseIbNS_6detail13FutureContextEE8setErrorENS_5ErrorE+0xf6>
        return std::move(defaultValue);
    }

    void setError(Error error) {
        if (this->changeState(State::FAILED)) {
            new(&error_) Error(std::move(error));
 8082a9e:	f114 050c 	adds.w	r5, r4, #12
 8082aa2:	d003      	beq.n	8082aac <_ZN8particle11PromiseBaseIbNS_6detail13FutureContextEE8setErrorENS_5ErrorE+0x3c>
 8082aa4:	4669      	mov	r1, sp
 8082aa6:	4628      	mov	r0, r5
 8082aa8:	f7ff ff09 	bl	80828be <_ZN8particle5ErrorC1EOS0_>
        memory_order __b = __m & __memory_order_mask;
	__glibcxx_assert(__b != memory_order_acquire);
	__glibcxx_assert(__b != memory_order_acq_rel);
	__glibcxx_assert(__b != memory_order_consume);

	__atomic_store_n(&_M_i, __i, __m);
 8082aac:	f3bf 8f5f 	dmb	sy
 8082ab0:	2301      	movs	r3, #1
 8082ab2:	7063      	strb	r3, [r4, #1]

      _GLIBCXX_ALWAYS_INLINE __pointer_type
      exchange(__pointer_type __p,
	       memory_order __m = memory_order_seq_cst) noexcept
      {
	return __atomic_exchange_n(&_M_p, __p, __m);
 8082ab4:	f3bf 8f5f 	dmb	sy
 8082ab8:	f104 0308 	add.w	r3, r4, #8
 8082abc:	2000      	movs	r0, #0
 8082abe:	e853 6f00 	ldrex	r6, [r3]
 8082ac2:	e843 0200 	strex	r2, r0, [r3]
 8082ac6:	2a00      	cmp	r2, #0
 8082ac8:	d1f9      	bne.n	8082abe <_ZN8particle11PromiseBaseIbNS_6detail13FutureContextEE8setErrorENS_5ErrorE+0x4e>
 8082aca:	f3bf 8f5f 	dmb	sy

    // Takes a callback from its atomic wrapper and invokes it
    template<typename FunctionT, typename... ArgsT>
    static void invokeCallback(std::atomic<std::function<FunctionT>*>& wrapper, ArgsT&&... args) {
        std::function<FunctionT>* callbackPtr = wrapper.exchange(nullptr, std::memory_order_acq_rel);
        if (callbackPtr) {
 8082ace:	2e00      	cmp	r6, #0
 8082ad0:	d049      	beq.n	8082b66 <_ZN8particle11PromiseBaseIbNS_6detail13FutureContextEE8setErrorENS_5ErrorE+0xf6>
        return (application_thread_invoke(callback, data, nullptr) == 0);
    }

    // Returns true if current thread is the application thread
    static bool isApplicationThreadCurrent() {
        return (application_thread_current(nullptr) != 0);
 8082ad2:	f7ff f967 	bl	8081da4 <application_thread_current>
    }

    // Invokes std::function in the application context
    template<typename FunctionT, typename... ArgsT>
    static void invokeCallback(const std::function<FunctionT>& callback, ArgsT&&... args) {
        if (ContextT::isApplicationThreadCurrent()) {
 8082ad6:	b120      	cbz	r0, 8082ae2 <_ZN8particle11PromiseBaseIbNS_6detail13FutureContextEE8setErrorENS_5ErrorE+0x72>
            callback(std::forward<ArgsT>(args)...); // Synchronous call
 8082ad8:	4629      	mov	r1, r5
 8082ada:	4630      	mov	r0, r6
 8082adc:	f7ff ff98 	bl	8082a10 <_ZNKSt8functionIFvRKN8particle5ErrorEEEclES3_>
 8082ae0:	e03a      	b.n	8082b58 <_ZN8particle11PromiseBaseIbNS_6detail13FutureContextEE8setErrorENS_5ErrorE+0xe8>
	}

     public:
      template<typename... _Args>
	explicit _Bind(const _Functor& __f, _Args&&... __args)
	: _M_f(__f), _M_bound_args(std::forward<_Args>(__args)...)
 8082ae2:	4631      	mov	r1, r6
 8082ae4:	a802      	add	r0, sp, #8
 8082ae6:	f7ff ffb3 	bl	8082a50 <_ZNSt8functionIFvRKN8particle5ErrorEEEC1ERKS5_>
inline particle::Error::Error(const char* msg) :
        Error(UNKNOWN, msg) {
}

inline particle::Error::Error(const Error& error) :
        Error(error.type_, error.msg_) {
 8082aea:	68e0      	ldr	r0, [r4, #12]
 8082aec:	f9b4 5010 	ldrsh.w	r5, [r4, #16]
        type_(type) {
}

inline particle::Error::Error(Type type, const char* msg) :
        msg_(msg ? (const char*)strdup(msg) : nullptr),
        type_(type) {
 8082af0:	b108      	cbz	r0, 8082af6 <_ZN8particle11PromiseBaseIbNS_6detail13FutureContextEE8setErrorENS_5ErrorE+0x86>
 8082af2:	f001 fda9 	bl	8084648 <strdup>
 8082af6:	9006      	str	r0, [sp, #24]
        } else {
            // Bind all arguments and wrap resulting function into a pointer
            auto callbackPtr = new std::function<void()>(std::bind(callback, std::forward<ArgsT>(args)...));
 8082af8:	2010      	movs	r0, #16
 8082afa:	f8ad 501c 	strh.w	r5, [sp, #28]
 8082afe:	f7fd face 	bl	808009e <_Znwj>
 8082b02:	4605      	mov	r5, r0
 8082b04:	b1e8      	cbz	r0, 8082b42 <_ZN8particle11PromiseBaseIbNS_6detail13FutureContextEE8setErrorENS_5ErrorE+0xd2>
	{
	  _Base::_M_init_functor(__functor, std::__addressof(__f.get()));
	}
      };

    _Function_base() : _M_manager(nullptr) { }
 8082b06:	2700      	movs	r7, #0
 8082b08:	6087      	str	r7, [r0, #8]
	_M_init_functor(_Any_data& __functor, _Functor&& __f, true_type)
	{ new (__functor._M_access()) _Functor(std::move(__f)); }

	static void
	_M_init_functor(_Any_data& __functor, _Functor&& __f, false_type)
	{ __functor._M_access<_Functor*>() = new _Functor(std::move(__f)); }
 8082b0a:	2018      	movs	r0, #24
 8082b0c:	f7fd fac7 	bl	808009e <_Znwj>
 8082b10:	4604      	mov	r4, r0
 8082b12:	b188      	cbz	r0, 8082b38 <_ZN8particle11PromiseBaseIbNS_6detail13FutureContextEE8setErrorENS_5ErrorE+0xc8>
       *  Swap the targets of @c this function object and @a __f. This
       *  function will not throw an %exception.
       */
      void swap(function& __x)
      {
	std::swap(_M_functor, __x._M_functor);
 8082b14:	4601      	mov	r1, r0
	{
	  _Base::_M_init_functor(__functor, std::__addressof(__f.get()));
	}
      };

    _Function_base() : _M_manager(nullptr) { }
 8082b16:	6087      	str	r7, [r0, #8]
       *  Swap the targets of @c this function object and @a __f. This
       *  function will not throw an %exception.
       */
      void swap(function& __x)
      {
	std::swap(_M_functor, __x._M_functor);
 8082b18:	a802      	add	r0, sp, #8
 8082b1a:	f7ff fdfb 	bl	8082714 <_ZSt4swapISt9_Any_dataEvRT_S2_>
#endif
    {
      // concept requirements
      __glibcxx_function_requires(_SGIAssignableConcept<_Tp>)

      _Tp __tmp = _GLIBCXX_MOVE(__a);
 8082b1e:	9b04      	ldr	r3, [sp, #16]
      __a = _GLIBCXX_MOVE(__b);
 8082b20:	68a2      	ldr	r2, [r4, #8]
      __b = _GLIBCXX_MOVE(__tmp);
 8082b22:	60a3      	str	r3, [r4, #8]
#endif
    {
      // concept requirements
      __glibcxx_function_requires(_SGIAssignableConcept<_Tp>)

      _Tp __tmp = _GLIBCXX_MOVE(__a);
 8082b24:	9b05      	ldr	r3, [sp, #20]
      __a = _GLIBCXX_MOVE(__b);
 8082b26:	9204      	str	r2, [sp, #16]
 8082b28:	68e2      	ldr	r2, [r4, #12]
      constexpr _Head_base(const _Head_base&) = default;
      constexpr _Head_base(_Head_base&&) = default;

      template<typename _UHead>
        constexpr _Head_base(_UHead&& __h)
	: _M_head_impl(std::forward<_UHead>(__h)) { }
 8082b2a:	a906      	add	r1, sp, #24
      __b = _GLIBCXX_MOVE(__tmp);
 8082b2c:	60e3      	str	r3, [r4, #12]
 8082b2e:	f104 0010 	add.w	r0, r4, #16
    {
      // concept requirements
      __glibcxx_function_requires(_SGIAssignableConcept<_Tp>)

      _Tp __tmp = _GLIBCXX_MOVE(__a);
      __a = _GLIBCXX_MOVE(__b);
 8082b32:	9205      	str	r2, [sp, #20]
 8082b34:	f7ff fec3 	bl	80828be <_ZN8particle5ErrorC1EOS0_>
	typedef _Function_handler<_Signature_type, _Functor> _My_handler;

	if (_My_handler::_M_not_empty_function(__f))
	  {
	    _My_handler::_M_init_functor(_M_functor, std::move(__f));
	    _M_invoker = &_My_handler::_M_invoke;
 8082b38:	4b0d      	ldr	r3, [pc, #52]	; (8082b70 <_ZN8particle11PromiseBaseIbNS_6detail13FutureContextEE8setErrorENS_5ErrorE+0x100>)
	_M_init_functor(_Any_data& __functor, _Functor&& __f, true_type)
	{ new (__functor._M_access()) _Functor(std::move(__f)); }

	static void
	_M_init_functor(_Any_data& __functor, _Functor&& __f, false_type)
	{ __functor._M_access<_Functor*>() = new _Functor(std::move(__f)); }
 8082b3a:	602c      	str	r4, [r5, #0]
	typedef _Function_handler<_Signature_type, _Functor> _My_handler;

	if (_My_handler::_M_not_empty_function(__f))
	  {
	    _My_handler::_M_init_functor(_M_functor, std::move(__f));
	    _M_invoker = &_My_handler::_M_invoke;
 8082b3c:	60eb      	str	r3, [r5, #12]
	    _M_manager = &_My_handler::_M_manager;
 8082b3e:	4b0d      	ldr	r3, [pc, #52]	; (8082b74 <_ZN8particle11PromiseBaseIbNS_6detail13FutureContextEE8setErrorENS_5ErrorE+0x104>)
 8082b40:	60ab      	str	r3, [r5, #8]
      static constexpr const _Head&
      _M_head(const _Head_base& __b) noexcept { return __b; }
    };

  template<std::size_t _Idx, typename _Head>
    struct _Head_base<_Idx, _Head, false>
 8082b42:	a806      	add	r0, sp, #24
 8082b44:	f7ff feca 	bl	80828dc <_ZN8particle5ErrorD1Ev>
   *  @ingroup functors
   *
   *  Polymorphic function wrapper.
   */
  template<typename _Res, typename... _ArgTypes>
    class function<_Res(_ArgTypes...)>
 8082b48:	a802      	add	r0, sp, #8
 8082b4a:	f7ff fdd4 	bl	80826f6 <_ZNSt14_Function_baseD1Ev>
        spark_process();
    }

    // Asynchronously invokes a callback in the application context
    static bool invokeApplicationCallback(void (*callback)(void* data), void* data) {
        return (application_thread_invoke(callback, data, nullptr) == 0);
 8082b4e:	2200      	movs	r2, #0
 8082b50:	4629      	mov	r1, r5
 8082b52:	4809      	ldr	r0, [pc, #36]	; (8082b78 <_ZN8particle11PromiseBaseIbNS_6detail13FutureContextEE8setErrorENS_5ErrorE+0x108>)
 8082b54:	f7ff f92e 	bl	8081db4 <application_thread_invoke>
 8082b58:	4630      	mov	r0, r6
 8082b5a:	f7ff fdcc 	bl	80826f6 <_ZNSt14_Function_baseD1Ev>
    template<typename FunctionT, typename... ArgsT>
    static void invokeCallback(std::atomic<std::function<FunctionT>*>& wrapper, ArgsT&&... args) {
        std::function<FunctionT>* callbackPtr = wrapper.exchange(nullptr, std::memory_order_acq_rel);
        if (callbackPtr) {
            invokeCallback(*callbackPtr, std::forward<ArgsT>(args)...);
            delete callbackPtr;
 8082b5e:	2110      	movs	r1, #16
 8082b60:	4630      	mov	r0, r6
 8082b62:	f000 fd6d 	bl	8083640 <_ZdlPvj>
    explicit PromiseBase(detail::FutureImplPtr<ResultT, ContextT> ptr) :
            p_(std::move(ptr)) {
    }

    void setError(Error error) {
        p_->setError(std::move(error));
 8082b66:	4668      	mov	r0, sp
 8082b68:	f7ff feb8 	bl	80828dc <_ZN8particle5ErrorD1Ev>
    }
 8082b6c:	b009      	add	sp, #36	; 0x24
 8082b6e:	bdf0      	pop	{r4, r5, r6, r7, pc}
 8082b70:	08082a23 	.word	0x08082a23
 8082b74:	08082c99 	.word	0x08082c99
 8082b78:	08083299 	.word	0x08083299

08082b7c <_ZN10CloudClass13publish_eventEPKcS1_iN8particle5FlagsI15PublishFlagTypehEE>:

Future<bool> CloudClass::publish_event(const char *eventName, const char *eventData, int ttl, PublishFlags flags) {
 8082b7c:	e92d 4ff0 	stmdb	sp!, {r4, r5, r6, r7, r8, r9, sl, fp, lr}
 8082b80:	b08b      	sub	sp, #44	; 0x2c
 8082b82:	4606      	mov	r6, r0
 8082b84:	460f      	mov	r7, r1
 8082b86:	4690      	mov	r8, r2
 8082b88:	4699      	mov	r9, r3
 8082b8a:	f89d a050 	ldrb.w	sl, [sp, #80]	; 0x50
    static void sleep(Spark_Sleep_TypeDef sleepMode, long seconds=0) __attribute__ ((deprecated("Please use System.sleep() instead.")))
    { SystemClass::sleep(sleepMode, seconds); }
    static void sleep(uint16_t wakeUpPin, InterruptMode edgeTriggerMode, long seconds=0) __attribute__ ((deprecated("Please use System.sleep() instead.")))
    { SystemClass::sleep(wakeUpPin, edgeTriggerMode, seconds); }

    static bool connected(void) { return spark_cloud_flag_connected(); }
 8082b8e:	f7ff f99d 	bl	8081ecc <spark_cloud_flag_connected>
 8082b92:	ad07      	add	r5, sp, #28
    if (!connected()) {
 8082b94:	4683      	mov	fp, r0
 8082b96:	bb30      	cbnz	r0, 8082be6 <_ZN10CloudClass13publish_eventEPKcS1_iN8particle5FlagsI15PublishFlagTypehEE+0x6a>

} // namespace particle

inline particle::Error::Error(Type type) :
        msg_(nullptr),
        type_(type) {
 8082b98:	f64f 732e 	movw	r3, #65326	; 0xff2e
 8082b9c:	9005      	str	r0, [sp, #20]
    typedef typename detail::FutureImpl<ResultT, ContextT>::OnSuccessCallback OnSuccessCallback;
    typedef typename detail::FutureImpl<ResultT, ContextT>::OnErrorCallback OnErrorCallback;

    // Construct failed future
    explicit FutureBase(Error error) :
            p_(new detail::FutureImpl<ResultT, ContextT>(std::move(error))) {
 8082b9e:	a905      	add	r1, sp, #20
 8082ba0:	4628      	mov	r0, r5
 8082ba2:	f8ad 3018 	strh.w	r3, [sp, #24]
 8082ba6:	f7ff fe8a 	bl	80828be <_ZN8particle5ErrorC1EOS0_>
 8082baa:	2014      	movs	r0, #20
 8082bac:	f7fd fa77 	bl	808009e <_Znwj>
 8082bb0:	4604      	mov	r4, r0
 8082bb2:	b158      	cbz	r0, 8082bcc <_ZN10CloudClass13publish_eventEPKcS1_iN8particle5FlagsI15PublishFlagTypehEE+0x50>
      ~atomic() noexcept = default;
      atomic(const atomic&) = delete;
      atomic& operator=(const atomic&) = delete;
      atomic& operator=(const atomic&) volatile = delete;

      constexpr atomic(_Tp __i) noexcept : _M_i(__i) { }
 8082bb4:	2302      	movs	r3, #2
 8082bb6:	7003      	strb	r3, [r0, #0]
      __atomic_base(const __atomic_base&) = delete;
      __atomic_base& operator=(const __atomic_base&) = delete;
      __atomic_base& operator=(const __atomic_base&) volatile = delete;

      // Requires __int_type convertible to _M_i.
      constexpr __atomic_base(__int_type __i) noexcept : _M_i (__i) { }
 8082bb8:	2301      	movs	r3, #1
 8082bba:	7043      	strb	r3, [r0, #1]
      __atomic_base(const __atomic_base&) = delete;
      __atomic_base& operator=(const __atomic_base&) = delete;
      __atomic_base& operator=(const __atomic_base&) volatile = delete;

      // Requires __pointer_type convertible to _M_p.
      constexpr __atomic_base(__pointer_type __p) noexcept : _M_p (__p) { }
 8082bbc:	f8c0 b004 	str.w	fp, [r0, #4]
 8082bc0:	f8c0 b008 	str.w	fp, [r0, #8]
            result_(std::move(result)) {
    }

    explicit FutureImpl(Error error) :
            FutureImplBase<ResultT, ContextT>(State::FAILED),
            error_(std::move(error)) {
 8082bc4:	4629      	mov	r1, r5
 8082bc6:	300c      	adds	r0, #12
 8082bc8:	f7ff fe79 	bl	80828be <_ZN8particle5ErrorC1EOS0_>
      : _M_ptr(0), _M_refcount()
      { }

      template<typename _Tp1>
	explicit __shared_ptr(_Tp1* __p)
        : _M_ptr(__p), _M_refcount(__p)
 8082bcc:	4630      	mov	r0, r6
 8082bce:	4621      	mov	r1, r4
 8082bd0:	f840 4b04 	str.w	r4, [r0], #4
 8082bd4:	f7ff ff08 	bl	80829e8 <_ZNSt14__shared_countILN9__gnu_cxx12_Lock_policyE0EEC1IPN8particle6detail10FutureImplIbNS5_13FutureContextEEEEET_>
    typedef typename detail::FutureImpl<ResultT, ContextT>::OnSuccessCallback OnSuccessCallback;
    typedef typename detail::FutureImpl<ResultT, ContextT>::OnErrorCallback OnErrorCallback;

    // Construct failed future
    explicit FutureBase(Error error) :
            p_(new detail::FutureImpl<ResultT, ContextT>(std::move(error))) {
 8082bd8:	4628      	mov	r0, r5
 8082bda:	f7ff fe7f 	bl	80828dc <_ZN8particle5ErrorD1Ev>
    }

    explicit FutureBase(Error::Type error) :
            FutureBase(Error(error)) {
 8082bde:	a805      	add	r0, sp, #20
 8082be0:	f7ff fe7c 	bl	80828dc <_ZN8particle5ErrorD1Ev>
 8082be4:	e052      	b.n	8082c8c <_ZN10CloudClass13publish_eventEPKcS1_iN8particle5FlagsI15PublishFlagTypehEE+0x110>
        return Future<bool>(Error::INVALID_STATE);
    }
    spark_send_event_data d = { sizeof(spark_send_event_data) };
 8082be6:	2400      	movs	r4, #0
 8082be8:	230c      	movs	r3, #12
// can be acquired via Future
template<typename ResultT, typename ContextT>
class PromiseBase {
public:
    PromiseBase() :
            p_(new detail::FutureImpl<ResultT, ContextT>(State::RUNNING)) {
 8082bea:	2014      	movs	r0, #20
 8082bec:	606c      	str	r4, [r5, #4]
 8082bee:	60ac      	str	r4, [r5, #8]
 8082bf0:	9307      	str	r3, [sp, #28]
 8082bf2:	f7fd fa54 	bl	808009e <_Znwj>
 8082bf6:	4601      	mov	r1, r0
 8082bf8:	b118      	cbz	r0, 8082c02 <_ZN10CloudClass13publish_eventEPKcS1_iN8particle5FlagsI15PublishFlagTypehEE+0x86>
 8082bfa:	7004      	strb	r4, [r0, #0]
      __atomic_base(const __atomic_base&) = delete;
      __atomic_base& operator=(const __atomic_base&) = delete;
      __atomic_base& operator=(const __atomic_base&) volatile = delete;

      // Requires __int_type convertible to _M_i.
      constexpr __atomic_base(__int_type __i) noexcept : _M_i (__i) { }
 8082bfc:	7044      	strb	r4, [r0, #1]
      __atomic_base(const __atomic_base&) = delete;
      __atomic_base& operator=(const __atomic_base&) = delete;
      __atomic_base& operator=(const __atomic_base&) volatile = delete;

      // Requires __pointer_type convertible to _M_p.
      constexpr __atomic_base(__pointer_type __p) noexcept : _M_p (__p) { }
 8082bfe:	6044      	str	r4, [r0, #4]
 8082c00:	6084      	str	r4, [r0, #8]
 8082c02:	a804      	add	r0, sp, #16
 8082c04:	9103      	str	r1, [sp, #12]
 8082c06:	f7ff feef 	bl	80829e8 <_ZNSt14__shared_countILN9__gnu_cxx12_Lock_policyE0EEC1IPN8particle6detail10FutureImplIbNS5_13FutureContextEEEEET_>

    // Completion handler
    Promise<bool> p;
    d.handler_callback = publishCompletionCallback;
 8082c0a:	4b22      	ldr	r3, [pc, #136]	; (8082c94 <_ZN10CloudClass13publish_eventEPKcS1_iN8particle5FlagsI15PublishFlagTypehEE+0x118>)
    }

    // Wraps this promise into an object pointer that can be passed to a C function
    void* dataPtr() const {
        // TODO: Use custom reference counting object to avoid unnecessary memory allocation
        return new detail::FutureImplPtr<ResultT, ContextT>(p_);
 8082c0c:	2008      	movs	r0, #8
 8082c0e:	9308      	str	r3, [sp, #32]
 8082c10:	f7fd fa45 	bl	808009e <_Znwj>
 8082c14:	4604      	mov	r4, r0
 8082c16:	b128      	cbz	r0, 8082c24 <_ZN10CloudClass13publish_eventEPKcS1_iN8particle5FlagsI15PublishFlagTypehEE+0xa8>
      template<typename _Tp1>
	__shared_ptr(const __shared_ptr<_Tp1, _Lp>& __r, _Tp* __p) noexcept
	: _M_ptr(__p), _M_refcount(__r._M_refcount) // never throws
	{ }

      __shared_ptr(const __shared_ptr&) noexcept = default;
 8082c18:	9b03      	ldr	r3, [sp, #12]
 8082c1a:	a904      	add	r1, sp, #16
 8082c1c:	f840 3b04 	str.w	r3, [r0], #4
 8082c20:	f7ff fc60 	bl	80824e4 <_ZNSt14__shared_countILN9__gnu_cxx12_Lock_policyE0EEC1ERKS2_>
    d.handler_data = p.dataPtr();

    if (!spark_send_event(eventName, eventData, ttl, flags.value(), &d) && !p.isDone()) {
 8082c24:	9500      	str	r5, [sp, #0]
 8082c26:	fa5f f38a 	uxtb.w	r3, sl
 8082c2a:	464a      	mov	r2, r9
 8082c2c:	4641      	mov	r1, r8
 8082c2e:	4638      	mov	r0, r7
    spark_send_event_data d = { sizeof(spark_send_event_data) };

    // Completion handler
    Promise<bool> p;
    d.handler_callback = publishCompletionCallback;
    d.handler_data = p.dataPtr();
 8082c30:	9409      	str	r4, [sp, #36]	; 0x24

    if (!spark_send_event(eventName, eventData, ttl, flags.value(), &d) && !p.isDone()) {
 8082c32:	f7ff f953 	bl	8081edc <spark_send_event>
 8082c36:	b920      	cbnz	r0, 8082c42 <_ZN10CloudClass13publish_eventEPKcS1_iN8particle5FlagsI15PublishFlagTypehEE+0xc6>
      {
       memory_order __b = __m & __memory_order_mask;
	__glibcxx_assert(__b != memory_order_release);
	__glibcxx_assert(__b != memory_order_acq_rel);

	return __atomic_load_n(&_M_i, __m);
 8082c38:	9b03      	ldr	r3, [sp, #12]
 8082c3a:	785b      	ldrb	r3, [r3, #1]
 8082c3c:	f003 02ff 	and.w	r2, r3, #255	; 0xff
 8082c40:	b183      	cbz	r3, 8082c64 <_ZN10CloudClass13publish_eventEPKcS1_iN8particle5FlagsI15PublishFlagTypehEE+0xe8>
 8082c42:	9b03      	ldr	r3, [sp, #12]
 8082c44:	a904      	add	r1, sp, #16
 8082c46:	a806      	add	r0, sp, #24
 8082c48:	9305      	str	r3, [sp, #20]
 8082c4a:	f7ff fc4b 	bl	80824e4 <_ZNSt14__shared_countILN9__gnu_cxx12_Lock_policyE0EEC1ERKS2_>
    bool isDone() const {
        return p_->isDone();
    }

    Future<ResultT, ContextT> future() const {
        return Future<ResultT, ContextT>(p_);
 8082c4e:	a905      	add	r1, sp, #20
 8082c50:	4630      	mov	r0, r6
 8082c52:	f7ff fe9a 	bl	808298a <_ZN8particle6FutureIbNS_6detail13FutureContextEEC1ESt10shared_ptrINS1_10FutureImplIbS2_EEE>
      __shared_ptr& operator=(const __shared_ptr&) noexcept = default;
      ~__shared_ptr() = default;
 8082c56:	a806      	add	r0, sp, #24
 8082c58:	f7fd fa7d 	bl	8080156 <_ZNSt14__shared_countILN9__gnu_cxx12_Lock_policyE0EED1Ev>
 8082c5c:	a804      	add	r0, sp, #16
 8082c5e:	f7fd fa7a 	bl	8080156 <_ZNSt14__shared_countILN9__gnu_cxx12_Lock_policyE0EED1Ev>
 8082c62:	e013      	b.n	8082c8c <_ZN10CloudClass13publish_eventEPKcS1_iN8particle5FlagsI15PublishFlagTypehEE+0x110>
 8082c64:	f64f 739c 	movw	r3, #65436	; 0xff9c
        // Set generic error code in case completion callback wasn't invoked for some reason
        p.setError(Error::UNKNOWN);
 8082c68:	a905      	add	r1, sp, #20
 8082c6a:	a803      	add	r0, sp, #12
 8082c6c:	9205      	str	r2, [sp, #20]
 8082c6e:	f8ad 3018 	strh.w	r3, [sp, #24]
 8082c72:	f7ff fefd 	bl	8082a70 <_ZN8particle11PromiseBaseIbNS_6detail13FutureContextEE8setErrorENS_5ErrorE>
 8082c76:	a805      	add	r0, sp, #20
 8082c78:	f7ff fe30 	bl	80828dc <_ZN8particle5ErrorD1Ev>
        p.fromDataPtr(d.handler_data); // Free wrapper object
 8082c7c:	a805      	add	r0, sp, #20
 8082c7e:	9909      	ldr	r1, [sp, #36]	; 0x24
 8082c80:	f7ff fe94 	bl	80829ac <_ZN8particle11PromiseBaseIbNS_6detail13FutureContextEE11fromDataPtrEPv>
 8082c84:	a806      	add	r0, sp, #24
 8082c86:	f7fd fa66 	bl	8080156 <_ZNSt14__shared_countILN9__gnu_cxx12_Lock_policyE0EED1Ev>
 8082c8a:	e7da      	b.n	8082c42 <_ZN10CloudClass13publish_eventEPKcS1_iN8particle5FlagsI15PublishFlagTypehEE+0xc6>
    }

    return p.future();
}
 8082c8c:	4630      	mov	r0, r6
 8082c8e:	b00b      	add	sp, #44	; 0x2c
 8082c90:	e8bd 8ff0 	ldmia.w	sp!, {r4, r5, r6, r7, r8, r9, sl, fp, pc}
 8082c94:	08082e09 	.word	0x08082e09

08082c98 <_ZNSt14_Function_base13_Base_managerISt5_BindIFSt8functionIFvRKN8particle5ErrorEEES4_EEE10_M_managerERSt9_Any_dataRKSC_St18_Manager_operation>:
      public:
	static bool
	_M_manager(_Any_data& __dest, const _Any_data& __source,
		   _Manager_operation __op)
	{
	  switch (__op)
 8082c98:	2a02      	cmp	r2, #2
	  delete __victim._M_access<_Functor*>();
	}

      public:
	static bool
	_M_manager(_Any_data& __dest, const _Any_data& __source,
 8082c9a:	b5f8      	push	{r3, r4, r5, r6, r7, lr}
 8082c9c:	4604      	mov	r4, r0
		   _Manager_operation __op)
	{
	  switch (__op)
 8082c9e:	d006      	beq.n	8082cae <_ZNSt14_Function_base13_Base_managerISt5_BindIFSt8functionIFvRKN8particle5ErrorEEES4_EEE10_M_managerERSt9_Any_dataRKSC_St18_Manager_operation+0x16>
 8082ca0:	2a03      	cmp	r2, #3
 8082ca2:	d017      	beq.n	8082cd4 <_ZNSt14_Function_base13_Base_managerISt5_BindIFSt8functionIFvRKN8particle5ErrorEEES4_EEE10_M_managerERSt9_Any_dataRKSC_St18_Manager_operation+0x3c>
 8082ca4:	2a01      	cmp	r2, #1
 8082ca6:	d122      	bne.n	8082cee <_ZNSt14_Function_base13_Base_managerISt5_BindIFSt8functionIFvRKN8particle5ErrorEEES4_EEE10_M_managerERSt9_Any_dataRKSC_St18_Manager_operation+0x56>
	static _Functor*
	_M_get_pointer(const _Any_data& __source)
	{
	  const _Functor* __ptr =
	    __stored_locally? std::__addressof(__source._M_access<_Functor>())
	    /* have stored a pointer */ : __source._M_access<_Functor*>();
 8082ca8:	680b      	ldr	r3, [r1, #0]
	    case __get_type_info:
	      __dest._M_access<const type_info*>() = &typeid(_Functor);
	      break;
#endif
	    case __get_functor_ptr:
	      __dest._M_access<_Functor*>() = _M_get_pointer(__source);
 8082caa:	6003      	str	r3, [r0, #0]
	      break;
 8082cac:	e01f      	b.n	8082cee <_ZNSt14_Function_base13_Base_managerISt5_BindIFSt8functionIFvRKN8particle5ErrorEEES4_EEE10_M_managerERSt9_Any_dataRKSC_St18_Manager_operation+0x56>
	// Clone a function object that is not location-invariant or
	// that cannot fit into an _Any_data structure.
	static void
	_M_clone(_Any_data& __dest, const _Any_data& __source, false_type)
	{
	  __dest._M_access<_Functor*>() =
 8082cae:	2018      	movs	r0, #24
 8082cb0:	680e      	ldr	r6, [r1, #0]
 8082cb2:	f7fd f9f4 	bl	808009e <_Znwj>
 8082cb6:	4605      	mov	r5, r0
 8082cb8:	b150      	cbz	r0, 8082cd0 <_ZNSt14_Function_base13_Base_managerISt5_BindIFSt8functionIFvRKN8particle5ErrorEEES4_EEE10_M_managerERSt9_Any_dataRKSC_St18_Manager_operation+0x38>
      template<typename... _Args>
	explicit _Bind(_Functor&& __f, _Args&&... __args)
	: _M_f(std::move(__f)), _M_bound_args(std::forward<_Args>(__args)...)
	{ }

      _Bind(const _Bind&) = default;
 8082cba:	4631      	mov	r1, r6
 8082cbc:	f7ff fec8 	bl	8082a50 <_ZNSt8functionIFvRKN8particle5ErrorEEEC1ERKS5_>
inline particle::Error::Error(const char* msg) :
        Error(UNKNOWN, msg) {
}

inline particle::Error::Error(const Error& error) :
        Error(error.type_, error.msg_) {
 8082cc0:	6930      	ldr	r0, [r6, #16]
 8082cc2:	f9b6 7014 	ldrsh.w	r7, [r6, #20]
        type_(type) {
}

inline particle::Error::Error(Type type, const char* msg) :
        msg_(msg ? (const char*)strdup(msg) : nullptr),
        type_(type) {
 8082cc6:	b108      	cbz	r0, 8082ccc <_ZNSt14_Function_base13_Base_managerISt5_BindIFSt8functionIFvRKN8particle5ErrorEEES4_EEE10_M_managerERSt9_Any_dataRKSC_St18_Manager_operation+0x34>
 8082cc8:	f001 fcbe 	bl	8084648 <strdup>
 8082ccc:	6128      	str	r0, [r5, #16]
 8082cce:	82af      	strh	r7, [r5, #20]
	// Clone a function object that is not location-invariant or
	// that cannot fit into an _Any_data structure.
	static void
	_M_clone(_Any_data& __dest, const _Any_data& __source, false_type)
	{
	  __dest._M_access<_Functor*>() =
 8082cd0:	6025      	str	r5, [r4, #0]
 8082cd2:	e00c      	b.n	8082cee <_ZNSt14_Function_base13_Base_managerISt5_BindIFSt8functionIFvRKN8particle5ErrorEEES4_EEE10_M_managerERSt9_Any_dataRKSC_St18_Manager_operation+0x56>

	// Destroying an object located on the heap.
	static void
	_M_destroy(_Any_data& __victim, false_type)
	{
	  delete __victim._M_access<_Functor*>();
 8082cd4:	6804      	ldr	r4, [r0, #0]
 8082cd6:	b154      	cbz	r4, 8082cee <_ZNSt14_Function_base13_Base_managerISt5_BindIFSt8functionIFvRKN8particle5ErrorEEES4_EEE10_M_managerERSt9_Any_dataRKSC_St18_Manager_operation+0x56>
 8082cd8:	f104 0010 	add.w	r0, r4, #16
 8082cdc:	f7ff fdfe 	bl	80828dc <_ZN8particle5ErrorD1Ev>
   *  @ingroup functors
   *
   *  Polymorphic function wrapper.
   */
  template<typename _Res, typename... _ArgTypes>
    class function<_Res(_ArgTypes...)>
 8082ce0:	4620      	mov	r0, r4
 8082ce2:	f7ff fd08 	bl	80826f6 <_ZNSt14_Function_baseD1Ev>

	// Destroying an object located on the heap.
	static void
	_M_destroy(_Any_data& __victim, false_type)
	{
	  delete __victim._M_access<_Functor*>();
 8082ce6:	2118      	movs	r1, #24
 8082ce8:	4620      	mov	r0, r4
 8082cea:	f000 fca9 	bl	8083640 <_ZdlPvj>
	    case __destroy_functor:
	      _M_destroy(__dest, _Local_storage());
	      break;
	    }
	  return false;
	}
 8082cee:	2000      	movs	r0, #0
 8082cf0:	bdf8      	pop	{r3, r4, r5, r6, r7, pc}

08082cf2 <_ZNSt8functionIFvRKbEEC1ERKS3_>:
      _Invoker_type _M_invoker;
  };

  // Out-of-line member definitions.
  template<typename _Res, typename... _ArgTypes>
    function<_Res(_ArgTypes...)>::
 8082cf2:	b538      	push	{r3, r4, r5, lr}
	{
	  _Base::_M_init_functor(__functor, std::__addressof(__f.get()));
	}
      };

    _Function_base() : _M_manager(nullptr) { }
 8082cf4:	2300      	movs	r3, #0
 8082cf6:	6083      	str	r3, [r0, #8]
 8082cf8:	688b      	ldr	r3, [r1, #8]
      _Invoker_type _M_invoker;
  };

  // Out-of-line member definitions.
  template<typename _Res, typename... _ArgTypes>
    function<_Res(_ArgTypes...)>::
 8082cfa:	4604      	mov	r4, r0
 8082cfc:	460d      	mov	r5, r1
    function(const function& __x)
    : _Function_base()
    {
      if (static_cast<bool>(__x))
 8082cfe:	b12b      	cbz	r3, 8082d0c <_ZNSt8functionIFvRKbEEC1ERKS3_+0x1a>
	{
	  __x._M_manager(_M_functor, __x._M_functor, __clone_functor);
 8082d00:	2202      	movs	r2, #2
 8082d02:	4798      	blx	r3
	  _M_invoker = __x._M_invoker;
 8082d04:	68eb      	ldr	r3, [r5, #12]
 8082d06:	60e3      	str	r3, [r4, #12]
	  _M_manager = __x._M_manager;
 8082d08:	68ab      	ldr	r3, [r5, #8]
 8082d0a:	60a3      	str	r3, [r4, #8]
	}
    }
 8082d0c:	4620      	mov	r0, r4
 8082d0e:	bd38      	pop	{r3, r4, r5, pc}

08082d10 <_ZNSt14_Function_base13_Base_managerISt5_BindIFSt8functionIFvRKbEEbEEE10_M_managerERSt9_Any_dataRKSA_St18_Manager_operation>:
      public:
	static bool
	_M_manager(_Any_data& __dest, const _Any_data& __source,
		   _Manager_operation __op)
	{
	  switch (__op)
 8082d10:	2a02      	cmp	r2, #2
	  delete __victim._M_access<_Functor*>();
	}

      public:
	static bool
	_M_manager(_Any_data& __dest, const _Any_data& __source,
 8082d12:	b570      	push	{r4, r5, r6, lr}
 8082d14:	4604      	mov	r4, r0
		   _Manager_operation __op)
	{
	  switch (__op)
 8082d16:	d006      	beq.n	8082d26 <_ZNSt14_Function_base13_Base_managerISt5_BindIFSt8functionIFvRKbEEbEEE10_M_managerERSt9_Any_dataRKSA_St18_Manager_operation+0x16>
 8082d18:	2a03      	cmp	r2, #3
 8082d1a:	d011      	beq.n	8082d40 <_ZNSt14_Function_base13_Base_managerISt5_BindIFSt8functionIFvRKbEEbEEE10_M_managerERSt9_Any_dataRKSA_St18_Manager_operation+0x30>
 8082d1c:	2a01      	cmp	r2, #1
 8082d1e:	d118      	bne.n	8082d52 <_ZNSt14_Function_base13_Base_managerISt5_BindIFSt8functionIFvRKbEEbEEE10_M_managerERSt9_Any_dataRKSA_St18_Manager_operation+0x42>
	static _Functor*
	_M_get_pointer(const _Any_data& __source)
	{
	  const _Functor* __ptr =
	    __stored_locally? std::__addressof(__source._M_access<_Functor>())
	    /* have stored a pointer */ : __source._M_access<_Functor*>();
 8082d20:	680b      	ldr	r3, [r1, #0]
	    case __get_type_info:
	      __dest._M_access<const type_info*>() = &typeid(_Functor);
	      break;
#endif
	    case __get_functor_ptr:
	      __dest._M_access<_Functor*>() = _M_get_pointer(__source);
 8082d22:	6003      	str	r3, [r0, #0]
	      break;
 8082d24:	e015      	b.n	8082d52 <_ZNSt14_Function_base13_Base_managerISt5_BindIFSt8functionIFvRKbEEbEEE10_M_managerERSt9_Any_dataRKSA_St18_Manager_operation+0x42>
	// Clone a function object that is not location-invariant or
	// that cannot fit into an _Any_data structure.
	static void
	_M_clone(_Any_data& __dest, const _Any_data& __source, false_type)
	{
	  __dest._M_access<_Functor*>() =
 8082d26:	2014      	movs	r0, #20
 8082d28:	680e      	ldr	r6, [r1, #0]
 8082d2a:	f7fd f9b8 	bl	808009e <_Znwj>
 8082d2e:	4605      	mov	r5, r0
 8082d30:	b120      	cbz	r0, 8082d3c <_ZNSt14_Function_base13_Base_managerISt5_BindIFSt8functionIFvRKbEEbEEE10_M_managerERSt9_Any_dataRKSA_St18_Manager_operation+0x2c>
      template<typename... _Args>
	explicit _Bind(_Functor&& __f, _Args&&... __args)
	: _M_f(std::move(__f)), _M_bound_args(std::forward<_Args>(__args)...)
	{ }

      _Bind(const _Bind&) = default;
 8082d32:	4631      	mov	r1, r6
 8082d34:	f7ff ffdd 	bl	8082cf2 <_ZNSt8functionIFvRKbEEC1ERKS3_>
 8082d38:	7c33      	ldrb	r3, [r6, #16]
 8082d3a:	742b      	strb	r3, [r5, #16]
	// Clone a function object that is not location-invariant or
	// that cannot fit into an _Any_data structure.
	static void
	_M_clone(_Any_data& __dest, const _Any_data& __source, false_type)
	{
	  __dest._M_access<_Functor*>() =
 8082d3c:	6025      	str	r5, [r4, #0]
 8082d3e:	e008      	b.n	8082d52 <_ZNSt14_Function_base13_Base_managerISt5_BindIFSt8functionIFvRKbEEbEEE10_M_managerERSt9_Any_dataRKSA_St18_Manager_operation+0x42>

	// Destroying an object located on the heap.
	static void
	_M_destroy(_Any_data& __victim, false_type)
	{
	  delete __victim._M_access<_Functor*>();
 8082d40:	6804      	ldr	r4, [r0, #0]
 8082d42:	b134      	cbz	r4, 8082d52 <_ZNSt14_Function_base13_Base_managerISt5_BindIFSt8functionIFvRKbEEbEEE10_M_managerERSt9_Any_dataRKSA_St18_Manager_operation+0x42>
   *  @ingroup functors
   *
   *  Polymorphic function wrapper.
   */
  template<typename _Res, typename... _ArgTypes>
    class function<_Res(_ArgTypes...)>
 8082d44:	4620      	mov	r0, r4
 8082d46:	f7ff fcd6 	bl	80826f6 <_ZNSt14_Function_baseD1Ev>

	// Destroying an object located on the heap.
	static void
	_M_destroy(_Any_data& __victim, false_type)
	{
	  delete __victim._M_access<_Functor*>();
 8082d4a:	2114      	movs	r1, #20
 8082d4c:	4620      	mov	r0, r4
 8082d4e:	f000 fc77 	bl	8083640 <_ZdlPvj>
	    case __destroy_functor:
	      _M_destroy(__dest, _Local_storage());
	      break;
	    }
	  return false;
	}
 8082d52:	2000      	movs	r0, #0
 8082d54:	bd70      	pop	{r4, r5, r6, pc}
	...

08082d58 <_ZN8particle6detail14FutureImplBaseIbNS0_13FutureContextEE14invokeCallbackIFvRKbEIRbEEEvRSt6atomicIPSt8functionIT_EEDpOT0_>:
        delete callbackPtr; // Delete old callback
    }

    // Takes a callback from its atomic wrapper and invokes it
    template<typename FunctionT, typename... ArgsT>
    static void invokeCallback(std::atomic<std::function<FunctionT>*>& wrapper, ArgsT&&... args) {
 8082d58:	b5f0      	push	{r4, r5, r6, r7, lr}
 8082d5a:	460c      	mov	r4, r1

      _GLIBCXX_ALWAYS_INLINE __pointer_type
      exchange(__pointer_type __p,
	       memory_order __m = memory_order_seq_cst) noexcept
      {
	return __atomic_exchange_n(&_M_p, __p, __m);
 8082d5c:	f3bf 8f5f 	dmb	sy
 8082d60:	b087      	sub	sp, #28
 8082d62:	2300      	movs	r3, #0
 8082d64:	e850 6f00 	ldrex	r6, [r0]
 8082d68:	e840 3200 	strex	r2, r3, [r0]
 8082d6c:	2a00      	cmp	r2, #0
 8082d6e:	d1f9      	bne.n	8082d64 <_ZN8particle6detail14FutureImplBaseIbNS0_13FutureContextEE14invokeCallbackIFvRKbEIRbEEEvRSt6atomicIPSt8functionIT_EEDpOT0_+0xc>
 8082d70:	f3bf 8f5f 	dmb	sy
        std::function<FunctionT>* callbackPtr = wrapper.exchange(nullptr, std::memory_order_acq_rel);
        if (callbackPtr) {
 8082d74:	2e00      	cmp	r6, #0
 8082d76:	d03f      	beq.n	8082df8 <_ZN8particle6detail14FutureImplBaseIbNS0_13FutureContextEE14invokeCallbackIFvRKbEIRbEEEvRSt6atomicIPSt8functionIT_EEDpOT0_+0xa0>
        return (application_thread_invoke(callback, data, nullptr) == 0);
    }

    // Returns true if current thread is the application thread
    static bool isApplicationThreadCurrent() {
        return (application_thread_current(nullptr) != 0);
 8082d78:	4618      	mov	r0, r3
 8082d7a:	f7ff f813 	bl	8081da4 <application_thread_current>
    }

    // Invokes std::function in the application context
    template<typename FunctionT, typename... ArgsT>
    static void invokeCallback(const std::function<FunctionT>& callback, ArgsT&&... args) {
        if (ContextT::isApplicationThreadCurrent()) {
 8082d7e:	4607      	mov	r7, r0
 8082d80:	b120      	cbz	r0, 8082d8c <_ZN8particle6detail14FutureImplBaseIbNS0_13FutureContextEE14invokeCallbackIFvRKbEIRbEEEvRSt6atomicIPSt8functionIT_EEDpOT0_+0x34>
            callback(std::forward<ArgsT>(args)...); // Synchronous call
 8082d82:	4621      	mov	r1, r4
 8082d84:	4630      	mov	r0, r6
 8082d86:	f7ff fe53 	bl	8082a30 <_ZNKSt8functionIFvRKbEEclES1_>
 8082d8a:	e02e      	b.n	8082dea <_ZN8particle6detail14FutureImplBaseIbNS0_13FutureContextEE14invokeCallbackIFvRKbEIRbEEEvRSt6atomicIPSt8functionIT_EEDpOT0_+0x92>
	}

     public:
      template<typename... _Args>
	explicit _Bind(const _Functor& __f, _Args&&... __args)
	: _M_f(__f), _M_bound_args(std::forward<_Args>(__args)...)
 8082d8c:	4631      	mov	r1, r6
 8082d8e:	a801      	add	r0, sp, #4
 8082d90:	f7ff ffaf 	bl	8082cf2 <_ZNSt8functionIFvRKbEEC1ERKS3_>
      constexpr _Head_base(const _Head_base&) = default;
      constexpr _Head_base(_Head_base&&) = default;

      template<typename _UHead>
        constexpr _Head_base(_UHead&& __h)
	: _M_head_impl(std::forward<_UHead>(__h)) { }
 8082d94:	7823      	ldrb	r3, [r4, #0]
        } else {
            // Bind all arguments and wrap resulting function into a pointer
            auto callbackPtr = new std::function<void()>(std::bind(callback, std::forward<ArgsT>(args)...));
 8082d96:	2010      	movs	r0, #16
 8082d98:	f88d 3014 	strb.w	r3, [sp, #20]
 8082d9c:	f7fd f97f 	bl	808009e <_Znwj>
 8082da0:	4605      	mov	r5, r0
 8082da2:	b1d0      	cbz	r0, 8082dda <_ZN8particle6detail14FutureImplBaseIbNS0_13FutureContextEE14invokeCallbackIFvRKbEIRbEEEvRSt6atomicIPSt8functionIT_EEDpOT0_+0x82>
	{
	  _Base::_M_init_functor(__functor, std::__addressof(__f.get()));
	}
      };

    _Function_base() : _M_manager(nullptr) { }
 8082da4:	6087      	str	r7, [r0, #8]
	_M_init_functor(_Any_data& __functor, _Functor&& __f, true_type)
	{ new (__functor._M_access()) _Functor(std::move(__f)); }

	static void
	_M_init_functor(_Any_data& __functor, _Functor&& __f, false_type)
	{ __functor._M_access<_Functor*>() = new _Functor(std::move(__f)); }
 8082da6:	2014      	movs	r0, #20
 8082da8:	f7fd f979 	bl	808009e <_Znwj>
 8082dac:	4604      	mov	r4, r0
 8082dae:	b178      	cbz	r0, 8082dd0 <_ZN8particle6detail14FutureImplBaseIbNS0_13FutureContextEE14invokeCallbackIFvRKbEIRbEEEvRSt6atomicIPSt8functionIT_EEDpOT0_+0x78>
	{
	  _Base::_M_init_functor(__functor, std::__addressof(__f.get()));
	}
      };

    _Function_base() : _M_manager(nullptr) { }
 8082db0:	6087      	str	r7, [r0, #8]
       *  Swap the targets of @c this function object and @a __f. This
       *  function will not throw an %exception.
       */
      void swap(function& __x)
      {
	std::swap(_M_functor, __x._M_functor);
 8082db2:	4601      	mov	r1, r0
 8082db4:	a801      	add	r0, sp, #4
 8082db6:	f7ff fcad 	bl	8082714 <_ZSt4swapISt9_Any_dataEvRT_S2_>
#endif
    {
      // concept requirements
      __glibcxx_function_requires(_SGIAssignableConcept<_Tp>)

      _Tp __tmp = _GLIBCXX_MOVE(__a);
 8082dba:	9b03      	ldr	r3, [sp, #12]
      __a = _GLIBCXX_MOVE(__b);
 8082dbc:	68a2      	ldr	r2, [r4, #8]
      __b = _GLIBCXX_MOVE(__tmp);
 8082dbe:	60a3      	str	r3, [r4, #8]
#endif
    {
      // concept requirements
      __glibcxx_function_requires(_SGIAssignableConcept<_Tp>)

      _Tp __tmp = _GLIBCXX_MOVE(__a);
 8082dc0:	9b04      	ldr	r3, [sp, #16]
      __a = _GLIBCXX_MOVE(__b);
 8082dc2:	9203      	str	r2, [sp, #12]
 8082dc4:	68e2      	ldr	r2, [r4, #12]
      __b = _GLIBCXX_MOVE(__tmp);
 8082dc6:	60e3      	str	r3, [r4, #12]
 8082dc8:	f89d 3014 	ldrb.w	r3, [sp, #20]
    {
      // concept requirements
      __glibcxx_function_requires(_SGIAssignableConcept<_Tp>)

      _Tp __tmp = _GLIBCXX_MOVE(__a);
      __a = _GLIBCXX_MOVE(__b);
 8082dcc:	9204      	str	r2, [sp, #16]
 8082dce:	7423      	strb	r3, [r4, #16]
	typedef _Function_handler<_Signature_type, _Functor> _My_handler;

	if (_My_handler::_M_not_empty_function(__f))
	  {
	    _My_handler::_M_init_functor(_M_functor, std::move(__f));
	    _M_invoker = &_My_handler::_M_invoke;
 8082dd0:	4b0a      	ldr	r3, [pc, #40]	; (8082dfc <_ZN8particle6detail14FutureImplBaseIbNS0_13FutureContextEE14invokeCallbackIFvRKbEIRbEEEvRSt6atomicIPSt8functionIT_EEDpOT0_+0xa4>)
	_M_init_functor(_Any_data& __functor, _Functor&& __f, true_type)
	{ new (__functor._M_access()) _Functor(std::move(__f)); }

	static void
	_M_init_functor(_Any_data& __functor, _Functor&& __f, false_type)
	{ __functor._M_access<_Functor*>() = new _Functor(std::move(__f)); }
 8082dd2:	602c      	str	r4, [r5, #0]
	typedef _Function_handler<_Signature_type, _Functor> _My_handler;

	if (_My_handler::_M_not_empty_function(__f))
	  {
	    _My_handler::_M_init_functor(_M_functor, std::move(__f));
	    _M_invoker = &_My_handler::_M_invoke;
 8082dd4:	60eb      	str	r3, [r5, #12]
	    _M_manager = &_My_handler::_M_manager;
 8082dd6:	4b0a      	ldr	r3, [pc, #40]	; (8082e00 <_ZN8particle6detail14FutureImplBaseIbNS0_13FutureContextEE14invokeCallbackIFvRKbEIRbEEEvRSt6atomicIPSt8functionIT_EEDpOT0_+0xa8>)
 8082dd8:	60ab      	str	r3, [r5, #8]
   *  @ingroup functors
   *
   *  Polymorphic function wrapper.
   */
  template<typename _Res, typename... _ArgTypes>
    class function<_Res(_ArgTypes...)>
 8082dda:	a801      	add	r0, sp, #4
 8082ddc:	f7ff fc8b 	bl	80826f6 <_ZNSt14_Function_baseD1Ev>
        spark_process();
    }

    // Asynchronously invokes a callback in the application context
    static bool invokeApplicationCallback(void (*callback)(void* data), void* data) {
        return (application_thread_invoke(callback, data, nullptr) == 0);
 8082de0:	2200      	movs	r2, #0
 8082de2:	4629      	mov	r1, r5
 8082de4:	4807      	ldr	r0, [pc, #28]	; (8082e04 <_ZN8particle6detail14FutureImplBaseIbNS0_13FutureContextEE14invokeCallbackIFvRKbEIRbEEEvRSt6atomicIPSt8functionIT_EEDpOT0_+0xac>)
 8082de6:	f7fe ffe5 	bl	8081db4 <application_thread_invoke>
 8082dea:	4630      	mov	r0, r6
 8082dec:	f7ff fc83 	bl	80826f6 <_ZNSt14_Function_baseD1Ev>
    template<typename FunctionT, typename... ArgsT>
    static void invokeCallback(std::atomic<std::function<FunctionT>*>& wrapper, ArgsT&&... args) {
        std::function<FunctionT>* callbackPtr = wrapper.exchange(nullptr, std::memory_order_acq_rel);
        if (callbackPtr) {
            invokeCallback(*callbackPtr, std::forward<ArgsT>(args)...);
            delete callbackPtr;
 8082df0:	2110      	movs	r1, #16
 8082df2:	4630      	mov	r0, r6
 8082df4:	f000 fc24 	bl	8083640 <_ZdlPvj>
        }
    }
 8082df8:	b007      	add	sp, #28
 8082dfa:	bdf0      	pop	{r4, r5, r6, r7, pc}
 8082dfc:	08082a43 	.word	0x08082a43
 8082e00:	08082d11 	.word	0x08082d11
 8082e04:	08083299 	.word	0x08083299

08082e08 <_ZN12_GLOBAL__N_125publishCompletionCallbackEiPKvPvS2_>:

namespace {

using namespace particle;

void publishCompletionCallback(int error, const void* data, void* callbackData, void* reserved) {
 8082e08:	b530      	push	{r4, r5, lr}
 8082e0a:	4604      	mov	r4, r0
 8082e0c:	b085      	sub	sp, #20
 8082e0e:	460d      	mov	r5, r1
    auto p = Promise<bool>::fromDataPtr(callbackData);
 8082e10:	4668      	mov	r0, sp
 8082e12:	4611      	mov	r1, r2
 8082e14:	f7ff fdca 	bl	80829ac <_ZN8particle11PromiseBaseIbNS_6detail13FutureContextEE11fromDataPtrEPv>
    if (error != Error::NONE) {
 8082e18:	b17c      	cbz	r4, 8082e3a <_ZN12_GLOBAL__N_125publishCompletionCallbackEiPKvPvS2_+0x32>
        p.setError(Error((Error::Type)error, (const char*)data));
 8082e1a:	b224      	sxth	r4, r4
 8082e1c:	4628      	mov	r0, r5
 8082e1e:	b10d      	cbz	r5, 8082e24 <_ZN12_GLOBAL__N_125publishCompletionCallbackEiPKvPvS2_+0x1c>
 8082e20:	f001 fc12 	bl	8084648 <strdup>
 8082e24:	9002      	str	r0, [sp, #8]
 8082e26:	a902      	add	r1, sp, #8
 8082e28:	4668      	mov	r0, sp
 8082e2a:	f8ad 400c 	strh.w	r4, [sp, #12]
 8082e2e:	f7ff fe1f 	bl	8082a70 <_ZN8particle11PromiseBaseIbNS_6detail13FutureContextEE8setErrorENS_5ErrorE>
 8082e32:	a802      	add	r0, sp, #8
 8082e34:	f7ff fd52 	bl	80828dc <_ZN8particle5ErrorD1Ev>
 8082e38:	e01d      	b.n	8082e76 <_ZN12_GLOBAL__N_125publishCompletionCallbackEiPKvPvS2_+0x6e>

      bool
      compare_exchange_strong(_Tp& __e, _Tp __i, memory_order __s, 
			      memory_order __f) noexcept
      {
	return __atomic_compare_exchange(&_M_i, &__e, &__i, false, __s, __f);
 8082e3a:	f04f 0201 	mov.w	r2, #1
 8082e3e:	9800      	ldr	r0, [sp, #0]
            onSuccess_(nullptr),
            onError_(nullptr) {
    }

    bool changeState(State state) {
        State s = State::RUNNING; // Expected state
 8082e40:	f88d 4008 	strb.w	r4, [sp, #8]
 8082e44:	e8d0 3f4f 	ldrexb	r3, [r0]
 8082e48:	42a3      	cmp	r3, r4
 8082e4a:	d103      	bne.n	8082e54 <_ZN12_GLOBAL__N_125publishCompletionCallbackEiPKvPvS2_+0x4c>
 8082e4c:	e8c0 2f41 	strexb	r1, r2, [r0]
 8082e50:	2900      	cmp	r1, #0
 8082e52:	d1f7      	bne.n	8082e44 <_ZN12_GLOBAL__N_125publishCompletionCallbackEiPKvPvS2_+0x3c>
 8082e54:	d002      	beq.n	8082e5c <_ZN12_GLOBAL__N_125publishCompletionCallbackEiPKvPvS2_+0x54>
 8082e56:	f88d 3008 	strb.w	r3, [sp, #8]
 8082e5a:	e00c      	b.n	8082e76 <_ZN12_GLOBAL__N_125publishCompletionCallbackEiPKvPvS2_+0x6e>
        }
    }

    void setResult(ResultT result) {
        if (this->changeState(State::SUCCEEDED)) {
            new(&result_) ResultT(std::move(result));
 8082e5c:	f110 010c 	adds.w	r1, r0, #12
 8082e60:	f04f 0301 	mov.w	r3, #1
 8082e64:	bf18      	it	ne
 8082e66:	7303      	strbne	r3, [r0, #12]
        memory_order __b = __m & __memory_order_mask;
	__glibcxx_assert(__b != memory_order_acquire);
	__glibcxx_assert(__b != memory_order_acq_rel);
	__glibcxx_assert(__b != memory_order_consume);

	__atomic_store_n(&_M_i, __i, __m);
 8082e68:	f3bf 8f5f 	dmb	sy
            this->releaseDone();
            this->invokeCallback(this->onSuccess_, result_);
 8082e6c:	3004      	adds	r0, #4
 8082e6e:	f800 3c03 	strb.w	r3, [r0, #-3]
 8082e72:	f7ff ff71 	bl	8082d58 <_ZN8particle6detail14FutureImplBaseIbNS0_13FutureContextEE14invokeCallbackIFvRKbEIRbEEEvRSt6atomicIPSt8functionIT_EEDpOT0_>
 8082e76:	a801      	add	r0, sp, #4
 8082e78:	f7fd f96d 	bl	8080156 <_ZNSt14__shared_countILN9__gnu_cxx12_Lock_policyE0EED1Ev>
    } else {
        p.setResult(true);
    }
}
 8082e7c:	b005      	add	sp, #20
 8082e7e:	bd30      	pop	{r4, r5, pc}

08082e80 <_ZN9IPAddressD1Ev>:
    IPAddress(uint8_t first_octet, uint8_t second_octet, uint8_t third_octet, uint8_t fourth_octet);
    IPAddress(uint32_t address);
    IPAddress(const uint8_t* address);
    IPAddress(const HAL_IPAddress& address);

    virtual ~IPAddress() {}
 8082e80:	4770      	bx	lr

08082e82 <_ZN9IPAddressD0Ev>:
 8082e82:	b510      	push	{r4, lr}
 8082e84:	4604      	mov	r4, r0
 8082e86:	2108      	movs	r1, #8
 8082e88:	f000 fbda 	bl	8083640 <_ZdlPvj>
 8082e8c:	4620      	mov	r0, r4
 8082e8e:	bd10      	pop	{r4, pc}

08082e90 <_ZNK9IPAddress7printToER5Print>:
#endif // Wiring_IPv6
	return address.ipv4==that.address.ipv4;
}

size_t IPAddress::printTo(Print& p) const
{
 8082e90:	b5f8      	push	{r3, r4, r5, r6, r7, lr}
 8082e92:	460f      	mov	r7, r1
 8082e94:	f100 0608 	add.w	r6, r0, #8
 8082e98:	1d05      	adds	r5, r0, #4
 8082e9a:	2400      	movs	r4, #0
            t = print('-');
            val = -n;
        } else {
            val = n;
        }
        return printNumber(val, base) + t;
 8082e9c:	f816 1d01 	ldrb.w	r1, [r6, #-1]!
 8082ea0:	220a      	movs	r2, #10
 8082ea2:	4638      	mov	r0, r7
 8082ea4:	f7ff fac5 	bl	8082432 <_ZN5Print11printNumberEmh>
#else
#pragma message "HAL_USE_INET_HAL_POSIX is required for IPv6 support in IPAddress::printTo()"
#endif // HAL_USE_INET_HAL_POSIX
#endif // Wiring_IPv6
    size_t n = 0;
    for (int i = 0; i < 4; i++)
 8082ea8:	42ae      	cmp	r6, r5
    {
        if (n)
            n += p.print('.');
        n += p.print((*this)[i], DEC);
 8082eaa:	4404      	add	r4, r0
#else
#pragma message "HAL_USE_INET_HAL_POSIX is required for IPv6 support in IPAddress::printTo()"
#endif // HAL_USE_INET_HAL_POSIX
#endif // Wiring_IPv6
    size_t n = 0;
    for (int i = 0; i < 4; i++)
 8082eac:	d007      	beq.n	8082ebe <_ZNK9IPAddress7printToER5Print+0x2e>
    {
        if (n)
 8082eae:	2c00      	cmp	r4, #0
 8082eb0:	d0f4      	beq.n	8082e9c <_ZNK9IPAddress7printToER5Print+0xc>
            n += p.print('.');
 8082eb2:	212e      	movs	r1, #46	; 0x2e
 8082eb4:	4638      	mov	r0, r7
 8082eb6:	f7ff faad 	bl	8082414 <_ZN5Print5printEc>
 8082eba:	4404      	add	r4, r0
 8082ebc:	e7ee      	b.n	8082e9c <_ZNK9IPAddress7printToER5Print+0xc>
        n += p.print((*this)[i], DEC);
    }
    return n;
}
 8082ebe:	4620      	mov	r0, r4
 8082ec0:	bdf8      	pop	{r3, r4, r5, r6, r7, pc}
	...

08082ec4 <_ZN9IPAddressC1Ev>:

#if HAL_USE_INET_HAL_POSIX
#include <arpa/inet.h>
#endif // HAL_USE_INET_HAL_POSIX

IPAddress::IPAddress()
 8082ec4:	4a02      	ldr	r2, [pc, #8]	; (8082ed0 <_ZN9IPAddressC1Ev+0xc>)
 8082ec6:	6002      	str	r2, [r0, #0]
        return address;
    }

    virtual size_t printTo(Print& p) const;

    void clear() { memset(&address, 0, sizeof (address)); }
 8082ec8:	2200      	movs	r2, #0
 8082eca:	6042      	str	r2, [r0, #4]
{
    clear();
}
 8082ecc:	4770      	bx	lr
 8082ece:	bf00      	nop
 8082ed0:	08087bfc 	.word	0x08087bfc

08082ed4 <_ZN9IPAddressC1ERK16_HAL_IPAddress_t>:

IPAddress::IPAddress(const HAL_IPAddress& address)
 8082ed4:	4a02      	ldr	r2, [pc, #8]	; (8082ee0 <_ZN9IPAddressC1ERK16_HAL_IPAddress_t+0xc>)
 8082ed6:	6002      	str	r2, [r0, #0]
{
    memcpy(&this->address, &address, sizeof(address));
 8082ed8:	680a      	ldr	r2, [r1, #0]
 8082eda:	6042      	str	r2, [r0, #4]
}
 8082edc:	4770      	bx	lr
 8082ede:	bf00      	nop
 8082ee0:	08087bfc 	.word	0x08087bfc

08082ee4 <_ZN9IPAddressC1Em>:
IPAddress::IPAddress(uint8_t first_octet, uint8_t second_octet, uint8_t third_octet, uint8_t fourth_octet)
{
    set_ipv4(first_octet, second_octet, third_octet, fourth_octet);
}

IPAddress::IPAddress(uint32_t address)
 8082ee4:	4a01      	ldr	r2, [pc, #4]	; (8082eec <_ZN9IPAddressC1Em+0x8>)
    return *this;
}

IPAddress& IPAddress::operator=(uint32_t ipv4)
{
    address.ipv4 = ipv4;
 8082ee6:	6041      	str	r1, [r0, #4]
IPAddress::IPAddress(uint8_t first_octet, uint8_t second_octet, uint8_t third_octet, uint8_t fourth_octet)
{
    set_ipv4(first_octet, second_octet, third_octet, fourth_octet);
}

IPAddress::IPAddress(uint32_t address)
 8082ee8:	6002      	str	r2, [r0, #0]
{
    *this = address;
}
 8082eea:	4770      	bx	lr
 8082eec:	08087bfc 	.word	0x08087bfc

08082ef0 <_ZN9IPAddress8set_ipv4Ehhhh>:
    return address.ipv4!=0;
#endif
}

void IPAddress::set_ipv4(uint8_t b0, uint8_t b1, uint8_t b2, uint8_t b3)
{
 8082ef0:	b510      	push	{r4, lr}
    address.ipv4 = b0<<24 | b1 << 16 | b2 << 8 | b3;
 8082ef2:	f89d 4008 	ldrb.w	r4, [sp, #8]
 8082ef6:	ea44 2303 	orr.w	r3, r4, r3, lsl #8
 8082efa:	ea43 4202 	orr.w	r2, r3, r2, lsl #16
 8082efe:	ea42 6101 	orr.w	r1, r2, r1, lsl #24
 8082f02:	6041      	str	r1, [r0, #4]
 8082f04:	bd10      	pop	{r4, pc}
	...

08082f08 <_ZN9IPAddressC1Ehhhh>:
{
    memcpy(&this->address, &address, sizeof(address));
}


IPAddress::IPAddress(uint8_t first_octet, uint8_t second_octet, uint8_t third_octet, uint8_t fourth_octet)
 8082f08:	b537      	push	{r0, r1, r2, r4, r5, lr}
 8082f0a:	4d04      	ldr	r5, [pc, #16]	; (8082f1c <_ZN9IPAddressC1Ehhhh+0x14>)
 8082f0c:	6005      	str	r5, [r0, #0]
{
    set_ipv4(first_octet, second_octet, third_octet, fourth_octet);
 8082f0e:	f89d 5018 	ldrb.w	r5, [sp, #24]
 8082f12:	9500      	str	r5, [sp, #0]
 8082f14:	f7ff ffec 	bl	8082ef0 <_ZN9IPAddress8set_ipv4Ehhhh>
}
 8082f18:	b003      	add	sp, #12
 8082f1a:	bd30      	pop	{r4, r5, pc}
 8082f1c:	08087bfc 	.word	0x08087bfc

08082f20 <_ZN9USBSerial14blockOnOverrunEb>:
  HAL_USB_USART_Flush_Data(_serial);
}

void USBSerial::blockOnOverrun(bool block)
{
  _blocking = block;
 8082f20:	7441      	strb	r1, [r0, #17]
 8082f22:	4770      	bx	lr

08082f24 <_ZN9USBSerialD1Ev>:
#include "usb_hal.h"
#include "system_task.h"
#include "spark_wiring_startup.h"
#include "concurrent_hal.h"

class USBSerial : public Stream
 8082f24:	4770      	bx	lr

08082f26 <_ZN9USBSerial4readEv>:
}


// Read data from buffer
int USBSerial::read()
{
 8082f26:	b508      	push	{r3, lr}
	return std::max(-1, (int)HAL_USB_USART_Receive_Data(_serial, false));
 8082f28:	2100      	movs	r1, #0
 8082f2a:	7c00      	ldrb	r0, [r0, #16]
 8082f2c:	f7fe ff02 	bl	8081d34 <HAL_USB_USART_Receive_Data>
}
 8082f30:	ea30 0020 	bics.w	r0, r0, r0, asr #32
 8082f34:	bf28      	it	cs
 8082f36:	f04f 30ff 	movcs.w	r0, #4294967295
 8082f3a:	bd08      	pop	{r3, pc}

08082f3c <_ZN9USBSerial4peekEv>:
{
  _blocking = block;
}

int USBSerial::peek()
{
 8082f3c:	b508      	push	{r3, lr}
	return std::max(-1, (int)HAL_USB_USART_Receive_Data(_serial, true));
 8082f3e:	2101      	movs	r1, #1
 8082f40:	7c00      	ldrb	r0, [r0, #16]
 8082f42:	f7fe fef7 	bl	8081d34 <HAL_USB_USART_Receive_Data>
}
 8082f46:	ea30 0020 	bics.w	r0, r0, r0, asr #32
 8082f4a:	bf28      	it	cs
 8082f4c:	f04f 30ff 	movcs.w	r0, #4294967295
 8082f50:	bd08      	pop	{r3, pc}

08082f52 <_ZN9USBSerial17availableForWriteEv>:
{
	return std::max(-1, (int)HAL_USB_USART_Receive_Data(_serial, false));
}

int USBSerial::availableForWrite()
{
 8082f52:	b508      	push	{r3, lr}
  return std::max(0, (int)HAL_USB_USART_Available_Data_For_Write(_serial));
 8082f54:	7c00      	ldrb	r0, [r0, #16]
 8082f56:	f7fe fee5 	bl	8081d24 <HAL_USB_USART_Available_Data_For_Write>
}
 8082f5a:	ea20 70e0 	bic.w	r0, r0, r0, asr #31
 8082f5e:	bd08      	pop	{r3, pc}

08082f60 <_ZN9USBSerial9availableEv>:

int USBSerial::available()
{
 8082f60:	b508      	push	{r3, lr}
	return std::max(0, (int)HAL_USB_USART_Available_Data(_serial));
 8082f62:	7c00      	ldrb	r0, [r0, #16]
 8082f64:	f7fe fed6 	bl	8081d14 <HAL_USB_USART_Available_Data>
}
 8082f68:	ea20 70e0 	bic.w	r0, r0, r0, asr #31
 8082f6c:	bd08      	pop	{r3, pc}

08082f6e <_ZN9USBSerial5flushEv>:
  return 0;
}

void USBSerial::flush()
{
  HAL_USB_USART_Flush_Data(_serial);
 8082f6e:	7c00      	ldrb	r0, [r0, #16]
 8082f70:	f7fe bef0 	b.w	8081d54 <HAL_USB_USART_Flush_Data>

08082f74 <_ZN9USBSerialD0Ev>:
 8082f74:	b510      	push	{r4, lr}
 8082f76:	4604      	mov	r4, r0
 8082f78:	2114      	movs	r1, #20
 8082f7a:	f000 fb61 	bl	8083640 <_ZdlPvj>
 8082f7e:	4620      	mov	r0, r4
 8082f80:	bd10      	pop	{r4, pc}

08082f82 <_ZN9USBSerial5writeEh>:
{
	return std::max(0, (int)HAL_USB_USART_Available_Data(_serial));
}

size_t USBSerial::write(uint8_t byte)
{
 8082f82:	b538      	push	{r3, r4, r5, lr}
 8082f84:	4604      	mov	r4, r0
  if (HAL_USB_USART_Available_Data_For_Write(_serial) > 0 || _blocking) {
 8082f86:	7c00      	ldrb	r0, [r0, #16]
{
	return std::max(0, (int)HAL_USB_USART_Available_Data(_serial));
}

size_t USBSerial::write(uint8_t byte)
{
 8082f88:	460d      	mov	r5, r1
  if (HAL_USB_USART_Available_Data_For_Write(_serial) > 0 || _blocking) {
 8082f8a:	f7fe fecb 	bl	8081d24 <HAL_USB_USART_Available_Data_For_Write>
 8082f8e:	2800      	cmp	r0, #0
 8082f90:	dc01      	bgt.n	8082f96 <_ZN9USBSerial5writeEh+0x14>
 8082f92:	7c60      	ldrb	r0, [r4, #17]
 8082f94:	b128      	cbz	r0, 8082fa2 <_ZN9USBSerial5writeEh+0x20>
    return std::max(0, (int)HAL_USB_USART_Send_Data(_serial, byte));
 8082f96:	4629      	mov	r1, r5
 8082f98:	7c20      	ldrb	r0, [r4, #16]
 8082f9a:	f7fe fed3 	bl	8081d44 <HAL_USB_USART_Send_Data>
 8082f9e:	ea20 70e0 	bic.w	r0, r0, r0, asr #31
  }
  return 0;
}
 8082fa2:	bd38      	pop	{r3, r4, r5, pc}

08082fa4 <_ZN9USBSerialC1E20HAL_USB_USART_SerialRK20HAL_USB_USART_Config>:

  HAL_USB_USART_Config conf = acquireSerialBuffer();
  HAL_USB_USART_Init(_serial, &conf);
}

USBSerial::USBSerial(HAL_USB_USART_Serial serial, const HAL_USB_USART_Config& conf)
 8082fa4:	b510      	push	{r4, lr}
 8082fa6:	4604      	mov	r4, r0
  protected:
    void setWriteError(int err = 1) { write_error = err; }
    size_t printf_impl(bool newline, const char* format, ...);

  public:
    Print() : write_error(0) {}
 8082fa8:	2300      	movs	r3, #0
 8082faa:	6063      	str	r3, [r4, #4]
    virtual int available() = 0;
    virtual int read() = 0;
    virtual int peek() = 0;
    virtual void flush() = 0;

    Stream() {_timeout=1000;}
 8082fac:	f44f 737a 	mov.w	r3, #1000	; 0x3e8
 8082fb0:	60a3      	str	r3, [r4, #8]
 8082fb2:	4b05      	ldr	r3, [pc, #20]	; (8082fc8 <_ZN9USBSerialC1E20HAL_USB_USART_SerialRK20HAL_USB_USART_Config+0x24>)
 8082fb4:	4608      	mov	r0, r1
 8082fb6:	6023      	str	r3, [r4, #0]
{
  _serial = serial;
  _blocking = true;
 8082fb8:	2301      	movs	r3, #1
  HAL_USB_USART_Init(_serial, &conf);
}

USBSerial::USBSerial(HAL_USB_USART_Serial serial, const HAL_USB_USART_Config& conf)
{
  _serial = serial;
 8082fba:	7421      	strb	r1, [r4, #16]
  _blocking = true;
 8082fbc:	7463      	strb	r3, [r4, #17]

  HAL_USB_USART_Init(_serial, &conf);
 8082fbe:	4611      	mov	r1, r2
 8082fc0:	f7fe fea0 	bl	8081d04 <HAL_USB_USART_Init>
}
 8082fc4:	4620      	mov	r0, r4
 8082fc6:	bd10      	pop	{r4, pc}
 8082fc8:	08087c10 	.word	0x08087c10

08082fcc <_Z19acquireSerialBufferv>:
 8082fcc:	b510      	push	{r4, lr}
 8082fce:	4604      	mov	r4, r0
 8082fd0:	2214      	movs	r2, #20
 8082fd2:	2100      	movs	r1, #0
 8082fd4:	f001 fae7 	bl	80845a6 <memset>
 8082fd8:	4620      	mov	r0, r4
 8082fda:	bd10      	pop	{r4, pc}

08082fdc <_Z16_fetch_usbserialv>:

  return conf;
}

USBSerial& _fetch_usbserial()
{
 8082fdc:	b530      	push	{r4, r5, lr}
  HAL_USB_USART_Config conf = acquireSerialBuffer();
	static USBSerial _usbserial(HAL_USB_USART_SERIAL, conf);
 8082fde:	4d0e      	ldr	r5, [pc, #56]	; (8083018 <_Z16_fetch_usbserialv+0x3c>)

  return conf;
}

USBSerial& _fetch_usbserial()
{
 8082fe0:	b087      	sub	sp, #28
  HAL_USB_USART_Config conf = acquireSerialBuffer();
 8082fe2:	a801      	add	r0, sp, #4
 8082fe4:	f7ff fff2 	bl	8082fcc <_Z19acquireSerialBufferv>
	static USBSerial _usbserial(HAL_USB_USART_SERIAL, conf);
 8082fe8:	6829      	ldr	r1, [r5, #0]
 8082fea:	f011 0401 	ands.w	r4, r1, #1
 8082fee:	d110      	bne.n	8083012 <_Z16_fetch_usbserialv+0x36>
 8082ff0:	4628      	mov	r0, r5
 8082ff2:	f7fd f858 	bl	80800a6 <__cxa_guard_acquire>
 8082ff6:	b160      	cbz	r0, 8083012 <_Z16_fetch_usbserialv+0x36>
 8082ff8:	aa01      	add	r2, sp, #4
 8082ffa:	4621      	mov	r1, r4
 8082ffc:	4807      	ldr	r0, [pc, #28]	; (808301c <_Z16_fetch_usbserialv+0x40>)
 8082ffe:	f7ff ffd1 	bl	8082fa4 <_ZN9USBSerialC1E20HAL_USB_USART_SerialRK20HAL_USB_USART_Config>
 8083002:	4628      	mov	r0, r5
 8083004:	f7fd f854 	bl	80800b0 <__cxa_guard_release>
 8083008:	4a05      	ldr	r2, [pc, #20]	; (8083020 <_Z16_fetch_usbserialv+0x44>)
 808300a:	4906      	ldr	r1, [pc, #24]	; (8083024 <_Z16_fetch_usbserialv+0x48>)
 808300c:	4803      	ldr	r0, [pc, #12]	; (808301c <_Z16_fetch_usbserialv+0x40>)
 808300e:	f000 fb09 	bl	8083624 <__aeabi_atexit>
	return _usbserial;
}
 8083012:	4802      	ldr	r0, [pc, #8]	; (808301c <_Z16_fetch_usbserialv+0x40>)
 8083014:	b007      	add	sp, #28
 8083016:	bd30      	pop	{r4, r5, pc}
 8083018:	20000440 	.word	0x20000440
 808301c:	20000448 	.word	0x20000448
 8083020:	20000100 	.word	0x20000100
 8083024:	08082f25 	.word	0x08082f25

08083028 <_Z23acquireUSBSerial1Bufferv>:

#if Wiring_USBSerial1

HAL_USB_USART_Config __attribute__((weak)) acquireUSBSerial1Buffer()
{
 8083028:	b510      	push	{r4, lr}
 808302a:	4604      	mov	r4, r0
  HAL_USB_USART_Config conf = {0};
 808302c:	2214      	movs	r2, #20
 808302e:	2100      	movs	r1, #0
 8083030:	f001 fab9 	bl	80845a6 <memset>
  conf.rx_buffer_size = USB_RX_BUFFER_SIZE;
  conf.tx_buffer_size = USB_TX_BUFFER_SIZE;
#endif

  return conf;
}
 8083034:	4620      	mov	r0, r4
 8083036:	bd10      	pop	{r4, pc}

08083038 <_Z17_fetch_usbserial1v>:

USBSerial& _fetch_usbserial1()
{
 8083038:	b510      	push	{r4, lr}
  HAL_USB_USART_Config conf = acquireUSBSerial1Buffer();
  static USBSerial _usbserial1(HAL_USB_USART_SERIAL1, conf);
 808303a:	4c0e      	ldr	r4, [pc, #56]	; (8083074 <_Z17_fetch_usbserial1v+0x3c>)

  return conf;
}

USBSerial& _fetch_usbserial1()
{
 808303c:	b086      	sub	sp, #24
  HAL_USB_USART_Config conf = acquireUSBSerial1Buffer();
 808303e:	a801      	add	r0, sp, #4
 8083040:	f7ff fff2 	bl	8083028 <_Z23acquireUSBSerial1Bufferv>
  static USBSerial _usbserial1(HAL_USB_USART_SERIAL1, conf);
 8083044:	6823      	ldr	r3, [r4, #0]
 8083046:	07db      	lsls	r3, r3, #31
 8083048:	d410      	bmi.n	808306c <_Z17_fetch_usbserial1v+0x34>
 808304a:	4620      	mov	r0, r4
 808304c:	f7fd f82b 	bl	80800a6 <__cxa_guard_acquire>
 8083050:	b160      	cbz	r0, 808306c <_Z17_fetch_usbserial1v+0x34>
 8083052:	aa01      	add	r2, sp, #4
 8083054:	2101      	movs	r1, #1
 8083056:	4808      	ldr	r0, [pc, #32]	; (8083078 <_Z17_fetch_usbserial1v+0x40>)
 8083058:	f7ff ffa4 	bl	8082fa4 <_ZN9USBSerialC1E20HAL_USB_USART_SerialRK20HAL_USB_USART_Config>
 808305c:	4620      	mov	r0, r4
 808305e:	f7fd f827 	bl	80800b0 <__cxa_guard_release>
 8083062:	4a06      	ldr	r2, [pc, #24]	; (808307c <_Z17_fetch_usbserial1v+0x44>)
 8083064:	4906      	ldr	r1, [pc, #24]	; (8083080 <_Z17_fetch_usbserial1v+0x48>)
 8083066:	4804      	ldr	r0, [pc, #16]	; (8083078 <_Z17_fetch_usbserial1v+0x40>)
 8083068:	f000 fadc 	bl	8083624 <__aeabi_atexit>
  return _usbserial1;
}
 808306c:	4802      	ldr	r0, [pc, #8]	; (8083078 <_Z17_fetch_usbserial1v+0x40>)
 808306e:	b006      	add	sp, #24
 8083070:	bd10      	pop	{r4, pc}
 8083072:	bf00      	nop
 8083074:	20000444 	.word	0x20000444
 8083078:	2000045c 	.word	0x2000045c
 808307c:	20000100 	.word	0x20000100
 8083080:	08082f25 	.word	0x08082f25

08083084 <_ZN5spark13CellularClass5readyEv>:
        return network_listening(*this, 0, NULL);
    }

    bool ready()
    {
        return network_ready(*this, 0,  NULL);
 8083084:	2200      	movs	r2, #0
 8083086:	4611      	mov	r1, r2
 8083088:	6840      	ldr	r0, [r0, #4]
 808308a:	f7fe becf 	b.w	8081e2c <network_ready>

0808308e <_ZN5spark13CellularClass7resolveEPKc>:
    {
        return cellular_command((_CALLBACKPTR_MDM)cb, (void*)param, timeout_ms, format, Fargs...);
    }

#if !HAL_USE_INET_HAL_POSIX
    IPAddress resolve(const char* name)
 808308e:	e92d 41ff 	stmdb	sp!, {r0, r1, r2, r3, r4, r5, r6, r7, r8, lr}
    {
        HAL_IPAddress ip = {0};
 8083092:	2600      	movs	r6, #0
 8083094:	ac04      	add	r4, sp, #16
    {
        return cellular_command((_CALLBACKPTR_MDM)cb, (void*)param, timeout_ms, format, Fargs...);
    }

#if !HAL_USE_INET_HAL_POSIX
    IPAddress resolve(const char* name)
 8083096:	4605      	mov	r5, r0
    {
        HAL_IPAddress ip = {0};
        return (inet_gethostbyname(name, strlen(name), &ip, *this, NULL) != 0) ?
 8083098:	4610      	mov	r0, r2
    {
        return cellular_command((_CALLBACKPTR_MDM)cb, (void*)param, timeout_ms, format, Fargs...);
    }

#if !HAL_USE_INET_HAL_POSIX
    IPAddress resolve(const char* name)
 808309a:	4688      	mov	r8, r1
 808309c:	4617      	mov	r7, r2
    {
        HAL_IPAddress ip = {0};
 808309e:	f844 6d04 	str.w	r6, [r4, #-4]!
        return (inet_gethostbyname(name, strlen(name), &ip, *this, NULL) != 0) ?
 80830a2:	f002 f801 	bl	80850a8 <strlen>
 80830a6:	9600      	str	r6, [sp, #0]
 80830a8:	b281      	uxth	r1, r0
 80830aa:	f8d8 3004 	ldr.w	r3, [r8, #4]
 80830ae:	4622      	mov	r2, r4
 80830b0:	4638      	mov	r0, r7
 80830b2:	f7fe fe17 	bl	8081ce4 <inet_gethostbyname>
                IPAddress(uint32_t(0)) : IPAddress(ip);
 80830b6:	b120      	cbz	r0, 80830c2 <_ZN5spark13CellularClass7resolveEPKc+0x34>
 80830b8:	4631      	mov	r1, r6
 80830ba:	4628      	mov	r0, r5
 80830bc:	f7ff ff12 	bl	8082ee4 <_ZN9IPAddressC1Em>
 80830c0:	e003      	b.n	80830ca <_ZN5spark13CellularClass7resolveEPKc+0x3c>
 80830c2:	4621      	mov	r1, r4
 80830c4:	4628      	mov	r0, r5
 80830c6:	f7ff ff05 	bl	8082ed4 <_ZN9IPAddressC1ERK16_HAL_IPAddress_t>
    }
 80830ca:	4628      	mov	r0, r5
 80830cc:	b004      	add	sp, #16
 80830ce:	e8bd 81f0 	ldmia.w	sp!, {r4, r5, r6, r7, r8, pc}

080830d2 <_ZN5spark13CellularClass9listeningEv>:
    uint16_t getListenTimeout(void) {
        return network_get_listen_timeout(*this, 0, NULL);
    }

    bool listening(void) {
        return network_listening(*this, 0, NULL);
 80830d2:	2200      	movs	r2, #0
 80830d4:	4611      	mov	r1, r2
 80830d6:	6840      	ldr	r0, [r0, #4]
 80830d8:	f7fe bec8 	b.w	8081e6c <network_listening>

080830dc <_ZN5spark13CellularClass16getListenTimeoutEv>:
    }

    inline void setListenTimeout(std::chrono::seconds s) { setListenTimeout(s.count()); }

    uint16_t getListenTimeout(void) {
        return network_get_listen_timeout(*this, 0, NULL);
 80830dc:	2200      	movs	r2, #0
 80830de:	4611      	mov	r1, r2
 80830e0:	6840      	ldr	r0, [r0, #4]
 80830e2:	f7fe bed3 	b.w	8081e8c <network_get_listen_timeout>

080830e6 <_ZN5spark13CellularClass16setListenTimeoutEt>:
    void listen(bool begin=true) {
        network_listen(*this, begin ? 0 : 1, NULL);
    }

    inline void setListenTimeout(uint16_t timeout) {
        network_set_listen_timeout(*this, timeout, NULL);
 80830e6:	2200      	movs	r2, #0
 80830e8:	6840      	ldr	r0, [r0, #4]
 80830ea:	f7fe bec7 	b.w	8081e7c <network_set_listen_timeout>

080830ee <_ZN5spark13CellularClass6listenEb>:
        cellular_credentials_clear(nullptr);
    }
#endif // HAL_PLATFORM_MESH

    void listen(bool begin=true) {
        network_listen(*this, begin ? 0 : 1, NULL);
 80830ee:	2200      	movs	r2, #0
 80830f0:	f081 0101 	eor.w	r1, r1, #1
 80830f4:	6840      	ldr	r0, [r0, #4]
 80830f6:	f7fe beb1 	b.w	8081e5c <network_listen>

080830fa <_ZN5spark13CellularClass3offEv>:
    }
    void on() {
        network_on(*this, 0, 0, NULL);
    }
    void off() {
        network_off(*this, 0, 0, NULL);
 80830fa:	2300      	movs	r3, #0
 80830fc:	461a      	mov	r2, r3
 80830fe:	4619      	mov	r1, r3
 8083100:	6840      	ldr	r0, [r0, #4]
 8083102:	f7fe bea3 	b.w	8081e4c <network_off>

08083106 <_ZN5spark13CellularClass2onEv>:

    IPAddress localIP() {
        return IPAddress(((CellularConfig*)network_config(*this, 0, NULL))->nw.aucIP);
    }
    void on() {
        network_on(*this, 0, 0, NULL);
 8083106:	2300      	movs	r3, #0
 8083108:	461a      	mov	r2, r3
 808310a:	4619      	mov	r1, r3
 808310c:	6840      	ldr	r0, [r0, #4]
 808310e:	f7fe be95 	b.w	8081e3c <network_on>

08083112 <_ZN5spark13CellularClass10connectingEv>:
    }
    void connect(unsigned flags=0) {
        network_connect(*this, flags, 0, NULL);
    }
    bool connecting(void) {
        return network_connecting(*this, 0, NULL);
 8083112:	2200      	movs	r2, #0
 8083114:	4611      	mov	r1, r2
 8083116:	6840      	ldr	r0, [r0, #4]
 8083118:	f7fe be78 	b.w	8081e0c <network_connecting>

0808311c <_ZN5spark13CellularClass10disconnectEv>:
    }

    void disconnect() {
        network_disconnect(*this, NETWORK_DISCONNECT_REASON_USER, NULL);
 808311c:	2200      	movs	r2, #0
 808311e:	2102      	movs	r1, #2
 8083120:	6840      	ldr	r0, [r0, #4]
 8083122:	f7fe be7b 	b.w	8081e1c <network_disconnect>

08083126 <_ZN5spark13CellularClass7connectEj>:
    }
    void off() {
        network_off(*this, 0, 0, NULL);
    }
    void connect(unsigned flags=0) {
        network_connect(*this, flags, 0, NULL);
 8083126:	2300      	movs	r3, #0
 8083128:	461a      	mov	r2, r3
 808312a:	6840      	ldr	r0, [r0, #4]
 808312c:	f7fe be66 	b.w	8081dfc <network_connect>

08083130 <_GLOBAL__sub_I__ZN5spark13CellularClass4RSSIEv>:
        return (band_get.ok = true);
    }

    CellularClass Cellular;
    // NetworkClass& Network = Cellular;
}
 8083130:	b538      	push	{r3, r4, r5, lr}
    int tx_total;
    int rx_total;

    CellularDataHal()
    {
        memset(this, 0, sizeof(*this));
 8083132:	4c08      	ldr	r4, [pc, #32]	; (8083154 <_GLOBAL__sub_I__ZN5spark13CellularClass4RSSIEv+0x24>)
 8083134:	2528      	movs	r5, #40	; 0x28
 8083136:	462a      	mov	r2, r5
 8083138:	2100      	movs	r1, #0
 808313a:	4620      	mov	r0, r4
 808313c:	f001 fa33 	bl	80845a6 <memset>
        cid = -1;
 8083140:	f04f 33ff 	mov.w	r3, #4294967295
 8083144:	6063      	str	r3, [r4, #4]
    static NetworkClass& from(network_interface_t nif);

    virtual IPAddress resolve(const char* name);

    explicit NetworkClass(network_interface_t iface)
            : iface_(iface) {
 8083146:	4b04      	ldr	r3, [pc, #16]	; (8083158 <_GLOBAL__sub_I__ZN5spark13CellularClass4RSSIEv+0x28>)
 8083148:	2204      	movs	r2, #4
 808314a:	605a      	str	r2, [r3, #4]

class CellularClass : public NetworkClass
{
public:
    CellularClass() :
            NetworkClass(NETWORK_INTERFACE_CELLULAR) {
 808314c:	4a03      	ldr	r2, [pc, #12]	; (808315c <_GLOBAL__sub_I__ZN5spark13CellularClass4RSSIEv+0x2c>)
        size = sizeof(*this);
 808314e:	8025      	strh	r5, [r4, #0]
 8083150:	601a      	str	r2, [r3, #0]
 8083152:	bd38      	pop	{r3, r4, r5, pc}
 8083154:	20000478 	.word	0x20000478
 8083158:	20000470 	.word	0x20000470
 808315c:	08087c40 	.word	0x08087c40

08083160 <_ZN11USARTSerialD1Ev>:
private:
  HAL_USART_Serial _serial;
  bool _blocking;
public:
  USARTSerial(HAL_USART_Serial serial, Ring_Buffer *rx_buffer, Ring_Buffer *tx_buffer);
  virtual ~USARTSerial() {};
 8083160:	4770      	bx	lr

08083162 <_ZN11USARTSerial14blockOnOverrunEb>:
    HAL_USART_Half_Duplex(_serial, Enable);
}

void USARTSerial::blockOnOverrun(bool block)
{
  _blocking = block;
 8083162:	7441      	strb	r1, [r0, #17]
 8083164:	4770      	bx	lr

08083166 <_ZN11USARTSerial17availableForWriteEv>:
}


int USARTSerial::availableForWrite(void)
{
 8083166:	b508      	push	{r3, lr}
  return std::max(0, (int)HAL_USART_Available_Data_For_Write(_serial));
 8083168:	7c00      	ldrb	r0, [r0, #16]
 808316a:	f7fe fd53 	bl	8081c14 <HAL_USART_Available_Data_For_Write>
}
 808316e:	ea20 70e0 	bic.w	r0, r0, r0, asr #31
 8083172:	bd08      	pop	{r3, pc}

08083174 <_ZN11USARTSerial9availableEv>:

int USARTSerial::available(void)
{
 8083174:	b508      	push	{r3, lr}
  return std::max(0, (int)HAL_USART_Available_Data(_serial));
 8083176:	7c00      	ldrb	r0, [r0, #16]
 8083178:	f7fe fd24 	bl	8081bc4 <HAL_USART_Available_Data>
}
 808317c:	ea20 70e0 	bic.w	r0, r0, r0, asr #31
 8083180:	bd08      	pop	{r3, pc}

08083182 <_ZN11USARTSerial4peekEv>:

int USARTSerial::peek(void)
{
 8083182:	b508      	push	{r3, lr}
  return std::max(-1, (int)HAL_USART_Peek_Data(_serial));
 8083184:	7c00      	ldrb	r0, [r0, #16]
 8083186:	f7fe fd2d 	bl	8081be4 <HAL_USART_Peek_Data>
}
 808318a:	ea30 0020 	bics.w	r0, r0, r0, asr #32
 808318e:	bf28      	it	cs
 8083190:	f04f 30ff 	movcs.w	r0, #4294967295
 8083194:	bd08      	pop	{r3, pc}

08083196 <_ZN11USARTSerial4readEv>:

int USARTSerial::read(void)
{
 8083196:	b508      	push	{r3, lr}
  return std::max(-1, (int)HAL_USART_Read_Data(_serial));
 8083198:	7c00      	ldrb	r0, [r0, #16]
 808319a:	f7fe fd1b 	bl	8081bd4 <HAL_USART_Read_Data>
}
 808319e:	ea30 0020 	bics.w	r0, r0, r0, asr #32
 80831a2:	bf28      	it	cs
 80831a4:	f04f 30ff 	movcs.w	r0, #4294967295
 80831a8:	bd08      	pop	{r3, pc}

080831aa <_ZN11USARTSerial5flushEv>:

void USARTSerial::flush()
{
  HAL_USART_Flush_Data(_serial);
 80831aa:	7c00      	ldrb	r0, [r0, #16]
 80831ac:	f7fe bd22 	b.w	8081bf4 <HAL_USART_Flush_Data>

080831b0 <_ZN11USARTSerialD0Ev>:
 80831b0:	b510      	push	{r4, lr}
 80831b2:	4604      	mov	r4, r0
 80831b4:	2114      	movs	r1, #20
 80831b6:	f000 fa43 	bl	8083640 <_ZdlPvj>
 80831ba:	4620      	mov	r0, r4
 80831bc:	bd10      	pop	{r4, pc}

080831be <_ZN11USARTSerial5writeEh>:
}

size_t USARTSerial::write(uint8_t c)
{
 80831be:	b570      	push	{r4, r5, r6, lr}
  // attempt a write if blocking, or for non-blocking if there is room.
  if (_blocking || HAL_USART_Available_Data_For_Write(_serial) > 0) {
 80831c0:	7c45      	ldrb	r5, [r0, #17]
{
  HAL_USART_Flush_Data(_serial);
}

size_t USARTSerial::write(uint8_t c)
{
 80831c2:	4604      	mov	r4, r0
 80831c4:	460e      	mov	r6, r1
  // attempt a write if blocking, or for non-blocking if there is room.
  if (_blocking || HAL_USART_Available_Data_For_Write(_serial) > 0) {
 80831c6:	b925      	cbnz	r5, 80831d2 <_ZN11USARTSerial5writeEh+0x14>
 80831c8:	7c00      	ldrb	r0, [r0, #16]
 80831ca:	f7fe fd23 	bl	8081c14 <HAL_USART_Available_Data_For_Write>
 80831ce:	2800      	cmp	r0, #0
 80831d0:	dd05      	ble.n	80831de <_ZN11USARTSerial5writeEh+0x20>
    // the HAL always blocks.
	  return HAL_USART_Write_Data(_serial, c);
 80831d2:	4631      	mov	r1, r6
 80831d4:	7c20      	ldrb	r0, [r4, #16]
  }
  return 0;
}
 80831d6:	e8bd 4070 	ldmia.w	sp!, {r4, r5, r6, lr}
size_t USARTSerial::write(uint8_t c)
{
  // attempt a write if blocking, or for non-blocking if there is room.
  if (_blocking || HAL_USART_Available_Data_For_Write(_serial) > 0) {
    // the HAL always blocks.
	  return HAL_USART_Write_Data(_serial, c);
 80831da:	f7fe bceb 	b.w	8081bb4 <HAL_USART_Write_Data>
  }
  return 0;
}
 80831de:	4628      	mov	r0, r5
 80831e0:	bd70      	pop	{r4, r5, r6, pc}
	...

080831e4 <_ZN11USARTSerialC1E16HAL_USART_SerialP11Ring_BufferS2_>:
#include "spark_wiring_constants.h"
#include "module_info.h"

// Constructors ////////////////////////////////////////////////////////////////

USARTSerial::USARTSerial(HAL_USART_Serial serial, Ring_Buffer *rx_buffer, Ring_Buffer *tx_buffer)
 80831e4:	b510      	push	{r4, lr}
 80831e6:	4604      	mov	r4, r0
 80831e8:	4608      	mov	r0, r1
 80831ea:	4611      	mov	r1, r2
 80831ec:	2200      	movs	r2, #0
 80831ee:	6062      	str	r2, [r4, #4]
 80831f0:	f44f 727a 	mov.w	r2, #1000	; 0x3e8
 80831f4:	60a2      	str	r2, [r4, #8]
 80831f6:	4a05      	ldr	r2, [pc, #20]	; (808320c <_ZN11USARTSerialC1E16HAL_USART_SerialP11Ring_BufferS2_+0x28>)
{
  _serial = serial;
 80831f8:	7420      	strb	r0, [r4, #16]
#include "spark_wiring_constants.h"
#include "module_info.h"

// Constructors ////////////////////////////////////////////////////////////////

USARTSerial::USARTSerial(HAL_USART_Serial serial, Ring_Buffer *rx_buffer, Ring_Buffer *tx_buffer)
 80831fa:	6022      	str	r2, [r4, #0]
{
  _serial = serial;
  // Default is blocking mode
  _blocking = true;
 80831fc:	2201      	movs	r2, #1
 80831fe:	7462      	strb	r2, [r4, #17]
  HAL_USART_Init(serial, rx_buffer, tx_buffer);
 8083200:	461a      	mov	r2, r3
 8083202:	f7fe fccf 	bl	8081ba4 <HAL_USART_Init>
}
 8083206:	4620      	mov	r0, r4
 8083208:	bd10      	pop	{r4, pc}
 808320a:	bf00      	nop
 808320c:	08087c74 	.word	0x08087c74

08083210 <_ZN11USARTSerial9isEnabledEv>:
USARTSerial::operator bool() {
  return true;
}

bool USARTSerial::isEnabled() {
  return HAL_USART_Is_Enabled(_serial);
 8083210:	7c00      	ldrb	r0, [r0, #16]
 8083212:	f7fe bcf7 	b.w	8081c04 <HAL_USART_Is_Enabled>
	...

08083218 <_Z22__fetch_global_Serial1v>:
static Ring_Buffer* serial1_rx_buffer = NULL;
static Ring_Buffer* serial1_tx_buffer = NULL;
#endif

USARTSerial& __fetch_global_Serial1()
{
 8083218:	b5f8      	push	{r3, r4, r5, r6, r7, lr}
#if ((MODULE_FUNCTION == MOD_FUNC_USER_PART) || (MODULE_FUNCTION == MOD_FUNC_MONO_FIRMWARE))
	static USARTSerial serial1(HAL_USART_SERIAL1, &serial1_rx_buffer, &serial1_tx_buffer);
#else
  if (!serial1_rx_buffer) {
 808321a:	4c19      	ldr	r4, [pc, #100]	; (8083280 <_Z22__fetch_global_Serial1v+0x68>)
 808321c:	6825      	ldr	r5, [r4, #0]
 808321e:	b94d      	cbnz	r5, 8083234 <_Z22__fetch_global_Serial1v+0x1c>
    serial1_rx_buffer = new Ring_Buffer();
 8083220:	2084      	movs	r0, #132	; 0x84
 8083222:	f7fc ff3c 	bl	808009e <_Znwj>
 8083226:	4606      	mov	r6, r0
 8083228:	b118      	cbz	r0, 8083232 <_Z22__fetch_global_Serial1v+0x1a>
 808322a:	2284      	movs	r2, #132	; 0x84
 808322c:	4629      	mov	r1, r5
 808322e:	f001 f9ba 	bl	80845a6 <memset>
 8083232:	6026      	str	r6, [r4, #0]
  }
  if (!serial1_tx_buffer) {
 8083234:	4d13      	ldr	r5, [pc, #76]	; (8083284 <_Z22__fetch_global_Serial1v+0x6c>)
 8083236:	682e      	ldr	r6, [r5, #0]
 8083238:	b94e      	cbnz	r6, 808324e <_Z22__fetch_global_Serial1v+0x36>
    serial1_tx_buffer = new Ring_Buffer();
 808323a:	2084      	movs	r0, #132	; 0x84
 808323c:	f7fc ff2f 	bl	808009e <_Znwj>
 8083240:	4607      	mov	r7, r0
 8083242:	b118      	cbz	r0, 808324c <_Z22__fetch_global_Serial1v+0x34>
 8083244:	2284      	movs	r2, #132	; 0x84
 8083246:	4631      	mov	r1, r6
 8083248:	f001 f9ad 	bl	80845a6 <memset>
 808324c:	602f      	str	r7, [r5, #0]
  }
  static USARTSerial serial1(HAL_USART_SERIAL1, serial1_rx_buffer, serial1_tx_buffer);
 808324e:	4f0e      	ldr	r7, [pc, #56]	; (8083288 <_Z22__fetch_global_Serial1v+0x70>)
 8083250:	6839      	ldr	r1, [r7, #0]
 8083252:	f011 0601 	ands.w	r6, r1, #1
 8083256:	d111      	bne.n	808327c <_Z22__fetch_global_Serial1v+0x64>
 8083258:	4638      	mov	r0, r7
 808325a:	f7fc ff24 	bl	80800a6 <__cxa_guard_acquire>
 808325e:	b168      	cbz	r0, 808327c <_Z22__fetch_global_Serial1v+0x64>
 8083260:	6822      	ldr	r2, [r4, #0]
 8083262:	4631      	mov	r1, r6
 8083264:	682b      	ldr	r3, [r5, #0]
 8083266:	4809      	ldr	r0, [pc, #36]	; (808328c <_Z22__fetch_global_Serial1v+0x74>)
 8083268:	f7ff ffbc 	bl	80831e4 <_ZN11USARTSerialC1E16HAL_USART_SerialP11Ring_BufferS2_>
 808326c:	4638      	mov	r0, r7
 808326e:	f7fc ff1f 	bl	80800b0 <__cxa_guard_release>
 8083272:	4a07      	ldr	r2, [pc, #28]	; (8083290 <_Z22__fetch_global_Serial1v+0x78>)
 8083274:	4907      	ldr	r1, [pc, #28]	; (8083294 <_Z22__fetch_global_Serial1v+0x7c>)
 8083276:	4805      	ldr	r0, [pc, #20]	; (808328c <_Z22__fetch_global_Serial1v+0x74>)
 8083278:	f000 f9d4 	bl	8083624 <__aeabi_atexit>
#endif
	return serial1;
}
 808327c:	4803      	ldr	r0, [pc, #12]	; (808328c <_Z22__fetch_global_Serial1v+0x74>)
 808327e:	bdf8      	pop	{r3, r4, r5, r6, r7, pc}
 8083280:	200004bc 	.word	0x200004bc
 8083284:	200004b4 	.word	0x200004b4
 8083288:	200004b8 	.word	0x200004b8
 808328c:	200004a0 	.word	0x200004a0
 8083290:	20000100 	.word	0x20000100
 8083294:	08083161 	.word	0x08083161

08083298 <_ZN8particle6detail21futureCallbackWrapperEPv>:
 * License along with this library; if not, see <http://www.gnu.org/licenses/>.
 */

#include "spark_wiring_async.h"

void particle::detail::futureCallbackWrapper(void* data) {
 8083298:	b510      	push	{r4, lr}
  template<typename _Res, typename... _ArgTypes>
    _Res
    function<_Res(_ArgTypes...)>::
    operator()(_ArgTypes... __args) const
    {
      if (_M_empty())
 808329a:	6883      	ldr	r3, [r0, #8]
 808329c:	4604      	mov	r4, r0
 808329e:	b90b      	cbnz	r3, 80832a4 <_ZN8particle6detail21futureCallbackWrapperEPv+0xc>
	__throw_bad_function_call();
 80832a0:	f000 f9e1 	bl	8083666 <_ZSt25__throw_bad_function_callv>
      return _M_invoker(_M_functor, std::forward<_ArgTypes>(__args)...);
 80832a4:	68c3      	ldr	r3, [r0, #12]
 80832a6:	4798      	blx	r3

    _Function_base() : _M_manager(nullptr) { }

    ~_Function_base()
    {
      if (_M_manager)
 80832a8:	68a3      	ldr	r3, [r4, #8]
 80832aa:	b11b      	cbz	r3, 80832b4 <_ZN8particle6detail21futureCallbackWrapperEPv+0x1c>
	_M_manager(_M_functor, _M_functor, __destroy_functor);
 80832ac:	2203      	movs	r2, #3
 80832ae:	4621      	mov	r1, r4
 80832b0:	4620      	mov	r0, r4
 80832b2:	4798      	blx	r3
    auto callbackPtr = static_cast<const std::function<void()>*>(data);
    (*callbackPtr)();
    delete callbackPtr;
 80832b4:	4620      	mov	r0, r4
}
 80832b6:	e8bd 4010 	ldmia.w	sp!, {r4, lr}
#include "spark_wiring_async.h"

void particle::detail::futureCallbackWrapper(void* data) {
    auto callbackPtr = static_cast<const std::function<void()>*>(data);
    (*callbackPtr)();
    delete callbackPtr;
 80832ba:	2110      	movs	r1, #16
 80832bc:	f000 b9c0 	b.w	8083640 <_ZdlPvj>

080832c0 <_ZN7TwoWireD1Ev>:
private:
  HAL_I2C_Interface _i2c;

public:
  TwoWire(HAL_I2C_Interface i2c, const HAL_I2C_Config& config);
  virtual ~TwoWire() {};
 80832c0:	4770      	bx	lr

080832c2 <_ZN7TwoWire5writeEPKhj>:

// must be called in:
// slave tx event callback
// or after beginTransmission(address)
size_t TwoWire::write(const uint8_t *data, size_t quantity)
{
 80832c2:	b5f8      	push	{r3, r4, r5, r6, r7, lr}
 80832c4:	4606      	mov	r6, r0
 80832c6:	4615      	mov	r5, r2
 80832c8:	460c      	mov	r4, r1
 80832ca:	188f      	adds	r7, r1, r2
  // in master/slave transmitter mode
  for(size_t i = 0; i < quantity; ++i)
 80832cc:	42bc      	cmp	r4, r7
 80832ce:	d006      	beq.n	80832de <_ZN7TwoWire5writeEPKhj+0x1c>
  {
    write(data[i]);
 80832d0:	6833      	ldr	r3, [r6, #0]
 80832d2:	f814 1b01 	ldrb.w	r1, [r4], #1
 80832d6:	689b      	ldr	r3, [r3, #8]
 80832d8:	4630      	mov	r0, r6
 80832da:	4798      	blx	r3
// slave tx event callback
// or after beginTransmission(address)
size_t TwoWire::write(const uint8_t *data, size_t quantity)
{
  // in master/slave transmitter mode
  for(size_t i = 0; i < quantity; ++i)
 80832dc:	e7f6      	b.n	80832cc <_ZN7TwoWire5writeEPKhj+0xa>
  {
    write(data[i]);
  }

  return quantity;
}
 80832de:	4628      	mov	r0, r5
 80832e0:	bdf8      	pop	{r3, r4, r5, r6, r7, pc}

080832e2 <_ZN7TwoWire5writeEh>:
// must be called in:
// slave tx event callback
// or after beginTransmission(address)
size_t TwoWire::write(uint8_t data)
{
  return HAL_I2C_Write_Data(_i2c, data, NULL);
 80832e2:	2200      	movs	r2, #0
 80832e4:	7c00      	ldrb	r0, [r0, #16]
 80832e6:	f7fe bcb5 	b.w	8081c54 <HAL_I2C_Write_Data>

080832ea <_ZN7TwoWire9availableEv>:
// must be called in:
// slave rx event callback
// or after requestFrom(address, numBytes)
int TwoWire::available(void)
{
  return HAL_I2C_Available_Data(_i2c, NULL);
 80832ea:	2100      	movs	r1, #0
 80832ec:	7c00      	ldrb	r0, [r0, #16]
 80832ee:	f7fe bcb9 	b.w	8081c64 <HAL_I2C_Available_Data>

080832f2 <_ZN7TwoWire4readEv>:
// must be called in:
// slave rx event callback
// or after requestFrom(address, numBytes)
int TwoWire::read(void)
{
  return HAL_I2C_Read_Data(_i2c, NULL);
 80832f2:	2100      	movs	r1, #0
 80832f4:	7c00      	ldrb	r0, [r0, #16]
 80832f6:	f7fe bcbd 	b.w	8081c74 <HAL_I2C_Read_Data>

080832fa <_ZN7TwoWire4peekEv>:
// must be called in:
// slave rx event callback
// or after requestFrom(address, numBytes)
int TwoWire::peek(void)
{
  return HAL_I2C_Peek_Data(_i2c, NULL);
 80832fa:	2100      	movs	r1, #0
 80832fc:	7c00      	ldrb	r0, [r0, #16]
 80832fe:	f7fe bcc1 	b.w	8081c84 <HAL_I2C_Peek_Data>

08083302 <_ZN7TwoWire5flushEv>:
}

void TwoWire::flush(void)
{
  HAL_I2C_Flush_Data(_i2c, NULL);
 8083302:	2100      	movs	r1, #0
 8083304:	7c00      	ldrb	r0, [r0, #16]
 8083306:	f7fe bcc5 	b.w	8081c94 <HAL_I2C_Flush_Data>

0808330a <_ZN7TwoWireD0Ev>:
 808330a:	b510      	push	{r4, lr}
 808330c:	4604      	mov	r4, r0
 808330e:	2114      	movs	r1, #20
 8083310:	f000 f996 	bl	8083640 <_ZdlPvj>
 8083314:	4620      	mov	r0, r4
 8083316:	bd10      	pop	{r4, pc}

08083318 <_ZN7TwoWireC1E17HAL_I2C_InterfaceRK14HAL_I2C_Config>:
#include "i2c_hal.h"
#include "spark_wiring_thread.h"

// Constructors ////////////////////////////////////////////////////////////////

TwoWire::TwoWire(HAL_I2C_Interface i2c, const HAL_I2C_Config& conf)
 8083318:	b510      	push	{r4, lr}
 808331a:	4604      	mov	r4, r0
 808331c:	2300      	movs	r3, #0
 808331e:	6063      	str	r3, [r4, #4]
 8083320:	f44f 737a 	mov.w	r3, #1000	; 0x3e8
 8083324:	60a3      	str	r3, [r4, #8]
 8083326:	4b04      	ldr	r3, [pc, #16]	; (8083338 <_ZN7TwoWireC1E17HAL_I2C_InterfaceRK14HAL_I2C_Config+0x20>)
{
  _i2c = i2c;
 8083328:	7421      	strb	r1, [r4, #16]
#include "i2c_hal.h"
#include "spark_wiring_thread.h"

// Constructors ////////////////////////////////////////////////////////////////

TwoWire::TwoWire(HAL_I2C_Interface i2c, const HAL_I2C_Config& conf)
 808332a:	4608      	mov	r0, r1
 808332c:	6023      	str	r3, [r4, #0]
{
  _i2c = i2c;
  HAL_I2C_Init(_i2c, &conf);
 808332e:	4611      	mov	r1, r2
 8083330:	f7fe fcc0 	bl	8081cb4 <HAL_I2C_Init>
}
 8083334:	4620      	mov	r0, r4
 8083336:	bd10      	pop	{r4, pc}
 8083338:	08087ca4 	.word	0x08087ca4

0808333c <_ZN7TwoWire5beginEv>:
  HAL_I2C_Stretch_Clock(_i2c, stretch, NULL);
}

void TwoWire::begin(void)
{
	HAL_I2C_Begin(_i2c, I2C_MODE_MASTER, 0x00, NULL);
 808333c:	2300      	movs	r3, #0
 808333e:	461a      	mov	r2, r3
 8083340:	4619      	mov	r1, r3
 8083342:	7c00      	ldrb	r0, [r0, #16]
 8083344:	f7fe bc6e 	b.w	8081c24 <HAL_I2C_Begin>

08083348 <_ZN7TwoWire11requestFromERK16WireTransmission>:
size_t TwoWire::requestFrom(uint8_t address, size_t quantity)
{
  return requestFrom(address, quantity, (uint8_t)true);
}

size_t TwoWire::requestFrom(const WireTransmission& transfer) {
 8083348:	b570      	push	{r4, r5, r6, lr}
 808334a:	460c      	mov	r4, r1
 808334c:	4606      	mov	r6, r0
 808334e:	b086      	sub	sp, #24
      .address = address_,
      .reserved = {0},
      .quantity = (uint32_t)size_,
      .timeout_ms = timeout_,
      .flags = (uint32_t)(stop_ ? HAL_I2C_TRANSMISSION_FLAG_STOP : 0)
    };
 8083350:	2514      	movs	r5, #20
 8083352:	462a      	mov	r2, r5
 8083354:	2100      	movs	r1, #0
 8083356:	a801      	add	r0, sp, #4
 8083358:	f001 f925 	bl	80845a6 <memset>
 808335c:	7823      	ldrb	r3, [r4, #0]
  auto conf = transfer.halConfig();
  return HAL_I2C_Request_Data_Ex(_i2c, &conf, nullptr);
 808335e:	2200      	movs	r2, #0
 8083360:	f88d 3008 	strb.w	r3, [sp, #8]
 8083364:	6863      	ldr	r3, [r4, #4]
 8083366:	a901      	add	r1, sp, #4
 8083368:	9303      	str	r3, [sp, #12]
 808336a:	68e3      	ldr	r3, [r4, #12]
 808336c:	7c30      	ldrb	r0, [r6, #16]
 808336e:	9304      	str	r3, [sp, #16]
 8083370:	7a23      	ldrb	r3, [r4, #8]
 8083372:	f8ad 5004 	strh.w	r5, [sp, #4]
 8083376:	9305      	str	r3, [sp, #20]
 8083378:	f7fe fca4 	bl	8081cc4 <HAL_I2C_Request_Data_Ex>
}
 808337c:	b006      	add	sp, #24
 808337e:	bd70      	pop	{r4, r5, r6, pc}

08083380 <_ZN7TwoWire11requestFromEhjh>:
{
	HAL_I2C_End(_i2c, NULL);
}

size_t TwoWire::requestFrom(uint8_t address, size_t quantity, uint8_t sendStop)
{
 8083380:	b51f      	push	{r0, r1, r2, r3, r4, lr}
  WireTransmission& timeout(std::chrono::milliseconds ms) {
    return timeout((system_tick_t)ms.count());
  }

  WireTransmission& stop(bool stop) {
    stop_ = stop;
 8083382:	3300      	adds	r3, #0
public:
  WireTransmission(uint8_t address)
      : address_{address},
        size_{0},
        stop_{true},
        timeout_{HAL_I2C_DEFAULT_TIMEOUT_MS} {
 8083384:	f88d 1000 	strb.w	r1, [sp]
 8083388:	f04f 0164 	mov.w	r1, #100	; 0x64
 808338c:	9103      	str	r1, [sp, #12]
  WireTransmission& timeout(std::chrono::milliseconds ms) {
    return timeout((system_tick_t)ms.count());
  }

  WireTransmission& stop(bool stop) {
    stop_ = stop;
 808338e:	bf18      	it	ne
 8083390:	2301      	movne	r3, #1
  return requestFrom(WireTransmission(address).quantity(quantity).stop(sendStop));
 8083392:	4669      	mov	r1, sp
  }

  WireTransmission() = delete;

  WireTransmission& quantity(size_t size) {
    size_ = size;
 8083394:	9201      	str	r2, [sp, #4]
  WireTransmission& timeout(std::chrono::milliseconds ms) {
    return timeout((system_tick_t)ms.count());
  }

  WireTransmission& stop(bool stop) {
    stop_ = stop;
 8083396:	f88d 3008 	strb.w	r3, [sp, #8]
 808339a:	f7ff ffd5 	bl	8083348 <_ZN7TwoWire11requestFromERK16WireTransmission>
}
 808339e:	b005      	add	sp, #20
 80833a0:	f85d fb04 	ldr.w	pc, [sp], #4

080833a4 <_ZN7TwoWire11requestFromEhj>:

size_t TwoWire::requestFrom(uint8_t address, size_t quantity)
{
  return requestFrom(address, quantity, (uint8_t)true);
 80833a4:	2301      	movs	r3, #1
 80833a6:	f7ff bfeb 	b.w	8083380 <_ZN7TwoWire11requestFromEhjh>

080833aa <_ZN7TwoWire17beginTransmissionEh>:
  return HAL_I2C_Request_Data_Ex(_i2c, &conf, nullptr);
}

void TwoWire::beginTransmission(uint8_t address)
{
	HAL_I2C_Begin_Transmission(_i2c, address, NULL);
 80833aa:	2200      	movs	r2, #0
 80833ac:	7c00      	ldrb	r0, [r0, #16]
 80833ae:	f7fe bc41 	b.w	8081c34 <HAL_I2C_Begin_Transmission>

080833b2 <_ZN7TwoWire15endTransmissionEh>:
//	no call to endTransmission(true) is made. Some I2C
//	devices will behave oddly if they do not see a STOP.
//
uint8_t TwoWire::endTransmission(uint8_t sendStop)
{
	return HAL_I2C_End_Transmission(_i2c, sendStop, NULL);
 80833b2:	2200      	movs	r2, #0
 80833b4:	7c00      	ldrb	r0, [r0, #16]
 80833b6:	f7fe bc45 	b.w	8081c44 <HAL_I2C_End_Transmission>

080833ba <_ZN7TwoWire15endTransmissionEv>:
//	This provides backwards compatibility with the original
//	definition, and expected behaviour, of endTransmission
//
uint8_t TwoWire::endTransmission(void)
{
  return endTransmission(true);
 80833ba:	2101      	movs	r1, #1
 80833bc:	f7ff bff9 	b.w	80833b2 <_ZN7TwoWire15endTransmissionEh>

080833c0 <_ZN7TwoWire9isEnabledEv>:
  HAL_I2C_Set_Callback_On_Request(_i2c, function, NULL);
}

bool TwoWire::isEnabled()
{
  return HAL_I2C_Is_Enabled(_i2c, NULL);
 80833c0:	2100      	movs	r1, #0
 80833c2:	7c00      	ldrb	r0, [r0, #16]
 80833c4:	f7fe bc6e 	b.w	8081ca4 <HAL_I2C_Is_Enabled>

080833c8 <_ZN5spark12NetworkClass7connectEj>:
        return Network;
    }
}

void NetworkClass::connect(unsigned flags) {
    network_connect(*this, flags, 0, nullptr);
 80833c8:	2300      	movs	r3, #0
 80833ca:	461a      	mov	r2, r3
 80833cc:	6840      	ldr	r0, [r0, #4]
 80833ce:	f7fe bd15 	b.w	8081dfc <network_connect>

080833d2 <_ZN5spark12NetworkClass10disconnectEv>:
}

void NetworkClass::disconnect() {
    network_disconnect(*this, NETWORK_DISCONNECT_REASON_USER, nullptr);
 80833d2:	2200      	movs	r2, #0
 80833d4:	2102      	movs	r1, #2
 80833d6:	6840      	ldr	r0, [r0, #4]
 80833d8:	f7fe bd20 	b.w	8081e1c <network_disconnect>

080833dc <_ZN5spark12NetworkClass10connectingEv>:
}

bool NetworkClass::connecting() {
    return network_connecting(*this, 0, nullptr);
 80833dc:	2200      	movs	r2, #0
 80833de:	4611      	mov	r1, r2
 80833e0:	6840      	ldr	r0, [r0, #4]
 80833e2:	f7fe bd13 	b.w	8081e0c <network_connecting>

080833e6 <_ZN5spark12NetworkClass5readyEv>:
}

bool NetworkClass::ready() {
    return network_ready(*this, 0, nullptr);
 80833e6:	2200      	movs	r2, #0
 80833e8:	4611      	mov	r1, r2
 80833ea:	6840      	ldr	r0, [r0, #4]
 80833ec:	f7fe bd1e 	b.w	8081e2c <network_ready>

080833f0 <_ZN5spark12NetworkClass2onEv>:
}

void NetworkClass::on() {
    network_on(*this, 0, 0, nullptr);
 80833f0:	2300      	movs	r3, #0
 80833f2:	461a      	mov	r2, r3
 80833f4:	4619      	mov	r1, r3
 80833f6:	6840      	ldr	r0, [r0, #4]
 80833f8:	f7fe bd20 	b.w	8081e3c <network_on>

080833fc <_ZN5spark12NetworkClass3offEv>:
}

void NetworkClass::off() {
    network_off(*this, 0, 0, nullptr);
 80833fc:	2300      	movs	r3, #0
 80833fe:	461a      	mov	r2, r3
 8083400:	4619      	mov	r1, r3
 8083402:	6840      	ldr	r0, [r0, #4]
 8083404:	f7fe bd22 	b.w	8081e4c <network_off>

08083408 <_ZN5spark12NetworkClass6listenEb>:
}

void NetworkClass::listen(bool begin) {
    network_listen(*this, begin ? 0 : 1, nullptr);
 8083408:	2200      	movs	r2, #0
 808340a:	f081 0101 	eor.w	r1, r1, #1
 808340e:	6840      	ldr	r0, [r0, #4]
 8083410:	f7fe bd24 	b.w	8081e5c <network_listen>

08083414 <_ZN5spark12NetworkClass16setListenTimeoutEt>:
}

void NetworkClass::setListenTimeout(uint16_t timeout) {
    network_set_listen_timeout(*this, timeout, nullptr);
 8083414:	2200      	movs	r2, #0
 8083416:	6840      	ldr	r0, [r0, #4]
 8083418:	f7fe bd30 	b.w	8081e7c <network_set_listen_timeout>

0808341c <_ZN5spark12NetworkClass16getListenTimeoutEv>:
}

uint16_t NetworkClass::getListenTimeout() {
    return network_get_listen_timeout(*this, 0, nullptr);
 808341c:	2200      	movs	r2, #0
 808341e:	4611      	mov	r1, r2
 8083420:	6840      	ldr	r0, [r0, #4]
 8083422:	f7fe bd33 	b.w	8081e8c <network_get_listen_timeout>

08083426 <_ZN5spark12NetworkClass9listeningEv>:
}

bool NetworkClass::listening() {
    return network_listening(*this, 0, nullptr);
 8083426:	2200      	movs	r2, #0
 8083428:	4611      	mov	r1, r2
 808342a:	6840      	ldr	r0, [r0, #4]
 808342c:	f7fe bd1e 	b.w	8081e6c <network_listening>

08083430 <_ZN5spark12NetworkClass7resolveEPKc>:
}

IPAddress NetworkClass::resolve(const char* name) {
 8083430:	b5f0      	push	{r4, r5, r6, r7, lr}
 8083432:	4617      	mov	r7, r2
 8083434:	b087      	sub	sp, #28
 8083436:	4605      	mov	r5, r0
    IPAddress addr;
 8083438:	a804      	add	r0, sp, #16
 808343a:	f7ff fd43 	bl	8082ec4 <_ZN9IPAddressC1Ev>
    }

#if !HAL_USE_INET_HAL_POSIX
    IPAddress resolve(const char* name)
    {
        HAL_IPAddress ip = {0};
 808343e:	2600      	movs	r6, #0
 8083440:	ac06      	add	r4, sp, #24
        return (inet_gethostbyname(name, strlen(name), &ip, *this, NULL) != 0) ?
 8083442:	4638      	mov	r0, r7
    }

#if !HAL_USE_INET_HAL_POSIX
    IPAddress resolve(const char* name)
    {
        HAL_IPAddress ip = {0};
 8083444:	f844 6d0c 	str.w	r6, [r4, #-12]!
        return (inet_gethostbyname(name, strlen(name), &ip, *this, NULL) != 0) ?
 8083448:	f001 fe2e 	bl	80850a8 <strlen>
 808344c:	4b0a      	ldr	r3, [pc, #40]	; (8083478 <_ZN5spark12NetworkClass7resolveEPKc+0x48>)
 808344e:	9600      	str	r6, [sp, #0]
 8083450:	b281      	uxth	r1, r0
 8083452:	685b      	ldr	r3, [r3, #4]
 8083454:	4622      	mov	r2, r4
 8083456:	4638      	mov	r0, r7
 8083458:	f7fe fc44 	bl	8081ce4 <inet_gethostbyname>
                IPAddress(uint32_t(0)) : IPAddress(ip);
 808345c:	b120      	cbz	r0, 8083468 <_ZN5spark12NetworkClass7resolveEPKc+0x38>
 808345e:	4631      	mov	r1, r6
 8083460:	4628      	mov	r0, r5
 8083462:	f7ff fd3f 	bl	8082ee4 <_ZN9IPAddressC1Em>
 8083466:	e003      	b.n	8083470 <_ZN5spark12NetworkClass7resolveEPKc+0x40>
 8083468:	4621      	mov	r1, r4
 808346a:	4628      	mov	r0, r5
 808346c:	f7ff fd32 	bl	8082ed4 <_ZN9IPAddressC1ERK16_HAL_IPAddress_t>
    return Cellular.resolve(name);
#endif // Wiring_Cellular

#endif // HAL_USE_INET_HAL_POSIX
    return addr;
}
 8083470:	4628      	mov	r0, r5
 8083472:	b007      	add	sp, #28
 8083474:	bdf0      	pop	{r4, r5, r6, r7, pc}
 8083476:	bf00      	nop
 8083478:	20000470 	.word	0x20000470

0808347c <_GLOBAL__sub_I__ZN5spark7NetworkE>:
 808347c:	4b02      	ldr	r3, [pc, #8]	; (8083488 <_GLOBAL__sub_I__ZN5spark7NetworkE+0xc>)
 808347e:	4a03      	ldr	r2, [pc, #12]	; (808348c <_GLOBAL__sub_I__ZN5spark7NetworkE+0x10>)
 8083480:	601a      	str	r2, [r3, #0]
 8083482:	2200      	movs	r2, #0
 8083484:	605a      	str	r2, [r3, #4]
 8083486:	4770      	bx	lr
 8083488:	200004c0 	.word	0x200004c0
 808348c:	08087ccc 	.word	0x08087ccc

08083490 <pinAvailable>:

/*
 * @brief Perform safety check on desired pin to see if it's already
 * being used.  Return 0 if used, otherwise return 1 if available.
 */
bool pinAvailable(uint16_t pin) {
 8083490:	b510      	push	{r4, lr}
 8083492:	4604      	mov	r4, r0

  // SPI safety check
#ifndef SPARK_WIRING_NO_SPI
  if(SPI.isEnabled() == true && (pin == SCK || pin == MOSI || pin == MISO))
 8083494:	f000 f848 	bl	8083528 <_ZN8particle7globals11instanceSpiEv>
 8083498:	f7fe fdca 	bl	8082030 <_ZN8SPIClass9isEnabledEv>
 808349c:	b128      	cbz	r0, 80834aa <pinAvailable+0x1a>
 808349e:	f1a4 030d 	sub.w	r3, r4, #13
 80834a2:	2b02      	cmp	r3, #2
 80834a4:	d801      	bhi.n	80834aa <pinAvailable+0x1a>
  {
    return 0; // 'pin' is used
 80834a6:	2000      	movs	r0, #0
 80834a8:	bd10      	pop	{r4, pc}
  }
#endif
  // I2C safety check
#ifndef SPARK_WIRING_NO_I2C
  if(Wire.isEnabled() == true && (pin == SCL || pin == SDA))
 80834aa:	f000 f895 	bl	80835d8 <_Z19__fetch_global_Wirev>
 80834ae:	f7ff ff87 	bl	80833c0 <_ZN7TwoWire9isEnabledEv>
 80834b2:	b108      	cbz	r0, 80834b8 <pinAvailable+0x28>
 80834b4:	2c01      	cmp	r4, #1
 80834b6:	d9f6      	bls.n	80834a6 <pinAvailable+0x16>
    return 0; // 'pin' is used
  }
#endif
#ifndef SPARK_WIRING_NO_USART_SERIAL
  // Serial1 safety check
  if(Serial1.isEnabled() == true && (pin == RX || pin == TX))
 80834b8:	f7ff feae 	bl	8083218 <_Z22__fetch_global_Serial1v>
 80834bc:	f7ff fea8 	bl	8083210 <_ZN11USARTSerial9isEnabledEv>
 80834c0:	b118      	cbz	r0, 80834ca <pinAvailable+0x3a>
 80834c2:	f1a4 0312 	sub.w	r3, r4, #18
 80834c6:	2b01      	cmp	r3, #1
 80834c8:	d9ed      	bls.n	80834a6 <pinAvailable+0x16>
  {
    return 0; // 'pin' is used
  }
#endif

  if (pin >= TOTAL_PINS)
 80834ca:	2c2e      	cmp	r4, #46	; 0x2e
 80834cc:	bf8c      	ite	hi
 80834ce:	2000      	movhi	r0, #0
 80834d0:	2001      	movls	r0, #1
    return 0;
  else
    return 1; // 'pin' is available
}
 80834d2:	bd10      	pop	{r4, pc}

080834d4 <pinMode>:
 * or INPUT_PULLDOWN
 */
void pinMode(uint16_t pin, PinMode setMode)
{

  if(pin >= TOTAL_PINS || setMode == PIN_MODE_NONE )
 80834d4:	282e      	cmp	r0, #46	; 0x2e
/*
 * @brief Set the mode of the pin to OUTPUT, INPUT, INPUT_PULLUP,
 * or INPUT_PULLDOWN
 */
void pinMode(uint16_t pin, PinMode setMode)
{
 80834d6:	b538      	push	{r3, r4, r5, lr}
 80834d8:	4604      	mov	r4, r0
 80834da:	460d      	mov	r5, r1

  if(pin >= TOTAL_PINS || setMode == PIN_MODE_NONE )
 80834dc:	d80a      	bhi.n	80834f4 <pinMode+0x20>
 80834de:	29ff      	cmp	r1, #255	; 0xff
 80834e0:	d008      	beq.n	80834f4 <pinMode+0x20>
  {
    return;
  }

  // Safety check
  if( !pinAvailable(pin) ) {
 80834e2:	f7ff ffd5 	bl	8083490 <pinAvailable>
 80834e6:	b128      	cbz	r0, 80834f4 <pinMode+0x20>
    return;
  }

  HAL_Pin_Mode(pin, setMode);
 80834e8:	4629      	mov	r1, r5
 80834ea:	4620      	mov	r0, r4
}
 80834ec:	e8bd 4038 	ldmia.w	sp!, {r3, r4, r5, lr}
  // Safety check
  if( !pinAvailable(pin) ) {
    return;
  }

  HAL_Pin_Mode(pin, setMode);
 80834f0:	f7fe baf8 	b.w	8081ae4 <HAL_Pin_Mode>
 80834f4:	bd38      	pop	{r3, r4, r5, pc}

080834f6 <digitalWrite>:

/*
 * @brief Sets a GPIO pin to HIGH or LOW.
 */
void digitalWrite(pin_t pin, uint8_t value)
{
 80834f6:	b538      	push	{r3, r4, r5, lr}
 80834f8:	4604      	mov	r4, r0
 80834fa:	460d      	mov	r5, r1
    PinMode mode = HAL_Get_Pin_Mode(pin);
 80834fc:	f7fe fafa 	bl	8081af4 <HAL_Get_Pin_Mode>
    if (mode==PIN_MODE_NONE || is_input_mode(mode))
 8083500:	28ff      	cmp	r0, #255	; 0xff
 8083502:	d010      	beq.n	8083526 <digitalWrite+0x30>
}

inline bool is_input_mode(PinMode mode) {
    return  mode == INPUT ||
            mode == INPUT_PULLUP ||
            mode == INPUT_PULLDOWN ||
 8083504:	2806      	cmp	r0, #6
 8083506:	d804      	bhi.n	8083512 <digitalWrite+0x1c>
 8083508:	234d      	movs	r3, #77	; 0x4d
 808350a:	fa23 f000 	lsr.w	r0, r3, r0
 808350e:	07c3      	lsls	r3, r0, #31
 8083510:	d409      	bmi.n	8083526 <digitalWrite+0x30>
{
    PinMode mode = HAL_Get_Pin_Mode(pin);
    if (mode==PIN_MODE_NONE || is_input_mode(mode))
        return;
  // Safety check
  if( !pinAvailable(pin) ) {
 8083512:	4620      	mov	r0, r4
 8083514:	f7ff ffbc 	bl	8083490 <pinAvailable>
 8083518:	b128      	cbz	r0, 8083526 <digitalWrite+0x30>
    return;
  }

  HAL_GPIO_Write(pin, value);
 808351a:	4629      	mov	r1, r5
 808351c:	4620      	mov	r0, r4
}
 808351e:	e8bd 4038 	ldmia.w	sp!, {r3, r4, r5, lr}
  // Safety check
  if( !pinAvailable(pin) ) {
    return;
  }

  HAL_GPIO_Write(pin, value);
 8083522:	f7fe baef 	b.w	8081b04 <HAL_GPIO_Write>
 8083526:	bd38      	pop	{r3, r4, r5, pc}

08083528 <_ZN8particle7globals11instanceSpiEv>:
#ifndef SPARK_WIRING_NO_SPI

namespace particle {
namespace globals {

SPIClass& instanceSpi() {
 8083528:	b538      	push	{r3, r4, r5, lr}
    static SPIClass instance(HAL_SPI_INTERFACE1);
 808352a:	4d0b      	ldr	r5, [pc, #44]	; (8083558 <_ZN8particle7globals11instanceSpiEv+0x30>)
 808352c:	6829      	ldr	r1, [r5, #0]
 808352e:	f011 0401 	ands.w	r4, r1, #1
 8083532:	d10f      	bne.n	8083554 <_ZN8particle7globals11instanceSpiEv+0x2c>
 8083534:	4628      	mov	r0, r5
 8083536:	f7fc fdb6 	bl	80800a6 <__cxa_guard_acquire>
 808353a:	b158      	cbz	r0, 8083554 <_ZN8particle7globals11instanceSpiEv+0x2c>
 808353c:	4621      	mov	r1, r4
 808353e:	4807      	ldr	r0, [pc, #28]	; (808355c <_ZN8particle7globals11instanceSpiEv+0x34>)
 8083540:	f7fe fd62 	bl	8082008 <_ZN8SPIClassC1E17HAL_SPI_Interface>
 8083544:	4628      	mov	r0, r5
 8083546:	f7fc fdb3 	bl	80800b0 <__cxa_guard_release>
 808354a:	4a05      	ldr	r2, [pc, #20]	; (8083560 <_ZN8particle7globals11instanceSpiEv+0x38>)
 808354c:	4905      	ldr	r1, [pc, #20]	; (8083564 <_ZN8particle7globals11instanceSpiEv+0x3c>)
 808354e:	4803      	ldr	r0, [pc, #12]	; (808355c <_ZN8particle7globals11instanceSpiEv+0x34>)
 8083550:	f000 f868 	bl	8083624 <__aeabi_atexit>
    return instance;
}
 8083554:	4801      	ldr	r0, [pc, #4]	; (808355c <_ZN8particle7globals11instanceSpiEv+0x34>)
 8083556:	bd38      	pop	{r3, r4, r5, pc}
 8083558:	200004d8 	.word	0x200004d8
 808355c:	200004c8 	.word	0x200004c8
 8083560:	20000100 	.word	0x20000100
 8083564:	08081fdd 	.word	0x08081fdd

08083568 <_GLOBAL__sub_I_INADDR_NONE>:
#include "spark_wiring_ipaddress.h"

#if !HAL_USE_SOCKET_HAL_POSIX
const IPAddress INADDR_NONE(0, 0, 0, 0);
 8083568:	b513      	push	{r0, r1, r4, lr}
 808356a:	4c08      	ldr	r4, [pc, #32]	; (808358c <_GLOBAL__sub_I_INADDR_NONE+0x24>)
 808356c:	2300      	movs	r3, #0
 808356e:	461a      	mov	r2, r3
 8083570:	4619      	mov	r1, r3
 8083572:	9300      	str	r3, [sp, #0]
 8083574:	4620      	mov	r0, r4
 8083576:	f7ff fcc7 	bl	8082f08 <_ZN9IPAddressC1Ehhhh>
 808357a:	4620      	mov	r0, r4
 808357c:	4a04      	ldr	r2, [pc, #16]	; (8083590 <_GLOBAL__sub_I_INADDR_NONE+0x28>)
 808357e:	4905      	ldr	r1, [pc, #20]	; (8083594 <_GLOBAL__sub_I_INADDR_NONE+0x2c>)
 8083580:	b002      	add	sp, #8
 8083582:	e8bd 4010 	ldmia.w	sp!, {r4, lr}
 8083586:	f000 b84d 	b.w	8083624 <__aeabi_atexit>
 808358a:	bf00      	nop
 808358c:	200004e0 	.word	0x200004e0
 8083590:	20000100 	.word	0x20000100
 8083594:	08082e81 	.word	0x08082e81

08083598 <_ZN12_GLOBAL__N_117defaultWireConfigEv>:

#ifndef SPARK_WIRING_NO_I2C

namespace {

HAL_I2C_Config defaultWireConfig() {
 8083598:	b570      	push	{r4, r5, r6, lr}
 808359a:	4604      	mov	r4, r0
		.version = HAL_I2C_CONFIG_VERSION_1,
		.rx_buffer = new (std::nothrow) uint8_t[I2C_BUFFER_LENGTH],
		.rx_buffer_size = I2C_BUFFER_LENGTH,
		.tx_buffer = new (std::nothrow) uint8_t[I2C_BUFFER_LENGTH],
		.tx_buffer_size = I2C_BUFFER_LENGTH
	};
 808359c:	2514      	movs	r5, #20
 808359e:	462a      	mov	r2, r5

HAL_I2C_Config defaultWireConfig() {
	HAL_I2C_Config config = {
		.size = sizeof(HAL_I2C_Config),
		.version = HAL_I2C_CONFIG_VERSION_1,
		.rx_buffer = new (std::nothrow) uint8_t[I2C_BUFFER_LENGTH],
 80835a0:	4e09      	ldr	r6, [pc, #36]	; (80835c8 <_ZN12_GLOBAL__N_117defaultWireConfigEv+0x30>)
		.rx_buffer_size = I2C_BUFFER_LENGTH,
		.tx_buffer = new (std::nothrow) uint8_t[I2C_BUFFER_LENGTH],
		.tx_buffer_size = I2C_BUFFER_LENGTH
	};
 80835a2:	2100      	movs	r1, #0
 80835a4:	f000 ffff 	bl	80845a6 <memset>
 80835a8:	8025      	strh	r5, [r4, #0]
 80835aa:	2520      	movs	r5, #32

HAL_I2C_Config defaultWireConfig() {
	HAL_I2C_Config config = {
		.size = sizeof(HAL_I2C_Config),
		.version = HAL_I2C_CONFIG_VERSION_1,
		.rx_buffer = new (std::nothrow) uint8_t[I2C_BUFFER_LENGTH],
 80835ac:	4631      	mov	r1, r6
		.rx_buffer_size = I2C_BUFFER_LENGTH,
		.tx_buffer = new (std::nothrow) uint8_t[I2C_BUFFER_LENGTH],
		.tx_buffer_size = I2C_BUFFER_LENGTH
	};
 80835ae:	60a5      	str	r5, [r4, #8]
 80835b0:	6125      	str	r5, [r4, #16]

HAL_I2C_Config defaultWireConfig() {
	HAL_I2C_Config config = {
		.size = sizeof(HAL_I2C_Config),
		.version = HAL_I2C_CONFIG_VERSION_1,
		.rx_buffer = new (std::nothrow) uint8_t[I2C_BUFFER_LENGTH],
 80835b2:	4628      	mov	r0, r5
 80835b4:	f000 f846 	bl	8083644 <_ZnajRKSt9nothrow_t>
		.rx_buffer_size = I2C_BUFFER_LENGTH,
		.tx_buffer = new (std::nothrow) uint8_t[I2C_BUFFER_LENGTH],
 80835b8:	4631      	mov	r1, r6
		.tx_buffer_size = I2C_BUFFER_LENGTH
	};
 80835ba:	6060      	str	r0, [r4, #4]
	HAL_I2C_Config config = {
		.size = sizeof(HAL_I2C_Config),
		.version = HAL_I2C_CONFIG_VERSION_1,
		.rx_buffer = new (std::nothrow) uint8_t[I2C_BUFFER_LENGTH],
		.rx_buffer_size = I2C_BUFFER_LENGTH,
		.tx_buffer = new (std::nothrow) uint8_t[I2C_BUFFER_LENGTH],
 80835bc:	4628      	mov	r0, r5
 80835be:	f000 f841 	bl	8083644 <_ZnajRKSt9nothrow_t>
		.tx_buffer_size = I2C_BUFFER_LENGTH
	};
 80835c2:	60e0      	str	r0, [r4, #12]

	return config;
}
 80835c4:	4620      	mov	r0, r4
 80835c6:	bd70      	pop	{r4, r5, r6, pc}
 80835c8:	08087cf8 	.word	0x08087cf8

080835cc <_Z17acquireWireBufferv>:
 80835cc:	b510      	push	{r4, lr}
 80835ce:	4604      	mov	r4, r0
 80835d0:	f7ff ffe2 	bl	8083598 <_ZN12_GLOBAL__N_117defaultWireConfigEv>
 80835d4:	4620      	mov	r0, r4
 80835d6:	bd10      	pop	{r4, pc}

080835d8 <_Z19__fetch_global_Wirev>:
	return defaultWireConfig();
}
#endif

TwoWire& __fetch_global_Wire()
{
 80835d8:	b530      	push	{r4, r5, lr}
	static TwoWire wire(HAL_I2C_INTERFACE1, acquireWireBuffer());
 80835da:	4d0e      	ldr	r5, [pc, #56]	; (8083614 <_Z19__fetch_global_Wirev+0x3c>)
	return defaultWireConfig();
}
#endif

TwoWire& __fetch_global_Wire()
{
 80835dc:	b087      	sub	sp, #28
	static TwoWire wire(HAL_I2C_INTERFACE1, acquireWireBuffer());
 80835de:	6829      	ldr	r1, [r5, #0]
 80835e0:	f011 0401 	ands.w	r4, r1, #1
 80835e4:	d113      	bne.n	808360e <_Z19__fetch_global_Wirev+0x36>
 80835e6:	4628      	mov	r0, r5
 80835e8:	f7fc fd5d 	bl	80800a6 <__cxa_guard_acquire>
 80835ec:	b178      	cbz	r0, 808360e <_Z19__fetch_global_Wirev+0x36>
 80835ee:	a801      	add	r0, sp, #4
 80835f0:	f7ff ffec 	bl	80835cc <_Z17acquireWireBufferv>
 80835f4:	aa01      	add	r2, sp, #4
 80835f6:	4621      	mov	r1, r4
 80835f8:	4807      	ldr	r0, [pc, #28]	; (8083618 <_Z19__fetch_global_Wirev+0x40>)
 80835fa:	f7ff fe8d 	bl	8083318 <_ZN7TwoWireC1E17HAL_I2C_InterfaceRK14HAL_I2C_Config>
 80835fe:	4628      	mov	r0, r5
 8083600:	f7fc fd56 	bl	80800b0 <__cxa_guard_release>
 8083604:	4a05      	ldr	r2, [pc, #20]	; (808361c <_Z19__fetch_global_Wirev+0x44>)
 8083606:	4906      	ldr	r1, [pc, #24]	; (8083620 <_Z19__fetch_global_Wirev+0x48>)
 8083608:	4803      	ldr	r0, [pc, #12]	; (8083618 <_Z19__fetch_global_Wirev+0x40>)
 808360a:	f000 f80b 	bl	8083624 <__aeabi_atexit>
	return wire;
}
 808360e:	4802      	ldr	r0, [pc, #8]	; (8083618 <_Z19__fetch_global_Wirev+0x40>)
 8083610:	b007      	add	sp, #28
 8083612:	bd30      	pop	{r4, r5, pc}
 8083614:	200004e8 	.word	0x200004e8
 8083618:	200004ec 	.word	0x200004ec
 808361c:	20000100 	.word	0x20000100
 8083620:	080832c1 	.word	0x080832c1

08083624 <__aeabi_atexit>:
 8083624:	460b      	mov	r3, r1
 8083626:	4601      	mov	r1, r0
 8083628:	4618      	mov	r0, r3
 808362a:	f000 bea7 	b.w	808437c <__cxa_atexit>
	...

08083630 <_ZSt15get_new_handlerv>:
 8083630:	4b02      	ldr	r3, [pc, #8]	; (808363c <_ZSt15get_new_handlerv+0xc>)
 8083632:	6818      	ldr	r0, [r3, #0]
 8083634:	f3bf 8f5f 	dmb	sy
 8083638:	4770      	bx	lr
 808363a:	bf00      	nop
 808363c:	20000500 	.word	0x20000500

08083640 <_ZdlPvj>:
 8083640:	f7fc bd2f 	b.w	80800a2 <_ZdlPv>

08083644 <_ZnajRKSt9nothrow_t>:
 8083644:	f000 b800 	b.w	8083648 <_ZnwjRKSt9nothrow_t>

08083648 <_ZnwjRKSt9nothrow_t>:
 8083648:	b510      	push	{r4, lr}
 808364a:	2800      	cmp	r0, #0
 808364c:	bf14      	ite	ne
 808364e:	4604      	movne	r4, r0
 8083650:	2401      	moveq	r4, #1
 8083652:	4620      	mov	r0, r4
 8083654:	f7fe fc6a 	bl	8081f2c <malloc>
 8083658:	b920      	cbnz	r0, 8083664 <_ZnwjRKSt9nothrow_t+0x1c>
 808365a:	f7ff ffe9 	bl	8083630 <_ZSt15get_new_handlerv>
 808365e:	b108      	cbz	r0, 8083664 <_ZnwjRKSt9nothrow_t+0x1c>
 8083660:	4780      	blx	r0
 8083662:	e7f6      	b.n	8083652 <_ZnwjRKSt9nothrow_t+0xa>
 8083664:	bd10      	pop	{r4, pc}

08083666 <_ZSt25__throw_bad_function_callv>:
 8083666:	b508      	push	{r3, lr}
 8083668:	f7fe fca8 	bl	8081fbc <abort>

0808366c <_GLOBAL__sub_I__ZNSt12ctype_bynameIcEC2ERKNSt7__cxx1112basic_stringIcSt11char_traitsIcESaIcEEEj>:
 808366c:	4b18      	ldr	r3, [pc, #96]	; (80836d0 <_GLOBAL__sub_I__ZNSt12ctype_bynameIcEC2ERKNSt7__cxx1112basic_stringIcSt11char_traitsIcESaIcEEEj+0x64>)
 808366e:	681a      	ldr	r2, [r3, #0]
 8083670:	07d1      	lsls	r1, r2, #31
 8083672:	bf5c      	itt	pl
 8083674:	2201      	movpl	r2, #1
 8083676:	601a      	strpl	r2, [r3, #0]
 8083678:	4b16      	ldr	r3, [pc, #88]	; (80836d4 <_GLOBAL__sub_I__ZNSt12ctype_bynameIcEC2ERKNSt7__cxx1112basic_stringIcSt11char_traitsIcESaIcEEEj+0x68>)
 808367a:	681a      	ldr	r2, [r3, #0]
 808367c:	07d2      	lsls	r2, r2, #31
 808367e:	bf5c      	itt	pl
 8083680:	2201      	movpl	r2, #1
 8083682:	601a      	strpl	r2, [r3, #0]
 8083684:	4b14      	ldr	r3, [pc, #80]	; (80836d8 <_GLOBAL__sub_I__ZNSt12ctype_bynameIcEC2ERKNSt7__cxx1112basic_stringIcSt11char_traitsIcESaIcEEEj+0x6c>)
 8083686:	681a      	ldr	r2, [r3, #0]
 8083688:	07d0      	lsls	r0, r2, #31
 808368a:	bf5c      	itt	pl
 808368c:	2201      	movpl	r2, #1
 808368e:	601a      	strpl	r2, [r3, #0]
 8083690:	4b12      	ldr	r3, [pc, #72]	; (80836dc <_GLOBAL__sub_I__ZNSt12ctype_bynameIcEC2ERKNSt7__cxx1112basic_stringIcSt11char_traitsIcESaIcEEEj+0x70>)
 8083692:	681a      	ldr	r2, [r3, #0]
 8083694:	07d1      	lsls	r1, r2, #31
 8083696:	bf5c      	itt	pl
 8083698:	2201      	movpl	r2, #1
 808369a:	601a      	strpl	r2, [r3, #0]
 808369c:	4b10      	ldr	r3, [pc, #64]	; (80836e0 <_GLOBAL__sub_I__ZNSt12ctype_bynameIcEC2ERKNSt7__cxx1112basic_stringIcSt11char_traitsIcESaIcEEEj+0x74>)
 808369e:	681a      	ldr	r2, [r3, #0]
 80836a0:	07d2      	lsls	r2, r2, #31
 80836a2:	bf5c      	itt	pl
 80836a4:	2201      	movpl	r2, #1
 80836a6:	601a      	strpl	r2, [r3, #0]
 80836a8:	4b0e      	ldr	r3, [pc, #56]	; (80836e4 <_GLOBAL__sub_I__ZNSt12ctype_bynameIcEC2ERKNSt7__cxx1112basic_stringIcSt11char_traitsIcESaIcEEEj+0x78>)
 80836aa:	681a      	ldr	r2, [r3, #0]
 80836ac:	07d0      	lsls	r0, r2, #31
 80836ae:	bf5c      	itt	pl
 80836b0:	2201      	movpl	r2, #1
 80836b2:	601a      	strpl	r2, [r3, #0]
 80836b4:	4b0c      	ldr	r3, [pc, #48]	; (80836e8 <_GLOBAL__sub_I__ZNSt12ctype_bynameIcEC2ERKNSt7__cxx1112basic_stringIcSt11char_traitsIcESaIcEEEj+0x7c>)
 80836b6:	681a      	ldr	r2, [r3, #0]
 80836b8:	07d1      	lsls	r1, r2, #31
 80836ba:	bf5c      	itt	pl
 80836bc:	2201      	movpl	r2, #1
 80836be:	601a      	strpl	r2, [r3, #0]
 80836c0:	4b0a      	ldr	r3, [pc, #40]	; (80836ec <_GLOBAL__sub_I__ZNSt12ctype_bynameIcEC2ERKNSt7__cxx1112basic_stringIcSt11char_traitsIcESaIcEEEj+0x80>)
 80836c2:	681a      	ldr	r2, [r3, #0]
 80836c4:	07d2      	lsls	r2, r2, #31
 80836c6:	bf5c      	itt	pl
 80836c8:	2201      	movpl	r2, #1
 80836ca:	601a      	strpl	r2, [r3, #0]
 80836cc:	4770      	bx	lr
 80836ce:	bf00      	nop
 80836d0:	20000520 	.word	0x20000520
 80836d4:	2000051c 	.word	0x2000051c
 80836d8:	20000518 	.word	0x20000518
 80836dc:	20000514 	.word	0x20000514
 80836e0:	20000510 	.word	0x20000510
 80836e4:	2000050c 	.word	0x2000050c
 80836e8:	20000508 	.word	0x20000508
 80836ec:	20000504 	.word	0x20000504

080836f0 <_GLOBAL__sub_I__ZNSt12ctype_bynameIwEC2ERKSsj>:
 80836f0:	4b24      	ldr	r3, [pc, #144]	; (8083784 <_GLOBAL__sub_I__ZNSt12ctype_bynameIwEC2ERKSsj+0x94>)
 80836f2:	681a      	ldr	r2, [r3, #0]
 80836f4:	07d0      	lsls	r0, r2, #31
 80836f6:	bf5c      	itt	pl
 80836f8:	2201      	movpl	r2, #1
 80836fa:	601a      	strpl	r2, [r3, #0]
 80836fc:	4b22      	ldr	r3, [pc, #136]	; (8083788 <_GLOBAL__sub_I__ZNSt12ctype_bynameIwEC2ERKSsj+0x98>)
 80836fe:	681a      	ldr	r2, [r3, #0]
 8083700:	07d1      	lsls	r1, r2, #31
 8083702:	bf5c      	itt	pl
 8083704:	2201      	movpl	r2, #1
 8083706:	601a      	strpl	r2, [r3, #0]
 8083708:	4b20      	ldr	r3, [pc, #128]	; (808378c <_GLOBAL__sub_I__ZNSt12ctype_bynameIwEC2ERKSsj+0x9c>)
 808370a:	681a      	ldr	r2, [r3, #0]
 808370c:	07d2      	lsls	r2, r2, #31
 808370e:	bf5c      	itt	pl
 8083710:	2201      	movpl	r2, #1
 8083712:	601a      	strpl	r2, [r3, #0]
 8083714:	4b1e      	ldr	r3, [pc, #120]	; (8083790 <_GLOBAL__sub_I__ZNSt12ctype_bynameIwEC2ERKSsj+0xa0>)
 8083716:	681a      	ldr	r2, [r3, #0]
 8083718:	07d0      	lsls	r0, r2, #31
 808371a:	bf5c      	itt	pl
 808371c:	2201      	movpl	r2, #1
 808371e:	601a      	strpl	r2, [r3, #0]
 8083720:	4b1c      	ldr	r3, [pc, #112]	; (8083794 <_GLOBAL__sub_I__ZNSt12ctype_bynameIwEC2ERKSsj+0xa4>)
 8083722:	681a      	ldr	r2, [r3, #0]
 8083724:	07d1      	lsls	r1, r2, #31
 8083726:	bf5c      	itt	pl
 8083728:	2201      	movpl	r2, #1
 808372a:	601a      	strpl	r2, [r3, #0]
 808372c:	4b1a      	ldr	r3, [pc, #104]	; (8083798 <_GLOBAL__sub_I__ZNSt12ctype_bynameIwEC2ERKSsj+0xa8>)
 808372e:	681a      	ldr	r2, [r3, #0]
 8083730:	07d2      	lsls	r2, r2, #31
 8083732:	bf5c      	itt	pl
 8083734:	2201      	movpl	r2, #1
 8083736:	601a      	strpl	r2, [r3, #0]
 8083738:	4b18      	ldr	r3, [pc, #96]	; (808379c <_GLOBAL__sub_I__ZNSt12ctype_bynameIwEC2ERKSsj+0xac>)
 808373a:	681a      	ldr	r2, [r3, #0]
 808373c:	07d0      	lsls	r0, r2, #31
 808373e:	bf5c      	itt	pl
 8083740:	2201      	movpl	r2, #1
 8083742:	601a      	strpl	r2, [r3, #0]
 8083744:	4b16      	ldr	r3, [pc, #88]	; (80837a0 <_GLOBAL__sub_I__ZNSt12ctype_bynameIwEC2ERKSsj+0xb0>)
 8083746:	681a      	ldr	r2, [r3, #0]
 8083748:	07d1      	lsls	r1, r2, #31
 808374a:	bf5c      	itt	pl
 808374c:	2201      	movpl	r2, #1
 808374e:	601a      	strpl	r2, [r3, #0]
 8083750:	4b14      	ldr	r3, [pc, #80]	; (80837a4 <_GLOBAL__sub_I__ZNSt12ctype_bynameIwEC2ERKSsj+0xb4>)
 8083752:	681a      	ldr	r2, [r3, #0]
 8083754:	07d2      	lsls	r2, r2, #31
 8083756:	bf5c      	itt	pl
 8083758:	2201      	movpl	r2, #1
 808375a:	601a      	strpl	r2, [r3, #0]
 808375c:	4b12      	ldr	r3, [pc, #72]	; (80837a8 <_GLOBAL__sub_I__ZNSt12ctype_bynameIwEC2ERKSsj+0xb8>)
 808375e:	681a      	ldr	r2, [r3, #0]
 8083760:	07d0      	lsls	r0, r2, #31
 8083762:	bf5c      	itt	pl
 8083764:	2201      	movpl	r2, #1
 8083766:	601a      	strpl	r2, [r3, #0]
 8083768:	4b10      	ldr	r3, [pc, #64]	; (80837ac <_GLOBAL__sub_I__ZNSt12ctype_bynameIwEC2ERKSsj+0xbc>)
 808376a:	681a      	ldr	r2, [r3, #0]
 808376c:	07d1      	lsls	r1, r2, #31
 808376e:	bf5c      	itt	pl
 8083770:	2201      	movpl	r2, #1
 8083772:	601a      	strpl	r2, [r3, #0]
 8083774:	4b0e      	ldr	r3, [pc, #56]	; (80837b0 <_GLOBAL__sub_I__ZNSt12ctype_bynameIwEC2ERKSsj+0xc0>)
 8083776:	681a      	ldr	r2, [r3, #0]
 8083778:	07d2      	lsls	r2, r2, #31
 808377a:	bf5c      	itt	pl
 808377c:	2201      	movpl	r2, #1
 808377e:	601a      	strpl	r2, [r3, #0]
 8083780:	4770      	bx	lr
 8083782:	bf00      	nop
 8083784:	20000550 	.word	0x20000550
 8083788:	2000054c 	.word	0x2000054c
 808378c:	20000548 	.word	0x20000548
 8083790:	20000544 	.word	0x20000544
 8083794:	20000540 	.word	0x20000540
 8083798:	2000053c 	.word	0x2000053c
 808379c:	20000538 	.word	0x20000538
 80837a0:	20000534 	.word	0x20000534
 80837a4:	20000530 	.word	0x20000530
 80837a8:	2000052c 	.word	0x2000052c
 80837ac:	20000528 	.word	0x20000528
 80837b0:	20000524 	.word	0x20000524

080837b4 <_GLOBAL__sub_I__ZNSt12ctype_bynameIcEC2ERKSsj>:
 80837b4:	4b24      	ldr	r3, [pc, #144]	; (8083848 <_GLOBAL__sub_I__ZNSt12ctype_bynameIcEC2ERKSsj+0x94>)
 80837b6:	681a      	ldr	r2, [r3, #0]
 80837b8:	07d0      	lsls	r0, r2, #31
 80837ba:	bf5c      	itt	pl
 80837bc:	2201      	movpl	r2, #1
 80837be:	601a      	strpl	r2, [r3, #0]
 80837c0:	4b22      	ldr	r3, [pc, #136]	; (808384c <_GLOBAL__sub_I__ZNSt12ctype_bynameIcEC2ERKSsj+0x98>)
 80837c2:	681a      	ldr	r2, [r3, #0]
 80837c4:	07d1      	lsls	r1, r2, #31
 80837c6:	bf5c      	itt	pl
 80837c8:	2201      	movpl	r2, #1
 80837ca:	601a      	strpl	r2, [r3, #0]
 80837cc:	4b20      	ldr	r3, [pc, #128]	; (8083850 <_GLOBAL__sub_I__ZNSt12ctype_bynameIcEC2ERKSsj+0x9c>)
 80837ce:	681a      	ldr	r2, [r3, #0]
 80837d0:	07d2      	lsls	r2, r2, #31
 80837d2:	bf5c      	itt	pl
 80837d4:	2201      	movpl	r2, #1
 80837d6:	601a      	strpl	r2, [r3, #0]
 80837d8:	4b1e      	ldr	r3, [pc, #120]	; (8083854 <_GLOBAL__sub_I__ZNSt12ctype_bynameIcEC2ERKSsj+0xa0>)
 80837da:	681a      	ldr	r2, [r3, #0]
 80837dc:	07d0      	lsls	r0, r2, #31
 80837de:	bf5c      	itt	pl
 80837e0:	2201      	movpl	r2, #1
 80837e2:	601a      	strpl	r2, [r3, #0]
 80837e4:	4b1c      	ldr	r3, [pc, #112]	; (8083858 <_GLOBAL__sub_I__ZNSt12ctype_bynameIcEC2ERKSsj+0xa4>)
 80837e6:	681a      	ldr	r2, [r3, #0]
 80837e8:	07d1      	lsls	r1, r2, #31
 80837ea:	bf5c      	itt	pl
 80837ec:	2201      	movpl	r2, #1
 80837ee:	601a      	strpl	r2, [r3, #0]
 80837f0:	4b1a      	ldr	r3, [pc, #104]	; (808385c <_GLOBAL__sub_I__ZNSt12ctype_bynameIcEC2ERKSsj+0xa8>)
 80837f2:	681a      	ldr	r2, [r3, #0]
 80837f4:	07d2      	lsls	r2, r2, #31
 80837f6:	bf5c      	itt	pl
 80837f8:	2201      	movpl	r2, #1
 80837fa:	601a      	strpl	r2, [r3, #0]
 80837fc:	4b18      	ldr	r3, [pc, #96]	; (8083860 <_GLOBAL__sub_I__ZNSt12ctype_bynameIcEC2ERKSsj+0xac>)
 80837fe:	681a      	ldr	r2, [r3, #0]
 8083800:	07d0      	lsls	r0, r2, #31
 8083802:	bf5c      	itt	pl
 8083804:	2201      	movpl	r2, #1
 8083806:	601a      	strpl	r2, [r3, #0]
 8083808:	4b16      	ldr	r3, [pc, #88]	; (8083864 <_GLOBAL__sub_I__ZNSt12ctype_bynameIcEC2ERKSsj+0xb0>)
 808380a:	681a      	ldr	r2, [r3, #0]
 808380c:	07d1      	lsls	r1, r2, #31
 808380e:	bf5c      	itt	pl
 8083810:	2201      	movpl	r2, #1
 8083812:	601a      	strpl	r2, [r3, #0]
 8083814:	4b14      	ldr	r3, [pc, #80]	; (8083868 <_GLOBAL__sub_I__ZNSt12ctype_bynameIcEC2ERKSsj+0xb4>)
 8083816:	681a      	ldr	r2, [r3, #0]
 8083818:	07d2      	lsls	r2, r2, #31
 808381a:	bf5c      	itt	pl
 808381c:	2201      	movpl	r2, #1
 808381e:	601a      	strpl	r2, [r3, #0]
 8083820:	4b12      	ldr	r3, [pc, #72]	; (808386c <_GLOBAL__sub_I__ZNSt12ctype_bynameIcEC2ERKSsj+0xb8>)
 8083822:	681a      	ldr	r2, [r3, #0]
 8083824:	07d0      	lsls	r0, r2, #31
 8083826:	bf5c      	itt	pl
 8083828:	2201      	movpl	r2, #1
 808382a:	601a      	strpl	r2, [r3, #0]
 808382c:	4b10      	ldr	r3, [pc, #64]	; (8083870 <_GLOBAL__sub_I__ZNSt12ctype_bynameIcEC2ERKSsj+0xbc>)
 808382e:	681a      	ldr	r2, [r3, #0]
 8083830:	07d1      	lsls	r1, r2, #31
 8083832:	bf5c      	itt	pl
 8083834:	2201      	movpl	r2, #1
 8083836:	601a      	strpl	r2, [r3, #0]
 8083838:	4b0e      	ldr	r3, [pc, #56]	; (8083874 <_GLOBAL__sub_I__ZNSt12ctype_bynameIcEC2ERKSsj+0xc0>)
 808383a:	681a      	ldr	r2, [r3, #0]
 808383c:	07d2      	lsls	r2, r2, #31
 808383e:	bf5c      	itt	pl
 8083840:	2201      	movpl	r2, #1
 8083842:	601a      	strpl	r2, [r3, #0]
 8083844:	4770      	bx	lr
 8083846:	bf00      	nop
 8083848:	20000580 	.word	0x20000580
 808384c:	2000057c 	.word	0x2000057c
 8083850:	20000578 	.word	0x20000578
 8083854:	20000574 	.word	0x20000574
 8083858:	20000570 	.word	0x20000570
 808385c:	2000056c 	.word	0x2000056c
 8083860:	20000568 	.word	0x20000568
 8083864:	20000564 	.word	0x20000564
 8083868:	20000560 	.word	0x20000560
 808386c:	2000055c 	.word	0x2000055c
 8083870:	20000558 	.word	0x20000558
 8083874:	20000554 	.word	0x20000554

08083878 <_GLOBAL__sub_I__ZNSt12ctype_bynameIwEC2ERKNSt7__cxx1112basic_stringIcSt11char_traitsIcESaIcEEEj>:
 8083878:	4b18      	ldr	r3, [pc, #96]	; (80838dc <_GLOBAL__sub_I__ZNSt12ctype_bynameIwEC2ERKNSt7__cxx1112basic_stringIcSt11char_traitsIcESaIcEEEj+0x64>)
 808387a:	681a      	ldr	r2, [r3, #0]
 808387c:	07d1      	lsls	r1, r2, #31
 808387e:	bf5c      	itt	pl
 8083880:	2201      	movpl	r2, #1
 8083882:	601a      	strpl	r2, [r3, #0]
 8083884:	4b16      	ldr	r3, [pc, #88]	; (80838e0 <_GLOBAL__sub_I__ZNSt12ctype_bynameIwEC2ERKNSt7__cxx1112basic_stringIcSt11char_traitsIcESaIcEEEj+0x68>)
 8083886:	681a      	ldr	r2, [r3, #0]
 8083888:	07d2      	lsls	r2, r2, #31
 808388a:	bf5c      	itt	pl
 808388c:	2201      	movpl	r2, #1
 808388e:	601a      	strpl	r2, [r3, #0]
 8083890:	4b14      	ldr	r3, [pc, #80]	; (80838e4 <_GLOBAL__sub_I__ZNSt12ctype_bynameIwEC2ERKNSt7__cxx1112basic_stringIcSt11char_traitsIcESaIcEEEj+0x6c>)
 8083892:	681a      	ldr	r2, [r3, #0]
 8083894:	07d0      	lsls	r0, r2, #31
 8083896:	bf5c      	itt	pl
 8083898:	2201      	movpl	r2, #1
 808389a:	601a      	strpl	r2, [r3, #0]
 808389c:	4b12      	ldr	r3, [pc, #72]	; (80838e8 <_GLOBAL__sub_I__ZNSt12ctype_bynameIwEC2ERKNSt7__cxx1112basic_stringIcSt11char_traitsIcESaIcEEEj+0x70>)
 808389e:	681a      	ldr	r2, [r3, #0]
 80838a0:	07d1      	lsls	r1, r2, #31
 80838a2:	bf5c      	itt	pl
 80838a4:	2201      	movpl	r2, #1
 80838a6:	601a      	strpl	r2, [r3, #0]
 80838a8:	4b10      	ldr	r3, [pc, #64]	; (80838ec <_GLOBAL__sub_I__ZNSt12ctype_bynameIwEC2ERKNSt7__cxx1112basic_stringIcSt11char_traitsIcESaIcEEEj+0x74>)
 80838aa:	681a      	ldr	r2, [r3, #0]
 80838ac:	07d2      	lsls	r2, r2, #31
 80838ae:	bf5c      	itt	pl
 80838b0:	2201      	movpl	r2, #1
 80838b2:	601a      	strpl	r2, [r3, #0]
 80838b4:	4b0e      	ldr	r3, [pc, #56]	; (80838f0 <_GLOBAL__sub_I__ZNSt12ctype_bynameIwEC2ERKNSt7__cxx1112basic_stringIcSt11char_traitsIcESaIcEEEj+0x78>)
 80838b6:	681a      	ldr	r2, [r3, #0]
 80838b8:	07d0      	lsls	r0, r2, #31
 80838ba:	bf5c      	itt	pl
 80838bc:	2201      	movpl	r2, #1
 80838be:	601a      	strpl	r2, [r3, #0]
 80838c0:	4b0c      	ldr	r3, [pc, #48]	; (80838f4 <_GLOBAL__sub_I__ZNSt12ctype_bynameIwEC2ERKNSt7__cxx1112basic_stringIcSt11char_traitsIcESaIcEEEj+0x7c>)
 80838c2:	681a      	ldr	r2, [r3, #0]
 80838c4:	07d1      	lsls	r1, r2, #31
 80838c6:	bf5c      	itt	pl
 80838c8:	2201      	movpl	r2, #1
 80838ca:	601a      	strpl	r2, [r3, #0]
 80838cc:	4b0a      	ldr	r3, [pc, #40]	; (80838f8 <_GLOBAL__sub_I__ZNSt12ctype_bynameIwEC2ERKNSt7__cxx1112basic_stringIcSt11char_traitsIcESaIcEEEj+0x80>)
 80838ce:	681a      	ldr	r2, [r3, #0]
 80838d0:	07d2      	lsls	r2, r2, #31
 80838d2:	bf5c      	itt	pl
 80838d4:	2201      	movpl	r2, #1
 80838d6:	601a      	strpl	r2, [r3, #0]
 80838d8:	4770      	bx	lr
 80838da:	bf00      	nop
 80838dc:	200005a0 	.word	0x200005a0
 80838e0:	2000059c 	.word	0x2000059c
 80838e4:	20000598 	.word	0x20000598
 80838e8:	20000594 	.word	0x20000594
 80838ec:	20000590 	.word	0x20000590
 80838f0:	2000058c 	.word	0x2000058c
 80838f4:	20000588 	.word	0x20000588
 80838f8:	20000584 	.word	0x20000584

080838fc <__aeabi_drsub>:
 80838fc:	f081 4100 	eor.w	r1, r1, #2147483648	; 0x80000000
 8083900:	e002      	b.n	8083908 <__adddf3>
 8083902:	bf00      	nop

08083904 <__aeabi_dsub>:
 8083904:	f083 4300 	eor.w	r3, r3, #2147483648	; 0x80000000

08083908 <__adddf3>:
 8083908:	b530      	push	{r4, r5, lr}
 808390a:	ea4f 0441 	mov.w	r4, r1, lsl #1
 808390e:	ea4f 0543 	mov.w	r5, r3, lsl #1
 8083912:	ea94 0f05 	teq	r4, r5
 8083916:	bf08      	it	eq
 8083918:	ea90 0f02 	teqeq	r0, r2
 808391c:	bf1f      	itttt	ne
 808391e:	ea54 0c00 	orrsne.w	ip, r4, r0
 8083922:	ea55 0c02 	orrsne.w	ip, r5, r2
 8083926:	ea7f 5c64 	mvnsne.w	ip, r4, asr #21
 808392a:	ea7f 5c65 	mvnsne.w	ip, r5, asr #21
 808392e:	f000 80e2 	beq.w	8083af6 <__adddf3+0x1ee>
 8083932:	ea4f 5454 	mov.w	r4, r4, lsr #21
 8083936:	ebd4 5555 	rsbs	r5, r4, r5, lsr #21
 808393a:	bfb8      	it	lt
 808393c:	426d      	neglt	r5, r5
 808393e:	dd0c      	ble.n	808395a <__adddf3+0x52>
 8083940:	442c      	add	r4, r5
 8083942:	ea80 0202 	eor.w	r2, r0, r2
 8083946:	ea81 0303 	eor.w	r3, r1, r3
 808394a:	ea82 0000 	eor.w	r0, r2, r0
 808394e:	ea83 0101 	eor.w	r1, r3, r1
 8083952:	ea80 0202 	eor.w	r2, r0, r2
 8083956:	ea81 0303 	eor.w	r3, r1, r3
 808395a:	2d36      	cmp	r5, #54	; 0x36
 808395c:	bf88      	it	hi
 808395e:	bd30      	pophi	{r4, r5, pc}
 8083960:	f011 4f00 	tst.w	r1, #2147483648	; 0x80000000
 8083964:	ea4f 3101 	mov.w	r1, r1, lsl #12
 8083968:	f44f 1c80 	mov.w	ip, #1048576	; 0x100000
 808396c:	ea4c 3111 	orr.w	r1, ip, r1, lsr #12
 8083970:	d002      	beq.n	8083978 <__adddf3+0x70>
 8083972:	4240      	negs	r0, r0
 8083974:	eb61 0141 	sbc.w	r1, r1, r1, lsl #1
 8083978:	f013 4f00 	tst.w	r3, #2147483648	; 0x80000000
 808397c:	ea4f 3303 	mov.w	r3, r3, lsl #12
 8083980:	ea4c 3313 	orr.w	r3, ip, r3, lsr #12
 8083984:	d002      	beq.n	808398c <__adddf3+0x84>
 8083986:	4252      	negs	r2, r2
 8083988:	eb63 0343 	sbc.w	r3, r3, r3, lsl #1
 808398c:	ea94 0f05 	teq	r4, r5
 8083990:	f000 80a7 	beq.w	8083ae2 <__adddf3+0x1da>
 8083994:	f1a4 0401 	sub.w	r4, r4, #1
 8083998:	f1d5 0e20 	rsbs	lr, r5, #32
 808399c:	db0d      	blt.n	80839ba <__adddf3+0xb2>
 808399e:	fa02 fc0e 	lsl.w	ip, r2, lr
 80839a2:	fa22 f205 	lsr.w	r2, r2, r5
 80839a6:	1880      	adds	r0, r0, r2
 80839a8:	f141 0100 	adc.w	r1, r1, #0
 80839ac:	fa03 f20e 	lsl.w	r2, r3, lr
 80839b0:	1880      	adds	r0, r0, r2
 80839b2:	fa43 f305 	asr.w	r3, r3, r5
 80839b6:	4159      	adcs	r1, r3
 80839b8:	e00e      	b.n	80839d8 <__adddf3+0xd0>
 80839ba:	f1a5 0520 	sub.w	r5, r5, #32
 80839be:	f10e 0e20 	add.w	lr, lr, #32
 80839c2:	2a01      	cmp	r2, #1
 80839c4:	fa03 fc0e 	lsl.w	ip, r3, lr
 80839c8:	bf28      	it	cs
 80839ca:	f04c 0c02 	orrcs.w	ip, ip, #2
 80839ce:	fa43 f305 	asr.w	r3, r3, r5
 80839d2:	18c0      	adds	r0, r0, r3
 80839d4:	eb51 71e3 	adcs.w	r1, r1, r3, asr #31
 80839d8:	f001 4500 	and.w	r5, r1, #2147483648	; 0x80000000
 80839dc:	d507      	bpl.n	80839ee <__adddf3+0xe6>
 80839de:	f04f 0e00 	mov.w	lr, #0
 80839e2:	f1dc 0c00 	rsbs	ip, ip, #0
 80839e6:	eb7e 0000 	sbcs.w	r0, lr, r0
 80839ea:	eb6e 0101 	sbc.w	r1, lr, r1
 80839ee:	f5b1 1f80 	cmp.w	r1, #1048576	; 0x100000
 80839f2:	d31b      	bcc.n	8083a2c <__adddf3+0x124>
 80839f4:	f5b1 1f00 	cmp.w	r1, #2097152	; 0x200000
 80839f8:	d30c      	bcc.n	8083a14 <__adddf3+0x10c>
 80839fa:	0849      	lsrs	r1, r1, #1
 80839fc:	ea5f 0030 	movs.w	r0, r0, rrx
 8083a00:	ea4f 0c3c 	mov.w	ip, ip, rrx
 8083a04:	f104 0401 	add.w	r4, r4, #1
 8083a08:	ea4f 5244 	mov.w	r2, r4, lsl #21
 8083a0c:	f512 0f80 	cmn.w	r2, #4194304	; 0x400000
 8083a10:	f080 809a 	bcs.w	8083b48 <__adddf3+0x240>
 8083a14:	f1bc 4f00 	cmp.w	ip, #2147483648	; 0x80000000
 8083a18:	bf08      	it	eq
 8083a1a:	ea5f 0c50 	movseq.w	ip, r0, lsr #1
 8083a1e:	f150 0000 	adcs.w	r0, r0, #0
 8083a22:	eb41 5104 	adc.w	r1, r1, r4, lsl #20
 8083a26:	ea41 0105 	orr.w	r1, r1, r5
 8083a2a:	bd30      	pop	{r4, r5, pc}
 8083a2c:	ea5f 0c4c 	movs.w	ip, ip, lsl #1
 8083a30:	4140      	adcs	r0, r0
 8083a32:	eb41 0101 	adc.w	r1, r1, r1
 8083a36:	f411 1f80 	tst.w	r1, #1048576	; 0x100000
 8083a3a:	f1a4 0401 	sub.w	r4, r4, #1
 8083a3e:	d1e9      	bne.n	8083a14 <__adddf3+0x10c>
 8083a40:	f091 0f00 	teq	r1, #0
 8083a44:	bf04      	itt	eq
 8083a46:	4601      	moveq	r1, r0
 8083a48:	2000      	moveq	r0, #0
 8083a4a:	fab1 f381 	clz	r3, r1
 8083a4e:	bf08      	it	eq
 8083a50:	3320      	addeq	r3, #32
 8083a52:	f1a3 030b 	sub.w	r3, r3, #11
 8083a56:	f1b3 0220 	subs.w	r2, r3, #32
 8083a5a:	da0c      	bge.n	8083a76 <__adddf3+0x16e>
 8083a5c:	320c      	adds	r2, #12
 8083a5e:	dd08      	ble.n	8083a72 <__adddf3+0x16a>
 8083a60:	f102 0c14 	add.w	ip, r2, #20
 8083a64:	f1c2 020c 	rsb	r2, r2, #12
 8083a68:	fa01 f00c 	lsl.w	r0, r1, ip
 8083a6c:	fa21 f102 	lsr.w	r1, r1, r2
 8083a70:	e00c      	b.n	8083a8c <__adddf3+0x184>
 8083a72:	f102 0214 	add.w	r2, r2, #20
 8083a76:	bfd8      	it	le
 8083a78:	f1c2 0c20 	rsble	ip, r2, #32
 8083a7c:	fa01 f102 	lsl.w	r1, r1, r2
 8083a80:	fa20 fc0c 	lsr.w	ip, r0, ip
 8083a84:	bfdc      	itt	le
 8083a86:	ea41 010c 	orrle.w	r1, r1, ip
 8083a8a:	4090      	lslle	r0, r2
 8083a8c:	1ae4      	subs	r4, r4, r3
 8083a8e:	bfa2      	ittt	ge
 8083a90:	eb01 5104 	addge.w	r1, r1, r4, lsl #20
 8083a94:	4329      	orrge	r1, r5
 8083a96:	bd30      	popge	{r4, r5, pc}
 8083a98:	ea6f 0404 	mvn.w	r4, r4
 8083a9c:	3c1f      	subs	r4, #31
 8083a9e:	da1c      	bge.n	8083ada <__adddf3+0x1d2>
 8083aa0:	340c      	adds	r4, #12
 8083aa2:	dc0e      	bgt.n	8083ac2 <__adddf3+0x1ba>
 8083aa4:	f104 0414 	add.w	r4, r4, #20
 8083aa8:	f1c4 0220 	rsb	r2, r4, #32
 8083aac:	fa20 f004 	lsr.w	r0, r0, r4
 8083ab0:	fa01 f302 	lsl.w	r3, r1, r2
 8083ab4:	ea40 0003 	orr.w	r0, r0, r3
 8083ab8:	fa21 f304 	lsr.w	r3, r1, r4
 8083abc:	ea45 0103 	orr.w	r1, r5, r3
 8083ac0:	bd30      	pop	{r4, r5, pc}
 8083ac2:	f1c4 040c 	rsb	r4, r4, #12
 8083ac6:	f1c4 0220 	rsb	r2, r4, #32
 8083aca:	fa20 f002 	lsr.w	r0, r0, r2
 8083ace:	fa01 f304 	lsl.w	r3, r1, r4
 8083ad2:	ea40 0003 	orr.w	r0, r0, r3
 8083ad6:	4629      	mov	r1, r5
 8083ad8:	bd30      	pop	{r4, r5, pc}
 8083ada:	fa21 f004 	lsr.w	r0, r1, r4
 8083ade:	4629      	mov	r1, r5
 8083ae0:	bd30      	pop	{r4, r5, pc}
 8083ae2:	f094 0f00 	teq	r4, #0
 8083ae6:	f483 1380 	eor.w	r3, r3, #1048576	; 0x100000
 8083aea:	bf06      	itte	eq
 8083aec:	f481 1180 	eoreq.w	r1, r1, #1048576	; 0x100000
 8083af0:	3401      	addeq	r4, #1
 8083af2:	3d01      	subne	r5, #1
 8083af4:	e74e      	b.n	8083994 <__adddf3+0x8c>
 8083af6:	ea7f 5c64 	mvns.w	ip, r4, asr #21
 8083afa:	bf18      	it	ne
 8083afc:	ea7f 5c65 	mvnsne.w	ip, r5, asr #21
 8083b00:	d029      	beq.n	8083b56 <__adddf3+0x24e>
 8083b02:	ea94 0f05 	teq	r4, r5
 8083b06:	bf08      	it	eq
 8083b08:	ea90 0f02 	teqeq	r0, r2
 8083b0c:	d005      	beq.n	8083b1a <__adddf3+0x212>
 8083b0e:	ea54 0c00 	orrs.w	ip, r4, r0
 8083b12:	bf04      	itt	eq
 8083b14:	4619      	moveq	r1, r3
 8083b16:	4610      	moveq	r0, r2
 8083b18:	bd30      	pop	{r4, r5, pc}
 8083b1a:	ea91 0f03 	teq	r1, r3
 8083b1e:	bf1e      	ittt	ne
 8083b20:	2100      	movne	r1, #0
 8083b22:	2000      	movne	r0, #0
 8083b24:	bd30      	popne	{r4, r5, pc}
 8083b26:	ea5f 5c54 	movs.w	ip, r4, lsr #21
 8083b2a:	d105      	bne.n	8083b38 <__adddf3+0x230>
 8083b2c:	0040      	lsls	r0, r0, #1
 8083b2e:	4149      	adcs	r1, r1
 8083b30:	bf28      	it	cs
 8083b32:	f041 4100 	orrcs.w	r1, r1, #2147483648	; 0x80000000
 8083b36:	bd30      	pop	{r4, r5, pc}
 8083b38:	f514 0480 	adds.w	r4, r4, #4194304	; 0x400000
 8083b3c:	bf3c      	itt	cc
 8083b3e:	f501 1180 	addcc.w	r1, r1, #1048576	; 0x100000
 8083b42:	bd30      	popcc	{r4, r5, pc}
 8083b44:	f001 4500 	and.w	r5, r1, #2147483648	; 0x80000000
 8083b48:	f045 41fe 	orr.w	r1, r5, #2130706432	; 0x7f000000
 8083b4c:	f441 0170 	orr.w	r1, r1, #15728640	; 0xf00000
 8083b50:	f04f 0000 	mov.w	r0, #0
 8083b54:	bd30      	pop	{r4, r5, pc}
 8083b56:	ea7f 5c64 	mvns.w	ip, r4, asr #21
 8083b5a:	bf1a      	itte	ne
 8083b5c:	4619      	movne	r1, r3
 8083b5e:	4610      	movne	r0, r2
 8083b60:	ea7f 5c65 	mvnseq.w	ip, r5, asr #21
 8083b64:	bf1c      	itt	ne
 8083b66:	460b      	movne	r3, r1
 8083b68:	4602      	movne	r2, r0
 8083b6a:	ea50 3401 	orrs.w	r4, r0, r1, lsl #12
 8083b6e:	bf06      	itte	eq
 8083b70:	ea52 3503 	orrseq.w	r5, r2, r3, lsl #12
 8083b74:	ea91 0f03 	teqeq	r1, r3
 8083b78:	f441 2100 	orrne.w	r1, r1, #524288	; 0x80000
 8083b7c:	bd30      	pop	{r4, r5, pc}
 8083b7e:	bf00      	nop

08083b80 <__aeabi_ui2d>:
 8083b80:	f090 0f00 	teq	r0, #0
 8083b84:	bf04      	itt	eq
 8083b86:	2100      	moveq	r1, #0
 8083b88:	4770      	bxeq	lr
 8083b8a:	b530      	push	{r4, r5, lr}
 8083b8c:	f44f 6480 	mov.w	r4, #1024	; 0x400
 8083b90:	f104 0432 	add.w	r4, r4, #50	; 0x32
 8083b94:	f04f 0500 	mov.w	r5, #0
 8083b98:	f04f 0100 	mov.w	r1, #0
 8083b9c:	e750      	b.n	8083a40 <__adddf3+0x138>
 8083b9e:	bf00      	nop

08083ba0 <__aeabi_i2d>:
 8083ba0:	f090 0f00 	teq	r0, #0
 8083ba4:	bf04      	itt	eq
 8083ba6:	2100      	moveq	r1, #0
 8083ba8:	4770      	bxeq	lr
 8083baa:	b530      	push	{r4, r5, lr}
 8083bac:	f44f 6480 	mov.w	r4, #1024	; 0x400
 8083bb0:	f104 0432 	add.w	r4, r4, #50	; 0x32
 8083bb4:	f010 4500 	ands.w	r5, r0, #2147483648	; 0x80000000
 8083bb8:	bf48      	it	mi
 8083bba:	4240      	negmi	r0, r0
 8083bbc:	f04f 0100 	mov.w	r1, #0
 8083bc0:	e73e      	b.n	8083a40 <__adddf3+0x138>
 8083bc2:	bf00      	nop

08083bc4 <__aeabi_f2d>:
 8083bc4:	0042      	lsls	r2, r0, #1
 8083bc6:	ea4f 01e2 	mov.w	r1, r2, asr #3
 8083bca:	ea4f 0131 	mov.w	r1, r1, rrx
 8083bce:	ea4f 7002 	mov.w	r0, r2, lsl #28
 8083bd2:	bf1f      	itttt	ne
 8083bd4:	f012 437f 	andsne.w	r3, r2, #4278190080	; 0xff000000
 8083bd8:	f093 4f7f 	teqne	r3, #4278190080	; 0xff000000
 8083bdc:	f081 5160 	eorne.w	r1, r1, #939524096	; 0x38000000
 8083be0:	4770      	bxne	lr
 8083be2:	f092 0f00 	teq	r2, #0
 8083be6:	bf14      	ite	ne
 8083be8:	f093 4f7f 	teqne	r3, #4278190080	; 0xff000000
 8083bec:	4770      	bxeq	lr
 8083bee:	b530      	push	{r4, r5, lr}
 8083bf0:	f44f 7460 	mov.w	r4, #896	; 0x380
 8083bf4:	f001 4500 	and.w	r5, r1, #2147483648	; 0x80000000
 8083bf8:	f021 4100 	bic.w	r1, r1, #2147483648	; 0x80000000
 8083bfc:	e720      	b.n	8083a40 <__adddf3+0x138>
 8083bfe:	bf00      	nop

08083c00 <__aeabi_ul2d>:
 8083c00:	ea50 0201 	orrs.w	r2, r0, r1
 8083c04:	bf08      	it	eq
 8083c06:	4770      	bxeq	lr
 8083c08:	b530      	push	{r4, r5, lr}
 8083c0a:	f04f 0500 	mov.w	r5, #0
 8083c0e:	e00a      	b.n	8083c26 <__aeabi_l2d+0x16>

08083c10 <__aeabi_l2d>:
 8083c10:	ea50 0201 	orrs.w	r2, r0, r1
 8083c14:	bf08      	it	eq
 8083c16:	4770      	bxeq	lr
 8083c18:	b530      	push	{r4, r5, lr}
 8083c1a:	f011 4500 	ands.w	r5, r1, #2147483648	; 0x80000000
 8083c1e:	d502      	bpl.n	8083c26 <__aeabi_l2d+0x16>
 8083c20:	4240      	negs	r0, r0
 8083c22:	eb61 0141 	sbc.w	r1, r1, r1, lsl #1
 8083c26:	f44f 6480 	mov.w	r4, #1024	; 0x400
 8083c2a:	f104 0432 	add.w	r4, r4, #50	; 0x32
 8083c2e:	ea5f 5c91 	movs.w	ip, r1, lsr #22
 8083c32:	f43f aedc 	beq.w	80839ee <__adddf3+0xe6>
 8083c36:	f04f 0203 	mov.w	r2, #3
 8083c3a:	ea5f 0cdc 	movs.w	ip, ip, lsr #3
 8083c3e:	bf18      	it	ne
 8083c40:	3203      	addne	r2, #3
 8083c42:	ea5f 0cdc 	movs.w	ip, ip, lsr #3
 8083c46:	bf18      	it	ne
 8083c48:	3203      	addne	r2, #3
 8083c4a:	eb02 02dc 	add.w	r2, r2, ip, lsr #3
 8083c4e:	f1c2 0320 	rsb	r3, r2, #32
 8083c52:	fa00 fc03 	lsl.w	ip, r0, r3
 8083c56:	fa20 f002 	lsr.w	r0, r0, r2
 8083c5a:	fa01 fe03 	lsl.w	lr, r1, r3
 8083c5e:	ea40 000e 	orr.w	r0, r0, lr
 8083c62:	fa21 f102 	lsr.w	r1, r1, r2
 8083c66:	4414      	add	r4, r2
 8083c68:	e6c1      	b.n	80839ee <__adddf3+0xe6>
 8083c6a:	bf00      	nop

08083c6c <__aeabi_dmul>:
 8083c6c:	b570      	push	{r4, r5, r6, lr}
 8083c6e:	f04f 0cff 	mov.w	ip, #255	; 0xff
 8083c72:	f44c 6ce0 	orr.w	ip, ip, #1792	; 0x700
 8083c76:	ea1c 5411 	ands.w	r4, ip, r1, lsr #20
 8083c7a:	bf1d      	ittte	ne
 8083c7c:	ea1c 5513 	andsne.w	r5, ip, r3, lsr #20
 8083c80:	ea94 0f0c 	teqne	r4, ip
 8083c84:	ea95 0f0c 	teqne	r5, ip
 8083c88:	f000 f8de 	bleq	8083e48 <__aeabi_dmul+0x1dc>
 8083c8c:	442c      	add	r4, r5
 8083c8e:	ea81 0603 	eor.w	r6, r1, r3
 8083c92:	ea21 514c 	bic.w	r1, r1, ip, lsl #21
 8083c96:	ea23 534c 	bic.w	r3, r3, ip, lsl #21
 8083c9a:	ea50 3501 	orrs.w	r5, r0, r1, lsl #12
 8083c9e:	bf18      	it	ne
 8083ca0:	ea52 3503 	orrsne.w	r5, r2, r3, lsl #12
 8083ca4:	f441 1180 	orr.w	r1, r1, #1048576	; 0x100000
 8083ca8:	f443 1380 	orr.w	r3, r3, #1048576	; 0x100000
 8083cac:	d038      	beq.n	8083d20 <__aeabi_dmul+0xb4>
 8083cae:	fba0 ce02 	umull	ip, lr, r0, r2
 8083cb2:	f04f 0500 	mov.w	r5, #0
 8083cb6:	fbe1 e502 	umlal	lr, r5, r1, r2
 8083cba:	f006 4200 	and.w	r2, r6, #2147483648	; 0x80000000
 8083cbe:	fbe0 e503 	umlal	lr, r5, r0, r3
 8083cc2:	f04f 0600 	mov.w	r6, #0
 8083cc6:	fbe1 5603 	umlal	r5, r6, r1, r3
 8083cca:	f09c 0f00 	teq	ip, #0
 8083cce:	bf18      	it	ne
 8083cd0:	f04e 0e01 	orrne.w	lr, lr, #1
 8083cd4:	f1a4 04ff 	sub.w	r4, r4, #255	; 0xff
 8083cd8:	f5b6 7f00 	cmp.w	r6, #512	; 0x200
 8083cdc:	f564 7440 	sbc.w	r4, r4, #768	; 0x300
 8083ce0:	d204      	bcs.n	8083cec <__aeabi_dmul+0x80>
 8083ce2:	ea5f 0e4e 	movs.w	lr, lr, lsl #1
 8083ce6:	416d      	adcs	r5, r5
 8083ce8:	eb46 0606 	adc.w	r6, r6, r6
 8083cec:	ea42 21c6 	orr.w	r1, r2, r6, lsl #11
 8083cf0:	ea41 5155 	orr.w	r1, r1, r5, lsr #21
 8083cf4:	ea4f 20c5 	mov.w	r0, r5, lsl #11
 8083cf8:	ea40 505e 	orr.w	r0, r0, lr, lsr #21
 8083cfc:	ea4f 2ece 	mov.w	lr, lr, lsl #11
 8083d00:	f1b4 0cfd 	subs.w	ip, r4, #253	; 0xfd
 8083d04:	bf88      	it	hi
 8083d06:	f5bc 6fe0 	cmphi.w	ip, #1792	; 0x700
 8083d0a:	d81e      	bhi.n	8083d4a <__aeabi_dmul+0xde>
 8083d0c:	f1be 4f00 	cmp.w	lr, #2147483648	; 0x80000000
 8083d10:	bf08      	it	eq
 8083d12:	ea5f 0e50 	movseq.w	lr, r0, lsr #1
 8083d16:	f150 0000 	adcs.w	r0, r0, #0
 8083d1a:	eb41 5104 	adc.w	r1, r1, r4, lsl #20
 8083d1e:	bd70      	pop	{r4, r5, r6, pc}
 8083d20:	f006 4600 	and.w	r6, r6, #2147483648	; 0x80000000
 8083d24:	ea46 0101 	orr.w	r1, r6, r1
 8083d28:	ea40 0002 	orr.w	r0, r0, r2
 8083d2c:	ea81 0103 	eor.w	r1, r1, r3
 8083d30:	ebb4 045c 	subs.w	r4, r4, ip, lsr #1
 8083d34:	bfc2      	ittt	gt
 8083d36:	ebd4 050c 	rsbsgt	r5, r4, ip
 8083d3a:	ea41 5104 	orrgt.w	r1, r1, r4, lsl #20
 8083d3e:	bd70      	popgt	{r4, r5, r6, pc}
 8083d40:	f441 1180 	orr.w	r1, r1, #1048576	; 0x100000
 8083d44:	f04f 0e00 	mov.w	lr, #0
 8083d48:	3c01      	subs	r4, #1
 8083d4a:	f300 80ab 	bgt.w	8083ea4 <__aeabi_dmul+0x238>
 8083d4e:	f114 0f36 	cmn.w	r4, #54	; 0x36
 8083d52:	bfde      	ittt	le
 8083d54:	2000      	movle	r0, #0
 8083d56:	f001 4100 	andle.w	r1, r1, #2147483648	; 0x80000000
 8083d5a:	bd70      	pople	{r4, r5, r6, pc}
 8083d5c:	f1c4 0400 	rsb	r4, r4, #0
 8083d60:	3c20      	subs	r4, #32
 8083d62:	da35      	bge.n	8083dd0 <__aeabi_dmul+0x164>
 8083d64:	340c      	adds	r4, #12
 8083d66:	dc1b      	bgt.n	8083da0 <__aeabi_dmul+0x134>
 8083d68:	f104 0414 	add.w	r4, r4, #20
 8083d6c:	f1c4 0520 	rsb	r5, r4, #32
 8083d70:	fa00 f305 	lsl.w	r3, r0, r5
 8083d74:	fa20 f004 	lsr.w	r0, r0, r4
 8083d78:	fa01 f205 	lsl.w	r2, r1, r5
 8083d7c:	ea40 0002 	orr.w	r0, r0, r2
 8083d80:	f001 4200 	and.w	r2, r1, #2147483648	; 0x80000000
 8083d84:	f021 4100 	bic.w	r1, r1, #2147483648	; 0x80000000
 8083d88:	eb10 70d3 	adds.w	r0, r0, r3, lsr #31
 8083d8c:	fa21 f604 	lsr.w	r6, r1, r4
 8083d90:	eb42 0106 	adc.w	r1, r2, r6
 8083d94:	ea5e 0e43 	orrs.w	lr, lr, r3, lsl #1
 8083d98:	bf08      	it	eq
 8083d9a:	ea20 70d3 	biceq.w	r0, r0, r3, lsr #31
 8083d9e:	bd70      	pop	{r4, r5, r6, pc}
 8083da0:	f1c4 040c 	rsb	r4, r4, #12
 8083da4:	f1c4 0520 	rsb	r5, r4, #32
 8083da8:	fa00 f304 	lsl.w	r3, r0, r4
 8083dac:	fa20 f005 	lsr.w	r0, r0, r5
 8083db0:	fa01 f204 	lsl.w	r2, r1, r4
 8083db4:	ea40 0002 	orr.w	r0, r0, r2
 8083db8:	f001 4100 	and.w	r1, r1, #2147483648	; 0x80000000
 8083dbc:	eb10 70d3 	adds.w	r0, r0, r3, lsr #31
 8083dc0:	f141 0100 	adc.w	r1, r1, #0
 8083dc4:	ea5e 0e43 	orrs.w	lr, lr, r3, lsl #1
 8083dc8:	bf08      	it	eq
 8083dca:	ea20 70d3 	biceq.w	r0, r0, r3, lsr #31
 8083dce:	bd70      	pop	{r4, r5, r6, pc}
 8083dd0:	f1c4 0520 	rsb	r5, r4, #32
 8083dd4:	fa00 f205 	lsl.w	r2, r0, r5
 8083dd8:	ea4e 0e02 	orr.w	lr, lr, r2
 8083ddc:	fa20 f304 	lsr.w	r3, r0, r4
 8083de0:	fa01 f205 	lsl.w	r2, r1, r5
 8083de4:	ea43 0302 	orr.w	r3, r3, r2
 8083de8:	fa21 f004 	lsr.w	r0, r1, r4
 8083dec:	f001 4100 	and.w	r1, r1, #2147483648	; 0x80000000
 8083df0:	fa21 f204 	lsr.w	r2, r1, r4
 8083df4:	ea20 0002 	bic.w	r0, r0, r2
 8083df8:	eb00 70d3 	add.w	r0, r0, r3, lsr #31
 8083dfc:	ea5e 0e43 	orrs.w	lr, lr, r3, lsl #1
 8083e00:	bf08      	it	eq
 8083e02:	ea20 70d3 	biceq.w	r0, r0, r3, lsr #31
 8083e06:	bd70      	pop	{r4, r5, r6, pc}
 8083e08:	f094 0f00 	teq	r4, #0
 8083e0c:	d10f      	bne.n	8083e2e <__aeabi_dmul+0x1c2>
 8083e0e:	f001 4600 	and.w	r6, r1, #2147483648	; 0x80000000
 8083e12:	0040      	lsls	r0, r0, #1
 8083e14:	eb41 0101 	adc.w	r1, r1, r1
 8083e18:	f411 1f80 	tst.w	r1, #1048576	; 0x100000
 8083e1c:	bf08      	it	eq
 8083e1e:	3c01      	subeq	r4, #1
 8083e20:	d0f7      	beq.n	8083e12 <__aeabi_dmul+0x1a6>
 8083e22:	ea41 0106 	orr.w	r1, r1, r6
 8083e26:	f095 0f00 	teq	r5, #0
 8083e2a:	bf18      	it	ne
 8083e2c:	4770      	bxne	lr
 8083e2e:	f003 4600 	and.w	r6, r3, #2147483648	; 0x80000000
 8083e32:	0052      	lsls	r2, r2, #1
 8083e34:	eb43 0303 	adc.w	r3, r3, r3
 8083e38:	f413 1f80 	tst.w	r3, #1048576	; 0x100000
 8083e3c:	bf08      	it	eq
 8083e3e:	3d01      	subeq	r5, #1
 8083e40:	d0f7      	beq.n	8083e32 <__aeabi_dmul+0x1c6>
 8083e42:	ea43 0306 	orr.w	r3, r3, r6
 8083e46:	4770      	bx	lr
 8083e48:	ea94 0f0c 	teq	r4, ip
 8083e4c:	ea0c 5513 	and.w	r5, ip, r3, lsr #20
 8083e50:	bf18      	it	ne
 8083e52:	ea95 0f0c 	teqne	r5, ip
 8083e56:	d00c      	beq.n	8083e72 <__aeabi_dmul+0x206>
 8083e58:	ea50 0641 	orrs.w	r6, r0, r1, lsl #1
 8083e5c:	bf18      	it	ne
 8083e5e:	ea52 0643 	orrsne.w	r6, r2, r3, lsl #1
 8083e62:	d1d1      	bne.n	8083e08 <__aeabi_dmul+0x19c>
 8083e64:	ea81 0103 	eor.w	r1, r1, r3
 8083e68:	f001 4100 	and.w	r1, r1, #2147483648	; 0x80000000
 8083e6c:	f04f 0000 	mov.w	r0, #0
 8083e70:	bd70      	pop	{r4, r5, r6, pc}
 8083e72:	ea50 0641 	orrs.w	r6, r0, r1, lsl #1
 8083e76:	bf06      	itte	eq
 8083e78:	4610      	moveq	r0, r2
 8083e7a:	4619      	moveq	r1, r3
 8083e7c:	ea52 0643 	orrsne.w	r6, r2, r3, lsl #1
 8083e80:	d019      	beq.n	8083eb6 <__aeabi_dmul+0x24a>
 8083e82:	ea94 0f0c 	teq	r4, ip
 8083e86:	d102      	bne.n	8083e8e <__aeabi_dmul+0x222>
 8083e88:	ea50 3601 	orrs.w	r6, r0, r1, lsl #12
 8083e8c:	d113      	bne.n	8083eb6 <__aeabi_dmul+0x24a>
 8083e8e:	ea95 0f0c 	teq	r5, ip
 8083e92:	d105      	bne.n	8083ea0 <__aeabi_dmul+0x234>
 8083e94:	ea52 3603 	orrs.w	r6, r2, r3, lsl #12
 8083e98:	bf1c      	itt	ne
 8083e9a:	4610      	movne	r0, r2
 8083e9c:	4619      	movne	r1, r3
 8083e9e:	d10a      	bne.n	8083eb6 <__aeabi_dmul+0x24a>
 8083ea0:	ea81 0103 	eor.w	r1, r1, r3
 8083ea4:	f001 4100 	and.w	r1, r1, #2147483648	; 0x80000000
 8083ea8:	f041 41fe 	orr.w	r1, r1, #2130706432	; 0x7f000000
 8083eac:	f441 0170 	orr.w	r1, r1, #15728640	; 0xf00000
 8083eb0:	f04f 0000 	mov.w	r0, #0
 8083eb4:	bd70      	pop	{r4, r5, r6, pc}
 8083eb6:	f041 41fe 	orr.w	r1, r1, #2130706432	; 0x7f000000
 8083eba:	f441 0178 	orr.w	r1, r1, #16252928	; 0xf80000
 8083ebe:	bd70      	pop	{r4, r5, r6, pc}

08083ec0 <__aeabi_ddiv>:
 8083ec0:	b570      	push	{r4, r5, r6, lr}
 8083ec2:	f04f 0cff 	mov.w	ip, #255	; 0xff
 8083ec6:	f44c 6ce0 	orr.w	ip, ip, #1792	; 0x700
 8083eca:	ea1c 5411 	ands.w	r4, ip, r1, lsr #20
 8083ece:	bf1d      	ittte	ne
 8083ed0:	ea1c 5513 	andsne.w	r5, ip, r3, lsr #20
 8083ed4:	ea94 0f0c 	teqne	r4, ip
 8083ed8:	ea95 0f0c 	teqne	r5, ip
 8083edc:	f000 f8a7 	bleq	808402e <__aeabi_ddiv+0x16e>
 8083ee0:	eba4 0405 	sub.w	r4, r4, r5
 8083ee4:	ea81 0e03 	eor.w	lr, r1, r3
 8083ee8:	ea52 3503 	orrs.w	r5, r2, r3, lsl #12
 8083eec:	ea4f 3101 	mov.w	r1, r1, lsl #12
 8083ef0:	f000 8088 	beq.w	8084004 <__aeabi_ddiv+0x144>
 8083ef4:	ea4f 3303 	mov.w	r3, r3, lsl #12
 8083ef8:	f04f 5580 	mov.w	r5, #268435456	; 0x10000000
 8083efc:	ea45 1313 	orr.w	r3, r5, r3, lsr #4
 8083f00:	ea43 6312 	orr.w	r3, r3, r2, lsr #24
 8083f04:	ea4f 2202 	mov.w	r2, r2, lsl #8
 8083f08:	ea45 1511 	orr.w	r5, r5, r1, lsr #4
 8083f0c:	ea45 6510 	orr.w	r5, r5, r0, lsr #24
 8083f10:	ea4f 2600 	mov.w	r6, r0, lsl #8
 8083f14:	f00e 4100 	and.w	r1, lr, #2147483648	; 0x80000000
 8083f18:	429d      	cmp	r5, r3
 8083f1a:	bf08      	it	eq
 8083f1c:	4296      	cmpeq	r6, r2
 8083f1e:	f144 04fd 	adc.w	r4, r4, #253	; 0xfd
 8083f22:	f504 7440 	add.w	r4, r4, #768	; 0x300
 8083f26:	d202      	bcs.n	8083f2e <__aeabi_ddiv+0x6e>
 8083f28:	085b      	lsrs	r3, r3, #1
 8083f2a:	ea4f 0232 	mov.w	r2, r2, rrx
 8083f2e:	1ab6      	subs	r6, r6, r2
 8083f30:	eb65 0503 	sbc.w	r5, r5, r3
 8083f34:	085b      	lsrs	r3, r3, #1
 8083f36:	ea4f 0232 	mov.w	r2, r2, rrx
 8083f3a:	f44f 1080 	mov.w	r0, #1048576	; 0x100000
 8083f3e:	f44f 2c00 	mov.w	ip, #524288	; 0x80000
 8083f42:	ebb6 0e02 	subs.w	lr, r6, r2
 8083f46:	eb75 0e03 	sbcs.w	lr, r5, r3
 8083f4a:	bf22      	ittt	cs
 8083f4c:	1ab6      	subcs	r6, r6, r2
 8083f4e:	4675      	movcs	r5, lr
 8083f50:	ea40 000c 	orrcs.w	r0, r0, ip
 8083f54:	085b      	lsrs	r3, r3, #1
 8083f56:	ea4f 0232 	mov.w	r2, r2, rrx
 8083f5a:	ebb6 0e02 	subs.w	lr, r6, r2
 8083f5e:	eb75 0e03 	sbcs.w	lr, r5, r3
 8083f62:	bf22      	ittt	cs
 8083f64:	1ab6      	subcs	r6, r6, r2
 8083f66:	4675      	movcs	r5, lr
 8083f68:	ea40 005c 	orrcs.w	r0, r0, ip, lsr #1
 8083f6c:	085b      	lsrs	r3, r3, #1
 8083f6e:	ea4f 0232 	mov.w	r2, r2, rrx
 8083f72:	ebb6 0e02 	subs.w	lr, r6, r2
 8083f76:	eb75 0e03 	sbcs.w	lr, r5, r3
 8083f7a:	bf22      	ittt	cs
 8083f7c:	1ab6      	subcs	r6, r6, r2
 8083f7e:	4675      	movcs	r5, lr
 8083f80:	ea40 009c 	orrcs.w	r0, r0, ip, lsr #2
 8083f84:	085b      	lsrs	r3, r3, #1
 8083f86:	ea4f 0232 	mov.w	r2, r2, rrx
 8083f8a:	ebb6 0e02 	subs.w	lr, r6, r2
 8083f8e:	eb75 0e03 	sbcs.w	lr, r5, r3
 8083f92:	bf22      	ittt	cs
 8083f94:	1ab6      	subcs	r6, r6, r2
 8083f96:	4675      	movcs	r5, lr
 8083f98:	ea40 00dc 	orrcs.w	r0, r0, ip, lsr #3
 8083f9c:	ea55 0e06 	orrs.w	lr, r5, r6
 8083fa0:	d018      	beq.n	8083fd4 <__aeabi_ddiv+0x114>
 8083fa2:	ea4f 1505 	mov.w	r5, r5, lsl #4
 8083fa6:	ea45 7516 	orr.w	r5, r5, r6, lsr #28
 8083faa:	ea4f 1606 	mov.w	r6, r6, lsl #4
 8083fae:	ea4f 03c3 	mov.w	r3, r3, lsl #3
 8083fb2:	ea43 7352 	orr.w	r3, r3, r2, lsr #29
 8083fb6:	ea4f 02c2 	mov.w	r2, r2, lsl #3
 8083fba:	ea5f 1c1c 	movs.w	ip, ip, lsr #4
 8083fbe:	d1c0      	bne.n	8083f42 <__aeabi_ddiv+0x82>
 8083fc0:	f411 1f80 	tst.w	r1, #1048576	; 0x100000
 8083fc4:	d10b      	bne.n	8083fde <__aeabi_ddiv+0x11e>
 8083fc6:	ea41 0100 	orr.w	r1, r1, r0
 8083fca:	f04f 0000 	mov.w	r0, #0
 8083fce:	f04f 4c00 	mov.w	ip, #2147483648	; 0x80000000
 8083fd2:	e7b6      	b.n	8083f42 <__aeabi_ddiv+0x82>
 8083fd4:	f411 1f80 	tst.w	r1, #1048576	; 0x100000
 8083fd8:	bf04      	itt	eq
 8083fda:	4301      	orreq	r1, r0
 8083fdc:	2000      	moveq	r0, #0
 8083fde:	f1b4 0cfd 	subs.w	ip, r4, #253	; 0xfd
 8083fe2:	bf88      	it	hi
 8083fe4:	f5bc 6fe0 	cmphi.w	ip, #1792	; 0x700
 8083fe8:	f63f aeaf 	bhi.w	8083d4a <__aeabi_dmul+0xde>
 8083fec:	ebb5 0c03 	subs.w	ip, r5, r3
 8083ff0:	bf04      	itt	eq
 8083ff2:	ebb6 0c02 	subseq.w	ip, r6, r2
 8083ff6:	ea5f 0c50 	movseq.w	ip, r0, lsr #1
 8083ffa:	f150 0000 	adcs.w	r0, r0, #0
 8083ffe:	eb41 5104 	adc.w	r1, r1, r4, lsl #20
 8084002:	bd70      	pop	{r4, r5, r6, pc}
 8084004:	f00e 4e00 	and.w	lr, lr, #2147483648	; 0x80000000
 8084008:	ea4e 3111 	orr.w	r1, lr, r1, lsr #12
 808400c:	eb14 045c 	adds.w	r4, r4, ip, lsr #1
 8084010:	bfc2      	ittt	gt
 8084012:	ebd4 050c 	rsbsgt	r5, r4, ip
 8084016:	ea41 5104 	orrgt.w	r1, r1, r4, lsl #20
 808401a:	bd70      	popgt	{r4, r5, r6, pc}
 808401c:	f441 1180 	orr.w	r1, r1, #1048576	; 0x100000
 8084020:	f04f 0e00 	mov.w	lr, #0
 8084024:	3c01      	subs	r4, #1
 8084026:	e690      	b.n	8083d4a <__aeabi_dmul+0xde>
 8084028:	ea45 0e06 	orr.w	lr, r5, r6
 808402c:	e68d      	b.n	8083d4a <__aeabi_dmul+0xde>
 808402e:	ea0c 5513 	and.w	r5, ip, r3, lsr #20
 8084032:	ea94 0f0c 	teq	r4, ip
 8084036:	bf08      	it	eq
 8084038:	ea95 0f0c 	teqeq	r5, ip
 808403c:	f43f af3b 	beq.w	8083eb6 <__aeabi_dmul+0x24a>
 8084040:	ea94 0f0c 	teq	r4, ip
 8084044:	d10a      	bne.n	808405c <__aeabi_ddiv+0x19c>
 8084046:	ea50 3401 	orrs.w	r4, r0, r1, lsl #12
 808404a:	f47f af34 	bne.w	8083eb6 <__aeabi_dmul+0x24a>
 808404e:	ea95 0f0c 	teq	r5, ip
 8084052:	f47f af25 	bne.w	8083ea0 <__aeabi_dmul+0x234>
 8084056:	4610      	mov	r0, r2
 8084058:	4619      	mov	r1, r3
 808405a:	e72c      	b.n	8083eb6 <__aeabi_dmul+0x24a>
 808405c:	ea95 0f0c 	teq	r5, ip
 8084060:	d106      	bne.n	8084070 <__aeabi_ddiv+0x1b0>
 8084062:	ea52 3503 	orrs.w	r5, r2, r3, lsl #12
 8084066:	f43f aefd 	beq.w	8083e64 <__aeabi_dmul+0x1f8>
 808406a:	4610      	mov	r0, r2
 808406c:	4619      	mov	r1, r3
 808406e:	e722      	b.n	8083eb6 <__aeabi_dmul+0x24a>
 8084070:	ea50 0641 	orrs.w	r6, r0, r1, lsl #1
 8084074:	bf18      	it	ne
 8084076:	ea52 0643 	orrsne.w	r6, r2, r3, lsl #1
 808407a:	f47f aec5 	bne.w	8083e08 <__aeabi_dmul+0x19c>
 808407e:	ea50 0441 	orrs.w	r4, r0, r1, lsl #1
 8084082:	f47f af0d 	bne.w	8083ea0 <__aeabi_dmul+0x234>
 8084086:	ea52 0543 	orrs.w	r5, r2, r3, lsl #1
 808408a:	f47f aeeb 	bne.w	8083e64 <__aeabi_dmul+0x1f8>
 808408e:	e712      	b.n	8083eb6 <__aeabi_dmul+0x24a>

08084090 <__gedf2>:
 8084090:	f04f 3cff 	mov.w	ip, #4294967295
 8084094:	e006      	b.n	80840a4 <__cmpdf2+0x4>
 8084096:	bf00      	nop

08084098 <__ledf2>:
 8084098:	f04f 0c01 	mov.w	ip, #1
 808409c:	e002      	b.n	80840a4 <__cmpdf2+0x4>
 808409e:	bf00      	nop

080840a0 <__cmpdf2>:
 80840a0:	f04f 0c01 	mov.w	ip, #1
 80840a4:	f84d cd04 	str.w	ip, [sp, #-4]!
 80840a8:	ea4f 0c41 	mov.w	ip, r1, lsl #1
 80840ac:	ea7f 5c6c 	mvns.w	ip, ip, asr #21
 80840b0:	ea4f 0c43 	mov.w	ip, r3, lsl #1
 80840b4:	bf18      	it	ne
 80840b6:	ea7f 5c6c 	mvnsne.w	ip, ip, asr #21
 80840ba:	d01b      	beq.n	80840f4 <__cmpdf2+0x54>
 80840bc:	b001      	add	sp, #4
 80840be:	ea50 0c41 	orrs.w	ip, r0, r1, lsl #1
 80840c2:	bf0c      	ite	eq
 80840c4:	ea52 0c43 	orrseq.w	ip, r2, r3, lsl #1
 80840c8:	ea91 0f03 	teqne	r1, r3
 80840cc:	bf02      	ittt	eq
 80840ce:	ea90 0f02 	teqeq	r0, r2
 80840d2:	2000      	moveq	r0, #0
 80840d4:	4770      	bxeq	lr
 80840d6:	f110 0f00 	cmn.w	r0, #0
 80840da:	ea91 0f03 	teq	r1, r3
 80840de:	bf58      	it	pl
 80840e0:	4299      	cmppl	r1, r3
 80840e2:	bf08      	it	eq
 80840e4:	4290      	cmpeq	r0, r2
 80840e6:	bf2c      	ite	cs
 80840e8:	17d8      	asrcs	r0, r3, #31
 80840ea:	ea6f 70e3 	mvncc.w	r0, r3, asr #31
 80840ee:	f040 0001 	orr.w	r0, r0, #1
 80840f2:	4770      	bx	lr
 80840f4:	ea4f 0c41 	mov.w	ip, r1, lsl #1
 80840f8:	ea7f 5c6c 	mvns.w	ip, ip, asr #21
 80840fc:	d102      	bne.n	8084104 <__cmpdf2+0x64>
 80840fe:	ea50 3c01 	orrs.w	ip, r0, r1, lsl #12
 8084102:	d107      	bne.n	8084114 <__cmpdf2+0x74>
 8084104:	ea4f 0c43 	mov.w	ip, r3, lsl #1
 8084108:	ea7f 5c6c 	mvns.w	ip, ip, asr #21
 808410c:	d1d6      	bne.n	80840bc <__cmpdf2+0x1c>
 808410e:	ea52 3c03 	orrs.w	ip, r2, r3, lsl #12
 8084112:	d0d3      	beq.n	80840bc <__cmpdf2+0x1c>
 8084114:	f85d 0b04 	ldr.w	r0, [sp], #4
 8084118:	4770      	bx	lr
 808411a:	bf00      	nop

0808411c <__aeabi_cdrcmple>:
 808411c:	4684      	mov	ip, r0
 808411e:	4610      	mov	r0, r2
 8084120:	4662      	mov	r2, ip
 8084122:	468c      	mov	ip, r1
 8084124:	4619      	mov	r1, r3
 8084126:	4663      	mov	r3, ip
 8084128:	e000      	b.n	808412c <__aeabi_cdcmpeq>
 808412a:	bf00      	nop

0808412c <__aeabi_cdcmpeq>:
 808412c:	b501      	push	{r0, lr}
 808412e:	f7ff ffb7 	bl	80840a0 <__cmpdf2>
 8084132:	2800      	cmp	r0, #0
 8084134:	bf48      	it	mi
 8084136:	f110 0f00 	cmnmi.w	r0, #0
 808413a:	bd01      	pop	{r0, pc}

0808413c <__aeabi_dcmpeq>:
 808413c:	f84d ed08 	str.w	lr, [sp, #-8]!
 8084140:	f7ff fff4 	bl	808412c <__aeabi_cdcmpeq>
 8084144:	bf0c      	ite	eq
 8084146:	2001      	moveq	r0, #1
 8084148:	2000      	movne	r0, #0
 808414a:	f85d fb08 	ldr.w	pc, [sp], #8
 808414e:	bf00      	nop

08084150 <__aeabi_dcmplt>:
 8084150:	f84d ed08 	str.w	lr, [sp, #-8]!
 8084154:	f7ff ffea 	bl	808412c <__aeabi_cdcmpeq>
 8084158:	bf34      	ite	cc
 808415a:	2001      	movcc	r0, #1
 808415c:	2000      	movcs	r0, #0
 808415e:	f85d fb08 	ldr.w	pc, [sp], #8
 8084162:	bf00      	nop

08084164 <__aeabi_dcmple>:
 8084164:	f84d ed08 	str.w	lr, [sp, #-8]!
 8084168:	f7ff ffe0 	bl	808412c <__aeabi_cdcmpeq>
 808416c:	bf94      	ite	ls
 808416e:	2001      	movls	r0, #1
 8084170:	2000      	movhi	r0, #0
 8084172:	f85d fb08 	ldr.w	pc, [sp], #8
 8084176:	bf00      	nop

08084178 <__aeabi_dcmpge>:
 8084178:	f84d ed08 	str.w	lr, [sp, #-8]!
 808417c:	f7ff ffce 	bl	808411c <__aeabi_cdrcmple>
 8084180:	bf94      	ite	ls
 8084182:	2001      	movls	r0, #1
 8084184:	2000      	movhi	r0, #0
 8084186:	f85d fb08 	ldr.w	pc, [sp], #8
 808418a:	bf00      	nop

0808418c <__aeabi_dcmpgt>:
 808418c:	f84d ed08 	str.w	lr, [sp, #-8]!
 8084190:	f7ff ffc4 	bl	808411c <__aeabi_cdrcmple>
 8084194:	bf34      	ite	cc
 8084196:	2001      	movcc	r0, #1
 8084198:	2000      	movcs	r0, #0
 808419a:	f85d fb08 	ldr.w	pc, [sp], #8
 808419e:	bf00      	nop

080841a0 <__aeabi_dcmpun>:
 80841a0:	ea4f 0c41 	mov.w	ip, r1, lsl #1
 80841a4:	ea7f 5c6c 	mvns.w	ip, ip, asr #21
 80841a8:	d102      	bne.n	80841b0 <__aeabi_dcmpun+0x10>
 80841aa:	ea50 3c01 	orrs.w	ip, r0, r1, lsl #12
 80841ae:	d10a      	bne.n	80841c6 <__aeabi_dcmpun+0x26>
 80841b0:	ea4f 0c43 	mov.w	ip, r3, lsl #1
 80841b4:	ea7f 5c6c 	mvns.w	ip, ip, asr #21
 80841b8:	d102      	bne.n	80841c0 <__aeabi_dcmpun+0x20>
 80841ba:	ea52 3c03 	orrs.w	ip, r2, r3, lsl #12
 80841be:	d102      	bne.n	80841c6 <__aeabi_dcmpun+0x26>
 80841c0:	f04f 0000 	mov.w	r0, #0
 80841c4:	4770      	bx	lr
 80841c6:	f04f 0001 	mov.w	r0, #1
 80841ca:	4770      	bx	lr

080841cc <__aeabi_d2iz>:
 80841cc:	ea4f 0241 	mov.w	r2, r1, lsl #1
 80841d0:	f512 1200 	adds.w	r2, r2, #2097152	; 0x200000
 80841d4:	d215      	bcs.n	8084202 <__aeabi_d2iz+0x36>
 80841d6:	d511      	bpl.n	80841fc <__aeabi_d2iz+0x30>
 80841d8:	f46f 7378 	mvn.w	r3, #992	; 0x3e0
 80841dc:	ebb3 5262 	subs.w	r2, r3, r2, asr #21
 80841e0:	d912      	bls.n	8084208 <__aeabi_d2iz+0x3c>
 80841e2:	ea4f 23c1 	mov.w	r3, r1, lsl #11
 80841e6:	f043 4300 	orr.w	r3, r3, #2147483648	; 0x80000000
 80841ea:	ea43 5350 	orr.w	r3, r3, r0, lsr #21
 80841ee:	f011 4f00 	tst.w	r1, #2147483648	; 0x80000000
 80841f2:	fa23 f002 	lsr.w	r0, r3, r2
 80841f6:	bf18      	it	ne
 80841f8:	4240      	negne	r0, r0
 80841fa:	4770      	bx	lr
 80841fc:	f04f 0000 	mov.w	r0, #0
 8084200:	4770      	bx	lr
 8084202:	ea50 3001 	orrs.w	r0, r0, r1, lsl #12
 8084206:	d105      	bne.n	8084214 <__aeabi_d2iz+0x48>
 8084208:	f011 4000 	ands.w	r0, r1, #2147483648	; 0x80000000
 808420c:	bf08      	it	eq
 808420e:	f06f 4000 	mvneq.w	r0, #2147483648	; 0x80000000
 8084212:	4770      	bx	lr
 8084214:	f04f 0000 	mov.w	r0, #0
 8084218:	4770      	bx	lr
 808421a:	bf00      	nop

0808421c <__aeabi_d2uiz>:
 808421c:	004a      	lsls	r2, r1, #1
 808421e:	d211      	bcs.n	8084244 <__aeabi_d2uiz+0x28>
 8084220:	f512 1200 	adds.w	r2, r2, #2097152	; 0x200000
 8084224:	d211      	bcs.n	808424a <__aeabi_d2uiz+0x2e>
 8084226:	d50d      	bpl.n	8084244 <__aeabi_d2uiz+0x28>
 8084228:	f46f 7378 	mvn.w	r3, #992	; 0x3e0
 808422c:	ebb3 5262 	subs.w	r2, r3, r2, asr #21
 8084230:	d40e      	bmi.n	8084250 <__aeabi_d2uiz+0x34>
 8084232:	ea4f 23c1 	mov.w	r3, r1, lsl #11
 8084236:	f043 4300 	orr.w	r3, r3, #2147483648	; 0x80000000
 808423a:	ea43 5350 	orr.w	r3, r3, r0, lsr #21
 808423e:	fa23 f002 	lsr.w	r0, r3, r2
 8084242:	4770      	bx	lr
 8084244:	f04f 0000 	mov.w	r0, #0
 8084248:	4770      	bx	lr
 808424a:	ea50 3001 	orrs.w	r0, r0, r1, lsl #12
 808424e:	d102      	bne.n	8084256 <__aeabi_d2uiz+0x3a>
 8084250:	f04f 30ff 	mov.w	r0, #4294967295
 8084254:	4770      	bx	lr
 8084256:	f04f 0000 	mov.w	r0, #0
 808425a:	4770      	bx	lr

0808425c <__aeabi_d2f>:
 808425c:	ea4f 0241 	mov.w	r2, r1, lsl #1
 8084260:	f1b2 43e0 	subs.w	r3, r2, #1879048192	; 0x70000000
 8084264:	bf24      	itt	cs
 8084266:	f5b3 1c00 	subscs.w	ip, r3, #2097152	; 0x200000
 808426a:	f1dc 5cfe 	rsbscs	ip, ip, #532676608	; 0x1fc00000
 808426e:	d90d      	bls.n	808428c <__aeabi_d2f+0x30>
 8084270:	f001 4c00 	and.w	ip, r1, #2147483648	; 0x80000000
 8084274:	ea4f 02c0 	mov.w	r2, r0, lsl #3
 8084278:	ea4c 7050 	orr.w	r0, ip, r0, lsr #29
 808427c:	f1b2 4f00 	cmp.w	r2, #2147483648	; 0x80000000
 8084280:	eb40 0083 	adc.w	r0, r0, r3, lsl #2
 8084284:	bf08      	it	eq
 8084286:	f020 0001 	biceq.w	r0, r0, #1
 808428a:	4770      	bx	lr
 808428c:	f011 4f80 	tst.w	r1, #1073741824	; 0x40000000
 8084290:	d121      	bne.n	80842d6 <__aeabi_d2f+0x7a>
 8084292:	f113 7238 	adds.w	r2, r3, #48234496	; 0x2e00000
 8084296:	bfbc      	itt	lt
 8084298:	f001 4000 	andlt.w	r0, r1, #2147483648	; 0x80000000
 808429c:	4770      	bxlt	lr
 808429e:	f441 1180 	orr.w	r1, r1, #1048576	; 0x100000
 80842a2:	ea4f 5252 	mov.w	r2, r2, lsr #21
 80842a6:	f1c2 0218 	rsb	r2, r2, #24
 80842aa:	f1c2 0c20 	rsb	ip, r2, #32
 80842ae:	fa10 f30c 	lsls.w	r3, r0, ip
 80842b2:	fa20 f002 	lsr.w	r0, r0, r2
 80842b6:	bf18      	it	ne
 80842b8:	f040 0001 	orrne.w	r0, r0, #1
 80842bc:	ea4f 23c1 	mov.w	r3, r1, lsl #11
 80842c0:	ea4f 23d3 	mov.w	r3, r3, lsr #11
 80842c4:	fa03 fc0c 	lsl.w	ip, r3, ip
 80842c8:	ea40 000c 	orr.w	r0, r0, ip
 80842cc:	fa23 f302 	lsr.w	r3, r3, r2
 80842d0:	ea4f 0343 	mov.w	r3, r3, lsl #1
 80842d4:	e7cc      	b.n	8084270 <__aeabi_d2f+0x14>
 80842d6:	ea7f 5362 	mvns.w	r3, r2, asr #21
 80842da:	d107      	bne.n	80842ec <__aeabi_d2f+0x90>
 80842dc:	ea50 3301 	orrs.w	r3, r0, r1, lsl #12
 80842e0:	bf1e      	ittt	ne
 80842e2:	f04f 40fe 	movne.w	r0, #2130706432	; 0x7f000000
 80842e6:	f440 0040 	orrne.w	r0, r0, #12582912	; 0xc00000
 80842ea:	4770      	bxne	lr
 80842ec:	f001 4000 	and.w	r0, r1, #2147483648	; 0x80000000
 80842f0:	f040 40fe 	orr.w	r0, r0, #2130706432	; 0x7f000000
 80842f4:	f440 0000 	orr.w	r0, r0, #8388608	; 0x800000
 80842f8:	4770      	bx	lr
 80842fa:	bf00      	nop

080842fc <asctime>:
 80842fc:	4b09      	ldr	r3, [pc, #36]	; (8084324 <asctime+0x28>)
 80842fe:	b570      	push	{r4, r5, r6, lr}
 8084300:	681c      	ldr	r4, [r3, #0]
 8084302:	4606      	mov	r6, r0
 8084304:	6c25      	ldr	r5, [r4, #64]	; 0x40
 8084306:	b93d      	cbnz	r5, 8084318 <asctime+0x1c>
 8084308:	201a      	movs	r0, #26
 808430a:	f7fd fe0f 	bl	8081f2c <malloc>
 808430e:	221a      	movs	r2, #26
 8084310:	6420      	str	r0, [r4, #64]	; 0x40
 8084312:	4629      	mov	r1, r5
 8084314:	f000 f947 	bl	80845a6 <memset>
 8084318:	6c21      	ldr	r1, [r4, #64]	; 0x40
 808431a:	4630      	mov	r0, r6
 808431c:	e8bd 4070 	ldmia.w	sp!, {r4, r5, r6, lr}
 8084320:	f000 b802 	b.w	8084328 <asctime_r>
 8084324:	20000078 	.word	0x20000078

08084328 <asctime_r>:
 8084328:	b510      	push	{r4, lr}
 808432a:	460c      	mov	r4, r1
 808432c:	6941      	ldr	r1, [r0, #20]
 808432e:	b086      	sub	sp, #24
 8084330:	f201 716c 	addw	r1, r1, #1900	; 0x76c
 8084334:	6903      	ldr	r3, [r0, #16]
 8084336:	6982      	ldr	r2, [r0, #24]
 8084338:	9104      	str	r1, [sp, #16]
 808433a:	6801      	ldr	r1, [r0, #0]
 808433c:	eb03 0343 	add.w	r3, r3, r3, lsl #1
 8084340:	9103      	str	r1, [sp, #12]
 8084342:	6841      	ldr	r1, [r0, #4]
 8084344:	eb02 0242 	add.w	r2, r2, r2, lsl #1
 8084348:	9102      	str	r1, [sp, #8]
 808434a:	6881      	ldr	r1, [r0, #8]
 808434c:	9101      	str	r1, [sp, #4]
 808434e:	68c1      	ldr	r1, [r0, #12]
 8084350:	4620      	mov	r0, r4
 8084352:	9100      	str	r1, [sp, #0]
 8084354:	4904      	ldr	r1, [pc, #16]	; (8084368 <asctime_r+0x40>)
 8084356:	440b      	add	r3, r1
 8084358:	4904      	ldr	r1, [pc, #16]	; (808436c <asctime_r+0x44>)
 808435a:	440a      	add	r2, r1
 808435c:	4904      	ldr	r1, [pc, #16]	; (8084370 <asctime_r+0x48>)
 808435e:	f7fd fdfd 	bl	8081f5c <siprintf>
 8084362:	4620      	mov	r0, r4
 8084364:	b006      	add	sp, #24
 8084366:	bd10      	pop	{r4, pc}
 8084368:	08087d0e 	.word	0x08087d0e
 808436c:	08087cf9 	.word	0x08087cf9
 8084370:	08087d32 	.word	0x08087d32

08084374 <atol>:
 8084374:	220a      	movs	r2, #10
 8084376:	2100      	movs	r1, #0
 8084378:	f001 bda2 	b.w	8085ec0 <strtol>

0808437c <__cxa_atexit>:
 808437c:	b510      	push	{r4, lr}
 808437e:	4c05      	ldr	r4, [pc, #20]	; (8084394 <__cxa_atexit+0x18>)
 8084380:	4613      	mov	r3, r2
 8084382:	b12c      	cbz	r4, 8084390 <__cxa_atexit+0x14>
 8084384:	460a      	mov	r2, r1
 8084386:	4601      	mov	r1, r0
 8084388:	2002      	movs	r0, #2
 808438a:	f3af 8000 	nop.w
 808438e:	bd10      	pop	{r4, pc}
 8084390:	4620      	mov	r0, r4
 8084392:	bd10      	pop	{r4, pc}
 8084394:	00000000 	.word	0x00000000

08084398 <localtime>:
 8084398:	b538      	push	{r3, r4, r5, lr}
 808439a:	4b07      	ldr	r3, [pc, #28]	; (80843b8 <localtime+0x20>)
 808439c:	4605      	mov	r5, r0
 808439e:	681c      	ldr	r4, [r3, #0]
 80843a0:	6be3      	ldr	r3, [r4, #60]	; 0x3c
 80843a2:	b91b      	cbnz	r3, 80843ac <localtime+0x14>
 80843a4:	2024      	movs	r0, #36	; 0x24
 80843a6:	f7fd fdc1 	bl	8081f2c <malloc>
 80843aa:	63e0      	str	r0, [r4, #60]	; 0x3c
 80843ac:	6be1      	ldr	r1, [r4, #60]	; 0x3c
 80843ae:	4628      	mov	r0, r5
 80843b0:	e8bd 4038 	ldmia.w	sp!, {r3, r4, r5, lr}
 80843b4:	f000 b802 	b.w	80843bc <localtime_r>
 80843b8:	20000078 	.word	0x20000078

080843bc <localtime_r>:
 80843bc:	e92d 41f0 	stmdb	sp!, {r4, r5, r6, r7, r8, lr}
 80843c0:	460c      	mov	r4, r1
 80843c2:	4680      	mov	r8, r0
 80843c4:	f002 fbb4 	bl	8086b30 <__gettzinfo>
 80843c8:	4621      	mov	r1, r4
 80843ca:	4607      	mov	r7, r0
 80843cc:	4640      	mov	r0, r8
 80843ce:	f002 fbb3 	bl	8086b38 <gmtime_r>
 80843d2:	6946      	ldr	r6, [r0, #20]
 80843d4:	4604      	mov	r4, r0
 80843d6:	f206 766c 	addw	r6, r6, #1900	; 0x76c
 80843da:	07b3      	lsls	r3, r6, #30
 80843dc:	d105      	bne.n	80843ea <localtime_r+0x2e>
 80843de:	2264      	movs	r2, #100	; 0x64
 80843e0:	fb96 f3f2 	sdiv	r3, r6, r2
 80843e4:	fb02 6313 	mls	r3, r2, r3, r6
 80843e8:	b94b      	cbnz	r3, 80843fe <localtime_r+0x42>
 80843ea:	f44f 75c8 	mov.w	r5, #400	; 0x190
 80843ee:	fb96 f3f5 	sdiv	r3, r6, r5
 80843f2:	fb05 6513 	mls	r5, r5, r3, r6
 80843f6:	fab5 f385 	clz	r3, r5
 80843fa:	095b      	lsrs	r3, r3, #5
 80843fc:	e000      	b.n	8084400 <localtime_r+0x44>
 80843fe:	2301      	movs	r3, #1
 8084400:	4a5f      	ldr	r2, [pc, #380]	; (8084580 <localtime_r+0x1c4>)
 8084402:	2530      	movs	r5, #48	; 0x30
 8084404:	fb05 2503 	mla	r5, r5, r3, r2
 8084408:	f001 fea4 	bl	8086154 <__tz_lock>
 808440c:	f001 fea4 	bl	8086158 <_tzset_unlocked>
 8084410:	4b5c      	ldr	r3, [pc, #368]	; (8084584 <localtime_r+0x1c8>)
 8084412:	681b      	ldr	r3, [r3, #0]
 8084414:	b1f3      	cbz	r3, 8084454 <localtime_r+0x98>
 8084416:	687b      	ldr	r3, [r7, #4]
 8084418:	429e      	cmp	r6, r3
 808441a:	d105      	bne.n	8084428 <localtime_r+0x6c>
 808441c:	6839      	ldr	r1, [r7, #0]
 808441e:	f8d8 3000 	ldr.w	r3, [r8]
 8084422:	69fa      	ldr	r2, [r7, #28]
 8084424:	b941      	cbnz	r1, 8084438 <localtime_r+0x7c>
 8084426:	e00a      	b.n	808443e <localtime_r+0x82>
 8084428:	4630      	mov	r0, r6
 808442a:	f001 fdeb 	bl	8086004 <__tzcalc_limits>
 808442e:	2800      	cmp	r0, #0
 8084430:	d1f4      	bne.n	808441c <localtime_r+0x60>
 8084432:	f04f 33ff 	mov.w	r3, #4294967295
 8084436:	e00d      	b.n	8084454 <localtime_r+0x98>
 8084438:	4293      	cmp	r3, r2
 808443a:	db08      	blt.n	808444e <localtime_r+0x92>
 808443c:	e001      	b.n	8084442 <localtime_r+0x86>
 808443e:	4293      	cmp	r3, r2
 8084440:	da07      	bge.n	8084452 <localtime_r+0x96>
 8084442:	6bba      	ldr	r2, [r7, #56]	; 0x38
 8084444:	4293      	cmp	r3, r2
 8084446:	bfac      	ite	ge
 8084448:	2300      	movge	r3, #0
 808444a:	2301      	movlt	r3, #1
 808444c:	e002      	b.n	8084454 <localtime_r+0x98>
 808444e:	2300      	movs	r3, #0
 8084450:	e000      	b.n	8084454 <localtime_r+0x98>
 8084452:	2301      	movs	r3, #1
 8084454:	6223      	str	r3, [r4, #32]
 8084456:	6a23      	ldr	r3, [r4, #32]
 8084458:	203c      	movs	r0, #60	; 0x3c
 808445a:	2b01      	cmp	r3, #1
 808445c:	bf0c      	ite	eq
 808445e:	6bf9      	ldreq	r1, [r7, #60]	; 0x3c
 8084460:	6a39      	ldrne	r1, [r7, #32]
 8084462:	f44f 6361 	mov.w	r3, #3600	; 0xe10
 8084466:	fb91 f6f3 	sdiv	r6, r1, r3
 808446a:	fb03 1316 	mls	r3, r3, r6, r1
 808446e:	fb93 f2f0 	sdiv	r2, r3, r0
 8084472:	fb00 3012 	mls	r0, r0, r2, r3
 8084476:	6861      	ldr	r1, [r4, #4]
 8084478:	6823      	ldr	r3, [r4, #0]
 808447a:	1a89      	subs	r1, r1, r2
 808447c:	68a2      	ldr	r2, [r4, #8]
 808447e:	1a1b      	subs	r3, r3, r0
 8084480:	1b92      	subs	r2, r2, r6
 8084482:	2b3b      	cmp	r3, #59	; 0x3b
 8084484:	6023      	str	r3, [r4, #0]
 8084486:	6061      	str	r1, [r4, #4]
 8084488:	60a2      	str	r2, [r4, #8]
 808448a:	dd03      	ble.n	8084494 <localtime_r+0xd8>
 808448c:	3101      	adds	r1, #1
 808448e:	6061      	str	r1, [r4, #4]
 8084490:	3b3c      	subs	r3, #60	; 0x3c
 8084492:	e004      	b.n	808449e <localtime_r+0xe2>
 8084494:	2b00      	cmp	r3, #0
 8084496:	da03      	bge.n	80844a0 <localtime_r+0xe4>
 8084498:	3901      	subs	r1, #1
 808449a:	6061      	str	r1, [r4, #4]
 808449c:	333c      	adds	r3, #60	; 0x3c
 808449e:	6023      	str	r3, [r4, #0]
 80844a0:	6863      	ldr	r3, [r4, #4]
 80844a2:	2b3b      	cmp	r3, #59	; 0x3b
 80844a4:	dd03      	ble.n	80844ae <localtime_r+0xf2>
 80844a6:	3201      	adds	r2, #1
 80844a8:	60a2      	str	r2, [r4, #8]
 80844aa:	3b3c      	subs	r3, #60	; 0x3c
 80844ac:	e004      	b.n	80844b8 <localtime_r+0xfc>
 80844ae:	2b00      	cmp	r3, #0
 80844b0:	da03      	bge.n	80844ba <localtime_r+0xfe>
 80844b2:	3a01      	subs	r2, #1
 80844b4:	60a2      	str	r2, [r4, #8]
 80844b6:	333c      	adds	r3, #60	; 0x3c
 80844b8:	6063      	str	r3, [r4, #4]
 80844ba:	68a3      	ldr	r3, [r4, #8]
 80844bc:	2b17      	cmp	r3, #23
 80844be:	dd22      	ble.n	8084506 <localtime_r+0x14a>
 80844c0:	69e2      	ldr	r2, [r4, #28]
 80844c2:	3b18      	subs	r3, #24
 80844c4:	3201      	adds	r2, #1
 80844c6:	61e2      	str	r2, [r4, #28]
 80844c8:	69a2      	ldr	r2, [r4, #24]
 80844ca:	60a3      	str	r3, [r4, #8]
 80844cc:	3201      	adds	r2, #1
 80844ce:	2a06      	cmp	r2, #6
 80844d0:	bfc8      	it	gt
 80844d2:	2200      	movgt	r2, #0
 80844d4:	61a2      	str	r2, [r4, #24]
 80844d6:	68e2      	ldr	r2, [r4, #12]
 80844d8:	6923      	ldr	r3, [r4, #16]
 80844da:	3201      	adds	r2, #1
 80844dc:	60e2      	str	r2, [r4, #12]
 80844de:	f855 1023 	ldr.w	r1, [r5, r3, lsl #2]
 80844e2:	428a      	cmp	r2, r1
 80844e4:	dd46      	ble.n	8084574 <localtime_r+0x1b8>
 80844e6:	3301      	adds	r3, #1
 80844e8:	2b0c      	cmp	r3, #12
 80844ea:	bf08      	it	eq
 80844ec:	6963      	ldreq	r3, [r4, #20]
 80844ee:	eba2 0201 	sub.w	r2, r2, r1
 80844f2:	60e2      	str	r2, [r4, #12]
 80844f4:	bf05      	ittet	eq
 80844f6:	3301      	addeq	r3, #1
 80844f8:	2200      	moveq	r2, #0
 80844fa:	6123      	strne	r3, [r4, #16]
 80844fc:	6122      	streq	r2, [r4, #16]
 80844fe:	bf04      	itt	eq
 8084500:	6163      	streq	r3, [r4, #20]
 8084502:	61e2      	streq	r2, [r4, #28]
 8084504:	e036      	b.n	8084574 <localtime_r+0x1b8>
 8084506:	2b00      	cmp	r3, #0
 8084508:	da34      	bge.n	8084574 <localtime_r+0x1b8>
 808450a:	69e2      	ldr	r2, [r4, #28]
 808450c:	3318      	adds	r3, #24
 808450e:	3a01      	subs	r2, #1
 8084510:	61e2      	str	r2, [r4, #28]
 8084512:	69a2      	ldr	r2, [r4, #24]
 8084514:	60a3      	str	r3, [r4, #8]
 8084516:	3a01      	subs	r2, #1
 8084518:	bf48      	it	mi
 808451a:	2206      	movmi	r2, #6
 808451c:	61a2      	str	r2, [r4, #24]
 808451e:	68e2      	ldr	r2, [r4, #12]
 8084520:	3a01      	subs	r2, #1
 8084522:	60e2      	str	r2, [r4, #12]
 8084524:	bb32      	cbnz	r2, 8084574 <localtime_r+0x1b8>
 8084526:	6923      	ldr	r3, [r4, #16]
 8084528:	3b01      	subs	r3, #1
 808452a:	d401      	bmi.n	8084530 <localtime_r+0x174>
 808452c:	6123      	str	r3, [r4, #16]
 808452e:	e01d      	b.n	808456c <localtime_r+0x1b0>
 8084530:	230b      	movs	r3, #11
 8084532:	6123      	str	r3, [r4, #16]
 8084534:	6963      	ldr	r3, [r4, #20]
 8084536:	1e5a      	subs	r2, r3, #1
 8084538:	f012 0f03 	tst.w	r2, #3
 808453c:	6162      	str	r2, [r4, #20]
 808453e:	f203 736b 	addw	r3, r3, #1899	; 0x76b
 8084542:	d105      	bne.n	8084550 <localtime_r+0x194>
 8084544:	2164      	movs	r1, #100	; 0x64
 8084546:	fb93 f2f1 	sdiv	r2, r3, r1
 808454a:	fb01 3212 	mls	r2, r1, r2, r3
 808454e:	b94a      	cbnz	r2, 8084564 <localtime_r+0x1a8>
 8084550:	f44f 71c8 	mov.w	r1, #400	; 0x190
 8084554:	fb93 f2f1 	sdiv	r2, r3, r1
 8084558:	fb01 3312 	mls	r3, r1, r2, r3
 808455c:	fab3 f383 	clz	r3, r3
 8084560:	095b      	lsrs	r3, r3, #5
 8084562:	e000      	b.n	8084566 <localtime_r+0x1aa>
 8084564:	2301      	movs	r3, #1
 8084566:	f503 73b6 	add.w	r3, r3, #364	; 0x16c
 808456a:	61e3      	str	r3, [r4, #28]
 808456c:	6923      	ldr	r3, [r4, #16]
 808456e:	f855 3023 	ldr.w	r3, [r5, r3, lsl #2]
 8084572:	60e3      	str	r3, [r4, #12]
 8084574:	f001 fdef 	bl	8086156 <__tz_unlock>
 8084578:	4620      	mov	r0, r4
 808457a:	e8bd 81f0 	ldmia.w	sp!, {r4, r5, r6, r7, r8, pc}
 808457e:	bf00      	nop
 8084580:	08087ebc 	.word	0x08087ebc
 8084584:	200006c0 	.word	0x200006c0

08084588 <_localeconv_r>:
 8084588:	4800      	ldr	r0, [pc, #0]	; (808458c <_localeconv_r+0x4>)
 808458a:	4770      	bx	lr
 808458c:	2000007c 	.word	0x2000007c

08084590 <memcpy>:
 8084590:	b510      	push	{r4, lr}
 8084592:	1e43      	subs	r3, r0, #1
 8084594:	440a      	add	r2, r1
 8084596:	4291      	cmp	r1, r2
 8084598:	d004      	beq.n	80845a4 <memcpy+0x14>
 808459a:	f811 4b01 	ldrb.w	r4, [r1], #1
 808459e:	f803 4f01 	strb.w	r4, [r3, #1]!
 80845a2:	e7f8      	b.n	8084596 <memcpy+0x6>
 80845a4:	bd10      	pop	{r4, pc}

080845a6 <memset>:
 80845a6:	4603      	mov	r3, r0
 80845a8:	4402      	add	r2, r0
 80845aa:	4293      	cmp	r3, r2
 80845ac:	d002      	beq.n	80845b4 <memset+0xe>
 80845ae:	f803 1b01 	strb.w	r1, [r3], #1
 80845b2:	e7fa      	b.n	80845aa <memset+0x4>
 80845b4:	4770      	bx	lr
	...

080845b8 <srand>:
 80845b8:	b538      	push	{r3, r4, r5, lr}
 80845ba:	4b12      	ldr	r3, [pc, #72]	; (8084604 <srand+0x4c>)
 80845bc:	4605      	mov	r5, r0
 80845be:	681c      	ldr	r4, [r3, #0]
 80845c0:	6ba3      	ldr	r3, [r4, #56]	; 0x38
 80845c2:	b9d3      	cbnz	r3, 80845fa <srand+0x42>
 80845c4:	2018      	movs	r0, #24
 80845c6:	f7fd fcb1 	bl	8081f2c <malloc>
 80845ca:	f243 330e 	movw	r3, #13070	; 0x330e
 80845ce:	63a0      	str	r0, [r4, #56]	; 0x38
 80845d0:	8003      	strh	r3, [r0, #0]
 80845d2:	f64a 33cd 	movw	r3, #43981	; 0xabcd
 80845d6:	8043      	strh	r3, [r0, #2]
 80845d8:	f241 2334 	movw	r3, #4660	; 0x1234
 80845dc:	8083      	strh	r3, [r0, #4]
 80845de:	f24e 636d 	movw	r3, #58989	; 0xe66d
 80845e2:	80c3      	strh	r3, [r0, #6]
 80845e4:	f64d 63ec 	movw	r3, #57068	; 0xdeec
 80845e8:	8103      	strh	r3, [r0, #8]
 80845ea:	2305      	movs	r3, #5
 80845ec:	8143      	strh	r3, [r0, #10]
 80845ee:	230b      	movs	r3, #11
 80845f0:	8183      	strh	r3, [r0, #12]
 80845f2:	2201      	movs	r2, #1
 80845f4:	2300      	movs	r3, #0
 80845f6:	e9c0 2304 	strd	r2, r3, [r0, #16]
 80845fa:	6ba3      	ldr	r3, [r4, #56]	; 0x38
 80845fc:	2200      	movs	r2, #0
 80845fe:	611d      	str	r5, [r3, #16]
 8084600:	615a      	str	r2, [r3, #20]
 8084602:	bd38      	pop	{r3, r4, r5, pc}
 8084604:	20000078 	.word	0x20000078

08084608 <strchr>:
 8084608:	b2c9      	uxtb	r1, r1
 808460a:	4603      	mov	r3, r0
 808460c:	f810 2b01 	ldrb.w	r2, [r0], #1
 8084610:	b11a      	cbz	r2, 808461a <strchr+0x12>
 8084612:	4291      	cmp	r1, r2
 8084614:	d1f9      	bne.n	808460a <strchr+0x2>
 8084616:	4618      	mov	r0, r3
 8084618:	4770      	bx	lr
 808461a:	2900      	cmp	r1, #0
 808461c:	bf0c      	ite	eq
 808461e:	4618      	moveq	r0, r3
 8084620:	2000      	movne	r0, #0
 8084622:	4770      	bx	lr

08084624 <strcmp>:
 8084624:	f810 2b01 	ldrb.w	r2, [r0], #1
 8084628:	f811 3b01 	ldrb.w	r3, [r1], #1
 808462c:	2a01      	cmp	r2, #1
 808462e:	bf28      	it	cs
 8084630:	429a      	cmpcs	r2, r3
 8084632:	d0f7      	beq.n	8084624 <strcmp>
 8084634:	1ad0      	subs	r0, r2, r3
 8084636:	4770      	bx	lr

08084638 <strcpy>:
 8084638:	4603      	mov	r3, r0
 808463a:	f811 2b01 	ldrb.w	r2, [r1], #1
 808463e:	f803 2b01 	strb.w	r2, [r3], #1
 8084642:	2a00      	cmp	r2, #0
 8084644:	d1f9      	bne.n	808463a <strcpy+0x2>
 8084646:	4770      	bx	lr

08084648 <strdup>:
 8084648:	4b02      	ldr	r3, [pc, #8]	; (8084654 <strdup+0xc>)
 808464a:	4601      	mov	r1, r0
 808464c:	6818      	ldr	r0, [r3, #0]
 808464e:	f000 b803 	b.w	8084658 <_strdup_r>
 8084652:	bf00      	nop
 8084654:	20000078 	.word	0x20000078

08084658 <_strdup_r>:
 8084658:	b570      	push	{r4, r5, r6, lr}
 808465a:	4606      	mov	r6, r0
 808465c:	4608      	mov	r0, r1
 808465e:	460c      	mov	r4, r1
 8084660:	f000 fd22 	bl	80850a8 <strlen>
 8084664:	1c45      	adds	r5, r0, #1
 8084666:	4629      	mov	r1, r5
 8084668:	4630      	mov	r0, r6
 808466a:	f7fd fcaf 	bl	8081fcc <_malloc_r>
 808466e:	4606      	mov	r6, r0
 8084670:	b118      	cbz	r0, 808467a <_strdup_r+0x22>
 8084672:	462a      	mov	r2, r5
 8084674:	4621      	mov	r1, r4
 8084676:	f7ff ff8b 	bl	8084590 <memcpy>
 808467a:	4630      	mov	r0, r6
 808467c:	bd70      	pop	{r4, r5, r6, pc}

0808467e <iso_year_adjust>:
 808467e:	6941      	ldr	r1, [r0, #20]
 8084680:	b510      	push	{r4, lr}
 8084682:	078b      	lsls	r3, r1, #30
 8084684:	d10c      	bne.n	80846a0 <iso_year_adjust+0x22>
 8084686:	f240 736c 	movw	r3, #1900	; 0x76c
 808468a:	2900      	cmp	r1, #0
 808468c:	bfa8      	it	ge
 808468e:	f06f 0363 	mvnge.w	r3, #99	; 0x63
 8084692:	440b      	add	r3, r1
 8084694:	2464      	movs	r4, #100	; 0x64
 8084696:	fb93 f2f4 	sdiv	r2, r3, r4
 808469a:	fb04 3312 	mls	r3, r4, r2, r3
 808469e:	b983      	cbnz	r3, 80846c2 <iso_year_adjust+0x44>
 80846a0:	f240 736c 	movw	r3, #1900	; 0x76c
 80846a4:	2900      	cmp	r1, #0
 80846a6:	bfa8      	it	ge
 80846a8:	f06f 0363 	mvnge.w	r3, #99	; 0x63
 80846ac:	f44f 72c8 	mov.w	r2, #400	; 0x190
 80846b0:	440b      	add	r3, r1
 80846b2:	fb93 f1f2 	sdiv	r1, r3, r2
 80846b6:	fb02 3311 	mls	r3, r2, r1, r3
 80846ba:	fab3 f283 	clz	r2, r3
 80846be:	0952      	lsrs	r2, r2, #5
 80846c0:	e000      	b.n	80846c4 <iso_year_adjust+0x46>
 80846c2:	2201      	movs	r2, #1
 80846c4:	6983      	ldr	r3, [r0, #24]
 80846c6:	69c1      	ldr	r1, [r0, #28]
 80846c8:	005b      	lsls	r3, r3, #1
 80846ca:	eb03 1301 	add.w	r3, r3, r1, lsl #4
 80846ce:	4413      	add	r3, r2
 80846d0:	2b21      	cmp	r3, #33	; 0x21
 80846d2:	dc0e      	bgt.n	80846f2 <iso_year_adjust+0x74>
 80846d4:	2b20      	cmp	r3, #32
 80846d6:	da2f      	bge.n	8084738 <iso_year_adjust+0xba>
 80846d8:	2b0d      	cmp	r3, #13
 80846da:	dc02      	bgt.n	80846e2 <iso_year_adjust+0x64>
 80846dc:	2b0a      	cmp	r3, #10
 80846de:	db05      	blt.n	80846ec <iso_year_adjust+0x6e>
 80846e0:	e02a      	b.n	8084738 <iso_year_adjust+0xba>
 80846e2:	2b10      	cmp	r3, #16
 80846e4:	db26      	blt.n	8084734 <iso_year_adjust+0xb6>
 80846e6:	2b11      	cmp	r3, #17
 80846e8:	dd26      	ble.n	8084738 <iso_year_adjust+0xba>
 80846ea:	3b1c      	subs	r3, #28
 80846ec:	2b01      	cmp	r3, #1
 80846ee:	d923      	bls.n	8084738 <iso_year_adjust+0xba>
 80846f0:	e020      	b.n	8084734 <iso_year_adjust+0xb6>
 80846f2:	f241 62c6 	movw	r2, #5830	; 0x16c6
 80846f6:	4293      	cmp	r3, r2
 80846f8:	dc0e      	bgt.n	8084718 <iso_year_adjust+0x9a>
 80846fa:	f241 62c2 	movw	r2, #5826	; 0x16c2
 80846fe:	4293      	cmp	r3, r2
 8084700:	da16      	bge.n	8084730 <iso_year_adjust+0xb2>
 8084702:	f241 62a2 	movw	r2, #5794	; 0x16a2
 8084706:	4293      	cmp	r3, r2
 8084708:	d012      	beq.n	8084730 <iso_year_adjust+0xb2>
 808470a:	db13      	blt.n	8084734 <iso_year_adjust+0xb6>
 808470c:	f5a3 53b5 	sub.w	r3, r3, #5792	; 0x16a0
 8084710:	3b12      	subs	r3, #18
 8084712:	2b02      	cmp	r3, #2
 8084714:	d90c      	bls.n	8084730 <iso_year_adjust+0xb2>
 8084716:	e00d      	b.n	8084734 <iso_year_adjust+0xb6>
 8084718:	f241 62d5 	movw	r2, #5845	; 0x16d5
 808471c:	4293      	cmp	r3, r2
 808471e:	d007      	beq.n	8084730 <iso_year_adjust+0xb2>
 8084720:	f241 62d7 	movw	r2, #5847	; 0x16d7
 8084724:	4293      	cmp	r3, r2
 8084726:	d003      	beq.n	8084730 <iso_year_adjust+0xb2>
 8084728:	f241 62d3 	movw	r2, #5843	; 0x16d3
 808472c:	4293      	cmp	r3, r2
 808472e:	d101      	bne.n	8084734 <iso_year_adjust+0xb6>
 8084730:	2001      	movs	r0, #1
 8084732:	bd10      	pop	{r4, pc}
 8084734:	2000      	movs	r0, #0
 8084736:	bd10      	pop	{r4, pc}
 8084738:	f04f 30ff 	mov.w	r0, #4294967295
 808473c:	bd10      	pop	{r4, pc}
	...

08084740 <strftime>:
 8084740:	e92d 4ff0 	stmdb	sp!, {r4, r5, r6, r7, r8, r9, sl, fp, lr}
 8084744:	460e      	mov	r6, r1
 8084746:	b093      	sub	sp, #76	; 0x4c
 8084748:	461d      	mov	r5, r3
 808474a:	4607      	mov	r7, r0
 808474c:	4691      	mov	r9, r2
 808474e:	f001 fc49 	bl	8085fe4 <__get_current_time_locale>
 8084752:	2300      	movs	r3, #0
 8084754:	9306      	str	r3, [sp, #24]
 8084756:	461c      	mov	r4, r3
 8084758:	1e73      	subs	r3, r6, #1
 808475a:	9003      	str	r0, [sp, #12]
 808475c:	9302      	str	r3, [sp, #8]
 808475e:	f899 3000 	ldrb.w	r3, [r9]
 8084762:	2b00      	cmp	r3, #0
 8084764:	f000 8492 	beq.w	808508c <strftime+0x94c>
 8084768:	2b25      	cmp	r3, #37	; 0x25
 808476a:	d008      	beq.n	808477e <strftime+0x3e>
 808476c:	9a02      	ldr	r2, [sp, #8]
 808476e:	4294      	cmp	r4, r2
 8084770:	f080 8490 	bcs.w	8085094 <strftime+0x954>
 8084774:	553b      	strb	r3, [r7, r4]
 8084776:	f109 0901 	add.w	r9, r9, #1
 808477a:	3401      	adds	r4, #1
 808477c:	e7ef      	b.n	808475e <strftime+0x1e>
 808477e:	f899 a001 	ldrb.w	sl, [r9, #1]
 8084782:	f1ba 0f30 	cmp.w	sl, #48	; 0x30
 8084786:	d007      	beq.n	8084798 <strftime+0x58>
 8084788:	f1ba 0f2b 	cmp.w	sl, #43	; 0x2b
 808478c:	d004      	beq.n	8084798 <strftime+0x58>
 808478e:	f109 0901 	add.w	r9, r9, #1
 8084792:	f04f 0a00 	mov.w	sl, #0
 8084796:	e001      	b.n	808479c <strftime+0x5c>
 8084798:	f109 0902 	add.w	r9, r9, #2
 808479c:	f899 3000 	ldrb.w	r3, [r9]
 80847a0:	3b31      	subs	r3, #49	; 0x31
 80847a2:	2b08      	cmp	r3, #8
 80847a4:	d808      	bhi.n	80847b8 <strftime+0x78>
 80847a6:	4648      	mov	r0, r9
 80847a8:	220a      	movs	r2, #10
 80847aa:	a90a      	add	r1, sp, #40	; 0x28
 80847ac:	f001 fc10 	bl	8085fd0 <strtoul>
 80847b0:	f8dd 9028 	ldr.w	r9, [sp, #40]	; 0x28
 80847b4:	4680      	mov	r8, r0
 80847b6:	e001      	b.n	80847bc <strftime+0x7c>
 80847b8:	f04f 0800 	mov.w	r8, #0
 80847bc:	f899 3000 	ldrb.w	r3, [r9]
 80847c0:	2b45      	cmp	r3, #69	; 0x45
 80847c2:	d001      	beq.n	80847c8 <strftime+0x88>
 80847c4:	2b4f      	cmp	r3, #79	; 0x4f
 80847c6:	d101      	bne.n	80847cc <strftime+0x8c>
 80847c8:	f109 0901 	add.w	r9, r9, #1
 80847cc:	f899 0000 	ldrb.w	r0, [r9]
 80847d0:	f1a0 0325 	sub.w	r3, r0, #37	; 0x25
 80847d4:	2b55      	cmp	r3, #85	; 0x55
 80847d6:	f200 845d 	bhi.w	8085094 <strftime+0x954>
 80847da:	e8df f013 	tbh	[pc, r3, lsl #1]
 80847de:	044a      	.short	0x044a
 80847e0:	045b045b 	.word	0x045b045b
 80847e4:	045b045b 	.word	0x045b045b
 80847e8:	045b045b 	.word	0x045b045b
 80847ec:	045b045b 	.word	0x045b045b
 80847f0:	045b045b 	.word	0x045b045b
 80847f4:	045b045b 	.word	0x045b045b
 80847f8:	045b045b 	.word	0x045b045b
 80847fc:	045b045b 	.word	0x045b045b
 8084800:	045b045b 	.word	0x045b045b
 8084804:	045b045b 	.word	0x045b045b
 8084808:	045b045b 	.word	0x045b045b
 808480c:	045b045b 	.word	0x045b045b
 8084810:	045b045b 	.word	0x045b045b
 8084814:	006f045b 	.word	0x006f045b
 8084818:	00d400a1 	.word	0x00d400a1
 808481c:	045b011a 	.word	0x045b011a
 8084820:	01a0013f 	.word	0x01a0013f
 8084824:	022d0226 	.word	0x022d0226
 8084828:	045b045b 	.word	0x045b045b
 808482c:	0260045b 	.word	0x0260045b
 8084830:	045b045b 	.word	0x045b045b
 8084834:	045b0268 	.word	0x045b0268
 8084838:	031c0296 	.word	0x031c0296
 808483c:	033a0324 	.word	0x033a0324
 8084840:	03850342 	.word	0x03850342
 8084844:	039f00c6 	.word	0x039f00c6
 8084848:	045b041f 	.word	0x045b041f
 808484c:	045b045b 	.word	0x045b045b
 8084850:	045b045b 	.word	0x045b045b
 8084854:	0056045b 	.word	0x0056045b
 8084858:	00ba0089 	.word	0x00ba0089
 808485c:	010c010c 	.word	0x010c010c
 8084860:	0171045b 	.word	0x0171045b
 8084864:	045b0089 	.word	0x045b0089
 8084868:	0226023d 	.word	0x0226023d
 808486c:	025d022d 	.word	0x025d022d
 8084870:	045b0262 	.word	0x045b0262
 8084874:	045b0268 	.word	0x045b0268
 8084878:	029b00be 	.word	0x029b00be
 808487c:	032d031e 	.word	0x032d031e
 8084880:	037e045b 	.word	0x037e045b
 8084884:	039100c2 	.word	0x039100c2
 8084888:	03e7      	.short	0x03e7
 808488a:	69ab      	ldr	r3, [r5, #24]
 808488c:	9a03      	ldr	r2, [sp, #12]
 808488e:	3318      	adds	r3, #24
 8084890:	f852 8023 	ldr.w	r8, [r2, r3, lsl #2]
 8084894:	4640      	mov	r0, r8
 8084896:	f000 fc07 	bl	80850a8 <strlen>
 808489a:	f108 38ff 	add.w	r8, r8, #4294967295
 808489e:	193b      	adds	r3, r7, r4
 80848a0:	4420      	add	r0, r4
 80848a2:	4284      	cmp	r4, r0
 80848a4:	f000 83eb 	beq.w	808507e <strftime+0x93e>
 80848a8:	9a02      	ldr	r2, [sp, #8]
 80848aa:	4294      	cmp	r4, r2
 80848ac:	f080 83f2 	bcs.w	8085094 <strftime+0x954>
 80848b0:	f818 2f01 	ldrb.w	r2, [r8, #1]!
 80848b4:	3401      	adds	r4, #1
 80848b6:	f803 2b01 	strb.w	r2, [r3], #1
 80848ba:	e7f2      	b.n	80848a2 <strftime+0x162>
 80848bc:	69ab      	ldr	r3, [r5, #24]
 80848be:	9a03      	ldr	r2, [sp, #12]
 80848c0:	eb02 0383 	add.w	r3, r2, r3, lsl #2
 80848c4:	f8d3 807c 	ldr.w	r8, [r3, #124]	; 0x7c
 80848c8:	4640      	mov	r0, r8
 80848ca:	f000 fbed 	bl	80850a8 <strlen>
 80848ce:	f108 38ff 	add.w	r8, r8, #4294967295
 80848d2:	193b      	adds	r3, r7, r4
 80848d4:	4420      	add	r0, r4
 80848d6:	4284      	cmp	r4, r0
 80848d8:	f000 83d1 	beq.w	808507e <strftime+0x93e>
 80848dc:	9a02      	ldr	r2, [sp, #8]
 80848de:	4294      	cmp	r4, r2
 80848e0:	f080 83d8 	bcs.w	8085094 <strftime+0x954>
 80848e4:	f818 2f01 	ldrb.w	r2, [r8, #1]!
 80848e8:	3401      	adds	r4, #1
 80848ea:	f803 2b01 	strb.w	r2, [r3], #1
 80848ee:	e7f2      	b.n	80848d6 <strftime+0x196>
 80848f0:	692b      	ldr	r3, [r5, #16]
 80848f2:	9a03      	ldr	r2, [sp, #12]
 80848f4:	f852 8023 	ldr.w	r8, [r2, r3, lsl #2]
 80848f8:	4640      	mov	r0, r8
 80848fa:	f000 fbd5 	bl	80850a8 <strlen>
 80848fe:	f108 38ff 	add.w	r8, r8, #4294967295
 8084902:	193b      	adds	r3, r7, r4
 8084904:	4420      	add	r0, r4
 8084906:	4284      	cmp	r4, r0
 8084908:	f000 83b9 	beq.w	808507e <strftime+0x93e>
 808490c:	9a02      	ldr	r2, [sp, #8]
 808490e:	4294      	cmp	r4, r2
 8084910:	f080 83c0 	bcs.w	8085094 <strftime+0x954>
 8084914:	f818 2f01 	ldrb.w	r2, [r8, #1]!
 8084918:	3401      	adds	r4, #1
 808491a:	f803 2b01 	strb.w	r2, [r3], #1
 808491e:	e7f2      	b.n	8084906 <strftime+0x1c6>
 8084920:	692b      	ldr	r3, [r5, #16]
 8084922:	9a03      	ldr	r2, [sp, #12]
 8084924:	330c      	adds	r3, #12
 8084926:	f852 8023 	ldr.w	r8, [r2, r3, lsl #2]
 808492a:	4640      	mov	r0, r8
 808492c:	f000 fbbc 	bl	80850a8 <strlen>
 8084930:	f108 38ff 	add.w	r8, r8, #4294967295
 8084934:	193b      	adds	r3, r7, r4
 8084936:	4420      	add	r0, r4
 8084938:	4284      	cmp	r4, r0
 808493a:	f000 83a0 	beq.w	808507e <strftime+0x93e>
 808493e:	9a02      	ldr	r2, [sp, #8]
 8084940:	4294      	cmp	r4, r2
 8084942:	f080 83a7 	bcs.w	8085094 <strftime+0x954>
 8084946:	f818 2f01 	ldrb.w	r2, [r8, #1]!
 808494a:	3401      	adds	r4, #1
 808494c:	f803 2b01 	strb.w	r2, [r3], #1
 8084950:	e7f2      	b.n	8084938 <strftime+0x1f8>
 8084952:	9b03      	ldr	r3, [sp, #12]
 8084954:	f8d3 80a0 	ldr.w	r8, [r3, #160]	; 0xa0
 8084958:	e00a      	b.n	8084970 <strftime+0x230>
 808495a:	9b03      	ldr	r3, [sp, #12]
 808495c:	f8d3 80e4 	ldr.w	r8, [r3, #228]	; 0xe4
 8084960:	e006      	b.n	8084970 <strftime+0x230>
 8084962:	9b03      	ldr	r3, [sp, #12]
 8084964:	f8d3 809c 	ldr.w	r8, [r3, #156]	; 0x9c
 8084968:	e002      	b.n	8084970 <strftime+0x230>
 808496a:	9b03      	ldr	r3, [sp, #12]
 808496c:	f8d3 8098 	ldr.w	r8, [r3, #152]	; 0x98
 8084970:	4640      	mov	r0, r8
 8084972:	f000 fb99 	bl	80850a8 <strlen>
 8084976:	f898 3000 	ldrb.w	r3, [r8]
 808497a:	2b00      	cmp	r3, #0
 808497c:	f000 837f 	beq.w	808507e <strftime+0x93e>
 8084980:	462b      	mov	r3, r5
 8084982:	4642      	mov	r2, r8
 8084984:	e093      	b.n	8084aae <strftime+0x36e>
 8084986:	49b6      	ldr	r1, [pc, #728]	; (8084c60 <strftime+0x520>)
 8084988:	f8d5 b014 	ldr.w	fp, [r5, #20]
 808498c:	458b      	cmp	fp, r1
 808498e:	bfac      	ite	ge
 8084990:	2100      	movge	r1, #0
 8084992:	2101      	movlt	r1, #1
 8084994:	f1bb 0f00 	cmp.w	fp, #0
 8084998:	db04      	blt.n	80849a4 <strftime+0x264>
 808499a:	2064      	movs	r0, #100	; 0x64
 808499c:	fb9b f0f0 	sdiv	r0, fp, r0
 80849a0:	3013      	adds	r0, #19
 80849a2:	e008      	b.n	80849b6 <strftime+0x276>
 80849a4:	f20b 706c 	addw	r0, fp, #1900	; 0x76c
 80849a8:	9107      	str	r1, [sp, #28]
 80849aa:	f001 fd5b 	bl	8086464 <abs>
 80849ae:	2364      	movs	r3, #100	; 0x64
 80849b0:	fb90 f0f3 	sdiv	r0, r0, r3
 80849b4:	9907      	ldr	r1, [sp, #28]
 80849b6:	f1ba 0f00 	cmp.w	sl, #0
 80849ba:	d008      	beq.n	80849ce <strftime+0x28e>
 80849bc:	2863      	cmp	r0, #99	; 0x63
 80849be:	dd09      	ble.n	80849d4 <strftime+0x294>
 80849c0:	4ba8      	ldr	r3, [pc, #672]	; (8084c64 <strftime+0x524>)
 80849c2:	4aa9      	ldr	r2, [pc, #676]	; (8084c68 <strftime+0x528>)
 80849c4:	f1ba 0f2b 	cmp.w	sl, #43	; 0x2b
 80849c8:	bf18      	it	ne
 80849ca:	4613      	movne	r3, r2
 80849cc:	e003      	b.n	80849d6 <strftime+0x296>
 80849ce:	4ba6      	ldr	r3, [pc, #664]	; (8084c68 <strftime+0x528>)
 80849d0:	4aa6      	ldr	r2, [pc, #664]	; (8084c6c <strftime+0x52c>)
 80849d2:	e001      	b.n	80849d8 <strftime+0x298>
 80849d4:	4ba4      	ldr	r3, [pc, #656]	; (8084c68 <strftime+0x528>)
 80849d6:	4aa6      	ldr	r2, [pc, #664]	; (8084c70 <strftime+0x530>)
 80849d8:	f1b8 0f01 	cmp.w	r8, #1
 80849dc:	bf98      	it	ls
 80849de:	f04f 0802 	movls.w	r8, #2
 80849e2:	ebc1 0108 	rsb	r1, r1, r8
 80849e6:	9001      	str	r0, [sp, #4]
 80849e8:	9100      	str	r1, [sp, #0]
 80849ea:	489d      	ldr	r0, [pc, #628]	; (8084c60 <strftime+0x520>)
 80849ec:	49a1      	ldr	r1, [pc, #644]	; (8084c74 <strftime+0x534>)
 80849ee:	4583      	cmp	fp, r0
 80849f0:	bfb8      	it	lt
 80849f2:	460b      	movlt	r3, r1
 80849f4:	e21d      	b.n	8084e32 <strftime+0x6f2>
 80849f6:	4aa0      	ldr	r2, [pc, #640]	; (8084c78 <strftime+0x538>)
 80849f8:	49a0      	ldr	r1, [pc, #640]	; (8084c7c <strftime+0x53c>)
 80849fa:	68eb      	ldr	r3, [r5, #12]
 80849fc:	2864      	cmp	r0, #100	; 0x64
 80849fe:	bf08      	it	eq
 8084a00:	460a      	moveq	r2, r1
 8084a02:	1b31      	subs	r1, r6, r4
 8084a04:	1938      	adds	r0, r7, r4
 8084a06:	f7fd fac9 	bl	8081f9c <sniprintf>
 8084a0a:	2800      	cmp	r0, #0
 8084a0c:	f280 8302 	bge.w	8085014 <strftime+0x8d4>
 8084a10:	e340      	b.n	8085094 <strftime+0x954>
 8084a12:	6968      	ldr	r0, [r5, #20]
 8084a14:	692b      	ldr	r3, [r5, #16]
 8084a16:	2800      	cmp	r0, #0
 8084a18:	f103 0b01 	add.w	fp, r3, #1
 8084a1c:	eb07 0804 	add.w	r8, r7, r4
 8084a20:	ebc4 0a06 	rsb	sl, r4, r6
 8084a24:	68eb      	ldr	r3, [r5, #12]
 8084a26:	db05      	blt.n	8084a34 <strftime+0x2f4>
 8084a28:	2264      	movs	r2, #100	; 0x64
 8084a2a:	fb90 f1f2 	sdiv	r1, r0, r2
 8084a2e:	fb02 0011 	mls	r0, r2, r1, r0
 8084a32:	e00a      	b.n	8084a4a <strftime+0x30a>
 8084a34:	f200 706c 	addw	r0, r0, #1900	; 0x76c
 8084a38:	9307      	str	r3, [sp, #28]
 8084a3a:	f001 fd13 	bl	8086464 <abs>
 8084a3e:	2264      	movs	r2, #100	; 0x64
 8084a40:	fb90 f1f2 	sdiv	r1, r0, r2
 8084a44:	fb01 0012 	mls	r0, r1, r2, r0
 8084a48:	9b07      	ldr	r3, [sp, #28]
 8084a4a:	9001      	str	r0, [sp, #4]
 8084a4c:	9300      	str	r3, [sp, #0]
 8084a4e:	4651      	mov	r1, sl
 8084a50:	465b      	mov	r3, fp
 8084a52:	4640      	mov	r0, r8
 8084a54:	4a8a      	ldr	r2, [pc, #552]	; (8084c80 <strftime+0x540>)
 8084a56:	f7fd faa1 	bl	8081f9c <sniprintf>
 8084a5a:	e7d6      	b.n	8084a0a <strftime+0x2ca>
 8084a5c:	2325      	movs	r3, #37	; 0x25
 8084a5e:	f88d 3028 	strb.w	r3, [sp, #40]	; 0x28
 8084a62:	f1ba 0f00 	cmp.w	sl, #0
 8084a66:	d007      	beq.n	8084a78 <strftime+0x338>
 8084a68:	f1b8 0f05 	cmp.w	r8, #5
 8084a6c:	f88d a029 	strb.w	sl, [sp, #41]	; 0x29
 8084a70:	bf98      	it	ls
 8084a72:	f04f 0806 	movls.w	r8, #6
 8084a76:	e004      	b.n	8084a82 <strftime+0x342>
 8084a78:	232b      	movs	r3, #43	; 0x2b
 8084a7a:	f88d 3029 	strb.w	r3, [sp, #41]	; 0x29
 8084a7e:	f04f 080a 	mov.w	r8, #10
 8084a82:	f1b8 0306 	subs.w	r3, r8, #6
 8084a86:	d102      	bne.n	8084a8e <strftime+0x34e>
 8084a88:	f10d 002a 	add.w	r0, sp, #42	; 0x2a
 8084a8c:	e00a      	b.n	8084aa4 <strftime+0x364>
 8084a8e:	4a7d      	ldr	r2, [pc, #500]	; (8084c84 <strftime+0x544>)
 8084a90:	211e      	movs	r1, #30
 8084a92:	f10d 002a 	add.w	r0, sp, #42	; 0x2a
 8084a96:	f7fd fa81 	bl	8081f9c <sniprintf>
 8084a9a:	2800      	cmp	r0, #0
 8084a9c:	ddf4      	ble.n	8084a88 <strftime+0x348>
 8084a9e:	f10d 032a 	add.w	r3, sp, #42	; 0x2a
 8084aa2:	4418      	add	r0, r3
 8084aa4:	4978      	ldr	r1, [pc, #480]	; (8084c88 <strftime+0x548>)
 8084aa6:	f7ff fdc7 	bl	8084638 <strcpy>
 8084aaa:	462b      	mov	r3, r5
 8084aac:	aa0a      	add	r2, sp, #40	; 0x28
 8084aae:	1b31      	subs	r1, r6, r4
 8084ab0:	1938      	adds	r0, r7, r4
 8084ab2:	f7ff fe45 	bl	8084740 <strftime>
 8084ab6:	2800      	cmp	r0, #0
 8084ab8:	f340 82ec 	ble.w	8085094 <strftime+0x954>
 8084abc:	4404      	add	r4, r0
 8084abe:	e2de      	b.n	808507e <strftime+0x93e>
 8084ac0:	4628      	mov	r0, r5
 8084ac2:	f7ff fddc 	bl	808467e <iso_year_adjust>
 8084ac6:	4680      	mov	r8, r0
 8084ac8:	6968      	ldr	r0, [r5, #20]
 8084aca:	2800      	cmp	r0, #0
 8084acc:	db05      	blt.n	8084ada <strftime+0x39a>
 8084ace:	2264      	movs	r2, #100	; 0x64
 8084ad0:	fb90 f1f2 	sdiv	r1, r0, r2
 8084ad4:	fb02 0011 	mls	r0, r2, r1, r0
 8084ad8:	e008      	b.n	8084aec <strftime+0x3ac>
 8084ada:	f200 706c 	addw	r0, r0, #1900	; 0x76c
 8084ade:	f001 fcc1 	bl	8086464 <abs>
 8084ae2:	2264      	movs	r2, #100	; 0x64
 8084ae4:	fb90 f3f2 	sdiv	r3, r0, r2
 8084ae8:	fb03 0012 	mls	r0, r3, r2, r0
 8084aec:	f1b8 0f00 	cmp.w	r8, #0
 8084af0:	da06      	bge.n	8084b00 <strftime+0x3c0>
 8084af2:	696a      	ldr	r2, [r5, #20]
 8084af4:	4b65      	ldr	r3, [pc, #404]	; (8084c8c <strftime+0x54c>)
 8084af6:	429a      	cmp	r2, r3
 8084af8:	bfb8      	it	lt
 8084afa:	f04f 0801 	movlt.w	r8, #1
 8084afe:	e006      	b.n	8084b0e <strftime+0x3ce>
 8084b00:	d005      	beq.n	8084b0e <strftime+0x3ce>
 8084b02:	696a      	ldr	r2, [r5, #20]
 8084b04:	4b56      	ldr	r3, [pc, #344]	; (8084c60 <strftime+0x520>)
 8084b06:	429a      	cmp	r2, r3
 8084b08:	bfb8      	it	lt
 8084b0a:	f04f 38ff 	movlt.w	r8, #4294967295
 8084b0e:	2364      	movs	r3, #100	; 0x64
 8084b10:	4440      	add	r0, r8
 8084b12:	fb90 f2f3 	sdiv	r2, r0, r3
 8084b16:	fb03 0012 	mls	r0, r3, r2, r0
 8084b1a:	4418      	add	r0, r3
 8084b1c:	e1f8      	b.n	8084f10 <strftime+0x7d0>
 8084b1e:	4b50      	ldr	r3, [pc, #320]	; (8084c60 <strftime+0x520>)
 8084b20:	6969      	ldr	r1, [r5, #20]
 8084b22:	4628      	mov	r0, r5
 8084b24:	4299      	cmp	r1, r3
 8084b26:	bfac      	ite	ge
 8084b28:	2300      	movge	r3, #0
 8084b2a:	2301      	movlt	r3, #1
 8084b2c:	9108      	str	r1, [sp, #32]
 8084b2e:	9307      	str	r3, [sp, #28]
 8084b30:	f7ff fda5 	bl	808467e <iso_year_adjust>
 8084b34:	9908      	ldr	r1, [sp, #32]
 8084b36:	4683      	mov	fp, r0
 8084b38:	2900      	cmp	r1, #0
 8084b3a:	db04      	blt.n	8084b46 <strftime+0x406>
 8084b3c:	2364      	movs	r3, #100	; 0x64
 8084b3e:	fb91 f3f3 	sdiv	r3, r1, r3
 8084b42:	3313      	adds	r3, #19
 8084b44:	e008      	b.n	8084b58 <strftime+0x418>
 8084b46:	f201 706c 	addw	r0, r1, #1900	; 0x76c
 8084b4a:	9108      	str	r1, [sp, #32]
 8084b4c:	f001 fc8a 	bl	8086464 <abs>
 8084b50:	2364      	movs	r3, #100	; 0x64
 8084b52:	fb90 f3f3 	sdiv	r3, r0, r3
 8084b56:	9908      	ldr	r1, [sp, #32]
 8084b58:	6968      	ldr	r0, [r5, #20]
 8084b5a:	2800      	cmp	r0, #0
 8084b5c:	db06      	blt.n	8084b6c <strftime+0x42c>
 8084b5e:	f04f 0e64 	mov.w	lr, #100	; 0x64
 8084b62:	fb90 fcfe 	sdiv	ip, r0, lr
 8084b66:	fb0e 001c 	mls	r0, lr, ip, r0
 8084b6a:	e00d      	b.n	8084b88 <strftime+0x448>
 8084b6c:	f200 706c 	addw	r0, r0, #1900	; 0x76c
 8084b70:	9109      	str	r1, [sp, #36]	; 0x24
 8084b72:	9308      	str	r3, [sp, #32]
 8084b74:	f001 fc76 	bl	8086464 <abs>
 8084b78:	f04f 0e64 	mov.w	lr, #100	; 0x64
 8084b7c:	fb90 fcfe 	sdiv	ip, r0, lr
 8084b80:	fb0c 001e 	mls	r0, ip, lr, r0
 8084b84:	9909      	ldr	r1, [sp, #36]	; 0x24
 8084b86:	9b08      	ldr	r3, [sp, #32]
 8084b88:	f1bb 0f00 	cmp.w	fp, #0
 8084b8c:	da08      	bge.n	8084ba0 <strftime+0x460>
 8084b8e:	6969      	ldr	r1, [r5, #20]
 8084b90:	4a3e      	ldr	r2, [pc, #248]	; (8084c8c <strftime+0x54c>)
 8084b92:	4291      	cmp	r1, r2
 8084b94:	da0a      	bge.n	8084bac <strftime+0x46c>
 8084b96:	f04f 0b01 	mov.w	fp, #1
 8084b9a:	f8cd b01c 	str.w	fp, [sp, #28]
 8084b9e:	e005      	b.n	8084bac <strftime+0x46c>
 8084ba0:	d004      	beq.n	8084bac <strftime+0x46c>
 8084ba2:	4a2f      	ldr	r2, [pc, #188]	; (8084c60 <strftime+0x520>)
 8084ba4:	4291      	cmp	r1, r2
 8084ba6:	bfb8      	it	lt
 8084ba8:	f04f 3bff 	movlt.w	fp, #4294967295
 8084bac:	eb0b 0200 	add.w	r2, fp, r0
 8084bb0:	1c50      	adds	r0, r2, #1
 8084bb2:	d102      	bne.n	8084bba <strftime+0x47a>
 8084bb4:	3b01      	subs	r3, #1
 8084bb6:	2263      	movs	r2, #99	; 0x63
 8084bb8:	e003      	b.n	8084bc2 <strftime+0x482>
 8084bba:	2a64      	cmp	r2, #100	; 0x64
 8084bbc:	bf04      	itt	eq
 8084bbe:	3301      	addeq	r3, #1
 8084bc0:	2200      	moveq	r2, #0
 8084bc2:	2064      	movs	r0, #100	; 0x64
 8084bc4:	fb00 2303 	mla	r3, r0, r3, r2
 8084bc8:	9a07      	ldr	r2, [sp, #28]
 8084bca:	b142      	cbz	r2, 8084bde <strftime+0x49e>
 8084bcc:	222d      	movs	r2, #45	; 0x2d
 8084bce:	f88d 2028 	strb.w	r2, [sp, #40]	; 0x28
 8084bd2:	f1b8 0f00 	cmp.w	r8, #0
 8084bd6:	d013      	beq.n	8084c00 <strftime+0x4c0>
 8084bd8:	f108 38ff 	add.w	r8, r8, #4294967295
 8084bdc:	e010      	b.n	8084c00 <strftime+0x4c0>
 8084bde:	f1ba 0f2b 	cmp.w	sl, #43	; 0x2b
 8084be2:	d110      	bne.n	8084c06 <strftime+0x4c6>
 8084be4:	f242 720f 	movw	r2, #9999	; 0x270f
 8084be8:	4293      	cmp	r3, r2
 8084bea:	d90c      	bls.n	8084c06 <strftime+0x4c6>
 8084bec:	f88d a028 	strb.w	sl, [sp, #40]	; 0x28
 8084bf0:	f1b8 0f00 	cmp.w	r8, #0
 8084bf4:	d1f0      	bne.n	8084bd8 <strftime+0x498>
 8084bf6:	aa12      	add	r2, sp, #72	; 0x48
 8084bf8:	2125      	movs	r1, #37	; 0x25
 8084bfa:	f802 1d1f 	strb.w	r1, [r2, #-31]!
 8084bfe:	e00a      	b.n	8084c16 <strftime+0x4d6>
 8084c00:	f10d 0229 	add.w	r2, sp, #41	; 0x29
 8084c04:	e000      	b.n	8084c08 <strftime+0x4c8>
 8084c06:	aa0a      	add	r2, sp, #40	; 0x28
 8084c08:	2125      	movs	r1, #37	; 0x25
 8084c0a:	7011      	strb	r1, [r2, #0]
 8084c0c:	f1ba 0f00 	cmp.w	sl, #0
 8084c10:	d101      	bne.n	8084c16 <strftime+0x4d6>
 8084c12:	1c50      	adds	r0, r2, #1
 8084c14:	e002      	b.n	8084c1c <strftime+0x4dc>
 8084c16:	2130      	movs	r1, #48	; 0x30
 8084c18:	1c90      	adds	r0, r2, #2
 8084c1a:	7051      	strb	r1, [r2, #1]
 8084c1c:	491c      	ldr	r1, [pc, #112]	; (8084c90 <strftime+0x550>)
 8084c1e:	9307      	str	r3, [sp, #28]
 8084c20:	f7ff fd0a 	bl	8084638 <strcpy>
 8084c24:	9b07      	ldr	r3, [sp, #28]
 8084c26:	9300      	str	r3, [sp, #0]
 8084c28:	e1ac      	b.n	8084f84 <strftime+0x844>
 8084c2a:	4a14      	ldr	r2, [pc, #80]	; (8084c7c <strftime+0x53c>)
 8084c2c:	4912      	ldr	r1, [pc, #72]	; (8084c78 <strftime+0x538>)
 8084c2e:	68ab      	ldr	r3, [r5, #8]
 8084c30:	286b      	cmp	r0, #107	; 0x6b
 8084c32:	bf08      	it	eq
 8084c34:	460a      	moveq	r2, r1
 8084c36:	e6e4      	b.n	8084a02 <strftime+0x2c2>
 8084c38:	68a9      	ldr	r1, [r5, #8]
 8084c3a:	230c      	movs	r3, #12
 8084c3c:	b131      	cbz	r1, 8084c4c <strftime+0x50c>
 8084c3e:	4299      	cmp	r1, r3
 8084c40:	bf16      	itet	ne
 8084c42:	fb91 f2f3 	sdivne	r2, r1, r3
 8084c46:	460b      	moveq	r3, r1
 8084c48:	fb03 1312 	mlsne	r3, r3, r2, r1
 8084c4c:	4a0a      	ldr	r2, [pc, #40]	; (8084c78 <strftime+0x538>)
 8084c4e:	490b      	ldr	r1, [pc, #44]	; (8084c7c <strftime+0x53c>)
 8084c50:	2849      	cmp	r0, #73	; 0x49
 8084c52:	bf08      	it	eq
 8084c54:	460a      	moveq	r2, r1
 8084c56:	e6d4      	b.n	8084a02 <strftime+0x2c2>
 8084c58:	69eb      	ldr	r3, [r5, #28]
 8084c5a:	4a0e      	ldr	r2, [pc, #56]	; (8084c94 <strftime+0x554>)
 8084c5c:	3301      	adds	r3, #1
 8084c5e:	e6d0      	b.n	8084a02 <strftime+0x2c2>
 8084c60:	fffff894 	.word	0xfffff894
 8084c64:	08087f2b 	.word	0x08087f2b
 8084c68:	08087ab0 	.word	0x08087ab0
 8084c6c:	08087f1c 	.word	0x08087f1c
 8084c70:	08087f23 	.word	0x08087f23
 8084c74:	08087f2d 	.word	0x08087f2d
 8084c78:	08087f2f 	.word	0x08087f2f
 8084c7c:	08087f3d 	.word	0x08087f3d
 8084c80:	08087f33 	.word	0x08087f33
 8084c84:	08087698 	.word	0x08087698
 8084c88:	08087f42 	.word	0x08087f42
 8084c8c:	fffff895 	.word	0xfffff895
 8084c90:	08087f4a 	.word	0x08087f4a
 8084c94:	08087f4e 	.word	0x08087f4e
 8084c98:	692b      	ldr	r3, [r5, #16]
 8084c9a:	3301      	adds	r3, #1
 8084c9c:	e13c      	b.n	8084f18 <strftime+0x7d8>
 8084c9e:	686b      	ldr	r3, [r5, #4]
 8084ca0:	e13a      	b.n	8084f18 <strftime+0x7d8>
 8084ca2:	9b02      	ldr	r3, [sp, #8]
 8084ca4:	429c      	cmp	r4, r3
 8084ca6:	f080 81f5 	bcs.w	8085094 <strftime+0x954>
 8084caa:	230a      	movs	r3, #10
 8084cac:	e1e5      	b.n	808507a <strftime+0x93a>
 8084cae:	68ab      	ldr	r3, [r5, #8]
 8084cb0:	9a03      	ldr	r2, [sp, #12]
 8084cb2:	2b0b      	cmp	r3, #11
 8084cb4:	bfcc      	ite	gt
 8084cb6:	23a4      	movgt	r3, #164	; 0xa4
 8084cb8:	23a0      	movle	r3, #160	; 0xa0
 8084cba:	4413      	add	r3, r2
 8084cbc:	f8d3 8004 	ldr.w	r8, [r3, #4]
 8084cc0:	4640      	mov	r0, r8
 8084cc2:	f000 f9f1 	bl	80850a8 <strlen>
 8084cc6:	4642      	mov	r2, r8
 8084cc8:	4bb1      	ldr	r3, [pc, #708]	; (8084f90 <strftime+0x850>)
 8084cca:	1939      	adds	r1, r7, r4
 8084ccc:	f8d3 e000 	ldr.w	lr, [r3]
 8084cd0:	4420      	add	r0, r4
 8084cd2:	4284      	cmp	r4, r0
 8084cd4:	f000 81d3 	beq.w	808507e <strftime+0x93e>
 8084cd8:	9b02      	ldr	r3, [sp, #8]
 8084cda:	429c      	cmp	r4, r3
 8084cdc:	f080 81da 	bcs.w	8085094 <strftime+0x954>
 8084ce0:	f899 3000 	ldrb.w	r3, [r9]
 8084ce4:	3401      	adds	r4, #1
 8084ce6:	2b50      	cmp	r3, #80	; 0x50
 8084ce8:	7813      	ldrb	r3, [r2, #0]
 8084cea:	d10a      	bne.n	8084d02 <strftime+0x5c2>
 8084cec:	eb0e 0c03 	add.w	ip, lr, r3
 8084cf0:	f89c c001 	ldrb.w	ip, [ip, #1]
 8084cf4:	f00c 0c03 	and.w	ip, ip, #3
 8084cf8:	f1bc 0f01 	cmp.w	ip, #1
 8084cfc:	bf08      	it	eq
 8084cfe:	3320      	addeq	r3, #32
 8084d00:	b2db      	uxtb	r3, r3
 8084d02:	f801 3b01 	strb.w	r3, [r1], #1
 8084d06:	3201      	adds	r2, #1
 8084d08:	e7e3      	b.n	8084cd2 <strftime+0x592>
 8084d0a:	686b      	ldr	r3, [r5, #4]
 8084d0c:	4aa1      	ldr	r2, [pc, #644]	; (8084f94 <strftime+0x854>)
 8084d0e:	9300      	str	r3, [sp, #0]
 8084d10:	68ab      	ldr	r3, [r5, #8]
 8084d12:	e139      	b.n	8084f88 <strftime+0x848>
 8084d14:	6a2b      	ldr	r3, [r5, #32]
 8084d16:	2b00      	cmp	r3, #0
 8084d18:	db17      	blt.n	8084d4a <strftime+0x60a>
 8084d1a:	f001 fa1b 	bl	8086154 <__tz_lock>
 8084d1e:	9b06      	ldr	r3, [sp, #24]
 8084d20:	b91b      	cbnz	r3, 8084d2a <strftime+0x5ea>
 8084d22:	f001 fa19 	bl	8086158 <_tzset_unlocked>
 8084d26:	2301      	movs	r3, #1
 8084d28:	9306      	str	r3, [sp, #24]
 8084d2a:	f001 ff01 	bl	8086b30 <__gettzinfo>
 8084d2e:	6a2b      	ldr	r3, [r5, #32]
 8084d30:	221c      	movs	r2, #28
 8084d32:	2b00      	cmp	r3, #0
 8084d34:	bfd4      	ite	le
 8084d36:	2300      	movle	r3, #0
 8084d38:	2301      	movgt	r3, #1
 8084d3a:	fb02 0003 	mla	r0, r2, r3, r0
 8084d3e:	6a03      	ldr	r3, [r0, #32]
 8084d40:	f1c3 0800 	rsb	r8, r3, #0
 8084d44:	f001 fa07 	bl	8086156 <__tz_unlock>
 8084d48:	e001      	b.n	8084d4e <strftime+0x60e>
 8084d4a:	f04f 0800 	mov.w	r8, #0
 8084d4e:	f8d5 e014 	ldr.w	lr, [r5, #20]
 8084d52:	ebc4 0c06 	rsb	ip, r4, r6
 8084d56:	4670      	mov	r0, lr
 8084d58:	f1be 0245 	subs.w	r2, lr, #69	; 0x45
 8084d5c:	ea4f 71e0 	mov.w	r1, r0, asr #31
 8084d60:	f141 33ff 	adc.w	r3, r1, #4294967295
 8084d64:	2a00      	cmp	r2, #0
 8084d66:	f173 0b00 	sbcs.w	fp, r3, #0
 8084d6a:	eb07 0a04 	add.w	sl, r7, r4
 8084d6e:	da03      	bge.n	8084d78 <strftime+0x638>
 8084d70:	f1be 0242 	subs.w	r2, lr, #66	; 0x42
 8084d74:	f141 33ff 	adc.w	r3, r1, #4294967295
 8084d78:	0891      	lsrs	r1, r2, #2
 8084d7a:	ea41 7183 	orr.w	r1, r1, r3, lsl #30
 8084d7e:	109b      	asrs	r3, r3, #2
 8084d80:	9104      	str	r1, [sp, #16]
 8084d82:	9305      	str	r3, [sp, #20]
 8084d84:	f10e 31ff 	add.w	r1, lr, #4294967295
 8084d88:	2364      	movs	r3, #100	; 0x64
 8084d8a:	fb91 f1f3 	sdiv	r1, r1, r3
 8084d8e:	e9dd 2304 	ldrd	r2, r3, [sp, #16]
 8084d92:	1a52      	subs	r2, r2, r1
 8084d94:	eb63 73e1 	sbc.w	r3, r3, r1, asr #31
 8084d98:	f20e 102b 	addw	r0, lr, #299	; 0x12b
 8084d9c:	f44f 71c8 	mov.w	r1, #400	; 0x190
 8084da0:	fb90 f1f1 	sdiv	r1, r0, r1
 8084da4:	1852      	adds	r2, r2, r1
 8084da6:	eb43 73e1 	adc.w	r3, r3, r1, asr #31
 8084daa:	f240 116d 	movw	r1, #365	; 0x16d
 8084dae:	f1ae 0e46 	sub.w	lr, lr, #70	; 0x46
 8084db2:	fb01 fe0e 	mul.w	lr, r1, lr
 8084db6:	69e9      	ldr	r1, [r5, #28]
 8084db8:	eb12 020e 	adds.w	r2, r2, lr
 8084dbc:	eb43 73ee 	adc.w	r3, r3, lr, asr #31
 8084dc0:	1852      	adds	r2, r2, r1
 8084dc2:	f04f 0e18 	mov.w	lr, #24
 8084dc6:	eb43 73e1 	adc.w	r3, r3, r1, asr #31
 8084dca:	fba2 010e 	umull	r0, r1, r2, lr
 8084dce:	fb0e 1103 	mla	r1, lr, r3, r1
 8084dd2:	68ab      	ldr	r3, [r5, #8]
 8084dd4:	f04f 0e3c 	mov.w	lr, #60	; 0x3c
 8084dd8:	18c0      	adds	r0, r0, r3
 8084dda:	eb41 71e3 	adc.w	r1, r1, r3, asr #31
 8084dde:	fba0 230e 	umull	r2, r3, r0, lr
 8084de2:	fb0e 3301 	mla	r3, lr, r1, r3
 8084de6:	6869      	ldr	r1, [r5, #4]
 8084de8:	1852      	adds	r2, r2, r1
 8084dea:	eb43 73e1 	adc.w	r3, r3, r1, asr #31
 8084dee:	fba2 010e 	umull	r0, r1, r2, lr
 8084df2:	fb0e 1103 	mla	r1, lr, r3, r1
 8084df6:	682b      	ldr	r3, [r5, #0]
 8084df8:	4a67      	ldr	r2, [pc, #412]	; (8084f98 <strftime+0x858>)
 8084dfa:	18c0      	adds	r0, r0, r3
 8084dfc:	eb41 71e3 	adc.w	r1, r1, r3, asr #31
 8084e00:	ebb0 0008 	subs.w	r0, r0, r8
 8084e04:	eb61 71e8 	sbc.w	r1, r1, r8, asr #31
 8084e08:	e9cd 0100 	strd	r0, r1, [sp]
 8084e0c:	4661      	mov	r1, ip
 8084e0e:	4650      	mov	r0, sl
 8084e10:	f7fd f8c4 	bl	8081f9c <sniprintf>
 8084e14:	e5f9      	b.n	8084a0a <strftime+0x2ca>
 8084e16:	682b      	ldr	r3, [r5, #0]
 8084e18:	e07e      	b.n	8084f18 <strftime+0x7d8>
 8084e1a:	9b02      	ldr	r3, [sp, #8]
 8084e1c:	429c      	cmp	r4, r3
 8084e1e:	f080 8139 	bcs.w	8085094 <strftime+0x954>
 8084e22:	2309      	movs	r3, #9
 8084e24:	e129      	b.n	808507a <strftime+0x93a>
 8084e26:	682b      	ldr	r3, [r5, #0]
 8084e28:	4a5c      	ldr	r2, [pc, #368]	; (8084f9c <strftime+0x85c>)
 8084e2a:	9301      	str	r3, [sp, #4]
 8084e2c:	686b      	ldr	r3, [r5, #4]
 8084e2e:	9300      	str	r3, [sp, #0]
 8084e30:	68ab      	ldr	r3, [r5, #8]
 8084e32:	1b31      	subs	r1, r6, r4
 8084e34:	1938      	adds	r0, r7, r4
 8084e36:	e60e      	b.n	8084a56 <strftime+0x316>
 8084e38:	9b02      	ldr	r3, [sp, #8]
 8084e3a:	429c      	cmp	r4, r3
 8084e3c:	f080 812a 	bcs.w	8085094 <strftime+0x954>
 8084e40:	69ab      	ldr	r3, [r5, #24]
 8084e42:	1c62      	adds	r2, r4, #1
 8084e44:	b90b      	cbnz	r3, 8084e4a <strftime+0x70a>
 8084e46:	2337      	movs	r3, #55	; 0x37
 8084e48:	e000      	b.n	8084e4c <strftime+0x70c>
 8084e4a:	3330      	adds	r3, #48	; 0x30
 8084e4c:	553b      	strb	r3, [r7, r4]
 8084e4e:	4614      	mov	r4, r2
 8084e50:	e115      	b.n	808507e <strftime+0x93e>
 8084e52:	69eb      	ldr	r3, [r5, #28]
 8084e54:	69aa      	ldr	r2, [r5, #24]
 8084e56:	3307      	adds	r3, #7
 8084e58:	1a9b      	subs	r3, r3, r2
 8084e5a:	2207      	movs	r2, #7
 8084e5c:	fb93 f3f2 	sdiv	r3, r3, r2
 8084e60:	e05a      	b.n	8084f18 <strftime+0x7d8>
 8084e62:	4628      	mov	r0, r5
 8084e64:	f7ff fc0b 	bl	808467e <iso_year_adjust>
 8084e68:	69aa      	ldr	r2, [r5, #24]
 8084e6a:	b10a      	cbz	r2, 8084e70 <strftime+0x730>
 8084e6c:	1e53      	subs	r3, r2, #1
 8084e6e:	e000      	b.n	8084e72 <strftime+0x732>
 8084e70:	2306      	movs	r3, #6
 8084e72:	2800      	cmp	r0, #0
 8084e74:	dc2f      	bgt.n	8084ed6 <strftime+0x796>
 8084e76:	69ea      	ldr	r2, [r5, #28]
 8084e78:	d101      	bne.n	8084e7e <strftime+0x73e>
 8084e7a:	320a      	adds	r2, #10
 8084e7c:	e03b      	b.n	8084ef6 <strftime+0x7b6>
 8084e7e:	f240 716b 	movw	r1, #1899	; 0x76b
 8084e82:	1a9a      	subs	r2, r3, r2
 8084e84:	696b      	ldr	r3, [r5, #20]
 8084e86:	2b00      	cmp	r3, #0
 8084e88:	bfb4      	ite	lt
 8084e8a:	4608      	movlt	r0, r1
 8084e8c:	f06f 0064 	mvnge.w	r0, #100	; 0x64
 8084e90:	4418      	add	r0, r3
 8084e92:	0781      	lsls	r1, r0, #30
 8084e94:	d107      	bne.n	8084ea6 <strftime+0x766>
 8084e96:	f04f 0e64 	mov.w	lr, #100	; 0x64
 8084e9a:	4601      	mov	r1, r0
 8084e9c:	fb90 f0fe 	sdiv	r0, r0, lr
 8084ea0:	fb0e 1110 	mls	r1, lr, r0, r1
 8084ea4:	b981      	cbnz	r1, 8084ec8 <strftime+0x788>
 8084ea6:	f240 716b 	movw	r1, #1899	; 0x76b
 8084eaa:	2b00      	cmp	r3, #0
 8084eac:	bfa8      	it	ge
 8084eae:	f06f 0164 	mvnge.w	r1, #100	; 0x64
 8084eb2:	4419      	add	r1, r3
 8084eb4:	f44f 73c8 	mov.w	r3, #400	; 0x190
 8084eb8:	fb91 f0f3 	sdiv	r0, r1, r3
 8084ebc:	fb03 1110 	mls	r1, r3, r0, r1
 8084ec0:	fab1 f181 	clz	r1, r1
 8084ec4:	0949      	lsrs	r1, r1, #5
 8084ec6:	e000      	b.n	8084eca <strftime+0x78a>
 8084ec8:	2101      	movs	r1, #1
 8084eca:	1a52      	subs	r2, r2, r1
 8084ecc:	2a05      	cmp	r2, #5
 8084ece:	bfb4      	ite	lt
 8084ed0:	2335      	movlt	r3, #53	; 0x35
 8084ed2:	2334      	movge	r3, #52	; 0x34
 8084ed4:	e020      	b.n	8084f18 <strftime+0x7d8>
 8084ed6:	2301      	movs	r3, #1
 8084ed8:	e01e      	b.n	8084f18 <strftime+0x7d8>
 8084eda:	9b02      	ldr	r3, [sp, #8]
 8084edc:	429c      	cmp	r4, r3
 8084ede:	f080 80d9 	bcs.w	8085094 <strftime+0x954>
 8084ee2:	69ab      	ldr	r3, [r5, #24]
 8084ee4:	3330      	adds	r3, #48	; 0x30
 8084ee6:	e0c8      	b.n	808507a <strftime+0x93a>
 8084ee8:	69aa      	ldr	r2, [r5, #24]
 8084eea:	b10a      	cbz	r2, 8084ef0 <strftime+0x7b0>
 8084eec:	1e53      	subs	r3, r2, #1
 8084eee:	e000      	b.n	8084ef2 <strftime+0x7b2>
 8084ef0:	2306      	movs	r3, #6
 8084ef2:	69ea      	ldr	r2, [r5, #28]
 8084ef4:	3207      	adds	r2, #7
 8084ef6:	1ad2      	subs	r2, r2, r3
 8084ef8:	2307      	movs	r3, #7
 8084efa:	fb92 f3f3 	sdiv	r3, r2, r3
 8084efe:	e00b      	b.n	8084f18 <strftime+0x7d8>
 8084f00:	6968      	ldr	r0, [r5, #20]
 8084f02:	2800      	cmp	r0, #0
 8084f04:	da03      	bge.n	8084f0e <strftime+0x7ce>
 8084f06:	f200 706c 	addw	r0, r0, #1900	; 0x76c
 8084f0a:	f001 faab 	bl	8086464 <abs>
 8084f0e:	2364      	movs	r3, #100	; 0x64
 8084f10:	fb90 f2f3 	sdiv	r2, r0, r3
 8084f14:	fb02 0313 	mls	r3, r2, r3, r0
 8084f18:	4a21      	ldr	r2, [pc, #132]	; (8084fa0 <strftime+0x860>)
 8084f1a:	e572      	b.n	8084a02 <strftime+0x2c2>
 8084f1c:	696b      	ldr	r3, [r5, #20]
 8084f1e:	4a21      	ldr	r2, [pc, #132]	; (8084fa4 <strftime+0x864>)
 8084f20:	f203 7b6c 	addw	fp, r3, #1900	; 0x76c
 8084f24:	4293      	cmp	r3, r2
 8084f26:	da05      	bge.n	8084f34 <strftime+0x7f4>
 8084f28:	232d      	movs	r3, #45	; 0x2d
 8084f2a:	f88d 3028 	strb.w	r3, [sp, #40]	; 0x28
 8084f2e:	f1cb 0b00 	rsb	fp, fp, #0
 8084f32:	e008      	b.n	8084f46 <strftime+0x806>
 8084f34:	f1ba 0f2b 	cmp.w	sl, #43	; 0x2b
 8084f38:	d10d      	bne.n	8084f56 <strftime+0x816>
 8084f3a:	f242 730f 	movw	r3, #9999	; 0x270f
 8084f3e:	459b      	cmp	fp, r3
 8084f40:	d911      	bls.n	8084f66 <strftime+0x826>
 8084f42:	f88d a028 	strb.w	sl, [sp, #40]	; 0x28
 8084f46:	f1b8 0f00 	cmp.w	r8, #0
 8084f4a:	d001      	beq.n	8084f50 <strftime+0x810>
 8084f4c:	f108 38ff 	add.w	r8, r8, #4294967295
 8084f50:	f10d 0329 	add.w	r3, sp, #41	; 0x29
 8084f54:	e000      	b.n	8084f58 <strftime+0x818>
 8084f56:	ab0a      	add	r3, sp, #40	; 0x28
 8084f58:	2225      	movs	r2, #37	; 0x25
 8084f5a:	701a      	strb	r2, [r3, #0]
 8084f5c:	f1ba 0f00 	cmp.w	sl, #0
 8084f60:	d108      	bne.n	8084f74 <strftime+0x834>
 8084f62:	1c58      	adds	r0, r3, #1
 8084f64:	e009      	b.n	8084f7a <strftime+0x83a>
 8084f66:	f1b8 0f00 	cmp.w	r8, #0
 8084f6a:	d1f4      	bne.n	8084f56 <strftime+0x816>
 8084f6c:	2325      	movs	r3, #37	; 0x25
 8084f6e:	f88d 3028 	strb.w	r3, [sp, #40]	; 0x28
 8084f72:	ab0a      	add	r3, sp, #40	; 0x28
 8084f74:	2230      	movs	r2, #48	; 0x30
 8084f76:	1c98      	adds	r0, r3, #2
 8084f78:	705a      	strb	r2, [r3, #1]
 8084f7a:	490b      	ldr	r1, [pc, #44]	; (8084fa8 <strftime+0x868>)
 8084f7c:	f7ff fb5c 	bl	8084638 <strcpy>
 8084f80:	f8cd b000 	str.w	fp, [sp]
 8084f84:	4643      	mov	r3, r8
 8084f86:	aa0a      	add	r2, sp, #40	; 0x28
 8084f88:	1b31      	subs	r1, r6, r4
 8084f8a:	1938      	adds	r0, r7, r4
 8084f8c:	e03f      	b.n	808500e <strftime+0x8ce>
 8084f8e:	bf00      	nop
 8084f90:	20000014 	.word	0x20000014
 8084f94:	08087f5d 	.word	0x08087f5d
 8084f98:	08087f53 	.word	0x08087f53
 8084f9c:	08087f58 	.word	0x08087f58
 8084fa0:	08087f3d 	.word	0x08087f3d
 8084fa4:	fffff894 	.word	0xfffff894
 8084fa8:	08087f4a 	.word	0x08087f4a
 8084fac:	6a2b      	ldr	r3, [r5, #32]
 8084fae:	2b00      	cmp	r3, #0
 8084fb0:	db65      	blt.n	808507e <strftime+0x93e>
 8084fb2:	f001 f8cf 	bl	8086154 <__tz_lock>
 8084fb6:	9b06      	ldr	r3, [sp, #24]
 8084fb8:	b91b      	cbnz	r3, 8084fc2 <strftime+0x882>
 8084fba:	f001 f8cd 	bl	8086158 <_tzset_unlocked>
 8084fbe:	2301      	movs	r3, #1
 8084fc0:	9306      	str	r3, [sp, #24]
 8084fc2:	f001 fdb5 	bl	8086b30 <__gettzinfo>
 8084fc6:	6a2b      	ldr	r3, [r5, #32]
 8084fc8:	221c      	movs	r2, #28
 8084fca:	2b00      	cmp	r3, #0
 8084fcc:	bfd4      	ite	le
 8084fce:	2300      	movle	r3, #0
 8084fd0:	2301      	movgt	r3, #1
 8084fd2:	fb02 0003 	mla	r0, r2, r3, r0
 8084fd6:	6a03      	ldr	r3, [r0, #32]
 8084fd8:	eb07 0a04 	add.w	sl, r7, r4
 8084fdc:	f1c3 0800 	rsb	r8, r3, #0
 8084fe0:	f001 f8b9 	bl	8086156 <__tz_unlock>
 8084fe4:	233c      	movs	r3, #60	; 0x3c
 8084fe6:	fb98 f0f3 	sdiv	r0, r8, r3
 8084fea:	9307      	str	r3, [sp, #28]
 8084fec:	f001 fe3a 	bl	8086c64 <labs>
 8084ff0:	9b07      	ldr	r3, [sp, #28]
 8084ff2:	ebc4 0b06 	rsb	fp, r4, r6
 8084ff6:	fb90 f2f3 	sdiv	r2, r0, r3
 8084ffa:	fb02 0013 	mls	r0, r2, r3, r0
 8084ffe:	f44f 6361 	mov.w	r3, #3600	; 0xe10
 8085002:	9000      	str	r0, [sp, #0]
 8085004:	fb98 f3f3 	sdiv	r3, r8, r3
 8085008:	4659      	mov	r1, fp
 808500a:	4650      	mov	r0, sl
 808500c:	4a24      	ldr	r2, [pc, #144]	; (80850a0 <strftime+0x960>)
 808500e:	f7fc ffc5 	bl	8081f9c <sniprintf>
 8085012:	e4fa      	b.n	8084a0a <strftime+0x2ca>
 8085014:	4404      	add	r4, r0
 8085016:	42a6      	cmp	r6, r4
 8085018:	d831      	bhi.n	808507e <strftime+0x93e>
 808501a:	e03b      	b.n	8085094 <strftime+0x954>
 808501c:	6a2b      	ldr	r3, [r5, #32]
 808501e:	2b00      	cmp	r3, #0
 8085020:	db2d      	blt.n	808507e <strftime+0x93e>
 8085022:	f001 f897 	bl	8086154 <__tz_lock>
 8085026:	9b06      	ldr	r3, [sp, #24]
 8085028:	b91b      	cbnz	r3, 8085032 <strftime+0x8f2>
 808502a:	f001 f895 	bl	8086158 <_tzset_unlocked>
 808502e:	2301      	movs	r3, #1
 8085030:	9306      	str	r3, [sp, #24]
 8085032:	6a2b      	ldr	r3, [r5, #32]
 8085034:	4a1b      	ldr	r2, [pc, #108]	; (80850a4 <strftime+0x964>)
 8085036:	2b00      	cmp	r3, #0
 8085038:	bfd4      	ite	le
 808503a:	2300      	movle	r3, #0
 808503c:	2301      	movgt	r3, #1
 808503e:	f852 8023 	ldr.w	r8, [r2, r3, lsl #2]
 8085042:	4640      	mov	r0, r8
 8085044:	f000 f830 	bl	80850a8 <strlen>
 8085048:	f108 38ff 	add.w	r8, r8, #4294967295
 808504c:	193b      	adds	r3, r7, r4
 808504e:	4420      	add	r0, r4
 8085050:	4284      	cmp	r4, r0
 8085052:	d00b      	beq.n	808506c <strftime+0x92c>
 8085054:	9a02      	ldr	r2, [sp, #8]
 8085056:	4294      	cmp	r4, r2
 8085058:	d205      	bcs.n	8085066 <strftime+0x926>
 808505a:	f818 2f01 	ldrb.w	r2, [r8, #1]!
 808505e:	3401      	adds	r4, #1
 8085060:	f803 2b01 	strb.w	r2, [r3], #1
 8085064:	e7f4      	b.n	8085050 <strftime+0x910>
 8085066:	f001 f876 	bl	8086156 <__tz_unlock>
 808506a:	e013      	b.n	8085094 <strftime+0x954>
 808506c:	f001 f873 	bl	8086156 <__tz_unlock>
 8085070:	e005      	b.n	808507e <strftime+0x93e>
 8085072:	9b02      	ldr	r3, [sp, #8]
 8085074:	429c      	cmp	r4, r3
 8085076:	d20d      	bcs.n	8085094 <strftime+0x954>
 8085078:	2325      	movs	r3, #37	; 0x25
 808507a:	553b      	strb	r3, [r7, r4]
 808507c:	3401      	adds	r4, #1
 808507e:	f899 3000 	ldrb.w	r3, [r9]
 8085082:	b11b      	cbz	r3, 808508c <strftime+0x94c>
 8085084:	f109 0901 	add.w	r9, r9, #1
 8085088:	f7ff bb69 	b.w	808475e <strftime+0x1e>
 808508c:	b126      	cbz	r6, 8085098 <strftime+0x958>
 808508e:	2300      	movs	r3, #0
 8085090:	553b      	strb	r3, [r7, r4]
 8085092:	e001      	b.n	8085098 <strftime+0x958>
 8085094:	2000      	movs	r0, #0
 8085096:	e000      	b.n	808509a <strftime+0x95a>
 8085098:	4620      	mov	r0, r4
 808509a:	b013      	add	sp, #76	; 0x4c
 808509c:	e8bd 8ff0 	ldmia.w	sp!, {r4, r5, r6, r7, r8, r9, sl, fp, pc}
 80850a0:	08087f67 	.word	0x08087f67
 80850a4:	200000b4 	.word	0x200000b4

080850a8 <strlen>:
 80850a8:	4603      	mov	r3, r0
 80850aa:	f813 2b01 	ldrb.w	r2, [r3], #1
 80850ae:	2a00      	cmp	r2, #0
 80850b0:	d1fb      	bne.n	80850aa <strlen+0x2>
 80850b2:	1a18      	subs	r0, r3, r0
 80850b4:	3801      	subs	r0, #1
 80850b6:	4770      	bx	lr

080850b8 <strncmp>:
 80850b8:	b530      	push	{r4, r5, lr}
 80850ba:	b182      	cbz	r2, 80850de <strncmp+0x26>
 80850bc:	1e45      	subs	r5, r0, #1
 80850be:	3901      	subs	r1, #1
 80850c0:	f815 3f01 	ldrb.w	r3, [r5, #1]!
 80850c4:	f811 4f01 	ldrb.w	r4, [r1, #1]!
 80850c8:	42a3      	cmp	r3, r4
 80850ca:	d106      	bne.n	80850da <strncmp+0x22>
 80850cc:	43ec      	mvns	r4, r5
 80850ce:	4414      	add	r4, r2
 80850d0:	42e0      	cmn	r0, r4
 80850d2:	d001      	beq.n	80850d8 <strncmp+0x20>
 80850d4:	2b00      	cmp	r3, #0
 80850d6:	d1f3      	bne.n	80850c0 <strncmp+0x8>
 80850d8:	461c      	mov	r4, r3
 80850da:	1b18      	subs	r0, r3, r4
 80850dc:	bd30      	pop	{r4, r5, pc}
 80850de:	4610      	mov	r0, r2
 80850e0:	bd30      	pop	{r4, r5, pc}

080850e2 <strncpy>:
 80850e2:	4603      	mov	r3, r0
 80850e4:	b510      	push	{r4, lr}
 80850e6:	b142      	cbz	r2, 80850fa <strncpy+0x18>
 80850e8:	f811 4b01 	ldrb.w	r4, [r1], #1
 80850ec:	3a01      	subs	r2, #1
 80850ee:	f803 4b01 	strb.w	r4, [r3], #1
 80850f2:	2c00      	cmp	r4, #0
 80850f4:	d1f7      	bne.n	80850e6 <strncpy+0x4>
 80850f6:	441a      	add	r2, r3
 80850f8:	e000      	b.n	80850fc <strncpy+0x1a>
 80850fa:	bd10      	pop	{r4, pc}
 80850fc:	4293      	cmp	r3, r2
 80850fe:	d002      	beq.n	8085106 <strncpy+0x24>
 8085100:	f803 4b01 	strb.w	r4, [r3], #1
 8085104:	e7fa      	b.n	80850fc <strncpy+0x1a>
 8085106:	bd10      	pop	{r4, pc}

08085108 <strstr>:
 8085108:	b5f0      	push	{r4, r5, r6, r7, lr}
 808510a:	7803      	ldrb	r3, [r0, #0]
 808510c:	b963      	cbnz	r3, 8085128 <strstr+0x20>
 808510e:	780b      	ldrb	r3, [r1, #0]
 8085110:	2b00      	cmp	r3, #0
 8085112:	bf18      	it	ne
 8085114:	2000      	movne	r0, #0
 8085116:	bdf0      	pop	{r4, r5, r6, r7, pc}
 8085118:	f815 2f01 	ldrb.w	r2, [r5, #1]!
 808511c:	b162      	cbz	r2, 8085138 <strstr+0x30>
 808511e:	f814 7f01 	ldrb.w	r7, [r4, #1]!
 8085122:	4630      	mov	r0, r6
 8085124:	4297      	cmp	r7, r2
 8085126:	d0f7      	beq.n	8085118 <strstr+0x10>
 8085128:	4603      	mov	r3, r0
 808512a:	1c46      	adds	r6, r0, #1
 808512c:	7800      	ldrb	r0, [r0, #0]
 808512e:	b110      	cbz	r0, 8085136 <strstr+0x2e>
 8085130:	1e4d      	subs	r5, r1, #1
 8085132:	1e5c      	subs	r4, r3, #1
 8085134:	e7f0      	b.n	8085118 <strstr+0x10>
 8085136:	bdf0      	pop	{r4, r5, r6, r7, pc}
 8085138:	4618      	mov	r0, r3
 808513a:	bdf0      	pop	{r4, r5, r6, r7, pc}

0808513c <sulp>:
 808513c:	e92d 41f0 	stmdb	sp!, {r4, r5, r6, r7, r8, lr}
 8085140:	460f      	mov	r7, r1
 8085142:	4690      	mov	r8, r2
 8085144:	f002 f858 	bl	80871f8 <__ulp>
 8085148:	4604      	mov	r4, r0
 808514a:	460d      	mov	r5, r1
 808514c:	f1b8 0f00 	cmp.w	r8, #0
 8085150:	d011      	beq.n	8085176 <sulp+0x3a>
 8085152:	f3c7 530a 	ubfx	r3, r7, #20, #11
 8085156:	f1c3 036b 	rsb	r3, r3, #107	; 0x6b
 808515a:	2b00      	cmp	r3, #0
 808515c:	dd0b      	ble.n	8085176 <sulp+0x3a>
 808515e:	051b      	lsls	r3, r3, #20
 8085160:	f103 557f 	add.w	r5, r3, #1069547520	; 0x3fc00000
 8085164:	2400      	movs	r4, #0
 8085166:	f505 1540 	add.w	r5, r5, #3145728	; 0x300000
 808516a:	4622      	mov	r2, r4
 808516c:	462b      	mov	r3, r5
 808516e:	f7fe fd7d 	bl	8083c6c <__aeabi_dmul>
 8085172:	e8bd 81f0 	ldmia.w	sp!, {r4, r5, r6, r7, r8, pc}
 8085176:	4620      	mov	r0, r4
 8085178:	4629      	mov	r1, r5
 808517a:	e8bd 81f0 	ldmia.w	sp!, {r4, r5, r6, r7, r8, pc}
	...

08085180 <_strtod_r>:
 8085180:	e92d 4ff0 	stmdb	sp!, {r4, r5, r6, r7, r8, r9, sl, fp, lr}
 8085184:	4682      	mov	sl, r0
 8085186:	460c      	mov	r4, r1
 8085188:	b09d      	sub	sp, #116	; 0x74
 808518a:	2300      	movs	r3, #0
 808518c:	9213      	str	r2, [sp, #76]	; 0x4c
 808518e:	9318      	str	r3, [sp, #96]	; 0x60
 8085190:	f04f 0800 	mov.w	r8, #0
 8085194:	f04f 0900 	mov.w	r9, #0
 8085198:	9117      	str	r1, [sp, #92]	; 0x5c
 808519a:	9b17      	ldr	r3, [sp, #92]	; 0x5c
 808519c:	781a      	ldrb	r2, [r3, #0]
 808519e:	2a0d      	cmp	r2, #13
 80851a0:	d805      	bhi.n	80851ae <_strtod_r+0x2e>
 80851a2:	2a09      	cmp	r2, #9
 80851a4:	d213      	bcs.n	80851ce <_strtod_r+0x4e>
 80851a6:	2a00      	cmp	r2, #0
 80851a8:	f000 81ad 	beq.w	8085506 <_strtod_r+0x386>
 80851ac:	e012      	b.n	80851d4 <_strtod_r+0x54>
 80851ae:	2a2b      	cmp	r2, #43	; 0x2b
 80851b0:	d004      	beq.n	80851bc <_strtod_r+0x3c>
 80851b2:	2a2d      	cmp	r2, #45	; 0x2d
 80851b4:	d004      	beq.n	80851c0 <_strtod_r+0x40>
 80851b6:	2a20      	cmp	r2, #32
 80851b8:	d10c      	bne.n	80851d4 <_strtod_r+0x54>
 80851ba:	e008      	b.n	80851ce <_strtod_r+0x4e>
 80851bc:	2200      	movs	r2, #0
 80851be:	e000      	b.n	80851c2 <_strtod_r+0x42>
 80851c0:	2201      	movs	r2, #1
 80851c2:	920c      	str	r2, [sp, #48]	; 0x30
 80851c4:	1c5a      	adds	r2, r3, #1
 80851c6:	9217      	str	r2, [sp, #92]	; 0x5c
 80851c8:	785b      	ldrb	r3, [r3, #1]
 80851ca:	b92b      	cbnz	r3, 80851d8 <_strtod_r+0x58>
 80851cc:	e19b      	b.n	8085506 <_strtod_r+0x386>
 80851ce:	3301      	adds	r3, #1
 80851d0:	9317      	str	r3, [sp, #92]	; 0x5c
 80851d2:	e7e2      	b.n	808519a <_strtod_r+0x1a>
 80851d4:	2300      	movs	r3, #0
 80851d6:	930c      	str	r3, [sp, #48]	; 0x30
 80851d8:	9d17      	ldr	r5, [sp, #92]	; 0x5c
 80851da:	782b      	ldrb	r3, [r5, #0]
 80851dc:	2b30      	cmp	r3, #48	; 0x30
 80851de:	d15c      	bne.n	808529a <_strtod_r+0x11a>
 80851e0:	786b      	ldrb	r3, [r5, #1]
 80851e2:	2b58      	cmp	r3, #88	; 0x58
 80851e4:	d001      	beq.n	80851ea <_strtod_r+0x6a>
 80851e6:	2b78      	cmp	r3, #120	; 0x78
 80851e8:	d14c      	bne.n	8085284 <_strtod_r+0x104>
 80851ea:	9b0c      	ldr	r3, [sp, #48]	; 0x30
 80851ec:	4aa8      	ldr	r2, [pc, #672]	; (8085490 <_strtod_r+0x310>)
 80851ee:	9301      	str	r3, [sp, #4]
 80851f0:	ab18      	add	r3, sp, #96	; 0x60
 80851f2:	9300      	str	r3, [sp, #0]
 80851f4:	a917      	add	r1, sp, #92	; 0x5c
 80851f6:	ab19      	add	r3, sp, #100	; 0x64
 80851f8:	4650      	mov	r0, sl
 80851fa:	f001 f982 	bl	8086502 <__gethex>
 80851fe:	f010 0607 	ands.w	r6, r0, #7
 8085202:	4604      	mov	r4, r0
 8085204:	f000 8585 	beq.w	8085d12 <_strtod_r+0xb92>
 8085208:	2e06      	cmp	r6, #6
 808520a:	d105      	bne.n	8085218 <_strtod_r+0x98>
 808520c:	3501      	adds	r5, #1
 808520e:	2300      	movs	r3, #0
 8085210:	9517      	str	r5, [sp, #92]	; 0x5c
 8085212:	930c      	str	r3, [sp, #48]	; 0x30
 8085214:	f000 bd7d 	b.w	8085d12 <_strtod_r+0xb92>
 8085218:	9a18      	ldr	r2, [sp, #96]	; 0x60
 808521a:	b13a      	cbz	r2, 808522c <_strtod_r+0xac>
 808521c:	2135      	movs	r1, #53	; 0x35
 808521e:	a81a      	add	r0, sp, #104	; 0x68
 8085220:	f002 f8d1 	bl	80873c6 <__copybits>
 8085224:	9918      	ldr	r1, [sp, #96]	; 0x60
 8085226:	4650      	mov	r0, sl
 8085228:	f001 fd55 	bl	8086cd6 <_Bfree>
 808522c:	2e06      	cmp	r6, #6
 808522e:	d822      	bhi.n	8085276 <_strtod_r+0xf6>
 8085230:	e8df f006 	tbb	[pc, r6]
 8085234:	18080d04 	.word	0x18080d04
 8085238:	0d1d      	.short	0x0d1d
 808523a:	04          	.byte	0x04
 808523b:	00          	.byte	0x00
 808523c:	f04f 0900 	mov.w	r9, #0
 8085240:	46c8      	mov	r8, r9
 8085242:	e018      	b.n	8085276 <_strtod_r+0xf6>
 8085244:	f8dd 8068 	ldr.w	r8, [sp, #104]	; 0x68
 8085248:	f8dd 906c 	ldr.w	r9, [sp, #108]	; 0x6c
 808524c:	e013      	b.n	8085276 <_strtod_r+0xf6>
 808524e:	9b1b      	ldr	r3, [sp, #108]	; 0x6c
 8085250:	9a19      	ldr	r2, [sp, #100]	; 0x64
 8085252:	f423 1380 	bic.w	r3, r3, #1048576	; 0x100000
 8085256:	f202 4233 	addw	r2, r2, #1075	; 0x433
 808525a:	f8dd 8068 	ldr.w	r8, [sp, #104]	; 0x68
 808525e:	ea43 5902 	orr.w	r9, r3, r2, lsl #20
 8085262:	e008      	b.n	8085276 <_strtod_r+0xf6>
 8085264:	f8df 922c 	ldr.w	r9, [pc, #556]	; 8085494 <_strtod_r+0x314>
 8085268:	f04f 0800 	mov.w	r8, #0
 808526c:	e003      	b.n	8085276 <_strtod_r+0xf6>
 808526e:	f06f 4900 	mvn.w	r9, #2147483648	; 0x80000000
 8085272:	f04f 38ff 	mov.w	r8, #4294967295
 8085276:	0721      	lsls	r1, r4, #28
 8085278:	f140 854b 	bpl.w	8085d12 <_strtod_r+0xb92>
 808527c:	f049 4900 	orr.w	r9, r9, #2147483648	; 0x80000000
 8085280:	f000 bd47 	b.w	8085d12 <_strtod_r+0xb92>
 8085284:	9b17      	ldr	r3, [sp, #92]	; 0x5c
 8085286:	1c5a      	adds	r2, r3, #1
 8085288:	9217      	str	r2, [sp, #92]	; 0x5c
 808528a:	785b      	ldrb	r3, [r3, #1]
 808528c:	2b30      	cmp	r3, #48	; 0x30
 808528e:	d0f9      	beq.n	8085284 <_strtod_r+0x104>
 8085290:	2b00      	cmp	r3, #0
 8085292:	f000 853e 	beq.w	8085d12 <_strtod_r+0xb92>
 8085296:	2301      	movs	r3, #1
 8085298:	e000      	b.n	808529c <_strtod_r+0x11c>
 808529a:	2300      	movs	r3, #0
 808529c:	9305      	str	r3, [sp, #20]
 808529e:	9b17      	ldr	r3, [sp, #92]	; 0x5c
 80852a0:	220a      	movs	r2, #10
 80852a2:	9306      	str	r3, [sp, #24]
 80852a4:	2300      	movs	r3, #0
 80852a6:	469b      	mov	fp, r3
 80852a8:	9302      	str	r3, [sp, #8]
 80852aa:	9304      	str	r3, [sp, #16]
 80852ac:	9d17      	ldr	r5, [sp, #92]	; 0x5c
 80852ae:	782e      	ldrb	r6, [r5, #0]
 80852b0:	f1a6 0330 	sub.w	r3, r6, #48	; 0x30
 80852b4:	b2d9      	uxtb	r1, r3
 80852b6:	2909      	cmp	r1, #9
 80852b8:	d811      	bhi.n	80852de <_strtod_r+0x15e>
 80852ba:	f1bb 0f08 	cmp.w	fp, #8
 80852be:	bfd5      	itete	le
 80852c0:	9904      	ldrle	r1, [sp, #16]
 80852c2:	9902      	ldrgt	r1, [sp, #8]
 80852c4:	fb02 3301 	mlale	r3, r2, r1, r3
 80852c8:	fb02 3301 	mlagt	r3, r2, r1, r3
 80852cc:	f105 0501 	add.w	r5, r5, #1
 80852d0:	bfd4      	ite	le
 80852d2:	9304      	strle	r3, [sp, #16]
 80852d4:	9302      	strgt	r3, [sp, #8]
 80852d6:	f10b 0b01 	add.w	fp, fp, #1
 80852da:	9517      	str	r5, [sp, #92]	; 0x5c
 80852dc:	e7e6      	b.n	80852ac <_strtod_r+0x12c>
 80852de:	4650      	mov	r0, sl
 80852e0:	f7ff f952 	bl	8084588 <_localeconv_r>
 80852e4:	6807      	ldr	r7, [r0, #0]
 80852e6:	4650      	mov	r0, sl
 80852e8:	f7ff f94e 	bl	8084588 <_localeconv_r>
 80852ec:	6800      	ldr	r0, [r0, #0]
 80852ee:	f7ff fedb 	bl	80850a8 <strlen>
 80852f2:	4639      	mov	r1, r7
 80852f4:	4602      	mov	r2, r0
 80852f6:	4628      	mov	r0, r5
 80852f8:	f7ff fede 	bl	80850b8 <strncmp>
 80852fc:	4607      	mov	r7, r0
 80852fe:	b128      	cbz	r0, 808530c <_strtod_r+0x18c>
 8085300:	2000      	movs	r0, #0
 8085302:	4633      	mov	r3, r6
 8085304:	465d      	mov	r5, fp
 8085306:	4602      	mov	r2, r0
 8085308:	4601      	mov	r1, r0
 808530a:	e05a      	b.n	80853c2 <_strtod_r+0x242>
 808530c:	4650      	mov	r0, sl
 808530e:	f7ff f93b 	bl	8084588 <_localeconv_r>
 8085312:	6800      	ldr	r0, [r0, #0]
 8085314:	f7ff fec8 	bl	80850a8 <strlen>
 8085318:	9b17      	ldr	r3, [sp, #92]	; 0x5c
 808531a:	181a      	adds	r2, r3, r0
 808531c:	9217      	str	r2, [sp, #92]	; 0x5c
 808531e:	5c1b      	ldrb	r3, [r3, r0]
 8085320:	f1bb 0f00 	cmp.w	fp, #0
 8085324:	d145      	bne.n	80853b2 <_strtod_r+0x232>
 8085326:	4658      	mov	r0, fp
 8085328:	2b30      	cmp	r3, #48	; 0x30
 808532a:	d105      	bne.n	8085338 <_strtod_r+0x1b8>
 808532c:	9b17      	ldr	r3, [sp, #92]	; 0x5c
 808532e:	3001      	adds	r0, #1
 8085330:	1c5a      	adds	r2, r3, #1
 8085332:	9217      	str	r2, [sp, #92]	; 0x5c
 8085334:	785b      	ldrb	r3, [r3, #1]
 8085336:	e7f7      	b.n	8085328 <_strtod_r+0x1a8>
 8085338:	f1a3 0231 	sub.w	r2, r3, #49	; 0x31
 808533c:	2a08      	cmp	r2, #8
 808533e:	d846      	bhi.n	80853ce <_strtod_r+0x24e>
 8085340:	9a17      	ldr	r2, [sp, #92]	; 0x5c
 8085342:	9206      	str	r2, [sp, #24]
 8085344:	4602      	mov	r2, r0
 8085346:	2000      	movs	r0, #0
 8085348:	4605      	mov	r5, r0
 808534a:	3b30      	subs	r3, #48	; 0x30
 808534c:	f100 0101 	add.w	r1, r0, #1
 8085350:	d029      	beq.n	80853a6 <_strtod_r+0x226>
 8085352:	440a      	add	r2, r1
 8085354:	4629      	mov	r1, r5
 8085356:	eb05 0c00 	add.w	ip, r5, r0
 808535a:	260a      	movs	r6, #10
 808535c:	4561      	cmp	r1, ip
 808535e:	d00f      	beq.n	8085380 <_strtod_r+0x200>
 8085360:	3101      	adds	r1, #1
 8085362:	f101 3eff 	add.w	lr, r1, #4294967295
 8085366:	f1be 0f08 	cmp.w	lr, #8
 808536a:	dc03      	bgt.n	8085374 <_strtod_r+0x1f4>
 808536c:	9f04      	ldr	r7, [sp, #16]
 808536e:	4377      	muls	r7, r6
 8085370:	9704      	str	r7, [sp, #16]
 8085372:	e7f3      	b.n	808535c <_strtod_r+0x1dc>
 8085374:	2910      	cmp	r1, #16
 8085376:	bfde      	ittt	le
 8085378:	9f02      	ldrle	r7, [sp, #8]
 808537a:	4377      	mulle	r7, r6
 808537c:	9702      	strle	r7, [sp, #8]
 808537e:	e7ed      	b.n	808535c <_strtod_r+0x1dc>
 8085380:	4428      	add	r0, r5
 8085382:	2808      	cmp	r0, #8
 8085384:	f100 0501 	add.w	r5, r0, #1
 8085388:	dc05      	bgt.n	8085396 <_strtod_r+0x216>
 808538a:	9804      	ldr	r0, [sp, #16]
 808538c:	210a      	movs	r1, #10
 808538e:	fb01 3300 	mla	r3, r1, r0, r3
 8085392:	9304      	str	r3, [sp, #16]
 8085394:	e006      	b.n	80853a4 <_strtod_r+0x224>
 8085396:	2d10      	cmp	r5, #16
 8085398:	bfdf      	itttt	le
 808539a:	9802      	ldrle	r0, [sp, #8]
 808539c:	210a      	movle	r1, #10
 808539e:	fb01 3300 	mlale	r3, r1, r0, r3
 80853a2:	9302      	strle	r3, [sp, #8]
 80853a4:	2100      	movs	r1, #0
 80853a6:	9b17      	ldr	r3, [sp, #92]	; 0x5c
 80853a8:	1c58      	adds	r0, r3, #1
 80853aa:	9017      	str	r0, [sp, #92]	; 0x5c
 80853ac:	785b      	ldrb	r3, [r3, #1]
 80853ae:	4608      	mov	r0, r1
 80853b0:	e002      	b.n	80853b8 <_strtod_r+0x238>
 80853b2:	465d      	mov	r5, fp
 80853b4:	4638      	mov	r0, r7
 80853b6:	463a      	mov	r2, r7
 80853b8:	f1a3 0130 	sub.w	r1, r3, #48	; 0x30
 80853bc:	2909      	cmp	r1, #9
 80853be:	d9c4      	bls.n	808534a <_strtod_r+0x1ca>
 80853c0:	2101      	movs	r1, #1
 80853c2:	2b65      	cmp	r3, #101	; 0x65
 80853c4:	d001      	beq.n	80853ca <_strtod_r+0x24a>
 80853c6:	2b45      	cmp	r3, #69	; 0x45
 80853c8:	d14f      	bne.n	808546a <_strtod_r+0x2ea>
 80853ca:	b96d      	cbnz	r5, 80853e8 <_strtod_r+0x268>
 80853cc:	e004      	b.n	80853d8 <_strtod_r+0x258>
 80853ce:	2b65      	cmp	r3, #101	; 0x65
 80853d0:	f040 84ad 	bne.w	8085d2e <_strtod_r+0xbae>
 80853d4:	2200      	movs	r2, #0
 80853d6:	2101      	movs	r1, #1
 80853d8:	b928      	cbnz	r0, 80853e6 <_strtod_r+0x266>
 80853da:	9b05      	ldr	r3, [sp, #20]
 80853dc:	2b00      	cmp	r3, #0
 80853de:	f000 8092 	beq.w	8085506 <_strtod_r+0x386>
 80853e2:	4605      	mov	r5, r0
 80853e4:	e000      	b.n	80853e8 <_strtod_r+0x268>
 80853e6:	2500      	movs	r5, #0
 80853e8:	9c17      	ldr	r4, [sp, #92]	; 0x5c
 80853ea:	1c63      	adds	r3, r4, #1
 80853ec:	9317      	str	r3, [sp, #92]	; 0x5c
 80853ee:	7863      	ldrb	r3, [r4, #1]
 80853f0:	2b2b      	cmp	r3, #43	; 0x2b
 80853f2:	d006      	beq.n	8085402 <_strtod_r+0x282>
 80853f4:	2b2d      	cmp	r3, #45	; 0x2d
 80853f6:	d002      	beq.n	80853fe <_strtod_r+0x27e>
 80853f8:	2600      	movs	r6, #0
 80853fa:	9603      	str	r6, [sp, #12]
 80853fc:	e006      	b.n	808540c <_strtod_r+0x28c>
 80853fe:	2301      	movs	r3, #1
 8085400:	e000      	b.n	8085404 <_strtod_r+0x284>
 8085402:	2300      	movs	r3, #0
 8085404:	9303      	str	r3, [sp, #12]
 8085406:	1ca3      	adds	r3, r4, #2
 8085408:	9317      	str	r3, [sp, #92]	; 0x5c
 808540a:	78a3      	ldrb	r3, [r4, #2]
 808540c:	f1a3 0630 	sub.w	r6, r3, #48	; 0x30
 8085410:	2e09      	cmp	r6, #9
 8085412:	d829      	bhi.n	8085468 <_strtod_r+0x2e8>
 8085414:	2b30      	cmp	r3, #48	; 0x30
 8085416:	d104      	bne.n	8085422 <_strtod_r+0x2a2>
 8085418:	9b17      	ldr	r3, [sp, #92]	; 0x5c
 808541a:	1c5e      	adds	r6, r3, #1
 808541c:	9617      	str	r6, [sp, #92]	; 0x5c
 808541e:	785b      	ldrb	r3, [r3, #1]
 8085420:	e7f8      	b.n	8085414 <_strtod_r+0x294>
 8085422:	f1a3 0631 	sub.w	r6, r3, #49	; 0x31
 8085426:	2e08      	cmp	r6, #8
 8085428:	d81f      	bhi.n	808546a <_strtod_r+0x2ea>
 808542a:	f1a3 0e30 	sub.w	lr, r3, #48	; 0x30
 808542e:	9b17      	ldr	r3, [sp, #92]	; 0x5c
 8085430:	461f      	mov	r7, r3
 8085432:	9b17      	ldr	r3, [sp, #92]	; 0x5c
 8085434:	1c5e      	adds	r6, r3, #1
 8085436:	9617      	str	r6, [sp, #92]	; 0x5c
 8085438:	785b      	ldrb	r3, [r3, #1]
 808543a:	f1a3 0c30 	sub.w	ip, r3, #48	; 0x30
 808543e:	f1bc 0f09 	cmp.w	ip, #9
 8085442:	d805      	bhi.n	8085450 <_strtod_r+0x2d0>
 8085444:	260a      	movs	r6, #10
 8085446:	fb06 3e0e 	mla	lr, r6, lr, r3
 808544a:	f1ae 0e30 	sub.w	lr, lr, #48	; 0x30
 808544e:	e7f0      	b.n	8085432 <_strtod_r+0x2b2>
 8085450:	1bf6      	subs	r6, r6, r7
 8085452:	2e08      	cmp	r6, #8
 8085454:	f644 661f 	movw	r6, #19999	; 0x4e1f
 8085458:	dc02      	bgt.n	8085460 <_strtod_r+0x2e0>
 808545a:	4576      	cmp	r6, lr
 808545c:	bfa8      	it	ge
 808545e:	4676      	movge	r6, lr
 8085460:	9f03      	ldr	r7, [sp, #12]
 8085462:	b11f      	cbz	r7, 808546c <_strtod_r+0x2ec>
 8085464:	4276      	negs	r6, r6
 8085466:	e001      	b.n	808546c <_strtod_r+0x2ec>
 8085468:	9417      	str	r4, [sp, #92]	; 0x5c
 808546a:	2600      	movs	r6, #0
 808546c:	2d00      	cmp	r5, #0
 808546e:	d152      	bne.n	8085516 <_strtod_r+0x396>
 8085470:	2800      	cmp	r0, #0
 8085472:	f040 844e 	bne.w	8085d12 <_strtod_r+0xb92>
 8085476:	9a05      	ldr	r2, [sp, #20]
 8085478:	2a00      	cmp	r2, #0
 808547a:	f040 844a 	bne.w	8085d12 <_strtod_r+0xb92>
 808547e:	2900      	cmp	r1, #0
 8085480:	d141      	bne.n	8085506 <_strtod_r+0x386>
 8085482:	2b4e      	cmp	r3, #78	; 0x4e
 8085484:	d020      	beq.n	80854c8 <_strtod_r+0x348>
 8085486:	dc07      	bgt.n	8085498 <_strtod_r+0x318>
 8085488:	2b49      	cmp	r3, #73	; 0x49
 808548a:	d00a      	beq.n	80854a2 <_strtod_r+0x322>
 808548c:	e03b      	b.n	8085506 <_strtod_r+0x386>
 808548e:	bf00      	nop
 8085490:	08087f74 	.word	0x08087f74
 8085494:	7ff00000 	.word	0x7ff00000
 8085498:	2b69      	cmp	r3, #105	; 0x69
 808549a:	d002      	beq.n	80854a2 <_strtod_r+0x322>
 808549c:	2b6e      	cmp	r3, #110	; 0x6e
 808549e:	d013      	beq.n	80854c8 <_strtod_r+0x348>
 80854a0:	e031      	b.n	8085506 <_strtod_r+0x386>
 80854a2:	49aa      	ldr	r1, [pc, #680]	; (808574c <_strtod_r+0x5cc>)
 80854a4:	a817      	add	r0, sp, #92	; 0x5c
 80854a6:	f001 fa5d 	bl	8086964 <__match>
 80854aa:	b360      	cbz	r0, 8085506 <_strtod_r+0x386>
 80854ac:	9b17      	ldr	r3, [sp, #92]	; 0x5c
 80854ae:	49a8      	ldr	r1, [pc, #672]	; (8085750 <_strtod_r+0x5d0>)
 80854b0:	3b01      	subs	r3, #1
 80854b2:	a817      	add	r0, sp, #92	; 0x5c
 80854b4:	9317      	str	r3, [sp, #92]	; 0x5c
 80854b6:	f001 fa55 	bl	8086964 <__match>
 80854ba:	b910      	cbnz	r0, 80854c2 <_strtod_r+0x342>
 80854bc:	9b17      	ldr	r3, [sp, #92]	; 0x5c
 80854be:	3301      	adds	r3, #1
 80854c0:	9317      	str	r3, [sp, #92]	; 0x5c
 80854c2:	f8df 92a8 	ldr.w	r9, [pc, #680]	; 808576c <_strtod_r+0x5ec>
 80854c6:	e01a      	b.n	80854fe <_strtod_r+0x37e>
 80854c8:	49a2      	ldr	r1, [pc, #648]	; (8085754 <_strtod_r+0x5d4>)
 80854ca:	a817      	add	r0, sp, #92	; 0x5c
 80854cc:	f001 fa4a 	bl	8086964 <__match>
 80854d0:	b1c8      	cbz	r0, 8085506 <_strtod_r+0x386>
 80854d2:	9b17      	ldr	r3, [sp, #92]	; 0x5c
 80854d4:	781b      	ldrb	r3, [r3, #0]
 80854d6:	2b28      	cmp	r3, #40	; 0x28
 80854d8:	d10f      	bne.n	80854fa <_strtod_r+0x37a>
 80854da:	aa1a      	add	r2, sp, #104	; 0x68
 80854dc:	499e      	ldr	r1, [pc, #632]	; (8085758 <_strtod_r+0x5d8>)
 80854de:	a817      	add	r0, sp, #92	; 0x5c
 80854e0:	f001 fa53 	bl	808698a <__hexnan>
 80854e4:	2805      	cmp	r0, #5
 80854e6:	d108      	bne.n	80854fa <_strtod_r+0x37a>
 80854e8:	9b1b      	ldr	r3, [sp, #108]	; 0x6c
 80854ea:	f8dd 8068 	ldr.w	r8, [sp, #104]	; 0x68
 80854ee:	f043 49ff 	orr.w	r9, r3, #2139095040	; 0x7f800000
 80854f2:	f449 09e0 	orr.w	r9, r9, #7340032	; 0x700000
 80854f6:	f000 bc0c 	b.w	8085d12 <_strtod_r+0xb92>
 80854fa:	f8df 9274 	ldr.w	r9, [pc, #628]	; 8085770 <_strtod_r+0x5f0>
 80854fe:	f04f 0800 	mov.w	r8, #0
 8085502:	f000 bc06 	b.w	8085d12 <_strtod_r+0xb92>
 8085506:	9b13      	ldr	r3, [sp, #76]	; 0x4c
 8085508:	9417      	str	r4, [sp, #92]	; 0x5c
 808550a:	2b00      	cmp	r3, #0
 808550c:	f000 840c 	beq.w	8085d28 <_strtod_r+0xba8>
 8085510:	2300      	movs	r3, #0
 8085512:	930c      	str	r3, [sp, #48]	; 0x30
 8085514:	e3ff      	b.n	8085d16 <_strtod_r+0xb96>
 8085516:	462c      	mov	r4, r5
 8085518:	f1bb 0f00 	cmp.w	fp, #0
 808551c:	bf08      	it	eq
 808551e:	46ab      	moveq	fp, r5
 8085520:	9804      	ldr	r0, [sp, #16]
 8085522:	2d10      	cmp	r5, #16
 8085524:	bfa8      	it	ge
 8085526:	2410      	movge	r4, #16
 8085528:	1ab7      	subs	r7, r6, r2
 808552a:	f7fe fb29 	bl	8083b80 <__aeabi_ui2d>
 808552e:	2c09      	cmp	r4, #9
 8085530:	4680      	mov	r8, r0
 8085532:	4689      	mov	r9, r1
 8085534:	dd13      	ble.n	808555e <_strtod_r+0x3de>
 8085536:	4b89      	ldr	r3, [pc, #548]	; (808575c <_strtod_r+0x5dc>)
 8085538:	eb03 03c4 	add.w	r3, r3, r4, lsl #3
 808553c:	e953 2312 	ldrd	r2, r3, [r3, #-72]	; 0x48
 8085540:	f7fe fb94 	bl	8083c6c <__aeabi_dmul>
 8085544:	4680      	mov	r8, r0
 8085546:	9802      	ldr	r0, [sp, #8]
 8085548:	4689      	mov	r9, r1
 808554a:	f7fe fb19 	bl	8083b80 <__aeabi_ui2d>
 808554e:	4602      	mov	r2, r0
 8085550:	460b      	mov	r3, r1
 8085552:	4640      	mov	r0, r8
 8085554:	4649      	mov	r1, r9
 8085556:	f7fe f9d7 	bl	8083908 <__adddf3>
 808555a:	4680      	mov	r8, r0
 808555c:	4689      	mov	r9, r1
 808555e:	2d0f      	cmp	r5, #15
 8085560:	dc33      	bgt.n	80855ca <_strtod_r+0x44a>
 8085562:	2f00      	cmp	r7, #0
 8085564:	f000 83d5 	beq.w	8085d12 <_strtod_r+0xb92>
 8085568:	dd22      	ble.n	80855b0 <_strtod_r+0x430>
 808556a:	2f16      	cmp	r7, #22
 808556c:	dc07      	bgt.n	808557e <_strtod_r+0x3fe>
 808556e:	4d7b      	ldr	r5, [pc, #492]	; (808575c <_strtod_r+0x5dc>)
 8085570:	4642      	mov	r2, r8
 8085572:	eb05 01c7 	add.w	r1, r5, r7, lsl #3
 8085576:	464b      	mov	r3, r9
 8085578:	e9d1 0100 	ldrd	r0, r1, [r1]
 808557c:	e013      	b.n	80855a6 <_strtod_r+0x426>
 808557e:	f1c5 0325 	rsb	r3, r5, #37	; 0x25
 8085582:	429f      	cmp	r7, r3
 8085584:	dc21      	bgt.n	80855ca <_strtod_r+0x44a>
 8085586:	4c75      	ldr	r4, [pc, #468]	; (808575c <_strtod_r+0x5dc>)
 8085588:	f1c5 050f 	rsb	r5, r5, #15
 808558c:	eb04 01c5 	add.w	r1, r4, r5, lsl #3
 8085590:	1b7d      	subs	r5, r7, r5
 8085592:	4642      	mov	r2, r8
 8085594:	e9d1 0100 	ldrd	r0, r1, [r1]
 8085598:	464b      	mov	r3, r9
 808559a:	eb04 04c5 	add.w	r4, r4, r5, lsl #3
 808559e:	f7fe fb65 	bl	8083c6c <__aeabi_dmul>
 80855a2:	e9d4 2300 	ldrd	r2, r3, [r4]
 80855a6:	f7fe fb61 	bl	8083c6c <__aeabi_dmul>
 80855aa:	4680      	mov	r8, r0
 80855ac:	4689      	mov	r9, r1
 80855ae:	e3b0      	b.n	8085d12 <_strtod_r+0xb92>
 80855b0:	f117 0f16 	cmn.w	r7, #22
 80855b4:	db09      	blt.n	80855ca <_strtod_r+0x44a>
 80855b6:	4d69      	ldr	r5, [pc, #420]	; (808575c <_strtod_r+0x5dc>)
 80855b8:	4640      	mov	r0, r8
 80855ba:	eba5 03c7 	sub.w	r3, r5, r7, lsl #3
 80855be:	e9d3 2300 	ldrd	r2, r3, [r3]
 80855c2:	4649      	mov	r1, r9
 80855c4:	f7fe fc7c 	bl	8083ec0 <__aeabi_ddiv>
 80855c8:	e7ef      	b.n	80855aa <_strtod_r+0x42a>
 80855ca:	1b2c      	subs	r4, r5, r4
 80855cc:	443c      	add	r4, r7
 80855ce:	2c00      	cmp	r4, #0
 80855d0:	dd5d      	ble.n	808568e <_strtod_r+0x50e>
 80855d2:	f014 010f 	ands.w	r1, r4, #15
 80855d6:	d00a      	beq.n	80855ee <_strtod_r+0x46e>
 80855d8:	4b60      	ldr	r3, [pc, #384]	; (808575c <_strtod_r+0x5dc>)
 80855da:	4642      	mov	r2, r8
 80855dc:	eb03 01c1 	add.w	r1, r3, r1, lsl #3
 80855e0:	e9d1 0100 	ldrd	r0, r1, [r1]
 80855e4:	464b      	mov	r3, r9
 80855e6:	f7fe fb41 	bl	8083c6c <__aeabi_dmul>
 80855ea:	4680      	mov	r8, r0
 80855ec:	4689      	mov	r9, r1
 80855ee:	f034 040f 	bics.w	r4, r4, #15
 80855f2:	f000 80c1 	beq.w	8085778 <_strtod_r+0x5f8>
 80855f6:	f5b4 7f9a 	cmp.w	r4, #308	; 0x134
 80855fa:	dd0f      	ble.n	808561c <_strtod_r+0x49c>
 80855fc:	f04f 0b00 	mov.w	fp, #0
 8085600:	f8cd b008 	str.w	fp, [sp, #8]
 8085604:	f8cd b014 	str.w	fp, [sp, #20]
 8085608:	f8cd b010 	str.w	fp, [sp, #16]
 808560c:	2322      	movs	r3, #34	; 0x22
 808560e:	f8ca 3000 	str.w	r3, [sl]
 8085612:	f8df 9158 	ldr.w	r9, [pc, #344]	; 808576c <_strtod_r+0x5ec>
 8085616:	f04f 0800 	mov.w	r8, #0
 808561a:	e189      	b.n	8085930 <_strtod_r+0x7b0>
 808561c:	4640      	mov	r0, r8
 808561e:	4649      	mov	r1, r9
 8085620:	2300      	movs	r3, #0
 8085622:	4e4f      	ldr	r6, [pc, #316]	; (8085760 <_strtod_r+0x5e0>)
 8085624:	1124      	asrs	r4, r4, #4
 8085626:	9302      	str	r3, [sp, #8]
 8085628:	2c01      	cmp	r4, #1
 808562a:	dd0c      	ble.n	8085646 <_strtod_r+0x4c6>
 808562c:	07e2      	lsls	r2, r4, #31
 808562e:	d504      	bpl.n	808563a <_strtod_r+0x4ba>
 8085630:	e9d6 2300 	ldrd	r2, r3, [r6]
 8085634:	f7fe fb1a 	bl	8083c6c <__aeabi_dmul>
 8085638:	2301      	movs	r3, #1
 808563a:	9a02      	ldr	r2, [sp, #8]
 808563c:	1064      	asrs	r4, r4, #1
 808563e:	3201      	adds	r2, #1
 8085640:	9202      	str	r2, [sp, #8]
 8085642:	3608      	adds	r6, #8
 8085644:	e7f0      	b.n	8085628 <_strtod_r+0x4a8>
 8085646:	b10b      	cbz	r3, 808564c <_strtod_r+0x4cc>
 8085648:	4680      	mov	r8, r0
 808564a:	4689      	mov	r9, r1
 808564c:	4b44      	ldr	r3, [pc, #272]	; (8085760 <_strtod_r+0x5e0>)
 808564e:	9a02      	ldr	r2, [sp, #8]
 8085650:	f1a9 7954 	sub.w	r9, r9, #55574528	; 0x3500000
 8085654:	eb03 01c2 	add.w	r1, r3, r2, lsl #3
 8085658:	e9d1 0100 	ldrd	r0, r1, [r1]
 808565c:	4642      	mov	r2, r8
 808565e:	464b      	mov	r3, r9
 8085660:	f7fe fb04 	bl	8083c6c <__aeabi_dmul>
 8085664:	f021 4300 	bic.w	r3, r1, #2147483648	; 0x80000000
 8085668:	4689      	mov	r9, r1
 808566a:	460a      	mov	r2, r1
 808566c:	0d1b      	lsrs	r3, r3, #20
 808566e:	493d      	ldr	r1, [pc, #244]	; (8085764 <_strtod_r+0x5e4>)
 8085670:	051b      	lsls	r3, r3, #20
 8085672:	428b      	cmp	r3, r1
 8085674:	4680      	mov	r8, r0
 8085676:	d8c1      	bhi.n	80855fc <_strtod_r+0x47c>
 8085678:	f5a1 1180 	sub.w	r1, r1, #1048576	; 0x100000
 808567c:	428b      	cmp	r3, r1
 808567e:	bf86      	itte	hi
 8085680:	f8df 90f0 	ldrhi.w	r9, [pc, #240]	; 8085774 <_strtod_r+0x5f4>
 8085684:	f04f 38ff 	movhi.w	r8, #4294967295
 8085688:	f102 7954 	addls.w	r9, r2, #55574528	; 0x3500000
 808568c:	e074      	b.n	8085778 <_strtod_r+0x5f8>
 808568e:	d073      	beq.n	8085778 <_strtod_r+0x5f8>
 8085690:	4264      	negs	r4, r4
 8085692:	f014 020f 	ands.w	r2, r4, #15
 8085696:	d00a      	beq.n	80856ae <_strtod_r+0x52e>
 8085698:	4b30      	ldr	r3, [pc, #192]	; (808575c <_strtod_r+0x5dc>)
 808569a:	4640      	mov	r0, r8
 808569c:	eb03 03c2 	add.w	r3, r3, r2, lsl #3
 80856a0:	4649      	mov	r1, r9
 80856a2:	e9d3 2300 	ldrd	r2, r3, [r3]
 80856a6:	f7fe fc0b 	bl	8083ec0 <__aeabi_ddiv>
 80856aa:	4680      	mov	r8, r0
 80856ac:	4689      	mov	r9, r1
 80856ae:	1124      	asrs	r4, r4, #4
 80856b0:	d062      	beq.n	8085778 <_strtod_r+0x5f8>
 80856b2:	2c1f      	cmp	r4, #31
 80856b4:	dd08      	ble.n	80856c8 <_strtod_r+0x548>
 80856b6:	f04f 0b00 	mov.w	fp, #0
 80856ba:	f8cd b008 	str.w	fp, [sp, #8]
 80856be:	f8cd b014 	str.w	fp, [sp, #20]
 80856c2:	f8cd b010 	str.w	fp, [sp, #16]
 80856c6:	e12c      	b.n	8085922 <_strtod_r+0x7a2>
 80856c8:	4640      	mov	r0, r8
 80856ca:	4649      	mov	r1, r9
 80856cc:	f014 0f10 	tst.w	r4, #16
 80856d0:	bf0c      	ite	eq
 80856d2:	2300      	moveq	r3, #0
 80856d4:	236a      	movne	r3, #106	; 0x6a
 80856d6:	4e24      	ldr	r6, [pc, #144]	; (8085768 <_strtod_r+0x5e8>)
 80856d8:	9303      	str	r3, [sp, #12]
 80856da:	2300      	movs	r3, #0
 80856dc:	2c00      	cmp	r4, #0
 80856de:	dd09      	ble.n	80856f4 <_strtod_r+0x574>
 80856e0:	07e2      	lsls	r2, r4, #31
 80856e2:	d504      	bpl.n	80856ee <_strtod_r+0x56e>
 80856e4:	e9d6 2300 	ldrd	r2, r3, [r6]
 80856e8:	f7fe fac0 	bl	8083c6c <__aeabi_dmul>
 80856ec:	2301      	movs	r3, #1
 80856ee:	1064      	asrs	r4, r4, #1
 80856f0:	3608      	adds	r6, #8
 80856f2:	e7f3      	b.n	80856dc <_strtod_r+0x55c>
 80856f4:	b10b      	cbz	r3, 80856fa <_strtod_r+0x57a>
 80856f6:	4680      	mov	r8, r0
 80856f8:	4689      	mov	r9, r1
 80856fa:	9b03      	ldr	r3, [sp, #12]
 80856fc:	b1eb      	cbz	r3, 808573a <_strtod_r+0x5ba>
 80856fe:	f3c9 530a 	ubfx	r3, r9, #20, #11
 8085702:	f1c3 036b 	rsb	r3, r3, #107	; 0x6b
 8085706:	2b00      	cmp	r3, #0
 8085708:	4649      	mov	r1, r9
 808570a:	dd16      	ble.n	808573a <_strtod_r+0x5ba>
 808570c:	2b1f      	cmp	r3, #31
 808570e:	dd0e      	ble.n	808572e <_strtod_r+0x5ae>
 8085710:	2b34      	cmp	r3, #52	; 0x34
 8085712:	bfde      	ittt	le
 8085714:	3b20      	suble	r3, #32
 8085716:	f04f 32ff 	movle.w	r2, #4294967295
 808571a:	fa02 f303 	lslle.w	r3, r2, r3
 808571e:	f04f 0800 	mov.w	r8, #0
 8085722:	bfcc      	ite	gt
 8085724:	f04f 795c 	movgt.w	r9, #57671680	; 0x3700000
 8085728:	ea03 0901 	andle.w	r9, r3, r1
 808572c:	e005      	b.n	808573a <_strtod_r+0x5ba>
 808572e:	f04f 32ff 	mov.w	r2, #4294967295
 8085732:	fa02 f303 	lsl.w	r3, r2, r3
 8085736:	ea03 0808 	and.w	r8, r3, r8
 808573a:	2200      	movs	r2, #0
 808573c:	2300      	movs	r3, #0
 808573e:	4640      	mov	r0, r8
 8085740:	4649      	mov	r1, r9
 8085742:	f7fe fcfb 	bl	808413c <__aeabi_dcmpeq>
 8085746:	2800      	cmp	r0, #0
 8085748:	d1b5      	bne.n	80856b6 <_strtod_r+0x536>
 808574a:	e017      	b.n	808577c <_strtod_r+0x5fc>
 808574c:	08087f88 	.word	0x08087f88
 8085750:	08087f8b 	.word	0x08087f8b
 8085754:	08087fd9 	.word	0x08087fd9
 8085758:	08087f94 	.word	0x08087f94
 808575c:	08088238 	.word	0x08088238
 8085760:	08088300 	.word	0x08088300
 8085764:	7ca00000 	.word	0x7ca00000
 8085768:	08087fa8 	.word	0x08087fa8
 808576c:	7ff00000 	.word	0x7ff00000
 8085770:	fff80000 	.word	0xfff80000
 8085774:	7fefffff 	.word	0x7fefffff
 8085778:	2300      	movs	r3, #0
 808577a:	9303      	str	r3, [sp, #12]
 808577c:	9b04      	ldr	r3, [sp, #16]
 808577e:	465a      	mov	r2, fp
 8085780:	9300      	str	r3, [sp, #0]
 8085782:	9906      	ldr	r1, [sp, #24]
 8085784:	462b      	mov	r3, r5
 8085786:	4650      	mov	r0, sl
 8085788:	f001 faf7 	bl	8086d7a <__s2b>
 808578c:	9005      	str	r0, [sp, #20]
 808578e:	2800      	cmp	r0, #0
 8085790:	f43f af34 	beq.w	80855fc <_strtod_r+0x47c>
 8085794:	2f00      	cmp	r7, #0
 8085796:	f1c7 0300 	rsb	r3, r7, #0
 808579a:	bfa8      	it	ge
 808579c:	2300      	movge	r3, #0
 808579e:	930d      	str	r3, [sp, #52]	; 0x34
 80857a0:	f04f 0b00 	mov.w	fp, #0
 80857a4:	ea27 73e7 	bic.w	r3, r7, r7, asr #31
 80857a8:	9312      	str	r3, [sp, #72]	; 0x48
 80857aa:	f8cd b008 	str.w	fp, [sp, #8]
 80857ae:	9b05      	ldr	r3, [sp, #20]
 80857b0:	4650      	mov	r0, sl
 80857b2:	6859      	ldr	r1, [r3, #4]
 80857b4:	f001 fa5a 	bl	8086c6c <_Balloc>
 80857b8:	9004      	str	r0, [sp, #16]
 80857ba:	2800      	cmp	r0, #0
 80857bc:	f43f af26 	beq.w	808560c <_strtod_r+0x48c>
 80857c0:	9b05      	ldr	r3, [sp, #20]
 80857c2:	300c      	adds	r0, #12
 80857c4:	691a      	ldr	r2, [r3, #16]
 80857c6:	f103 010c 	add.w	r1, r3, #12
 80857ca:	3202      	adds	r2, #2
 80857cc:	0092      	lsls	r2, r2, #2
 80857ce:	f7fe fedf 	bl	8084590 <memcpy>
 80857d2:	ab1a      	add	r3, sp, #104	; 0x68
 80857d4:	9301      	str	r3, [sp, #4]
 80857d6:	ab19      	add	r3, sp, #100	; 0x64
 80857d8:	9300      	str	r3, [sp, #0]
 80857da:	4642      	mov	r2, r8
 80857dc:	464b      	mov	r3, r9
 80857de:	4650      	mov	r0, sl
 80857e0:	e9cd 8908 	strd	r8, r9, [sp, #32]
 80857e4:	f001 fd79 	bl	80872da <__d2b>
 80857e8:	9018      	str	r0, [sp, #96]	; 0x60
 80857ea:	2800      	cmp	r0, #0
 80857ec:	f43f af0e 	beq.w	808560c <_strtod_r+0x48c>
 80857f0:	2101      	movs	r1, #1
 80857f2:	4650      	mov	r0, sl
 80857f4:	f001 fb4c 	bl	8086e90 <__i2b>
 80857f8:	9002      	str	r0, [sp, #8]
 80857fa:	2800      	cmp	r0, #0
 80857fc:	f43f af06 	beq.w	808560c <_strtod_r+0x48c>
 8085800:	9b19      	ldr	r3, [sp, #100]	; 0x64
 8085802:	9903      	ldr	r1, [sp, #12]
 8085804:	2b00      	cmp	r3, #0
 8085806:	bfac      	ite	ge
 8085808:	9a0d      	ldrge	r2, [sp, #52]	; 0x34
 808580a:	9a12      	ldrlt	r2, [sp, #72]	; 0x48
 808580c:	9c1a      	ldr	r4, [sp, #104]	; 0x68
 808580e:	bfac      	ite	ge
 8085810:	18d6      	addge	r6, r2, r3
 8085812:	1ad2      	sublt	r2, r2, r3
 8085814:	eba3 0301 	sub.w	r3, r3, r1
 8085818:	4423      	add	r3, r4
 808581a:	49b1      	ldr	r1, [pc, #708]	; (8085ae0 <_strtod_r+0x960>)
 808581c:	f103 33ff 	add.w	r3, r3, #4294967295
 8085820:	bfac      	ite	ge
 8085822:	9a12      	ldrge	r2, [sp, #72]	; 0x48
 8085824:	9e0d      	ldrlt	r6, [sp, #52]	; 0x34
 8085826:	428b      	cmp	r3, r1
 8085828:	f1c4 0436 	rsb	r4, r4, #54	; 0x36
 808582c:	f280 8085 	bge.w	808593a <_strtod_r+0x7ba>
 8085830:	1ac9      	subs	r1, r1, r3
 8085832:	291f      	cmp	r1, #31
 8085834:	bfc8      	it	gt
 8085836:	4dab      	ldrgt	r5, [pc, #684]	; (8085ae4 <_strtod_r+0x964>)
 8085838:	f04f 0701 	mov.w	r7, #1
 808583c:	bfd4      	ite	le
 808583e:	fa07 f301 	lslle.w	r3, r7, r1
 8085842:	1aed      	subgt	r5, r5, r3
 8085844:	eba4 0401 	sub.w	r4, r4, r1
 8085848:	bfd9      	ittee	le
 808584a:	9307      	strle	r3, [sp, #28]
 808584c:	2500      	movle	r5, #0
 808584e:	fa07 f505 	lslgt.w	r5, r7, r5
 8085852:	9707      	strgt	r7, [sp, #28]
 8085854:	1937      	adds	r7, r6, r4
 8085856:	9b03      	ldr	r3, [sp, #12]
 8085858:	42be      	cmp	r6, r7
 808585a:	4414      	add	r4, r2
 808585c:	441c      	add	r4, r3
 808585e:	4633      	mov	r3, r6
 8085860:	bfa8      	it	ge
 8085862:	463b      	movge	r3, r7
 8085864:	42a3      	cmp	r3, r4
 8085866:	bfa8      	it	ge
 8085868:	4623      	movge	r3, r4
 808586a:	2b00      	cmp	r3, #0
 808586c:	bfc2      	ittt	gt
 808586e:	1aff      	subgt	r7, r7, r3
 8085870:	1ae4      	subgt	r4, r4, r3
 8085872:	1af6      	subgt	r6, r6, r3
 8085874:	9b0d      	ldr	r3, [sp, #52]	; 0x34
 8085876:	2b00      	cmp	r3, #0
 8085878:	d163      	bne.n	8085942 <_strtod_r+0x7c2>
 808587a:	2f00      	cmp	r7, #0
 808587c:	dc7a      	bgt.n	8085974 <_strtod_r+0x7f4>
 808587e:	9b12      	ldr	r3, [sp, #72]	; 0x48
 8085880:	2b00      	cmp	r3, #0
 8085882:	f040 8081 	bne.w	8085988 <_strtod_r+0x808>
 8085886:	2c00      	cmp	r4, #0
 8085888:	f300 8088 	bgt.w	808599c <_strtod_r+0x81c>
 808588c:	2e00      	cmp	r6, #0
 808588e:	f300 808f 	bgt.w	80859b0 <_strtod_r+0x830>
 8085892:	9a04      	ldr	r2, [sp, #16]
 8085894:	9918      	ldr	r1, [sp, #96]	; 0x60
 8085896:	4650      	mov	r0, sl
 8085898:	f001 fc4f 	bl	808713a <__mdiff>
 808589c:	4683      	mov	fp, r0
 808589e:	2800      	cmp	r0, #0
 80858a0:	f43f aeb4 	beq.w	808560c <_strtod_r+0x48c>
 80858a4:	68c3      	ldr	r3, [r0, #12]
 80858a6:	2400      	movs	r4, #0
 80858a8:	60c4      	str	r4, [r0, #12]
 80858aa:	9902      	ldr	r1, [sp, #8]
 80858ac:	9306      	str	r3, [sp, #24]
 80858ae:	f001 fc28 	bl	8087102 <__mcmp>
 80858b2:	42a0      	cmp	r0, r4
 80858b4:	f280 808b 	bge.w	80859ce <_strtod_r+0x84e>
 80858b8:	9b06      	ldr	r3, [sp, #24]
 80858ba:	2b00      	cmp	r3, #0
 80858bc:	f040 8202 	bne.w	8085cc4 <_strtod_r+0xb44>
 80858c0:	f1b8 0f00 	cmp.w	r8, #0
 80858c4:	f040 81fe 	bne.w	8085cc4 <_strtod_r+0xb44>
 80858c8:	f3c9 0313 	ubfx	r3, r9, #0, #20
 80858cc:	2b00      	cmp	r3, #0
 80858ce:	f040 81f9 	bne.w	8085cc4 <_strtod_r+0xb44>
 80858d2:	f029 4300 	bic.w	r3, r9, #2147483648	; 0x80000000
 80858d6:	0d1b      	lsrs	r3, r3, #20
 80858d8:	051b      	lsls	r3, r3, #20
 80858da:	f1b3 6fd6 	cmp.w	r3, #112197632	; 0x6b00000
 80858de:	f240 81f1 	bls.w	8085cc4 <_strtod_r+0xb44>
 80858e2:	f8db 3014 	ldr.w	r3, [fp, #20]
 80858e6:	2b00      	cmp	r3, #0
 80858e8:	d06c      	beq.n	80859c4 <_strtod_r+0x844>
 80858ea:	4659      	mov	r1, fp
 80858ec:	2201      	movs	r2, #1
 80858ee:	4650      	mov	r0, sl
 80858f0:	f001 fbb6 	bl	8087060 <__lshift>
 80858f4:	9902      	ldr	r1, [sp, #8]
 80858f6:	4683      	mov	fp, r0
 80858f8:	f001 fc03 	bl	8087102 <__mcmp>
 80858fc:	2800      	cmp	r0, #0
 80858fe:	f340 81e1 	ble.w	8085cc4 <_strtod_r+0xb44>
 8085902:	f029 4300 	bic.w	r3, r9, #2147483648	; 0x80000000
 8085906:	9a03      	ldr	r2, [sp, #12]
 8085908:	0d1b      	lsrs	r3, r3, #20
 808590a:	051b      	lsls	r3, r3, #20
 808590c:	2a00      	cmp	r2, #0
 808590e:	f000 808d 	beq.w	8085a2c <_strtod_r+0x8ac>
 8085912:	f1b3 6fd6 	cmp.w	r3, #112197632	; 0x6b00000
 8085916:	f300 8089 	bgt.w	8085a2c <_strtod_r+0x8ac>
 808591a:	f1b3 7f5c 	cmp.w	r3, #57671680	; 0x3700000
 808591e:	f300 81d3 	bgt.w	8085cc8 <_strtod_r+0xb48>
 8085922:	2322      	movs	r3, #34	; 0x22
 8085924:	f04f 0800 	mov.w	r8, #0
 8085928:	f04f 0900 	mov.w	r9, #0
 808592c:	f8ca 3000 	str.w	r3, [sl]
 8085930:	9b05      	ldr	r3, [sp, #20]
 8085932:	2b00      	cmp	r3, #0
 8085934:	f040 81d9 	bne.w	8085cea <_strtod_r+0xb6a>
 8085938:	e1eb      	b.n	8085d12 <_strtod_r+0xb92>
 808593a:	2301      	movs	r3, #1
 808593c:	2500      	movs	r5, #0
 808593e:	9307      	str	r3, [sp, #28]
 8085940:	e788      	b.n	8085854 <_strtod_r+0x6d4>
 8085942:	461a      	mov	r2, r3
 8085944:	9902      	ldr	r1, [sp, #8]
 8085946:	4650      	mov	r0, sl
 8085948:	f001 fb3c 	bl	8086fc4 <__pow5mult>
 808594c:	9002      	str	r0, [sp, #8]
 808594e:	2800      	cmp	r0, #0
 8085950:	f43f ae5c 	beq.w	808560c <_strtod_r+0x48c>
 8085954:	4601      	mov	r1, r0
 8085956:	9a18      	ldr	r2, [sp, #96]	; 0x60
 8085958:	4650      	mov	r0, sl
 808595a:	f001 faa2 	bl	8086ea2 <__multiply>
 808595e:	9006      	str	r0, [sp, #24]
 8085960:	2800      	cmp	r0, #0
 8085962:	f43f ae53 	beq.w	808560c <_strtod_r+0x48c>
 8085966:	9918      	ldr	r1, [sp, #96]	; 0x60
 8085968:	4650      	mov	r0, sl
 808596a:	f001 f9b4 	bl	8086cd6 <_Bfree>
 808596e:	9b06      	ldr	r3, [sp, #24]
 8085970:	9318      	str	r3, [sp, #96]	; 0x60
 8085972:	e782      	b.n	808587a <_strtod_r+0x6fa>
 8085974:	463a      	mov	r2, r7
 8085976:	9918      	ldr	r1, [sp, #96]	; 0x60
 8085978:	4650      	mov	r0, sl
 808597a:	f001 fb71 	bl	8087060 <__lshift>
 808597e:	9018      	str	r0, [sp, #96]	; 0x60
 8085980:	2800      	cmp	r0, #0
 8085982:	f47f af7c 	bne.w	808587e <_strtod_r+0x6fe>
 8085986:	e641      	b.n	808560c <_strtod_r+0x48c>
 8085988:	9a12      	ldr	r2, [sp, #72]	; 0x48
 808598a:	9904      	ldr	r1, [sp, #16]
 808598c:	4650      	mov	r0, sl
 808598e:	f001 fb19 	bl	8086fc4 <__pow5mult>
 8085992:	9004      	str	r0, [sp, #16]
 8085994:	2800      	cmp	r0, #0
 8085996:	f47f af76 	bne.w	8085886 <_strtod_r+0x706>
 808599a:	e637      	b.n	808560c <_strtod_r+0x48c>
 808599c:	4622      	mov	r2, r4
 808599e:	9904      	ldr	r1, [sp, #16]
 80859a0:	4650      	mov	r0, sl
 80859a2:	f001 fb5d 	bl	8087060 <__lshift>
 80859a6:	9004      	str	r0, [sp, #16]
 80859a8:	2800      	cmp	r0, #0
 80859aa:	f47f af6f 	bne.w	808588c <_strtod_r+0x70c>
 80859ae:	e62d      	b.n	808560c <_strtod_r+0x48c>
 80859b0:	4632      	mov	r2, r6
 80859b2:	9902      	ldr	r1, [sp, #8]
 80859b4:	4650      	mov	r0, sl
 80859b6:	f001 fb53 	bl	8087060 <__lshift>
 80859ba:	9002      	str	r0, [sp, #8]
 80859bc:	2800      	cmp	r0, #0
 80859be:	f47f af68 	bne.w	8085892 <_strtod_r+0x712>
 80859c2:	e623      	b.n	808560c <_strtod_r+0x48c>
 80859c4:	f8db 3010 	ldr.w	r3, [fp, #16]
 80859c8:	2b01      	cmp	r3, #1
 80859ca:	dc8e      	bgt.n	80858ea <_strtod_r+0x76a>
 80859cc:	e17a      	b.n	8085cc4 <_strtod_r+0xb44>
 80859ce:	d161      	bne.n	8085a94 <_strtod_r+0x914>
 80859d0:	9a06      	ldr	r2, [sp, #24]
 80859d2:	f3c9 0313 	ubfx	r3, r9, #0, #20
 80859d6:	b322      	cbz	r2, 8085a22 <_strtod_r+0x8a2>
 80859d8:	4943      	ldr	r1, [pc, #268]	; (8085ae8 <_strtod_r+0x968>)
 80859da:	464a      	mov	r2, r9
 80859dc:	428b      	cmp	r3, r1
 80859de:	d12e      	bne.n	8085a3e <_strtod_r+0x8be>
 80859e0:	9b03      	ldr	r3, [sp, #12]
 80859e2:	4641      	mov	r1, r8
 80859e4:	b163      	cbz	r3, 8085a00 <_strtod_r+0x880>
 80859e6:	4b41      	ldr	r3, [pc, #260]	; (8085aec <_strtod_r+0x96c>)
 80859e8:	4013      	ands	r3, r2
 80859ea:	f1b3 6fd4 	cmp.w	r3, #111149056	; 0x6a00000
 80859ee:	d807      	bhi.n	8085a00 <_strtod_r+0x880>
 80859f0:	0d1b      	lsrs	r3, r3, #20
 80859f2:	f1c3 036b 	rsb	r3, r3, #107	; 0x6b
 80859f6:	f04f 30ff 	mov.w	r0, #4294967295
 80859fa:	fa00 f303 	lsl.w	r3, r0, r3
 80859fe:	e001      	b.n	8085a04 <_strtod_r+0x884>
 8085a00:	f04f 33ff 	mov.w	r3, #4294967295
 8085a04:	428b      	cmp	r3, r1
 8085a06:	d11a      	bne.n	8085a3e <_strtod_r+0x8be>
 8085a08:	4939      	ldr	r1, [pc, #228]	; (8085af0 <_strtod_r+0x970>)
 8085a0a:	428a      	cmp	r2, r1
 8085a0c:	d102      	bne.n	8085a14 <_strtod_r+0x894>
 8085a0e:	3301      	adds	r3, #1
 8085a10:	f43f adfc 	beq.w	808560c <_strtod_r+0x48c>
 8085a14:	4b35      	ldr	r3, [pc, #212]	; (8085aec <_strtod_r+0x96c>)
 8085a16:	f04f 0800 	mov.w	r8, #0
 8085a1a:	4013      	ands	r3, r2
 8085a1c:	f503 1980 	add.w	r9, r3, #1048576	; 0x100000
 8085a20:	e150      	b.n	8085cc4 <_strtod_r+0xb44>
 8085a22:	b963      	cbnz	r3, 8085a3e <_strtod_r+0x8be>
 8085a24:	f1b8 0f00 	cmp.w	r8, #0
 8085a28:	d109      	bne.n	8085a3e <_strtod_r+0x8be>
 8085a2a:	e76a      	b.n	8085902 <_strtod_r+0x782>
 8085a2c:	f5a3 1380 	sub.w	r3, r3, #1048576	; 0x100000
 8085a30:	ea6f 5913 	mvn.w	r9, r3, lsr #20
 8085a34:	f04f 38ff 	mov.w	r8, #4294967295
 8085a38:	ea6f 5909 	mvn.w	r9, r9, lsl #20
 8085a3c:	e142      	b.n	8085cc4 <_strtod_r+0xb44>
 8085a3e:	b115      	cbz	r5, 8085a46 <_strtod_r+0x8c6>
 8085a40:	ea15 0f09 	tst.w	r5, r9
 8085a44:	e002      	b.n	8085a4c <_strtod_r+0x8cc>
 8085a46:	9b07      	ldr	r3, [sp, #28]
 8085a48:	ea13 0f08 	tst.w	r3, r8
 8085a4c:	f000 813a 	beq.w	8085cc4 <_strtod_r+0xb44>
 8085a50:	9b06      	ldr	r3, [sp, #24]
 8085a52:	9a03      	ldr	r2, [sp, #12]
 8085a54:	4640      	mov	r0, r8
 8085a56:	4649      	mov	r1, r9
 8085a58:	b153      	cbz	r3, 8085a70 <_strtod_r+0x8f0>
 8085a5a:	f7ff fb6f 	bl	808513c <sulp>
 8085a5e:	4602      	mov	r2, r0
 8085a60:	460b      	mov	r3, r1
 8085a62:	e9dd 0108 	ldrd	r0, r1, [sp, #32]
 8085a66:	f7fd ff4f 	bl	8083908 <__adddf3>
 8085a6a:	4680      	mov	r8, r0
 8085a6c:	4689      	mov	r9, r1
 8085a6e:	e129      	b.n	8085cc4 <_strtod_r+0xb44>
 8085a70:	f7ff fb64 	bl	808513c <sulp>
 8085a74:	4602      	mov	r2, r0
 8085a76:	460b      	mov	r3, r1
 8085a78:	e9dd 0108 	ldrd	r0, r1, [sp, #32]
 8085a7c:	f7fd ff42 	bl	8083904 <__aeabi_dsub>
 8085a80:	2200      	movs	r2, #0
 8085a82:	2300      	movs	r3, #0
 8085a84:	4680      	mov	r8, r0
 8085a86:	4689      	mov	r9, r1
 8085a88:	f7fe fb58 	bl	808413c <__aeabi_dcmpeq>
 8085a8c:	2800      	cmp	r0, #0
 8085a8e:	f47f af48 	bne.w	8085922 <_strtod_r+0x7a2>
 8085a92:	e117      	b.n	8085cc4 <_strtod_r+0xb44>
 8085a94:	9902      	ldr	r1, [sp, #8]
 8085a96:	4658      	mov	r0, fp
 8085a98:	f001 fc6d 	bl	8087376 <__ratio>
 8085a9c:	2200      	movs	r2, #0
 8085a9e:	f04f 4380 	mov.w	r3, #1073741824	; 0x40000000
 8085aa2:	4606      	mov	r6, r0
 8085aa4:	460f      	mov	r7, r1
 8085aa6:	f7fe fb5d 	bl	8084164 <__aeabi_dcmple>
 8085aaa:	2800      	cmp	r0, #0
 8085aac:	d03f      	beq.n	8085b2e <_strtod_r+0x9ae>
 8085aae:	9b06      	ldr	r3, [sp, #24]
 8085ab0:	b113      	cbz	r3, 8085ab8 <_strtod_r+0x938>
 8085ab2:	2600      	movs	r6, #0
 8085ab4:	4f0f      	ldr	r7, [pc, #60]	; (8085af4 <_strtod_r+0x974>)
 8085ab6:	e010      	b.n	8085ada <_strtod_r+0x95a>
 8085ab8:	f1b8 0f00 	cmp.w	r8, #0
 8085abc:	d103      	bne.n	8085ac6 <_strtod_r+0x946>
 8085abe:	f3c9 0313 	ubfx	r3, r9, #0, #20
 8085ac2:	b93b      	cbnz	r3, 8085ad4 <_strtod_r+0x954>
 8085ac4:	e01a      	b.n	8085afc <_strtod_r+0x97c>
 8085ac6:	f1b8 0f01 	cmp.w	r8, #1
 8085aca:	d103      	bne.n	8085ad4 <_strtod_r+0x954>
 8085acc:	f1b9 0f00 	cmp.w	r9, #0
 8085ad0:	f43f af27 	beq.w	8085922 <_strtod_r+0x7a2>
 8085ad4:	4f08      	ldr	r7, [pc, #32]	; (8085af8 <_strtod_r+0x978>)
 8085ad6:	2600      	movs	r6, #0
 8085ad8:	2400      	movs	r4, #0
 8085ada:	4d06      	ldr	r5, [pc, #24]	; (8085af4 <_strtod_r+0x974>)
 8085adc:	e03c      	b.n	8085b58 <_strtod_r+0x9d8>
 8085ade:	bf00      	nop
 8085ae0:	fffffc02 	.word	0xfffffc02
 8085ae4:	fffffbe2 	.word	0xfffffbe2
 8085ae8:	000fffff 	.word	0x000fffff
 8085aec:	7ff00000 	.word	0x7ff00000
 8085af0:	7fefffff 	.word	0x7fefffff
 8085af4:	3ff00000 	.word	0x3ff00000
 8085af8:	bff00000 	.word	0xbff00000
 8085afc:	2200      	movs	r2, #0
 8085afe:	4b9a      	ldr	r3, [pc, #616]	; (8085d68 <_strtod_r+0xbe8>)
 8085b00:	4630      	mov	r0, r6
 8085b02:	4639      	mov	r1, r7
 8085b04:	f7fe fb24 	bl	8084150 <__aeabi_dcmplt>
 8085b08:	b940      	cbnz	r0, 8085b1c <_strtod_r+0x99c>
 8085b0a:	2200      	movs	r2, #0
 8085b0c:	4b97      	ldr	r3, [pc, #604]	; (8085d6c <_strtod_r+0xbec>)
 8085b0e:	4630      	mov	r0, r6
 8085b10:	4639      	mov	r1, r7
 8085b12:	f7fe f8ab 	bl	8083c6c <__aeabi_dmul>
 8085b16:	4604      	mov	r4, r0
 8085b18:	460d      	mov	r5, r1
 8085b1a:	e001      	b.n	8085b20 <_strtod_r+0x9a0>
 8085b1c:	9c06      	ldr	r4, [sp, #24]
 8085b1e:	4d93      	ldr	r5, [pc, #588]	; (8085d6c <_strtod_r+0xbec>)
 8085b20:	f105 4300 	add.w	r3, r5, #2147483648	; 0x80000000
 8085b24:	9414      	str	r4, [sp, #80]	; 0x50
 8085b26:	9315      	str	r3, [sp, #84]	; 0x54
 8085b28:	e9dd 6714 	ldrd	r6, r7, [sp, #80]	; 0x50
 8085b2c:	e014      	b.n	8085b58 <_strtod_r+0x9d8>
 8085b2e:	4b8f      	ldr	r3, [pc, #572]	; (8085d6c <_strtod_r+0xbec>)
 8085b30:	2200      	movs	r2, #0
 8085b32:	4630      	mov	r0, r6
 8085b34:	4639      	mov	r1, r7
 8085b36:	f7fe f899 	bl	8083c6c <__aeabi_dmul>
 8085b3a:	9b06      	ldr	r3, [sp, #24]
 8085b3c:	4604      	mov	r4, r0
 8085b3e:	460d      	mov	r5, r1
 8085b40:	b923      	cbnz	r3, 8085b4c <_strtod_r+0x9cc>
 8085b42:	f101 4300 	add.w	r3, r1, #2147483648	; 0x80000000
 8085b46:	900e      	str	r0, [sp, #56]	; 0x38
 8085b48:	930f      	str	r3, [sp, #60]	; 0x3c
 8085b4a:	e003      	b.n	8085b54 <_strtod_r+0x9d4>
 8085b4c:	4602      	mov	r2, r0
 8085b4e:	460b      	mov	r3, r1
 8085b50:	e9cd 230e 	strd	r2, r3, [sp, #56]	; 0x38
 8085b54:	e9dd 670e 	ldrd	r6, r7, [sp, #56]	; 0x38
 8085b58:	f029 4300 	bic.w	r3, r9, #2147483648	; 0x80000000
 8085b5c:	0d1b      	lsrs	r3, r3, #20
 8085b5e:	051b      	lsls	r3, r3, #20
 8085b60:	9307      	str	r3, [sp, #28]
 8085b62:	9a07      	ldr	r2, [sp, #28]
 8085b64:	4b82      	ldr	r3, [pc, #520]	; (8085d70 <_strtod_r+0xbf0>)
 8085b66:	429a      	cmp	r2, r3
 8085b68:	d12b      	bne.n	8085bc2 <_strtod_r+0xa42>
 8085b6a:	e9dd 2308 	ldrd	r2, r3, [sp, #32]
 8085b6e:	f1a9 7954 	sub.w	r9, r9, #55574528	; 0x3500000
 8085b72:	4640      	mov	r0, r8
 8085b74:	4649      	mov	r1, r9
 8085b76:	e9cd 230a 	strd	r2, r3, [sp, #40]	; 0x28
 8085b7a:	f001 fb3d 	bl	80871f8 <__ulp>
 8085b7e:	4602      	mov	r2, r0
 8085b80:	460b      	mov	r3, r1
 8085b82:	4630      	mov	r0, r6
 8085b84:	4639      	mov	r1, r7
 8085b86:	f7fe f871 	bl	8083c6c <__aeabi_dmul>
 8085b8a:	4642      	mov	r2, r8
 8085b8c:	464b      	mov	r3, r9
 8085b8e:	f7fd febb 	bl	8083908 <__adddf3>
 8085b92:	f021 4300 	bic.w	r3, r1, #2147483648	; 0x80000000
 8085b96:	0d1b      	lsrs	r3, r3, #20
 8085b98:	4a76      	ldr	r2, [pc, #472]	; (8085d74 <_strtod_r+0xbf4>)
 8085b9a:	051b      	lsls	r3, r3, #20
 8085b9c:	4293      	cmp	r3, r2
 8085b9e:	4680      	mov	r8, r0
 8085ba0:	d90c      	bls.n	8085bbc <_strtod_r+0xa3c>
 8085ba2:	4b75      	ldr	r3, [pc, #468]	; (8085d78 <_strtod_r+0xbf8>)
 8085ba4:	9a0b      	ldr	r2, [sp, #44]	; 0x2c
 8085ba6:	429a      	cmp	r2, r3
 8085ba8:	d103      	bne.n	8085bb2 <_strtod_r+0xa32>
 8085baa:	9b0a      	ldr	r3, [sp, #40]	; 0x28
 8085bac:	3301      	adds	r3, #1
 8085bae:	f43f ad2d 	beq.w	808560c <_strtod_r+0x48c>
 8085bb2:	f8df 91c4 	ldr.w	r9, [pc, #452]	; 8085d78 <_strtod_r+0xbf8>
 8085bb6:	f04f 38ff 	mov.w	r8, #4294967295
 8085bba:	e072      	b.n	8085ca2 <_strtod_r+0xb22>
 8085bbc:	f101 7954 	add.w	r9, r1, #55574528	; 0x3500000
 8085bc0:	e039      	b.n	8085c36 <_strtod_r+0xab6>
 8085bc2:	9b03      	ldr	r3, [sp, #12]
 8085bc4:	b33b      	cbz	r3, 8085c16 <_strtod_r+0xa96>
 8085bc6:	9b07      	ldr	r3, [sp, #28]
 8085bc8:	f1b3 6fd4 	cmp.w	r3, #111149056	; 0x6a00000
 8085bcc:	d823      	bhi.n	8085c16 <_strtod_r+0xa96>
 8085bce:	a35e      	add	r3, pc, #376	; (adr r3, 8085d48 <_strtod_r+0xbc8>)
 8085bd0:	e9d3 2300 	ldrd	r2, r3, [r3]
 8085bd4:	4620      	mov	r0, r4
 8085bd6:	4629      	mov	r1, r5
 8085bd8:	f7fe fac4 	bl	8084164 <__aeabi_dcmple>
 8085bdc:	b1b8      	cbz	r0, 8085c0e <_strtod_r+0xa8e>
 8085bde:	4629      	mov	r1, r5
 8085be0:	4620      	mov	r0, r4
 8085be2:	f7fe fb1b 	bl	808421c <__aeabi_d2uiz>
 8085be6:	2800      	cmp	r0, #0
 8085be8:	bf08      	it	eq
 8085bea:	2001      	moveq	r0, #1
 8085bec:	f7fd ffc8 	bl	8083b80 <__aeabi_ui2d>
 8085bf0:	9b06      	ldr	r3, [sp, #24]
 8085bf2:	4604      	mov	r4, r0
 8085bf4:	460d      	mov	r5, r1
 8085bf6:	b923      	cbnz	r3, 8085c02 <_strtod_r+0xa82>
 8085bf8:	f101 4300 	add.w	r3, r1, #2147483648	; 0x80000000
 8085bfc:	9010      	str	r0, [sp, #64]	; 0x40
 8085bfe:	9311      	str	r3, [sp, #68]	; 0x44
 8085c00:	e003      	b.n	8085c0a <_strtod_r+0xa8a>
 8085c02:	4602      	mov	r2, r0
 8085c04:	460b      	mov	r3, r1
 8085c06:	e9cd 2310 	strd	r2, r3, [sp, #64]	; 0x40
 8085c0a:	e9dd 6710 	ldrd	r6, r7, [sp, #64]	; 0x40
 8085c0e:	9a07      	ldr	r2, [sp, #28]
 8085c10:	f107 63d6 	add.w	r3, r7, #112197632	; 0x6b00000
 8085c14:	1a9f      	subs	r7, r3, r2
 8085c16:	e9dd 0108 	ldrd	r0, r1, [sp, #32]
 8085c1a:	f001 faed 	bl	80871f8 <__ulp>
 8085c1e:	4602      	mov	r2, r0
 8085c20:	460b      	mov	r3, r1
 8085c22:	4630      	mov	r0, r6
 8085c24:	4639      	mov	r1, r7
 8085c26:	f7fe f821 	bl	8083c6c <__aeabi_dmul>
 8085c2a:	e9dd 2308 	ldrd	r2, r3, [sp, #32]
 8085c2e:	f7fd fe6b 	bl	8083908 <__adddf3>
 8085c32:	4680      	mov	r8, r0
 8085c34:	4689      	mov	r9, r1
 8085c36:	9b03      	ldr	r3, [sp, #12]
 8085c38:	bb9b      	cbnz	r3, 8085ca2 <_strtod_r+0xb22>
 8085c3a:	f029 4300 	bic.w	r3, r9, #2147483648	; 0x80000000
 8085c3e:	0d1b      	lsrs	r3, r3, #20
 8085c40:	9a07      	ldr	r2, [sp, #28]
 8085c42:	051b      	lsls	r3, r3, #20
 8085c44:	429a      	cmp	r2, r3
 8085c46:	464e      	mov	r6, r9
 8085c48:	d12b      	bne.n	8085ca2 <_strtod_r+0xb22>
 8085c4a:	4629      	mov	r1, r5
 8085c4c:	4620      	mov	r0, r4
 8085c4e:	f7fe fabd 	bl	80841cc <__aeabi_d2iz>
 8085c52:	f7fd ffa5 	bl	8083ba0 <__aeabi_i2d>
 8085c56:	460b      	mov	r3, r1
 8085c58:	4602      	mov	r2, r0
 8085c5a:	4629      	mov	r1, r5
 8085c5c:	4620      	mov	r0, r4
 8085c5e:	f7fd fe51 	bl	8083904 <__aeabi_dsub>
 8085c62:	9b06      	ldr	r3, [sp, #24]
 8085c64:	4604      	mov	r4, r0
 8085c66:	460d      	mov	r5, r1
 8085c68:	b92b      	cbnz	r3, 8085c76 <_strtod_r+0xaf6>
 8085c6a:	f1b8 0f00 	cmp.w	r8, #0
 8085c6e:	d102      	bne.n	8085c76 <_strtod_r+0xaf6>
 8085c70:	f3c9 0613 	ubfx	r6, r9, #0, #20
 8085c74:	b17e      	cbz	r6, 8085c96 <_strtod_r+0xb16>
 8085c76:	a336      	add	r3, pc, #216	; (adr r3, 8085d50 <_strtod_r+0xbd0>)
 8085c78:	e9d3 2300 	ldrd	r2, r3, [r3]
 8085c7c:	4620      	mov	r0, r4
 8085c7e:	4629      	mov	r1, r5
 8085c80:	f7fe fa66 	bl	8084150 <__aeabi_dcmplt>
 8085c84:	bb88      	cbnz	r0, 8085cea <_strtod_r+0xb6a>
 8085c86:	a334      	add	r3, pc, #208	; (adr r3, 8085d58 <_strtod_r+0xbd8>)
 8085c88:	e9d3 2300 	ldrd	r2, r3, [r3]
 8085c8c:	4620      	mov	r0, r4
 8085c8e:	4629      	mov	r1, r5
 8085c90:	f7fe fa7c 	bl	808418c <__aeabi_dcmpgt>
 8085c94:	e004      	b.n	8085ca0 <_strtod_r+0xb20>
 8085c96:	a332      	add	r3, pc, #200	; (adr r3, 8085d60 <_strtod_r+0xbe0>)
 8085c98:	e9d3 2300 	ldrd	r2, r3, [r3]
 8085c9c:	f7fe fa58 	bl	8084150 <__aeabi_dcmplt>
 8085ca0:	bb18      	cbnz	r0, 8085cea <_strtod_r+0xb6a>
 8085ca2:	9918      	ldr	r1, [sp, #96]	; 0x60
 8085ca4:	4650      	mov	r0, sl
 8085ca6:	f001 f816 	bl	8086cd6 <_Bfree>
 8085caa:	9904      	ldr	r1, [sp, #16]
 8085cac:	4650      	mov	r0, sl
 8085cae:	f001 f812 	bl	8086cd6 <_Bfree>
 8085cb2:	9902      	ldr	r1, [sp, #8]
 8085cb4:	4650      	mov	r0, sl
 8085cb6:	f001 f80e 	bl	8086cd6 <_Bfree>
 8085cba:	4659      	mov	r1, fp
 8085cbc:	4650      	mov	r0, sl
 8085cbe:	f001 f80a 	bl	8086cd6 <_Bfree>
 8085cc2:	e574      	b.n	80857ae <_strtod_r+0x62e>
 8085cc4:	9b03      	ldr	r3, [sp, #12]
 8085cc6:	b183      	cbz	r3, 8085cea <_strtod_r+0xb6a>
 8085cc8:	4b2c      	ldr	r3, [pc, #176]	; (8085d7c <_strtod_r+0xbfc>)
 8085cca:	4640      	mov	r0, r8
 8085ccc:	930b      	str	r3, [sp, #44]	; 0x2c
 8085cce:	2300      	movs	r3, #0
 8085cd0:	930a      	str	r3, [sp, #40]	; 0x28
 8085cd2:	4649      	mov	r1, r9
 8085cd4:	e9dd 230a 	ldrd	r2, r3, [sp, #40]	; 0x28
 8085cd8:	f7fd ffc8 	bl	8083c6c <__aeabi_dmul>
 8085cdc:	4680      	mov	r8, r0
 8085cde:	4689      	mov	r9, r1
 8085ce0:	b919      	cbnz	r1, 8085cea <_strtod_r+0xb6a>
 8085ce2:	b910      	cbnz	r0, 8085cea <_strtod_r+0xb6a>
 8085ce4:	2322      	movs	r3, #34	; 0x22
 8085ce6:	f8ca 3000 	str.w	r3, [sl]
 8085cea:	9918      	ldr	r1, [sp, #96]	; 0x60
 8085cec:	4650      	mov	r0, sl
 8085cee:	f000 fff2 	bl	8086cd6 <_Bfree>
 8085cf2:	9904      	ldr	r1, [sp, #16]
 8085cf4:	4650      	mov	r0, sl
 8085cf6:	f000 ffee 	bl	8086cd6 <_Bfree>
 8085cfa:	9902      	ldr	r1, [sp, #8]
 8085cfc:	4650      	mov	r0, sl
 8085cfe:	f000 ffea 	bl	8086cd6 <_Bfree>
 8085d02:	9905      	ldr	r1, [sp, #20]
 8085d04:	4650      	mov	r0, sl
 8085d06:	f000 ffe6 	bl	8086cd6 <_Bfree>
 8085d0a:	4659      	mov	r1, fp
 8085d0c:	4650      	mov	r0, sl
 8085d0e:	f000 ffe2 	bl	8086cd6 <_Bfree>
 8085d12:	9b13      	ldr	r3, [sp, #76]	; 0x4c
 8085d14:	b113      	cbz	r3, 8085d1c <_strtod_r+0xb9c>
 8085d16:	9b17      	ldr	r3, [sp, #92]	; 0x5c
 8085d18:	9a13      	ldr	r2, [sp, #76]	; 0x4c
 8085d1a:	6013      	str	r3, [r2, #0]
 8085d1c:	9b0c      	ldr	r3, [sp, #48]	; 0x30
 8085d1e:	b11b      	cbz	r3, 8085d28 <_strtod_r+0xba8>
 8085d20:	4642      	mov	r2, r8
 8085d22:	f109 4300 	add.w	r3, r9, #2147483648	; 0x80000000
 8085d26:	e007      	b.n	8085d38 <_strtod_r+0xbb8>
 8085d28:	4642      	mov	r2, r8
 8085d2a:	464b      	mov	r3, r9
 8085d2c:	e004      	b.n	8085d38 <_strtod_r+0xbb8>
 8085d2e:	2500      	movs	r5, #0
 8085d30:	462a      	mov	r2, r5
 8085d32:	2101      	movs	r1, #1
 8085d34:	f7ff bb47 	b.w	80853c6 <_strtod_r+0x246>
 8085d38:	4610      	mov	r0, r2
 8085d3a:	4619      	mov	r1, r3
 8085d3c:	b01d      	add	sp, #116	; 0x74
 8085d3e:	e8bd 8ff0 	ldmia.w	sp!, {r4, r5, r6, r7, r8, r9, sl, fp, pc}
 8085d42:	bf00      	nop
 8085d44:	f3af 8000 	nop.w
 8085d48:	ffc00000 	.word	0xffc00000
 8085d4c:	41dfffff 	.word	0x41dfffff
 8085d50:	94a03595 	.word	0x94a03595
 8085d54:	3fdfffff 	.word	0x3fdfffff
 8085d58:	35afe535 	.word	0x35afe535
 8085d5c:	3fe00000 	.word	0x3fe00000
 8085d60:	94a03595 	.word	0x94a03595
 8085d64:	3fcfffff 	.word	0x3fcfffff
 8085d68:	3ff00000 	.word	0x3ff00000
 8085d6c:	3fe00000 	.word	0x3fe00000
 8085d70:	7fe00000 	.word	0x7fe00000
 8085d74:	7c9fffff 	.word	0x7c9fffff
 8085d78:	7fefffff 	.word	0x7fefffff
 8085d7c:	39500000 	.word	0x39500000

08085d80 <strtof>:
 8085d80:	b538      	push	{r3, r4, r5, lr}
 8085d82:	4b0b      	ldr	r3, [pc, #44]	; (8085db0 <strtof+0x30>)
 8085d84:	460a      	mov	r2, r1
 8085d86:	4601      	mov	r1, r0
 8085d88:	6818      	ldr	r0, [r3, #0]
 8085d8a:	f7ff f9f9 	bl	8085180 <_strtod_r>
 8085d8e:	4602      	mov	r2, r0
 8085d90:	460b      	mov	r3, r1
 8085d92:	4604      	mov	r4, r0
 8085d94:	460d      	mov	r5, r1
 8085d96:	f7fe fa03 	bl	80841a0 <__aeabi_dcmpun>
 8085d9a:	b120      	cbz	r0, 8085da6 <strtof+0x26>
 8085d9c:	2000      	movs	r0, #0
 8085d9e:	e8bd 4038 	ldmia.w	sp!, {r3, r4, r5, lr}
 8085da2:	f001 bb5b 	b.w	808745c <nanf>
 8085da6:	4620      	mov	r0, r4
 8085da8:	4629      	mov	r1, r5
 8085daa:	f7fe fa57 	bl	808425c <__aeabi_d2f>
 8085dae:	bd38      	pop	{r3, r4, r5, pc}
 8085db0:	20000078 	.word	0x20000078

08085db4 <_strtol_r>:
 8085db4:	e92d 47f0 	stmdb	sp!, {r4, r5, r6, r7, r8, r9, sl, lr}
 8085db8:	460f      	mov	r7, r1
 8085dba:	4680      	mov	r8, r0
 8085dbc:	483f      	ldr	r0, [pc, #252]	; (8085ebc <_strtol_r+0x108>)
 8085dbe:	f8d0 9000 	ldr.w	r9, [r0]
 8085dc2:	463d      	mov	r5, r7
 8085dc4:	f815 4b01 	ldrb.w	r4, [r5], #1
 8085dc8:	eb09 0004 	add.w	r0, r9, r4
 8085dcc:	7840      	ldrb	r0, [r0, #1]
 8085dce:	f000 0008 	and.w	r0, r0, #8
 8085dd2:	f000 06ff 	and.w	r6, r0, #255	; 0xff
 8085dd6:	b108      	cbz	r0, 8085ddc <_strtol_r+0x28>
 8085dd8:	462f      	mov	r7, r5
 8085dda:	e7f2      	b.n	8085dc2 <_strtol_r+0xe>
 8085ddc:	2c2d      	cmp	r4, #45	; 0x2d
 8085dde:	d103      	bne.n	8085de8 <_strtol_r+0x34>
 8085de0:	1cbd      	adds	r5, r7, #2
 8085de2:	787c      	ldrb	r4, [r7, #1]
 8085de4:	2601      	movs	r6, #1
 8085de6:	e003      	b.n	8085df0 <_strtol_r+0x3c>
 8085de8:	2c2b      	cmp	r4, #43	; 0x2b
 8085dea:	bf04      	itt	eq
 8085dec:	787c      	ldrbeq	r4, [r7, #1]
 8085dee:	1cbd      	addeq	r5, r7, #2
 8085df0:	b113      	cbz	r3, 8085df8 <_strtol_r+0x44>
 8085df2:	2b10      	cmp	r3, #16
 8085df4:	d10a      	bne.n	8085e0c <_strtol_r+0x58>
 8085df6:	e05b      	b.n	8085eb0 <_strtol_r+0xfc>
 8085df8:	2c30      	cmp	r4, #48	; 0x30
 8085dfa:	d157      	bne.n	8085eac <_strtol_r+0xf8>
 8085dfc:	7828      	ldrb	r0, [r5, #0]
 8085dfe:	f000 00df 	and.w	r0, r0, #223	; 0xdf
 8085e02:	2858      	cmp	r0, #88	; 0x58
 8085e04:	d14d      	bne.n	8085ea2 <_strtol_r+0xee>
 8085e06:	786c      	ldrb	r4, [r5, #1]
 8085e08:	2310      	movs	r3, #16
 8085e0a:	3502      	adds	r5, #2
 8085e0c:	2e00      	cmp	r6, #0
 8085e0e:	bf14      	ite	ne
 8085e10:	f04f 4c00 	movne.w	ip, #2147483648	; 0x80000000
 8085e14:	f06f 4c00 	mvneq.w	ip, #2147483648	; 0x80000000
 8085e18:	fbbc faf3 	udiv	sl, ip, r3
 8085e1c:	2700      	movs	r7, #0
 8085e1e:	4638      	mov	r0, r7
 8085e20:	fb03 cc1a 	mls	ip, r3, sl, ip
 8085e24:	eb09 0e04 	add.w	lr, r9, r4
 8085e28:	f89e e001 	ldrb.w	lr, [lr, #1]
 8085e2c:	f01e 0f04 	tst.w	lr, #4
 8085e30:	d001      	beq.n	8085e36 <_strtol_r+0x82>
 8085e32:	3c30      	subs	r4, #48	; 0x30
 8085e34:	e00b      	b.n	8085e4e <_strtol_r+0x9a>
 8085e36:	f01e 0e03 	ands.w	lr, lr, #3
 8085e3a:	d01b      	beq.n	8085e74 <_strtol_r+0xc0>
 8085e3c:	f1be 0f01 	cmp.w	lr, #1
 8085e40:	bf0c      	ite	eq
 8085e42:	f04f 0e37 	moveq.w	lr, #55	; 0x37
 8085e46:	f04f 0e57 	movne.w	lr, #87	; 0x57
 8085e4a:	ebce 0404 	rsb	r4, lr, r4
 8085e4e:	42a3      	cmp	r3, r4
 8085e50:	dd10      	ble.n	8085e74 <_strtol_r+0xc0>
 8085e52:	f1b7 3fff 	cmp.w	r7, #4294967295
 8085e56:	d00a      	beq.n	8085e6e <_strtol_r+0xba>
 8085e58:	4550      	cmp	r0, sl
 8085e5a:	d806      	bhi.n	8085e6a <_strtol_r+0xb6>
 8085e5c:	d101      	bne.n	8085e62 <_strtol_r+0xae>
 8085e5e:	4564      	cmp	r4, ip
 8085e60:	dc03      	bgt.n	8085e6a <_strtol_r+0xb6>
 8085e62:	fb03 4000 	mla	r0, r3, r0, r4
 8085e66:	2701      	movs	r7, #1
 8085e68:	e001      	b.n	8085e6e <_strtol_r+0xba>
 8085e6a:	f04f 37ff 	mov.w	r7, #4294967295
 8085e6e:	f815 4b01 	ldrb.w	r4, [r5], #1
 8085e72:	e7d7      	b.n	8085e24 <_strtol_r+0x70>
 8085e74:	1c7b      	adds	r3, r7, #1
 8085e76:	d10c      	bne.n	8085e92 <_strtol_r+0xde>
 8085e78:	2e00      	cmp	r6, #0
 8085e7a:	f04f 0322 	mov.w	r3, #34	; 0x22
 8085e7e:	bf14      	ite	ne
 8085e80:	f04f 4000 	movne.w	r0, #2147483648	; 0x80000000
 8085e84:	f06f 4000 	mvneq.w	r0, #2147483648	; 0x80000000
 8085e88:	f8c8 3000 	str.w	r3, [r8]
 8085e8c:	b92a      	cbnz	r2, 8085e9a <_strtol_r+0xe6>
 8085e8e:	e8bd 87f0 	ldmia.w	sp!, {r4, r5, r6, r7, r8, r9, sl, pc}
 8085e92:	b106      	cbz	r6, 8085e96 <_strtol_r+0xe2>
 8085e94:	4240      	negs	r0, r0
 8085e96:	b172      	cbz	r2, 8085eb6 <_strtol_r+0x102>
 8085e98:	b107      	cbz	r7, 8085e9c <_strtol_r+0xe8>
 8085e9a:	1e69      	subs	r1, r5, #1
 8085e9c:	6011      	str	r1, [r2, #0]
 8085e9e:	e8bd 87f0 	ldmia.w	sp!, {r4, r5, r6, r7, r8, r9, sl, pc}
 8085ea2:	2430      	movs	r4, #48	; 0x30
 8085ea4:	2b00      	cmp	r3, #0
 8085ea6:	d1b1      	bne.n	8085e0c <_strtol_r+0x58>
 8085ea8:	2308      	movs	r3, #8
 8085eaa:	e7af      	b.n	8085e0c <_strtol_r+0x58>
 8085eac:	230a      	movs	r3, #10
 8085eae:	e7ad      	b.n	8085e0c <_strtol_r+0x58>
 8085eb0:	2c30      	cmp	r4, #48	; 0x30
 8085eb2:	d0a3      	beq.n	8085dfc <_strtol_r+0x48>
 8085eb4:	e7aa      	b.n	8085e0c <_strtol_r+0x58>
 8085eb6:	e8bd 87f0 	ldmia.w	sp!, {r4, r5, r6, r7, r8, r9, sl, pc}
 8085eba:	bf00      	nop
 8085ebc:	20000014 	.word	0x20000014

08085ec0 <strtol>:
 8085ec0:	4613      	mov	r3, r2
 8085ec2:	460a      	mov	r2, r1
 8085ec4:	4601      	mov	r1, r0
 8085ec6:	4802      	ldr	r0, [pc, #8]	; (8085ed0 <strtol+0x10>)
 8085ec8:	6800      	ldr	r0, [r0, #0]
 8085eca:	f7ff bf73 	b.w	8085db4 <_strtol_r>
 8085ece:	bf00      	nop
 8085ed0:	20000078 	.word	0x20000078

08085ed4 <_strtoul_r>:
 8085ed4:	e92d 47f0 	stmdb	sp!, {r4, r5, r6, r7, r8, r9, sl, lr}
 8085ed8:	460e      	mov	r6, r1
 8085eda:	4680      	mov	r8, r0
 8085edc:	483b      	ldr	r0, [pc, #236]	; (8085fcc <_strtoul_r+0xf8>)
 8085ede:	f8d0 9000 	ldr.w	r9, [r0]
 8085ee2:	4635      	mov	r5, r6
 8085ee4:	f815 4b01 	ldrb.w	r4, [r5], #1
 8085ee8:	eb09 0004 	add.w	r0, r9, r4
 8085eec:	7840      	ldrb	r0, [r0, #1]
 8085eee:	f000 0008 	and.w	r0, r0, #8
 8085ef2:	f000 07ff 	and.w	r7, r0, #255	; 0xff
 8085ef6:	b108      	cbz	r0, 8085efc <_strtoul_r+0x28>
 8085ef8:	462e      	mov	r6, r5
 8085efa:	e7f2      	b.n	8085ee2 <_strtoul_r+0xe>
 8085efc:	2c2d      	cmp	r4, #45	; 0x2d
 8085efe:	d103      	bne.n	8085f08 <_strtoul_r+0x34>
 8085f00:	1cb5      	adds	r5, r6, #2
 8085f02:	7874      	ldrb	r4, [r6, #1]
 8085f04:	2701      	movs	r7, #1
 8085f06:	e003      	b.n	8085f10 <_strtoul_r+0x3c>
 8085f08:	2c2b      	cmp	r4, #43	; 0x2b
 8085f0a:	bf04      	itt	eq
 8085f0c:	7874      	ldrbeq	r4, [r6, #1]
 8085f0e:	1cb5      	addeq	r5, r6, #2
 8085f10:	b113      	cbz	r3, 8085f18 <_strtoul_r+0x44>
 8085f12:	2b10      	cmp	r3, #16
 8085f14:	d10a      	bne.n	8085f2c <_strtoul_r+0x58>
 8085f16:	e053      	b.n	8085fc0 <_strtoul_r+0xec>
 8085f18:	2c30      	cmp	r4, #48	; 0x30
 8085f1a:	d14f      	bne.n	8085fbc <_strtoul_r+0xe8>
 8085f1c:	7828      	ldrb	r0, [r5, #0]
 8085f1e:	f000 00df 	and.w	r0, r0, #223	; 0xdf
 8085f22:	2858      	cmp	r0, #88	; 0x58
 8085f24:	d145      	bne.n	8085fb2 <_strtoul_r+0xde>
 8085f26:	786c      	ldrb	r4, [r5, #1]
 8085f28:	2310      	movs	r3, #16
 8085f2a:	3502      	adds	r5, #2
 8085f2c:	f04f 3cff 	mov.w	ip, #4294967295
 8085f30:	fbbc fcf3 	udiv	ip, ip, r3
 8085f34:	fb03 fa0c 	mul.w	sl, r3, ip
 8085f38:	2600      	movs	r6, #0
 8085f3a:	ea6f 0a0a 	mvn.w	sl, sl
 8085f3e:	4630      	mov	r0, r6
 8085f40:	eb09 0e04 	add.w	lr, r9, r4
 8085f44:	f89e e001 	ldrb.w	lr, [lr, #1]
 8085f48:	f01e 0f04 	tst.w	lr, #4
 8085f4c:	d001      	beq.n	8085f52 <_strtoul_r+0x7e>
 8085f4e:	3c30      	subs	r4, #48	; 0x30
 8085f50:	e00b      	b.n	8085f6a <_strtoul_r+0x96>
 8085f52:	f01e 0e03 	ands.w	lr, lr, #3
 8085f56:	d01a      	beq.n	8085f8e <_strtoul_r+0xba>
 8085f58:	f1be 0f01 	cmp.w	lr, #1
 8085f5c:	bf0c      	ite	eq
 8085f5e:	f04f 0e37 	moveq.w	lr, #55	; 0x37
 8085f62:	f04f 0e57 	movne.w	lr, #87	; 0x57
 8085f66:	ebce 0404 	rsb	r4, lr, r4
 8085f6a:	42a3      	cmp	r3, r4
 8085f6c:	dd0f      	ble.n	8085f8e <_strtoul_r+0xba>
 8085f6e:	2e00      	cmp	r6, #0
 8085f70:	db08      	blt.n	8085f84 <_strtoul_r+0xb0>
 8085f72:	4560      	cmp	r0, ip
 8085f74:	d806      	bhi.n	8085f84 <_strtoul_r+0xb0>
 8085f76:	d101      	bne.n	8085f7c <_strtoul_r+0xa8>
 8085f78:	4554      	cmp	r4, sl
 8085f7a:	dc03      	bgt.n	8085f84 <_strtoul_r+0xb0>
 8085f7c:	fb03 4000 	mla	r0, r3, r0, r4
 8085f80:	2601      	movs	r6, #1
 8085f82:	e001      	b.n	8085f88 <_strtoul_r+0xb4>
 8085f84:	f04f 36ff 	mov.w	r6, #4294967295
 8085f88:	f815 4b01 	ldrb.w	r4, [r5], #1
 8085f8c:	e7d8      	b.n	8085f40 <_strtoul_r+0x6c>
 8085f8e:	2e00      	cmp	r6, #0
 8085f90:	da07      	bge.n	8085fa2 <_strtoul_r+0xce>
 8085f92:	2322      	movs	r3, #34	; 0x22
 8085f94:	f8c8 3000 	str.w	r3, [r8]
 8085f98:	f04f 30ff 	mov.w	r0, #4294967295
 8085f9c:	b92a      	cbnz	r2, 8085faa <_strtoul_r+0xd6>
 8085f9e:	e8bd 87f0 	ldmia.w	sp!, {r4, r5, r6, r7, r8, r9, sl, pc}
 8085fa2:	b107      	cbz	r7, 8085fa6 <_strtoul_r+0xd2>
 8085fa4:	4240      	negs	r0, r0
 8085fa6:	b172      	cbz	r2, 8085fc6 <_strtoul_r+0xf2>
 8085fa8:	b106      	cbz	r6, 8085fac <_strtoul_r+0xd8>
 8085faa:	1e69      	subs	r1, r5, #1
 8085fac:	6011      	str	r1, [r2, #0]
 8085fae:	e8bd 87f0 	ldmia.w	sp!, {r4, r5, r6, r7, r8, r9, sl, pc}
 8085fb2:	2430      	movs	r4, #48	; 0x30
 8085fb4:	2b00      	cmp	r3, #0
 8085fb6:	d1b9      	bne.n	8085f2c <_strtoul_r+0x58>
 8085fb8:	2308      	movs	r3, #8
 8085fba:	e7b7      	b.n	8085f2c <_strtoul_r+0x58>
 8085fbc:	230a      	movs	r3, #10
 8085fbe:	e7b5      	b.n	8085f2c <_strtoul_r+0x58>
 8085fc0:	2c30      	cmp	r4, #48	; 0x30
 8085fc2:	d0ab      	beq.n	8085f1c <_strtoul_r+0x48>
 8085fc4:	e7b2      	b.n	8085f2c <_strtoul_r+0x58>
 8085fc6:	e8bd 87f0 	ldmia.w	sp!, {r4, r5, r6, r7, r8, r9, sl, pc}
 8085fca:	bf00      	nop
 8085fcc:	20000014 	.word	0x20000014

08085fd0 <strtoul>:
 8085fd0:	4613      	mov	r3, r2
 8085fd2:	460a      	mov	r2, r1
 8085fd4:	4601      	mov	r1, r0
 8085fd6:	4802      	ldr	r0, [pc, #8]	; (8085fe0 <strtoul+0x10>)
 8085fd8:	6800      	ldr	r0, [r0, #0]
 8085fda:	f7ff bf7b 	b.w	8085ed4 <_strtoul_r>
 8085fde:	bf00      	nop
 8085fe0:	20000078 	.word	0x20000078

08085fe4 <__get_current_time_locale>:
 8085fe4:	4b04      	ldr	r3, [pc, #16]	; (8085ff8 <__get_current_time_locale+0x14>)
 8085fe6:	4a05      	ldr	r2, [pc, #20]	; (8085ffc <__get_current_time_locale+0x18>)
 8085fe8:	6818      	ldr	r0, [r3, #0]
 8085fea:	4b05      	ldr	r3, [pc, #20]	; (8086000 <__get_current_time_locale+0x1c>)
 8085fec:	2800      	cmp	r0, #0
 8085fee:	bf14      	ite	ne
 8085ff0:	4610      	movne	r0, r2
 8085ff2:	4618      	moveq	r0, r3
 8085ff4:	4770      	bx	lr
 8085ff6:	bf00      	nop
 8085ff8:	200005a4 	.word	0x200005a4
 8085ffc:	200005a8 	.word	0x200005a8
 8086000:	08088100 	.word	0x08088100

08086004 <__tzcalc_limits>:
 8086004:	e92d 4ff7 	stmdb	sp!, {r0, r1, r2, r4, r5, r6, r7, r8, r9, sl, fp, lr}
 8086008:	4604      	mov	r4, r0
 808600a:	f000 fd91 	bl	8086b30 <__gettzinfo>
 808600e:	f240 73b1 	movw	r3, #1969	; 0x7b1
 8086012:	429c      	cmp	r4, r3
 8086014:	f340 8096 	ble.w	8086144 <__tzcalc_limits+0x140>
 8086018:	f240 156d 	movw	r5, #365	; 0x16d
 808601c:	f46f 63f6 	mvn.w	r3, #1968	; 0x7b0
 8086020:	18e3      	adds	r3, r4, r3
 8086022:	f2a4 72b2 	subw	r2, r4, #1970	; 0x7b2
 8086026:	109b      	asrs	r3, r3, #2
 8086028:	fb05 3502 	mla	r5, r5, r2, r3
 808602c:	f2a4 726d 	subw	r2, r4, #1901	; 0x76d
 8086030:	f06f 0363 	mvn.w	r3, #99	; 0x63
 8086034:	fb92 f3f3 	sdiv	r3, r2, r3
 8086038:	f46f 62c8 	mvn.w	r2, #1600	; 0x640
 808603c:	442b      	add	r3, r5
 808603e:	18a5      	adds	r5, r4, r2
 8086040:	f44f 72c8 	mov.w	r2, #400	; 0x190
 8086044:	fb94 f7f2 	sdiv	r7, r4, r2
 8086048:	fb95 f5f2 	sdiv	r5, r5, r2
 808604c:	fb02 4717 	mls	r7, r2, r7, r4
 8086050:	441d      	add	r5, r3
 8086052:	2364      	movs	r3, #100	; 0x64
 8086054:	fb94 f6f3 	sdiv	r6, r4, r3
 8086058:	fab7 fe87 	clz	lr, r7
 808605c:	4601      	mov	r1, r0
 808605e:	fb03 4616 	mls	r6, r3, r6, r4
 8086062:	f100 0338 	add.w	r3, r0, #56	; 0x38
 8086066:	9301      	str	r3, [sp, #4]
 8086068:	f004 0303 	and.w	r3, r4, #3
 808606c:	6044      	str	r4, [r0, #4]
 808606e:	ea4f 1e5e 	mov.w	lr, lr, lsr #5
 8086072:	9300      	str	r3, [sp, #0]
 8086074:	f04f 0c07 	mov.w	ip, #7
 8086078:	7a0b      	ldrb	r3, [r1, #8]
 808607a:	2b4a      	cmp	r3, #74	; 0x4a
 808607c:	d10e      	bne.n	808609c <__tzcalc_limits+0x98>
 808607e:	694b      	ldr	r3, [r1, #20]
 8086080:	9a00      	ldr	r2, [sp, #0]
 8086082:	18ec      	adds	r4, r5, r3
 8086084:	b902      	cbnz	r2, 8086088 <__tzcalc_limits+0x84>
 8086086:	b906      	cbnz	r6, 808608a <__tzcalc_limits+0x86>
 8086088:	b927      	cbnz	r7, 8086094 <__tzcalc_limits+0x90>
 808608a:	2b3b      	cmp	r3, #59	; 0x3b
 808608c:	bfd4      	ite	le
 808608e:	2300      	movle	r3, #0
 8086090:	2301      	movgt	r3, #1
 8086092:	e000      	b.n	8086096 <__tzcalc_limits+0x92>
 8086094:	2300      	movs	r3, #0
 8086096:	4423      	add	r3, r4
 8086098:	3b01      	subs	r3, #1
 808609a:	e03f      	b.n	808611c <__tzcalc_limits+0x118>
 808609c:	2b44      	cmp	r3, #68	; 0x44
 808609e:	d102      	bne.n	80860a6 <__tzcalc_limits+0xa2>
 80860a0:	694b      	ldr	r3, [r1, #20]
 80860a2:	442b      	add	r3, r5
 80860a4:	e03a      	b.n	808611c <__tzcalc_limits+0x118>
 80860a6:	9b00      	ldr	r3, [sp, #0]
 80860a8:	b92b      	cbnz	r3, 80860b6 <__tzcalc_limits+0xb2>
 80860aa:	2e00      	cmp	r6, #0
 80860ac:	bf0c      	ite	eq
 80860ae:	46f0      	moveq	r8, lr
 80860b0:	f04f 0801 	movne.w	r8, #1
 80860b4:	e000      	b.n	80860b8 <__tzcalc_limits+0xb4>
 80860b6:	46f0      	mov	r8, lr
 80860b8:	46a9      	mov	r9, r5
 80860ba:	4b24      	ldr	r3, [pc, #144]	; (808614c <__tzcalc_limits+0x148>)
 80860bc:	2230      	movs	r2, #48	; 0x30
 80860be:	fb02 3808 	mla	r8, r2, r8, r3
 80860c2:	68cc      	ldr	r4, [r1, #12]
 80860c4:	f1a8 0a04 	sub.w	sl, r8, #4
 80860c8:	2301      	movs	r3, #1
 80860ca:	42a3      	cmp	r3, r4
 80860cc:	da04      	bge.n	80860d8 <__tzcalc_limits+0xd4>
 80860ce:	f85a bf04 	ldr.w	fp, [sl, #4]!
 80860d2:	3301      	adds	r3, #1
 80860d4:	44d9      	add	r9, fp
 80860d6:	e7f8      	b.n	80860ca <__tzcalc_limits+0xc6>
 80860d8:	f109 0304 	add.w	r3, r9, #4
 80860dc:	fb93 fbfc 	sdiv	fp, r3, ip
 80860e0:	ebcb 0acb 	rsb	sl, fp, fp, lsl #3
 80860e4:	ebca 0a03 	rsb	sl, sl, r3
 80860e8:	694b      	ldr	r3, [r1, #20]
 80860ea:	2c01      	cmp	r4, #1
 80860ec:	bfb8      	it	lt
 80860ee:	2401      	movlt	r4, #1
 80860f0:	ebb3 0a0a 	subs.w	sl, r3, sl
 80860f4:	690b      	ldr	r3, [r1, #16]
 80860f6:	f104 4480 	add.w	r4, r4, #1073741824	; 0x40000000
 80860fa:	f103 33ff 	add.w	r3, r3, #4294967295
 80860fe:	f104 34ff 	add.w	r4, r4, #4294967295
 8086102:	bf48      	it	mi
 8086104:	f10a 0a07 	addmi.w	sl, sl, #7
 8086108:	ebc3 03c3 	rsb	r3, r3, r3, lsl #3
 808610c:	f858 4024 	ldr.w	r4, [r8, r4, lsl #2]
 8086110:	4453      	add	r3, sl
 8086112:	42a3      	cmp	r3, r4
 8086114:	db01      	blt.n	808611a <__tzcalc_limits+0x116>
 8086116:	3b07      	subs	r3, #7
 8086118:	e7fb      	b.n	8086112 <__tzcalc_limits+0x10e>
 808611a:	444b      	add	r3, r9
 808611c:	698c      	ldr	r4, [r1, #24]
 808611e:	4a0c      	ldr	r2, [pc, #48]	; (8086150 <__tzcalc_limits+0x14c>)
 8086120:	fb02 4303 	mla	r3, r2, r3, r4
 8086124:	6a0c      	ldr	r4, [r1, #32]
 8086126:	4423      	add	r3, r4
 8086128:	f841 3f1c 	str.w	r3, [r1, #28]!
 808612c:	9b01      	ldr	r3, [sp, #4]
 808612e:	4299      	cmp	r1, r3
 8086130:	d1a2      	bne.n	8086078 <__tzcalc_limits+0x74>
 8086132:	69c3      	ldr	r3, [r0, #28]
 8086134:	6b82      	ldr	r2, [r0, #56]	; 0x38
 8086136:	4293      	cmp	r3, r2
 8086138:	bfac      	ite	ge
 808613a:	2300      	movge	r3, #0
 808613c:	2301      	movlt	r3, #1
 808613e:	6003      	str	r3, [r0, #0]
 8086140:	2001      	movs	r0, #1
 8086142:	e000      	b.n	8086146 <__tzcalc_limits+0x142>
 8086144:	2000      	movs	r0, #0
 8086146:	b003      	add	sp, #12
 8086148:	e8bd 8ff0 	ldmia.w	sp!, {r4, r5, r6, r7, r8, r9, sl, fp, pc}
 808614c:	08087ebc 	.word	0x08087ebc
 8086150:	00015180 	.word	0x00015180

08086154 <__tz_lock>:
 8086154:	4770      	bx	lr

08086156 <__tz_unlock>:
 8086156:	4770      	bx	lr

08086158 <_tzset_unlocked>:
 8086158:	4b01      	ldr	r3, [pc, #4]	; (8086160 <_tzset_unlocked+0x8>)
 808615a:	6818      	ldr	r0, [r3, #0]
 808615c:	f000 b802 	b.w	8086164 <_tzset_unlocked_r>
 8086160:	20000078 	.word	0x20000078

08086164 <_tzset_unlocked_r>:
 8086164:	e92d 4ff0 	stmdb	sp!, {r4, r5, r6, r7, r8, r9, sl, fp, lr}
 8086168:	b08d      	sub	sp, #52	; 0x34
 808616a:	4607      	mov	r7, r0
 808616c:	f000 fce0 	bl	8086b30 <__gettzinfo>
 8086170:	49b0      	ldr	r1, [pc, #704]	; (8086434 <_tzset_unlocked_r+0x2d0>)
 8086172:	4604      	mov	r4, r0
 8086174:	4638      	mov	r0, r7
 8086176:	f000 fcd3 	bl	8086b20 <_getenv_r>
 808617a:	4eaf      	ldr	r6, [pc, #700]	; (8086438 <_tzset_unlocked_r+0x2d4>)
 808617c:	4605      	mov	r5, r0
 808617e:	b960      	cbnz	r0, 808619a <_tzset_unlocked_r+0x36>
 8086180:	4bae      	ldr	r3, [pc, #696]	; (808643c <_tzset_unlocked_r+0x2d8>)
 8086182:	4aaf      	ldr	r2, [pc, #700]	; (8086440 <_tzset_unlocked_r+0x2dc>)
 8086184:	6018      	str	r0, [r3, #0]
 8086186:	4baf      	ldr	r3, [pc, #700]	; (8086444 <_tzset_unlocked_r+0x2e0>)
 8086188:	6018      	str	r0, [r3, #0]
 808618a:	4baf      	ldr	r3, [pc, #700]	; (8086448 <_tzset_unlocked_r+0x2e4>)
 808618c:	6830      	ldr	r0, [r6, #0]
 808618e:	601a      	str	r2, [r3, #0]
 8086190:	605a      	str	r2, [r3, #4]
 8086192:	f7fb fed3 	bl	8081f3c <free>
 8086196:	6035      	str	r5, [r6, #0]
 8086198:	e148      	b.n	808642c <_tzset_unlocked_r+0x2c8>
 808619a:	6831      	ldr	r1, [r6, #0]
 808619c:	b979      	cbnz	r1, 80861be <_tzset_unlocked_r+0x5a>
 808619e:	6830      	ldr	r0, [r6, #0]
 80861a0:	f7fb fecc 	bl	8081f3c <free>
 80861a4:	4628      	mov	r0, r5
 80861a6:	f7fe ff7f 	bl	80850a8 <strlen>
 80861aa:	1c41      	adds	r1, r0, #1
 80861ac:	4638      	mov	r0, r7
 80861ae:	f7fb ff0d 	bl	8081fcc <_malloc_r>
 80861b2:	6030      	str	r0, [r6, #0]
 80861b4:	b148      	cbz	r0, 80861ca <_tzset_unlocked_r+0x66>
 80861b6:	4629      	mov	r1, r5
 80861b8:	f7fe fa3e 	bl	8084638 <strcpy>
 80861bc:	e005      	b.n	80861ca <_tzset_unlocked_r+0x66>
 80861be:	f7fe fa31 	bl	8084624 <strcmp>
 80861c2:	2800      	cmp	r0, #0
 80861c4:	f000 8132 	beq.w	808642c <_tzset_unlocked_r+0x2c8>
 80861c8:	e7e9      	b.n	808619e <_tzset_unlocked_r+0x3a>
 80861ca:	782b      	ldrb	r3, [r5, #0]
 80861cc:	ae0a      	add	r6, sp, #40	; 0x28
 80861ce:	2b3a      	cmp	r3, #58	; 0x3a
 80861d0:	bf08      	it	eq
 80861d2:	3501      	addeq	r5, #1
 80861d4:	4633      	mov	r3, r6
 80861d6:	4a9d      	ldr	r2, [pc, #628]	; (808644c <_tzset_unlocked_r+0x2e8>)
 80861d8:	499d      	ldr	r1, [pc, #628]	; (8086450 <_tzset_unlocked_r+0x2ec>)
 80861da:	4628      	mov	r0, r5
 80861dc:	f7fb fece 	bl	8081f7c <siscanf>
 80861e0:	2800      	cmp	r0, #0
 80861e2:	f340 8123 	ble.w	808642c <_tzset_unlocked_r+0x2c8>
 80861e6:	9b0a      	ldr	r3, [sp, #40]	; 0x28
 80861e8:	18ef      	adds	r7, r5, r3
 80861ea:	5ceb      	ldrb	r3, [r5, r3]
 80861ec:	2b2d      	cmp	r3, #45	; 0x2d
 80861ee:	d103      	bne.n	80861f8 <_tzset_unlocked_r+0x94>
 80861f0:	3701      	adds	r7, #1
 80861f2:	f04f 35ff 	mov.w	r5, #4294967295
 80861f6:	e003      	b.n	8086200 <_tzset_unlocked_r+0x9c>
 80861f8:	2b2b      	cmp	r3, #43	; 0x2b
 80861fa:	bf08      	it	eq
 80861fc:	3701      	addeq	r7, #1
 80861fe:	2501      	movs	r5, #1
 8086200:	f10d 0a20 	add.w	sl, sp, #32
 8086204:	f10d 0b1e 	add.w	fp, sp, #30
 8086208:	f04f 0800 	mov.w	r8, #0
 808620c:	9603      	str	r6, [sp, #12]
 808620e:	f8cd a008 	str.w	sl, [sp, #8]
 8086212:	9601      	str	r6, [sp, #4]
 8086214:	f8cd b000 	str.w	fp, [sp]
 8086218:	4633      	mov	r3, r6
 808621a:	aa07      	add	r2, sp, #28
 808621c:	498d      	ldr	r1, [pc, #564]	; (8086454 <_tzset_unlocked_r+0x2f0>)
 808621e:	4638      	mov	r0, r7
 8086220:	f8ad 801e 	strh.w	r8, [sp, #30]
 8086224:	f8ad 8020 	strh.w	r8, [sp, #32]
 8086228:	f7fb fea8 	bl	8081f7c <siscanf>
 808622c:	4540      	cmp	r0, r8
 808622e:	f340 80fd 	ble.w	808642c <_tzset_unlocked_r+0x2c8>
 8086232:	f8bd 201e 	ldrh.w	r2, [sp, #30]
 8086236:	f8bd 3020 	ldrh.w	r3, [sp, #32]
 808623a:	213c      	movs	r1, #60	; 0x3c
 808623c:	fb01 3302 	mla	r3, r1, r2, r3
 8086240:	f8bd 201c 	ldrh.w	r2, [sp, #28]
 8086244:	f44f 6161 	mov.w	r1, #3600	; 0xe10
 8086248:	fb01 3302 	mla	r3, r1, r2, r3
 808624c:	435d      	muls	r5, r3
 808624e:	4b7f      	ldr	r3, [pc, #508]	; (808644c <_tzset_unlocked_r+0x2e8>)
 8086250:	6225      	str	r5, [r4, #32]
 8086252:	4d7d      	ldr	r5, [pc, #500]	; (8086448 <_tzset_unlocked_r+0x2e4>)
 8086254:	f8df 9208 	ldr.w	r9, [pc, #520]	; 8086460 <_tzset_unlocked_r+0x2fc>
 8086258:	602b      	str	r3, [r5, #0]
 808625a:	9b0a      	ldr	r3, [sp, #40]	; 0x28
 808625c:	464a      	mov	r2, r9
 808625e:	441f      	add	r7, r3
 8086260:	497b      	ldr	r1, [pc, #492]	; (8086450 <_tzset_unlocked_r+0x2ec>)
 8086262:	4633      	mov	r3, r6
 8086264:	4638      	mov	r0, r7
 8086266:	f7fb fe89 	bl	8081f7c <siscanf>
 808626a:	4540      	cmp	r0, r8
 808626c:	dc08      	bgt.n	8086280 <_tzset_unlocked_r+0x11c>
 808626e:	682b      	ldr	r3, [r5, #0]
 8086270:	6a22      	ldr	r2, [r4, #32]
 8086272:	606b      	str	r3, [r5, #4]
 8086274:	4b71      	ldr	r3, [pc, #452]	; (808643c <_tzset_unlocked_r+0x2d8>)
 8086276:	601a      	str	r2, [r3, #0]
 8086278:	4b72      	ldr	r3, [pc, #456]	; (8086444 <_tzset_unlocked_r+0x2e0>)
 808627a:	f8c3 8000 	str.w	r8, [r3]
 808627e:	e0d5      	b.n	808642c <_tzset_unlocked_r+0x2c8>
 8086280:	9b0a      	ldr	r3, [sp, #40]	; 0x28
 8086282:	f8c5 9004 	str.w	r9, [r5, #4]
 8086286:	18fd      	adds	r5, r7, r3
 8086288:	5cfb      	ldrb	r3, [r7, r3]
 808628a:	2b2d      	cmp	r3, #45	; 0x2d
 808628c:	d103      	bne.n	8086296 <_tzset_unlocked_r+0x132>
 808628e:	3501      	adds	r5, #1
 8086290:	f04f 37ff 	mov.w	r7, #4294967295
 8086294:	e003      	b.n	808629e <_tzset_unlocked_r+0x13a>
 8086296:	2b2b      	cmp	r3, #43	; 0x2b
 8086298:	bf08      	it	eq
 808629a:	3501      	addeq	r5, #1
 808629c:	2701      	movs	r7, #1
 808629e:	2300      	movs	r3, #0
 80862a0:	f8ad 301c 	strh.w	r3, [sp, #28]
 80862a4:	f8ad 301e 	strh.w	r3, [sp, #30]
 80862a8:	f8ad 3020 	strh.w	r3, [sp, #32]
 80862ac:	930a      	str	r3, [sp, #40]	; 0x28
 80862ae:	9603      	str	r6, [sp, #12]
 80862b0:	f8cd a008 	str.w	sl, [sp, #8]
 80862b4:	9601      	str	r6, [sp, #4]
 80862b6:	f8cd b000 	str.w	fp, [sp]
 80862ba:	4633      	mov	r3, r6
 80862bc:	aa07      	add	r2, sp, #28
 80862be:	4965      	ldr	r1, [pc, #404]	; (8086454 <_tzset_unlocked_r+0x2f0>)
 80862c0:	4628      	mov	r0, r5
 80862c2:	f7fb fe5b 	bl	8081f7c <siscanf>
 80862c6:	2800      	cmp	r0, #0
 80862c8:	dc04      	bgt.n	80862d4 <_tzset_unlocked_r+0x170>
 80862ca:	6a23      	ldr	r3, [r4, #32]
 80862cc:	f5a3 6361 	sub.w	r3, r3, #3600	; 0xe10
 80862d0:	63e3      	str	r3, [r4, #60]	; 0x3c
 80862d2:	e00e      	b.n	80862f2 <_tzset_unlocked_r+0x18e>
 80862d4:	f8bd 201e 	ldrh.w	r2, [sp, #30]
 80862d8:	f8bd 3020 	ldrh.w	r3, [sp, #32]
 80862dc:	213c      	movs	r1, #60	; 0x3c
 80862de:	fb01 3302 	mla	r3, r1, r2, r3
 80862e2:	f8bd 201c 	ldrh.w	r2, [sp, #28]
 80862e6:	f44f 6161 	mov.w	r1, #3600	; 0xe10
 80862ea:	fb01 3302 	mla	r3, r1, r2, r3
 80862ee:	435f      	muls	r7, r3
 80862f0:	63e7      	str	r7, [r4, #60]	; 0x3c
 80862f2:	4627      	mov	r7, r4
 80862f4:	9b0a      	ldr	r3, [sp, #40]	; 0x28
 80862f6:	f04f 0900 	mov.w	r9, #0
 80862fa:	441d      	add	r5, r3
 80862fc:	782b      	ldrb	r3, [r5, #0]
 80862fe:	2b2c      	cmp	r3, #44	; 0x2c
 8086300:	bf08      	it	eq
 8086302:	3501      	addeq	r5, #1
 8086304:	f895 8000 	ldrb.w	r8, [r5]
 8086308:	f1b8 0f4d 	cmp.w	r8, #77	; 0x4d
 808630c:	d126      	bne.n	808635c <_tzset_unlocked_r+0x1f8>
 808630e:	f10d 0326 	add.w	r3, sp, #38	; 0x26
 8086312:	9302      	str	r3, [sp, #8]
 8086314:	ab09      	add	r3, sp, #36	; 0x24
 8086316:	9300      	str	r3, [sp, #0]
 8086318:	9603      	str	r6, [sp, #12]
 808631a:	9601      	str	r6, [sp, #4]
 808631c:	4633      	mov	r3, r6
 808631e:	f10d 0222 	add.w	r2, sp, #34	; 0x22
 8086322:	494d      	ldr	r1, [pc, #308]	; (8086458 <_tzset_unlocked_r+0x2f4>)
 8086324:	4628      	mov	r0, r5
 8086326:	f7fb fe29 	bl	8081f7c <siscanf>
 808632a:	2803      	cmp	r0, #3
 808632c:	d17e      	bne.n	808642c <_tzset_unlocked_r+0x2c8>
 808632e:	f8bd 1022 	ldrh.w	r1, [sp, #34]	; 0x22
 8086332:	1e4b      	subs	r3, r1, #1
 8086334:	2b0b      	cmp	r3, #11
 8086336:	d879      	bhi.n	808642c <_tzset_unlocked_r+0x2c8>
 8086338:	f8bd 2024 	ldrh.w	r2, [sp, #36]	; 0x24
 808633c:	1e53      	subs	r3, r2, #1
 808633e:	2b04      	cmp	r3, #4
 8086340:	d874      	bhi.n	808642c <_tzset_unlocked_r+0x2c8>
 8086342:	f8bd 3026 	ldrh.w	r3, [sp, #38]	; 0x26
 8086346:	2b06      	cmp	r3, #6
 8086348:	d870      	bhi.n	808642c <_tzset_unlocked_r+0x2c8>
 808634a:	f887 8008 	strb.w	r8, [r7, #8]
 808634e:	60f9      	str	r1, [r7, #12]
 8086350:	613a      	str	r2, [r7, #16]
 8086352:	617b      	str	r3, [r7, #20]
 8086354:	9b0a      	ldr	r3, [sp, #40]	; 0x28
 8086356:	eb05 0803 	add.w	r8, r5, r3
 808635a:	e02a      	b.n	80863b2 <_tzset_unlocked_r+0x24e>
 808635c:	f1b8 0f4a 	cmp.w	r8, #74	; 0x4a
 8086360:	bf06      	itte	eq
 8086362:	4643      	moveq	r3, r8
 8086364:	3501      	addeq	r5, #1
 8086366:	2344      	movne	r3, #68	; 0x44
 8086368:	220a      	movs	r2, #10
 808636a:	a90b      	add	r1, sp, #44	; 0x2c
 808636c:	4628      	mov	r0, r5
 808636e:	9305      	str	r3, [sp, #20]
 8086370:	f7ff fe2e 	bl	8085fd0 <strtoul>
 8086374:	f8dd 802c 	ldr.w	r8, [sp, #44]	; 0x2c
 8086378:	f8ad 0026 	strh.w	r0, [sp, #38]	; 0x26
 808637c:	4545      	cmp	r5, r8
 808637e:	9b05      	ldr	r3, [sp, #20]
 8086380:	d114      	bne.n	80863ac <_tzset_unlocked_r+0x248>
 8086382:	234d      	movs	r3, #77	; 0x4d
 8086384:	f1b9 0f00 	cmp.w	r9, #0
 8086388:	d107      	bne.n	808639a <_tzset_unlocked_r+0x236>
 808638a:	7223      	strb	r3, [r4, #8]
 808638c:	2303      	movs	r3, #3
 808638e:	60e3      	str	r3, [r4, #12]
 8086390:	2302      	movs	r3, #2
 8086392:	6123      	str	r3, [r4, #16]
 8086394:	f8c4 9014 	str.w	r9, [r4, #20]
 8086398:	e00b      	b.n	80863b2 <_tzset_unlocked_r+0x24e>
 808639a:	f884 3024 	strb.w	r3, [r4, #36]	; 0x24
 808639e:	230b      	movs	r3, #11
 80863a0:	62a3      	str	r3, [r4, #40]	; 0x28
 80863a2:	2301      	movs	r3, #1
 80863a4:	62e3      	str	r3, [r4, #44]	; 0x2c
 80863a6:	2300      	movs	r3, #0
 80863a8:	6323      	str	r3, [r4, #48]	; 0x30
 80863aa:	e002      	b.n	80863b2 <_tzset_unlocked_r+0x24e>
 80863ac:	b280      	uxth	r0, r0
 80863ae:	723b      	strb	r3, [r7, #8]
 80863b0:	6178      	str	r0, [r7, #20]
 80863b2:	2302      	movs	r3, #2
 80863b4:	f8ad 301c 	strh.w	r3, [sp, #28]
 80863b8:	2300      	movs	r3, #0
 80863ba:	f8ad 301e 	strh.w	r3, [sp, #30]
 80863be:	f8ad 3020 	strh.w	r3, [sp, #32]
 80863c2:	930a      	str	r3, [sp, #40]	; 0x28
 80863c4:	f898 3000 	ldrb.w	r3, [r8]
 80863c8:	2b2f      	cmp	r3, #47	; 0x2f
 80863ca:	d10b      	bne.n	80863e4 <_tzset_unlocked_r+0x280>
 80863cc:	9603      	str	r6, [sp, #12]
 80863ce:	f8cd a008 	str.w	sl, [sp, #8]
 80863d2:	9601      	str	r6, [sp, #4]
 80863d4:	f8cd b000 	str.w	fp, [sp]
 80863d8:	4633      	mov	r3, r6
 80863da:	aa07      	add	r2, sp, #28
 80863dc:	491f      	ldr	r1, [pc, #124]	; (808645c <_tzset_unlocked_r+0x2f8>)
 80863de:	4640      	mov	r0, r8
 80863e0:	f7fb fdcc 	bl	8081f7c <siscanf>
 80863e4:	f8bd 201e 	ldrh.w	r2, [sp, #30]
 80863e8:	f8bd 3020 	ldrh.w	r3, [sp, #32]
 80863ec:	213c      	movs	r1, #60	; 0x3c
 80863ee:	fb01 3302 	mla	r3, r1, r2, r3
 80863f2:	f8bd 201c 	ldrh.w	r2, [sp, #28]
 80863f6:	f44f 6161 	mov.w	r1, #3600	; 0xe10
 80863fa:	fb01 3302 	mla	r3, r1, r2, r3
 80863fe:	61bb      	str	r3, [r7, #24]
 8086400:	9d0a      	ldr	r5, [sp, #40]	; 0x28
 8086402:	f109 0901 	add.w	r9, r9, #1
 8086406:	f1b9 0f02 	cmp.w	r9, #2
 808640a:	4445      	add	r5, r8
 808640c:	f107 071c 	add.w	r7, r7, #28
 8086410:	f47f af74 	bne.w	80862fc <_tzset_unlocked_r+0x198>
 8086414:	6860      	ldr	r0, [r4, #4]
 8086416:	f7ff fdf5 	bl	8086004 <__tzcalc_limits>
 808641a:	6a22      	ldr	r2, [r4, #32]
 808641c:	4b07      	ldr	r3, [pc, #28]	; (808643c <_tzset_unlocked_r+0x2d8>)
 808641e:	601a      	str	r2, [r3, #0]
 8086420:	6be3      	ldr	r3, [r4, #60]	; 0x3c
 8086422:	1a9b      	subs	r3, r3, r2
 8086424:	4a07      	ldr	r2, [pc, #28]	; (8086444 <_tzset_unlocked_r+0x2e0>)
 8086426:	bf18      	it	ne
 8086428:	2301      	movne	r3, #1
 808642a:	6013      	str	r3, [r2, #0]
 808642c:	b00d      	add	sp, #52	; 0x34
 808642e:	e8bd 8ff0 	ldmia.w	sp!, {r4, r5, r6, r7, r8, r9, sl, fp, pc}
 8086432:	bf00      	nop
 8086434:	080881fc 	.word	0x080881fc
 8086438:	200006bc 	.word	0x200006bc
 808643c:	200006c4 	.word	0x200006c4
 8086440:	080881ff 	.word	0x080881ff
 8086444:	200006c0 	.word	0x200006c0
 8086448:	200000b4 	.word	0x200000b4
 808644c:	200006af 	.word	0x200006af
 8086450:	08088203 	.word	0x08088203
 8086454:	08088226 	.word	0x08088226
 8086458:	08088212 	.word	0x08088212
 808645c:	08088225 	.word	0x08088225
 8086460:	200006a4 	.word	0x200006a4

08086464 <abs>:
 8086464:	2800      	cmp	r0, #0
 8086466:	bfb8      	it	lt
 8086468:	4240      	neglt	r0, r0
 808646a:	4770      	bx	lr

0808646c <rshift>:
 808646c:	b5f0      	push	{r4, r5, r6, r7, lr}
 808646e:	6906      	ldr	r6, [r0, #16]
 8086470:	114b      	asrs	r3, r1, #5
 8086472:	42b3      	cmp	r3, r6
 8086474:	f100 0514 	add.w	r5, r0, #20
 8086478:	da27      	bge.n	80864ca <rshift+0x5e>
 808647a:	f011 011f 	ands.w	r1, r1, #31
 808647e:	eb05 0686 	add.w	r6, r5, r6, lsl #2
 8086482:	eb05 0283 	add.w	r2, r5, r3, lsl #2
 8086486:	d101      	bne.n	808648c <rshift+0x20>
 8086488:	4629      	mov	r1, r5
 808648a:	e016      	b.n	80864ba <rshift+0x4e>
 808648c:	1d14      	adds	r4, r2, #4
 808648e:	f855 2023 	ldr.w	r2, [r5, r3, lsl #2]
 8086492:	462b      	mov	r3, r5
 8086494:	f1c1 0e20 	rsb	lr, r1, #32
 8086498:	40ca      	lsrs	r2, r1
 808649a:	42b4      	cmp	r4, r6
 808649c:	d209      	bcs.n	80864b2 <rshift+0x46>
 808649e:	6827      	ldr	r7, [r4, #0]
 80864a0:	fa07 f70e 	lsl.w	r7, r7, lr
 80864a4:	433a      	orrs	r2, r7
 80864a6:	f843 2b04 	str.w	r2, [r3], #4
 80864aa:	f854 2b04 	ldr.w	r2, [r4], #4
 80864ae:	40ca      	lsrs	r2, r1
 80864b0:	e7f3      	b.n	808649a <rshift+0x2e>
 80864b2:	601a      	str	r2, [r3, #0]
 80864b4:	b152      	cbz	r2, 80864cc <rshift+0x60>
 80864b6:	3304      	adds	r3, #4
 80864b8:	e008      	b.n	80864cc <rshift+0x60>
 80864ba:	42b2      	cmp	r2, r6
 80864bc:	460b      	mov	r3, r1
 80864be:	d205      	bcs.n	80864cc <rshift+0x60>
 80864c0:	f852 3b04 	ldr.w	r3, [r2], #4
 80864c4:	f841 3b04 	str.w	r3, [r1], #4
 80864c8:	e7f7      	b.n	80864ba <rshift+0x4e>
 80864ca:	462b      	mov	r3, r5
 80864cc:	1b5b      	subs	r3, r3, r5
 80864ce:	109b      	asrs	r3, r3, #2
 80864d0:	6103      	str	r3, [r0, #16]
 80864d2:	b903      	cbnz	r3, 80864d6 <rshift+0x6a>
 80864d4:	6143      	str	r3, [r0, #20]
 80864d6:	bdf0      	pop	{r4, r5, r6, r7, pc}

080864d8 <__hexdig_fun>:
 80864d8:	f1a0 0330 	sub.w	r3, r0, #48	; 0x30
 80864dc:	2b09      	cmp	r3, #9
 80864de:	d801      	bhi.n	80864e4 <__hexdig_fun+0xc>
 80864e0:	3820      	subs	r0, #32
 80864e2:	e00a      	b.n	80864fa <__hexdig_fun+0x22>
 80864e4:	f1a0 0361 	sub.w	r3, r0, #97	; 0x61
 80864e8:	2b05      	cmp	r3, #5
 80864ea:	d801      	bhi.n	80864f0 <__hexdig_fun+0x18>
 80864ec:	3847      	subs	r0, #71	; 0x47
 80864ee:	e004      	b.n	80864fa <__hexdig_fun+0x22>
 80864f0:	f1a0 0341 	sub.w	r3, r0, #65	; 0x41
 80864f4:	2b05      	cmp	r3, #5
 80864f6:	d802      	bhi.n	80864fe <__hexdig_fun+0x26>
 80864f8:	3827      	subs	r0, #39	; 0x27
 80864fa:	b2c0      	uxtb	r0, r0
 80864fc:	4770      	bx	lr
 80864fe:	2000      	movs	r0, #0
 8086500:	4770      	bx	lr

08086502 <__gethex>:
 8086502:	e92d 4ff0 	stmdb	sp!, {r4, r5, r6, r7, r8, r9, sl, fp, lr}
 8086506:	b08b      	sub	sp, #44	; 0x2c
 8086508:	468a      	mov	sl, r1
 808650a:	4690      	mov	r8, r2
 808650c:	9306      	str	r3, [sp, #24]
 808650e:	9002      	str	r0, [sp, #8]
 8086510:	f7fe f83a 	bl	8084588 <_localeconv_r>
 8086514:	6803      	ldr	r3, [r0, #0]
 8086516:	f04f 0b00 	mov.w	fp, #0
 808651a:	4618      	mov	r0, r3
 808651c:	9303      	str	r3, [sp, #12]
 808651e:	f7fe fdc3 	bl	80850a8 <strlen>
 8086522:	9b03      	ldr	r3, [sp, #12]
 8086524:	9001      	str	r0, [sp, #4]
 8086526:	4403      	add	r3, r0
 8086528:	f813 3c01 	ldrb.w	r3, [r3, #-1]
 808652c:	9307      	str	r3, [sp, #28]
 808652e:	f8da 3000 	ldr.w	r3, [sl]
 8086532:	3302      	adds	r3, #2
 8086534:	461f      	mov	r7, r3
 8086536:	f813 0b01 	ldrb.w	r0, [r3], #1
 808653a:	2830      	cmp	r0, #48	; 0x30
 808653c:	d102      	bne.n	8086544 <__gethex+0x42>
 808653e:	f10b 0b01 	add.w	fp, fp, #1
 8086542:	e7f7      	b.n	8086534 <__gethex+0x32>
 8086544:	f7ff ffc8 	bl	80864d8 <__hexdig_fun>
 8086548:	4604      	mov	r4, r0
 808654a:	b9e0      	cbnz	r0, 8086586 <__gethex+0x84>
 808654c:	9a01      	ldr	r2, [sp, #4]
 808654e:	9903      	ldr	r1, [sp, #12]
 8086550:	4638      	mov	r0, r7
 8086552:	f7fe fdb1 	bl	80850b8 <strncmp>
 8086556:	2800      	cmp	r0, #0
 8086558:	d134      	bne.n	80865c4 <__gethex+0xc2>
 808655a:	9b01      	ldr	r3, [sp, #4]
 808655c:	5cf8      	ldrb	r0, [r7, r3]
 808655e:	18fe      	adds	r6, r7, r3
 8086560:	f7ff ffba 	bl	80864d8 <__hexdig_fun>
 8086564:	b380      	cbz	r0, 80865c8 <__gethex+0xc6>
 8086566:	4633      	mov	r3, r6
 8086568:	7818      	ldrb	r0, [r3, #0]
 808656a:	461f      	mov	r7, r3
 808656c:	2830      	cmp	r0, #48	; 0x30
 808656e:	f103 0301 	add.w	r3, r3, #1
 8086572:	d0f9      	beq.n	8086568 <__gethex+0x66>
 8086574:	f7ff ffb0 	bl	80864d8 <__hexdig_fun>
 8086578:	fab0 f580 	clz	r5, r0
 808657c:	4634      	mov	r4, r6
 808657e:	096d      	lsrs	r5, r5, #5
 8086580:	f04f 0b01 	mov.w	fp, #1
 8086584:	e001      	b.n	808658a <__gethex+0x88>
 8086586:	2500      	movs	r5, #0
 8086588:	462c      	mov	r4, r5
 808658a:	463a      	mov	r2, r7
 808658c:	4616      	mov	r6, r2
 808658e:	7830      	ldrb	r0, [r6, #0]
 8086590:	3201      	adds	r2, #1
 8086592:	f7ff ffa1 	bl	80864d8 <__hexdig_fun>
 8086596:	2800      	cmp	r0, #0
 8086598:	d1f8      	bne.n	808658c <__gethex+0x8a>
 808659a:	9a01      	ldr	r2, [sp, #4]
 808659c:	9903      	ldr	r1, [sp, #12]
 808659e:	4630      	mov	r0, r6
 80865a0:	f7fe fd8a 	bl	80850b8 <strncmp>
 80865a4:	b950      	cbnz	r0, 80865bc <__gethex+0xba>
 80865a6:	b954      	cbnz	r4, 80865be <__gethex+0xbc>
 80865a8:	9b01      	ldr	r3, [sp, #4]
 80865aa:	18f4      	adds	r4, r6, r3
 80865ac:	4622      	mov	r2, r4
 80865ae:	4616      	mov	r6, r2
 80865b0:	7830      	ldrb	r0, [r6, #0]
 80865b2:	3201      	adds	r2, #1
 80865b4:	f7ff ff90 	bl	80864d8 <__hexdig_fun>
 80865b8:	2800      	cmp	r0, #0
 80865ba:	d1f8      	bne.n	80865ae <__gethex+0xac>
 80865bc:	b134      	cbz	r4, 80865cc <__gethex+0xca>
 80865be:	1ba4      	subs	r4, r4, r6
 80865c0:	00a4      	lsls	r4, r4, #2
 80865c2:	e003      	b.n	80865cc <__gethex+0xca>
 80865c4:	463e      	mov	r6, r7
 80865c6:	e000      	b.n	80865ca <__gethex+0xc8>
 80865c8:	4604      	mov	r4, r0
 80865ca:	2501      	movs	r5, #1
 80865cc:	7833      	ldrb	r3, [r6, #0]
 80865ce:	2b50      	cmp	r3, #80	; 0x50
 80865d0:	d001      	beq.n	80865d6 <__gethex+0xd4>
 80865d2:	2b70      	cmp	r3, #112	; 0x70
 80865d4:	d12a      	bne.n	808662c <__gethex+0x12a>
 80865d6:	7873      	ldrb	r3, [r6, #1]
 80865d8:	2b2b      	cmp	r3, #43	; 0x2b
 80865da:	d008      	beq.n	80865ee <__gethex+0xec>
 80865dc:	2b2d      	cmp	r3, #45	; 0x2d
 80865de:	d003      	beq.n	80865e8 <__gethex+0xe6>
 80865e0:	1c71      	adds	r1, r6, #1
 80865e2:	f04f 0900 	mov.w	r9, #0
 80865e6:	e005      	b.n	80865f4 <__gethex+0xf2>
 80865e8:	f04f 0901 	mov.w	r9, #1
 80865ec:	e001      	b.n	80865f2 <__gethex+0xf0>
 80865ee:	f04f 0900 	mov.w	r9, #0
 80865f2:	1cb1      	adds	r1, r6, #2
 80865f4:	7808      	ldrb	r0, [r1, #0]
 80865f6:	f7ff ff6f 	bl	80864d8 <__hexdig_fun>
 80865fa:	1e43      	subs	r3, r0, #1
 80865fc:	b2db      	uxtb	r3, r3
 80865fe:	2b18      	cmp	r3, #24
 8086600:	d814      	bhi.n	808662c <__gethex+0x12a>
 8086602:	f1a0 0210 	sub.w	r2, r0, #16
 8086606:	f811 0f01 	ldrb.w	r0, [r1, #1]!
 808660a:	f7ff ff65 	bl	80864d8 <__hexdig_fun>
 808660e:	1e43      	subs	r3, r0, #1
 8086610:	b2db      	uxtb	r3, r3
 8086612:	2b18      	cmp	r3, #24
 8086614:	d804      	bhi.n	8086620 <__gethex+0x11e>
 8086616:	230a      	movs	r3, #10
 8086618:	fb03 0202 	mla	r2, r3, r2, r0
 808661c:	3a10      	subs	r2, #16
 808661e:	e7f2      	b.n	8086606 <__gethex+0x104>
 8086620:	f1b9 0f00 	cmp.w	r9, #0
 8086624:	d000      	beq.n	8086628 <__gethex+0x126>
 8086626:	4252      	negs	r2, r2
 8086628:	4414      	add	r4, r2
 808662a:	e000      	b.n	808662e <__gethex+0x12c>
 808662c:	4631      	mov	r1, r6
 808662e:	f8ca 1000 	str.w	r1, [sl]
 8086632:	b12d      	cbz	r5, 8086640 <__gethex+0x13e>
 8086634:	f1bb 0f00 	cmp.w	fp, #0
 8086638:	bf14      	ite	ne
 808663a:	2000      	movne	r0, #0
 808663c:	2006      	moveq	r0, #6
 808663e:	e17c      	b.n	808693a <__gethex+0x438>
 8086640:	4629      	mov	r1, r5
 8086642:	1bf3      	subs	r3, r6, r7
 8086644:	3b01      	subs	r3, #1
 8086646:	2b07      	cmp	r3, #7
 8086648:	dd02      	ble.n	8086650 <__gethex+0x14e>
 808664a:	3101      	adds	r1, #1
 808664c:	105b      	asrs	r3, r3, #1
 808664e:	e7fa      	b.n	8086646 <__gethex+0x144>
 8086650:	9802      	ldr	r0, [sp, #8]
 8086652:	f000 fb0b 	bl	8086c6c <_Balloc>
 8086656:	f04f 0900 	mov.w	r9, #0
 808665a:	4605      	mov	r5, r0
 808665c:	46cb      	mov	fp, r9
 808665e:	9b01      	ldr	r3, [sp, #4]
 8086660:	f100 0a14 	add.w	sl, r0, #20
 8086664:	f1c3 0301 	rsb	r3, r3, #1
 8086668:	f8cd a010 	str.w	sl, [sp, #16]
 808666c:	9308      	str	r3, [sp, #32]
 808666e:	42b7      	cmp	r7, r6
 8086670:	d22f      	bcs.n	80866d2 <__gethex+0x1d0>
 8086672:	1e73      	subs	r3, r6, #1
 8086674:	9305      	str	r3, [sp, #20]
 8086676:	9a07      	ldr	r2, [sp, #28]
 8086678:	f816 3c01 	ldrb.w	r3, [r6, #-1]
 808667c:	4293      	cmp	r3, r2
 808667e:	d00b      	beq.n	8086698 <__gethex+0x196>
 8086680:	f1bb 0f20 	cmp.w	fp, #32
 8086684:	d116      	bne.n	80866b4 <__gethex+0x1b2>
 8086686:	9b04      	ldr	r3, [sp, #16]
 8086688:	f8c3 9000 	str.w	r9, [r3]
 808668c:	3304      	adds	r3, #4
 808668e:	f04f 0900 	mov.w	r9, #0
 8086692:	9304      	str	r3, [sp, #16]
 8086694:	46cb      	mov	fp, r9
 8086696:	e00d      	b.n	80866b4 <__gethex+0x1b2>
 8086698:	9b05      	ldr	r3, [sp, #20]
 808669a:	9a08      	ldr	r2, [sp, #32]
 808669c:	4413      	add	r3, r2
 808669e:	429f      	cmp	r7, r3
 80866a0:	d8ee      	bhi.n	8086680 <__gethex+0x17e>
 80866a2:	4618      	mov	r0, r3
 80866a4:	9a01      	ldr	r2, [sp, #4]
 80866a6:	9903      	ldr	r1, [sp, #12]
 80866a8:	9309      	str	r3, [sp, #36]	; 0x24
 80866aa:	f7fe fd05 	bl	80850b8 <strncmp>
 80866ae:	9b09      	ldr	r3, [sp, #36]	; 0x24
 80866b0:	b168      	cbz	r0, 80866ce <__gethex+0x1cc>
 80866b2:	e7e5      	b.n	8086680 <__gethex+0x17e>
 80866b4:	f816 0c01 	ldrb.w	r0, [r6, #-1]
 80866b8:	f7ff ff0e 	bl	80864d8 <__hexdig_fun>
 80866bc:	f000 000f 	and.w	r0, r0, #15
 80866c0:	fa00 f00b 	lsl.w	r0, r0, fp
 80866c4:	9b05      	ldr	r3, [sp, #20]
 80866c6:	ea49 0900 	orr.w	r9, r9, r0
 80866ca:	f10b 0b04 	add.w	fp, fp, #4
 80866ce:	461e      	mov	r6, r3
 80866d0:	e7cd      	b.n	808666e <__gethex+0x16c>
 80866d2:	9804      	ldr	r0, [sp, #16]
 80866d4:	f840 9b04 	str.w	r9, [r0], #4
 80866d8:	ebca 0000 	rsb	r0, sl, r0
 80866dc:	1080      	asrs	r0, r0, #2
 80866de:	6128      	str	r0, [r5, #16]
 80866e0:	0147      	lsls	r7, r0, #5
 80866e2:	4648      	mov	r0, r9
 80866e4:	f000 fb87 	bl	8086df6 <__hi0bits>
 80866e8:	f8d8 6000 	ldr.w	r6, [r8]
 80866ec:	1a38      	subs	r0, r7, r0
 80866ee:	42b0      	cmp	r0, r6
 80866f0:	dd26      	ble.n	8086740 <__gethex+0x23e>
 80866f2:	1b87      	subs	r7, r0, r6
 80866f4:	4639      	mov	r1, r7
 80866f6:	4628      	mov	r0, r5
 80866f8:	f000 fe7f 	bl	80873fa <__any_on>
 80866fc:	b1c8      	cbz	r0, 8086732 <__gethex+0x230>
 80866fe:	1e7b      	subs	r3, r7, #1
 8086700:	1159      	asrs	r1, r3, #5
 8086702:	f003 021f 	and.w	r2, r3, #31
 8086706:	f04f 0901 	mov.w	r9, #1
 808670a:	f85a 1021 	ldr.w	r1, [sl, r1, lsl #2]
 808670e:	fa09 f202 	lsl.w	r2, r9, r2
 8086712:	420a      	tst	r2, r1
 8086714:	d00e      	beq.n	8086734 <__gethex+0x232>
 8086716:	454b      	cmp	r3, r9
 8086718:	dc02      	bgt.n	8086720 <__gethex+0x21e>
 808671a:	f04f 0902 	mov.w	r9, #2
 808671e:	e009      	b.n	8086734 <__gethex+0x232>
 8086720:	1eb9      	subs	r1, r7, #2
 8086722:	4628      	mov	r0, r5
 8086724:	f000 fe69 	bl	80873fa <__any_on>
 8086728:	2800      	cmp	r0, #0
 808672a:	d0f6      	beq.n	808671a <__gethex+0x218>
 808672c:	f04f 0903 	mov.w	r9, #3
 8086730:	e000      	b.n	8086734 <__gethex+0x232>
 8086732:	4681      	mov	r9, r0
 8086734:	4639      	mov	r1, r7
 8086736:	4628      	mov	r0, r5
 8086738:	f7ff fe98 	bl	808646c <rshift>
 808673c:	443c      	add	r4, r7
 808673e:	e00c      	b.n	808675a <__gethex+0x258>
 8086740:	da09      	bge.n	8086756 <__gethex+0x254>
 8086742:	1a37      	subs	r7, r6, r0
 8086744:	4629      	mov	r1, r5
 8086746:	463a      	mov	r2, r7
 8086748:	9802      	ldr	r0, [sp, #8]
 808674a:	f000 fc89 	bl	8087060 <__lshift>
 808674e:	4605      	mov	r5, r0
 8086750:	1be4      	subs	r4, r4, r7
 8086752:	f100 0a14 	add.w	sl, r0, #20
 8086756:	f04f 0900 	mov.w	r9, #0
 808675a:	f8d8 3008 	ldr.w	r3, [r8, #8]
 808675e:	429c      	cmp	r4, r3
 8086760:	dd08      	ble.n	8086774 <__gethex+0x272>
 8086762:	9802      	ldr	r0, [sp, #8]
 8086764:	4629      	mov	r1, r5
 8086766:	f000 fab6 	bl	8086cd6 <_Bfree>
 808676a:	9a14      	ldr	r2, [sp, #80]	; 0x50
 808676c:	2300      	movs	r3, #0
 808676e:	6013      	str	r3, [r2, #0]
 8086770:	20a3      	movs	r0, #163	; 0xa3
 8086772:	e0e2      	b.n	808693a <__gethex+0x438>
 8086774:	f8d8 0004 	ldr.w	r0, [r8, #4]
 8086778:	4284      	cmp	r4, r0
 808677a:	da53      	bge.n	8086824 <__gethex+0x322>
 808677c:	1b04      	subs	r4, r0, r4
 808677e:	42a6      	cmp	r6, r4
 8086780:	dc2e      	bgt.n	80867e0 <__gethex+0x2de>
 8086782:	f8d8 300c 	ldr.w	r3, [r8, #12]
 8086786:	2b02      	cmp	r3, #2
 8086788:	d01a      	beq.n	80867c0 <__gethex+0x2be>
 808678a:	2b03      	cmp	r3, #3
 808678c:	d01c      	beq.n	80867c8 <__gethex+0x2c6>
 808678e:	2b01      	cmp	r3, #1
 8086790:	d11d      	bne.n	80867ce <__gethex+0x2cc>
 8086792:	42a6      	cmp	r6, r4
 8086794:	d11b      	bne.n	80867ce <__gethex+0x2cc>
 8086796:	2e01      	cmp	r6, #1
 8086798:	dc0b      	bgt.n	80867b2 <__gethex+0x2b0>
 808679a:	f8d8 3004 	ldr.w	r3, [r8, #4]
 808679e:	9a06      	ldr	r2, [sp, #24]
 80867a0:	2062      	movs	r0, #98	; 0x62
 80867a2:	6013      	str	r3, [r2, #0]
 80867a4:	2301      	movs	r3, #1
 80867a6:	612b      	str	r3, [r5, #16]
 80867a8:	f8ca 3000 	str.w	r3, [sl]
 80867ac:	9b14      	ldr	r3, [sp, #80]	; 0x50
 80867ae:	601d      	str	r5, [r3, #0]
 80867b0:	e0c3      	b.n	808693a <__gethex+0x438>
 80867b2:	1e71      	subs	r1, r6, #1
 80867b4:	4628      	mov	r0, r5
 80867b6:	f000 fe20 	bl	80873fa <__any_on>
 80867ba:	2800      	cmp	r0, #0
 80867bc:	d1ed      	bne.n	808679a <__gethex+0x298>
 80867be:	e006      	b.n	80867ce <__gethex+0x2cc>
 80867c0:	9b15      	ldr	r3, [sp, #84]	; 0x54
 80867c2:	2b00      	cmp	r3, #0
 80867c4:	d0e9      	beq.n	808679a <__gethex+0x298>
 80867c6:	e002      	b.n	80867ce <__gethex+0x2cc>
 80867c8:	9b15      	ldr	r3, [sp, #84]	; 0x54
 80867ca:	2b00      	cmp	r3, #0
 80867cc:	d1e5      	bne.n	808679a <__gethex+0x298>
 80867ce:	9802      	ldr	r0, [sp, #8]
 80867d0:	4629      	mov	r1, r5
 80867d2:	f000 fa80 	bl	8086cd6 <_Bfree>
 80867d6:	9a14      	ldr	r2, [sp, #80]	; 0x50
 80867d8:	2300      	movs	r3, #0
 80867da:	6013      	str	r3, [r2, #0]
 80867dc:	2050      	movs	r0, #80	; 0x50
 80867de:	e0ac      	b.n	808693a <__gethex+0x438>
 80867e0:	1e67      	subs	r7, r4, #1
 80867e2:	f1b9 0f00 	cmp.w	r9, #0
 80867e6:	d106      	bne.n	80867f6 <__gethex+0x2f4>
 80867e8:	b13f      	cbz	r7, 80867fa <__gethex+0x2f8>
 80867ea:	4639      	mov	r1, r7
 80867ec:	4628      	mov	r0, r5
 80867ee:	f000 fe04 	bl	80873fa <__any_on>
 80867f2:	4681      	mov	r9, r0
 80867f4:	e001      	b.n	80867fa <__gethex+0x2f8>
 80867f6:	f04f 0901 	mov.w	r9, #1
 80867fa:	117a      	asrs	r2, r7, #5
 80867fc:	2301      	movs	r3, #1
 80867fe:	f007 071f 	and.w	r7, r7, #31
 8086802:	fa03 f707 	lsl.w	r7, r3, r7
 8086806:	f85a 3022 	ldr.w	r3, [sl, r2, lsl #2]
 808680a:	4621      	mov	r1, r4
 808680c:	421f      	tst	r7, r3
 808680e:	4628      	mov	r0, r5
 8086810:	bf18      	it	ne
 8086812:	f049 0902 	orrne.w	r9, r9, #2
 8086816:	1b36      	subs	r6, r6, r4
 8086818:	f7ff fe28 	bl	808646c <rshift>
 808681c:	2702      	movs	r7, #2
 808681e:	f8d8 4004 	ldr.w	r4, [r8, #4]
 8086822:	e000      	b.n	8086826 <__gethex+0x324>
 8086824:	2701      	movs	r7, #1
 8086826:	f1b9 0f00 	cmp.w	r9, #0
 808682a:	f000 8081 	beq.w	8086930 <__gethex+0x42e>
 808682e:	f8d8 300c 	ldr.w	r3, [r8, #12]
 8086832:	2b02      	cmp	r3, #2
 8086834:	d00e      	beq.n	8086854 <__gethex+0x352>
 8086836:	2b03      	cmp	r3, #3
 8086838:	d010      	beq.n	808685c <__gethex+0x35a>
 808683a:	2b01      	cmp	r3, #1
 808683c:	d176      	bne.n	808692c <__gethex+0x42a>
 808683e:	f019 0f02 	tst.w	r9, #2
 8086842:	d073      	beq.n	808692c <__gethex+0x42a>
 8086844:	f8da 0000 	ldr.w	r0, [sl]
 8086848:	ea49 0900 	orr.w	r9, r9, r0
 808684c:	f019 0f01 	tst.w	r9, #1
 8086850:	d107      	bne.n	8086862 <__gethex+0x360>
 8086852:	e06b      	b.n	808692c <__gethex+0x42a>
 8086854:	9b15      	ldr	r3, [sp, #84]	; 0x54
 8086856:	f1c3 0301 	rsb	r3, r3, #1
 808685a:	9315      	str	r3, [sp, #84]	; 0x54
 808685c:	9b15      	ldr	r3, [sp, #84]	; 0x54
 808685e:	2b00      	cmp	r3, #0
 8086860:	d064      	beq.n	808692c <__gethex+0x42a>
 8086862:	f8d5 a010 	ldr.w	sl, [r5, #16]
 8086866:	f105 0314 	add.w	r3, r5, #20
 808686a:	ea4f 098a 	mov.w	r9, sl, lsl #2
 808686e:	eb03 0109 	add.w	r1, r3, r9
 8086872:	2000      	movs	r0, #0
 8086874:	681a      	ldr	r2, [r3, #0]
 8086876:	f1b2 3fff 	cmp.w	r2, #4294967295
 808687a:	d002      	beq.n	8086882 <__gethex+0x380>
 808687c:	3201      	adds	r2, #1
 808687e:	601a      	str	r2, [r3, #0]
 8086880:	e020      	b.n	80868c4 <__gethex+0x3c2>
 8086882:	f843 0b04 	str.w	r0, [r3], #4
 8086886:	4299      	cmp	r1, r3
 8086888:	d8f4      	bhi.n	8086874 <__gethex+0x372>
 808688a:	68ab      	ldr	r3, [r5, #8]
 808688c:	459a      	cmp	sl, r3
 808688e:	db12      	blt.n	80868b6 <__gethex+0x3b4>
 8086890:	6869      	ldr	r1, [r5, #4]
 8086892:	9802      	ldr	r0, [sp, #8]
 8086894:	3101      	adds	r1, #1
 8086896:	f000 f9e9 	bl	8086c6c <_Balloc>
 808689a:	4683      	mov	fp, r0
 808689c:	692a      	ldr	r2, [r5, #16]
 808689e:	f105 010c 	add.w	r1, r5, #12
 80868a2:	3202      	adds	r2, #2
 80868a4:	0092      	lsls	r2, r2, #2
 80868a6:	300c      	adds	r0, #12
 80868a8:	f7fd fe72 	bl	8084590 <memcpy>
 80868ac:	4629      	mov	r1, r5
 80868ae:	9802      	ldr	r0, [sp, #8]
 80868b0:	f000 fa11 	bl	8086cd6 <_Bfree>
 80868b4:	465d      	mov	r5, fp
 80868b6:	692b      	ldr	r3, [r5, #16]
 80868b8:	1c5a      	adds	r2, r3, #1
 80868ba:	612a      	str	r2, [r5, #16]
 80868bc:	eb05 0383 	add.w	r3, r5, r3, lsl #2
 80868c0:	2201      	movs	r2, #1
 80868c2:	615a      	str	r2, [r3, #20]
 80868c4:	2f02      	cmp	r7, #2
 80868c6:	f105 0214 	add.w	r2, r5, #20
 80868ca:	d111      	bne.n	80868f0 <__gethex+0x3ee>
 80868cc:	f8d8 3000 	ldr.w	r3, [r8]
 80868d0:	3b01      	subs	r3, #1
 80868d2:	429e      	cmp	r6, r3
 80868d4:	d127      	bne.n	8086926 <__gethex+0x424>
 80868d6:	1171      	asrs	r1, r6, #5
 80868d8:	2301      	movs	r3, #1
 80868da:	f006 061f 	and.w	r6, r6, #31
 80868de:	fa03 f606 	lsl.w	r6, r3, r6
 80868e2:	f852 3021 	ldr.w	r3, [r2, r1, lsl #2]
 80868e6:	421e      	tst	r6, r3
 80868e8:	bf0c      	ite	eq
 80868ea:	2702      	moveq	r7, #2
 80868ec:	2701      	movne	r7, #1
 80868ee:	e01a      	b.n	8086926 <__gethex+0x424>
 80868f0:	692b      	ldr	r3, [r5, #16]
 80868f2:	459a      	cmp	sl, r3
 80868f4:	da0a      	bge.n	808690c <__gethex+0x40a>
 80868f6:	2101      	movs	r1, #1
 80868f8:	4628      	mov	r0, r5
 80868fa:	f7ff fdb7 	bl	808646c <rshift>
 80868fe:	f8d8 3008 	ldr.w	r3, [r8, #8]
 8086902:	3401      	adds	r4, #1
 8086904:	429c      	cmp	r4, r3
 8086906:	f73f af2c 	bgt.w	8086762 <__gethex+0x260>
 808690a:	e00b      	b.n	8086924 <__gethex+0x422>
 808690c:	f016 061f 	ands.w	r6, r6, #31
 8086910:	d008      	beq.n	8086924 <__gethex+0x422>
 8086912:	4491      	add	r9, r2
 8086914:	f859 0c04 	ldr.w	r0, [r9, #-4]
 8086918:	f000 fa6d 	bl	8086df6 <__hi0bits>
 808691c:	f1c6 0620 	rsb	r6, r6, #32
 8086920:	42b0      	cmp	r0, r6
 8086922:	dbe8      	blt.n	80868f6 <__gethex+0x3f4>
 8086924:	2701      	movs	r7, #1
 8086926:	f047 0720 	orr.w	r7, r7, #32
 808692a:	e001      	b.n	8086930 <__gethex+0x42e>
 808692c:	f047 0710 	orr.w	r7, r7, #16
 8086930:	4638      	mov	r0, r7
 8086932:	9b14      	ldr	r3, [sp, #80]	; 0x50
 8086934:	601d      	str	r5, [r3, #0]
 8086936:	9b06      	ldr	r3, [sp, #24]
 8086938:	601c      	str	r4, [r3, #0]
 808693a:	b00b      	add	sp, #44	; 0x2c
 808693c:	e8bd 8ff0 	ldmia.w	sp!, {r4, r5, r6, r7, r8, r9, sl, fp, pc}

08086940 <L_shift>:
 8086940:	f1c2 0208 	rsb	r2, r2, #8
 8086944:	0092      	lsls	r2, r2, #2
 8086946:	b570      	push	{r4, r5, r6, lr}
 8086948:	f1c2 0620 	rsb	r6, r2, #32
 808694c:	6843      	ldr	r3, [r0, #4]
 808694e:	6805      	ldr	r5, [r0, #0]
 8086950:	fa03 f406 	lsl.w	r4, r3, r6
 8086954:	432c      	orrs	r4, r5
 8086956:	40d3      	lsrs	r3, r2
 8086958:	6004      	str	r4, [r0, #0]
 808695a:	f840 3f04 	str.w	r3, [r0, #4]!
 808695e:	4288      	cmp	r0, r1
 8086960:	d3f4      	bcc.n	808694c <L_shift+0xc>
 8086962:	bd70      	pop	{r4, r5, r6, pc}

08086964 <__match>:
 8086964:	b530      	push	{r4, r5, lr}
 8086966:	6803      	ldr	r3, [r0, #0]
 8086968:	f811 4b01 	ldrb.w	r4, [r1], #1
 808696c:	3301      	adds	r3, #1
 808696e:	b14c      	cbz	r4, 8086984 <__match+0x20>
 8086970:	781a      	ldrb	r2, [r3, #0]
 8086972:	f1a2 0541 	sub.w	r5, r2, #65	; 0x41
 8086976:	2d19      	cmp	r5, #25
 8086978:	bf98      	it	ls
 808697a:	3220      	addls	r2, #32
 808697c:	42a2      	cmp	r2, r4
 808697e:	d0f3      	beq.n	8086968 <__match+0x4>
 8086980:	2000      	movs	r0, #0
 8086982:	bd30      	pop	{r4, r5, pc}
 8086984:	6003      	str	r3, [r0, #0]
 8086986:	2001      	movs	r0, #1
 8086988:	bd30      	pop	{r4, r5, pc}

0808698a <__hexnan>:
 808698a:	680b      	ldr	r3, [r1, #0]
 808698c:	e92d 4ff0 	stmdb	sp!, {r4, r5, r6, r7, r8, r9, sl, fp, lr}
 8086990:	115e      	asrs	r6, r3, #5
 8086992:	eb02 0686 	add.w	r6, r2, r6, lsl #2
 8086996:	f013 031f 	ands.w	r3, r3, #31
 808699a:	bf18      	it	ne
 808699c:	3604      	addne	r6, #4
 808699e:	1f35      	subs	r5, r6, #4
 80869a0:	4617      	mov	r7, r2
 80869a2:	2200      	movs	r2, #0
 80869a4:	4682      	mov	sl, r0
 80869a6:	46a8      	mov	r8, r5
 80869a8:	462c      	mov	r4, r5
 80869aa:	4691      	mov	r9, r2
 80869ac:	b085      	sub	sp, #20
 80869ae:	f8d0 b000 	ldr.w	fp, [r0]
 80869b2:	9301      	str	r3, [sp, #4]
 80869b4:	f846 2c04 	str.w	r2, [r6, #-4]
 80869b8:	9200      	str	r2, [sp, #0]
 80869ba:	f81b 1f01 	ldrb.w	r1, [fp, #1]!
 80869be:	2900      	cmp	r1, #0
 80869c0:	d03c      	beq.n	8086a3c <__hexnan+0xb2>
 80869c2:	4608      	mov	r0, r1
 80869c4:	9203      	str	r2, [sp, #12]
 80869c6:	9102      	str	r1, [sp, #8]
 80869c8:	f7ff fd86 	bl	80864d8 <__hexdig_fun>
 80869cc:	9a03      	ldr	r2, [sp, #12]
 80869ce:	bb00      	cbnz	r0, 8086a12 <__hexnan+0x88>
 80869d0:	9902      	ldr	r1, [sp, #8]
 80869d2:	2920      	cmp	r1, #32
 80869d4:	d816      	bhi.n	8086a04 <__hexnan+0x7a>
 80869d6:	9b00      	ldr	r3, [sp, #0]
 80869d8:	4599      	cmp	r9, r3
 80869da:	ddee      	ble.n	80869ba <__hexnan+0x30>
 80869dc:	4544      	cmp	r4, r8
 80869de:	d205      	bcs.n	80869ec <__hexnan+0x62>
 80869e0:	2a07      	cmp	r2, #7
 80869e2:	dc03      	bgt.n	80869ec <__hexnan+0x62>
 80869e4:	4641      	mov	r1, r8
 80869e6:	4620      	mov	r0, r4
 80869e8:	f7ff ffaa 	bl	8086940 <L_shift>
 80869ec:	42bc      	cmp	r4, r7
 80869ee:	d923      	bls.n	8086a38 <__hexnan+0xae>
 80869f0:	2300      	movs	r3, #0
 80869f2:	f1a4 0804 	sub.w	r8, r4, #4
 80869f6:	f844 3c04 	str.w	r3, [r4, #-4]
 80869fa:	f8cd 9000 	str.w	r9, [sp]
 80869fe:	4644      	mov	r4, r8
 8086a00:	461a      	mov	r2, r3
 8086a02:	e7da      	b.n	80869ba <__hexnan+0x30>
 8086a04:	2929      	cmp	r1, #41	; 0x29
 8086a06:	d148      	bne.n	8086a9a <__hexnan+0x110>
 8086a08:	f10b 0301 	add.w	r3, fp, #1
 8086a0c:	f8ca 3000 	str.w	r3, [sl]
 8086a10:	e014      	b.n	8086a3c <__hexnan+0xb2>
 8086a12:	3201      	adds	r2, #1
 8086a14:	2a08      	cmp	r2, #8
 8086a16:	f109 0901 	add.w	r9, r9, #1
 8086a1a:	dd06      	ble.n	8086a2a <__hexnan+0xa0>
 8086a1c:	42bc      	cmp	r4, r7
 8086a1e:	d9cc      	bls.n	80869ba <__hexnan+0x30>
 8086a20:	2300      	movs	r3, #0
 8086a22:	f844 3c04 	str.w	r3, [r4, #-4]
 8086a26:	2201      	movs	r2, #1
 8086a28:	3c04      	subs	r4, #4
 8086a2a:	6821      	ldr	r1, [r4, #0]
 8086a2c:	f000 000f 	and.w	r0, r0, #15
 8086a30:	ea40 1001 	orr.w	r0, r0, r1, lsl #4
 8086a34:	6020      	str	r0, [r4, #0]
 8086a36:	e7c0      	b.n	80869ba <__hexnan+0x30>
 8086a38:	2208      	movs	r2, #8
 8086a3a:	e7be      	b.n	80869ba <__hexnan+0x30>
 8086a3c:	f1b9 0f00 	cmp.w	r9, #0
 8086a40:	d02b      	beq.n	8086a9a <__hexnan+0x110>
 8086a42:	4544      	cmp	r4, r8
 8086a44:	d205      	bcs.n	8086a52 <__hexnan+0xc8>
 8086a46:	2a07      	cmp	r2, #7
 8086a48:	dc03      	bgt.n	8086a52 <__hexnan+0xc8>
 8086a4a:	4641      	mov	r1, r8
 8086a4c:	4620      	mov	r0, r4
 8086a4e:	f7ff ff77 	bl	8086940 <L_shift>
 8086a52:	42bc      	cmp	r4, r7
 8086a54:	d90c      	bls.n	8086a70 <__hexnan+0xe6>
 8086a56:	463b      	mov	r3, r7
 8086a58:	f854 2b04 	ldr.w	r2, [r4], #4
 8086a5c:	42a5      	cmp	r5, r4
 8086a5e:	f843 2b04 	str.w	r2, [r3], #4
 8086a62:	d2f9      	bcs.n	8086a58 <__hexnan+0xce>
 8086a64:	2200      	movs	r2, #0
 8086a66:	f843 2b04 	str.w	r2, [r3], #4
 8086a6a:	429d      	cmp	r5, r3
 8086a6c:	d2fb      	bcs.n	8086a66 <__hexnan+0xdc>
 8086a6e:	e00b      	b.n	8086a88 <__hexnan+0xfe>
 8086a70:	9b01      	ldr	r3, [sp, #4]
 8086a72:	b14b      	cbz	r3, 8086a88 <__hexnan+0xfe>
 8086a74:	f1c3 0220 	rsb	r2, r3, #32
 8086a78:	f04f 33ff 	mov.w	r3, #4294967295
 8086a7c:	40d3      	lsrs	r3, r2
 8086a7e:	f856 2c04 	ldr.w	r2, [r6, #-4]
 8086a82:	4013      	ands	r3, r2
 8086a84:	f846 3c04 	str.w	r3, [r6, #-4]
 8086a88:	682b      	ldr	r3, [r5, #0]
 8086a8a:	b943      	cbnz	r3, 8086a9e <__hexnan+0x114>
 8086a8c:	42bd      	cmp	r5, r7
 8086a8e:	d102      	bne.n	8086a96 <__hexnan+0x10c>
 8086a90:	2301      	movs	r3, #1
 8086a92:	602b      	str	r3, [r5, #0]
 8086a94:	e003      	b.n	8086a9e <__hexnan+0x114>
 8086a96:	3d04      	subs	r5, #4
 8086a98:	e7f6      	b.n	8086a88 <__hexnan+0xfe>
 8086a9a:	2004      	movs	r0, #4
 8086a9c:	e000      	b.n	8086aa0 <__hexnan+0x116>
 8086a9e:	2005      	movs	r0, #5
 8086aa0:	b005      	add	sp, #20
 8086aa2:	e8bd 8ff0 	ldmia.w	sp!, {r4, r5, r6, r7, r8, r9, sl, fp, pc}
	...

08086aa8 <_findenv_r>:
 8086aa8:	e92d 4ff8 	stmdb	sp!, {r3, r4, r5, r6, r7, r8, r9, sl, fp, lr}
 8086aac:	4607      	mov	r7, r0
 8086aae:	468b      	mov	fp, r1
 8086ab0:	4690      	mov	r8, r2
 8086ab2:	f000 fcd7 	bl	8087464 <__env_lock>
 8086ab6:	4b19      	ldr	r3, [pc, #100]	; (8086b1c <_findenv_r+0x74>)
 8086ab8:	681d      	ldr	r5, [r3, #0]
 8086aba:	469a      	mov	sl, r3
 8086abc:	b13d      	cbz	r5, 8086ace <_findenv_r+0x26>
 8086abe:	465c      	mov	r4, fp
 8086ac0:	4623      	mov	r3, r4
 8086ac2:	f813 2b01 	ldrb.w	r2, [r3], #1
 8086ac6:	b142      	cbz	r2, 8086ada <_findenv_r+0x32>
 8086ac8:	2a3d      	cmp	r2, #61	; 0x3d
 8086aca:	461c      	mov	r4, r3
 8086acc:	d1f8      	bne.n	8086ac0 <_findenv_r+0x18>
 8086ace:	4638      	mov	r0, r7
 8086ad0:	f000 fcc9 	bl	8087466 <__env_unlock>
 8086ad4:	2000      	movs	r0, #0
 8086ad6:	e8bd 8ff8 	ldmia.w	sp!, {r3, r4, r5, r6, r7, r8, r9, sl, fp, pc}
 8086ada:	ebcb 0404 	rsb	r4, fp, r4
 8086ade:	46a9      	mov	r9, r5
 8086ae0:	f859 0b04 	ldr.w	r0, [r9], #4
 8086ae4:	2800      	cmp	r0, #0
 8086ae6:	d0f2      	beq.n	8086ace <_findenv_r+0x26>
 8086ae8:	4622      	mov	r2, r4
 8086aea:	4659      	mov	r1, fp
 8086aec:	f7fe fae4 	bl	80850b8 <strncmp>
 8086af0:	b988      	cbnz	r0, 8086b16 <_findenv_r+0x6e>
 8086af2:	f859 3c04 	ldr.w	r3, [r9, #-4]
 8086af6:	191e      	adds	r6, r3, r4
 8086af8:	5d1b      	ldrb	r3, [r3, r4]
 8086afa:	2b3d      	cmp	r3, #61	; 0x3d
 8086afc:	d10b      	bne.n	8086b16 <_findenv_r+0x6e>
 8086afe:	f8da 3000 	ldr.w	r3, [sl]
 8086b02:	4638      	mov	r0, r7
 8086b04:	1aed      	subs	r5, r5, r3
 8086b06:	10ad      	asrs	r5, r5, #2
 8086b08:	f8c8 5000 	str.w	r5, [r8]
 8086b0c:	f000 fcab 	bl	8087466 <__env_unlock>
 8086b10:	1c70      	adds	r0, r6, #1
 8086b12:	e8bd 8ff8 	ldmia.w	sp!, {r3, r4, r5, r6, r7, r8, r9, sl, fp, pc}
 8086b16:	464d      	mov	r5, r9
 8086b18:	e7e1      	b.n	8086ade <_findenv_r+0x36>
 8086b1a:	bf00      	nop
 8086b1c:	200000fc 	.word	0x200000fc

08086b20 <_getenv_r>:
 8086b20:	b507      	push	{r0, r1, r2, lr}
 8086b22:	aa01      	add	r2, sp, #4
 8086b24:	f7ff ffc0 	bl	8086aa8 <_findenv_r>
 8086b28:	b003      	add	sp, #12
 8086b2a:	f85d fb04 	ldr.w	pc, [sp], #4
	...

08086b30 <__gettzinfo>:
 8086b30:	4800      	ldr	r0, [pc, #0]	; (8086b34 <__gettzinfo+0x4>)
 8086b32:	4770      	bx	lr
 8086b34:	200000bc 	.word	0x200000bc

08086b38 <gmtime_r>:
 8086b38:	6802      	ldr	r2, [r0, #0]
 8086b3a:	4b46      	ldr	r3, [pc, #280]	; (8086c54 <gmtime_r+0x11c>)
 8086b3c:	b5f0      	push	{r4, r5, r6, r7, lr}
 8086b3e:	fb92 f4f3 	sdiv	r4, r2, r3
 8086b42:	fb03 2214 	mls	r2, r3, r4, r2
 8086b46:	2a00      	cmp	r2, #0
 8086b48:	bfbc      	itt	lt
 8086b4a:	f502 32a8 	addlt.w	r2, r2, #86016	; 0x15000
 8086b4e:	f502 72c0 	addlt.w	r2, r2, #384	; 0x180
 8086b52:	f44f 6061 	mov.w	r0, #3600	; 0xe10
 8086b56:	fb92 f3f0 	sdiv	r3, r2, r0
 8086b5a:	fb00 2213 	mls	r2, r0, r3, r2
 8086b5e:	f04f 003c 	mov.w	r0, #60	; 0x3c
 8086b62:	608b      	str	r3, [r1, #8]
 8086b64:	fb92 f3f0 	sdiv	r3, r2, r0
 8086b68:	fb00 2213 	mls	r2, r0, r3, r2
 8086b6c:	f504 242f 	add.w	r4, r4, #716800	; 0xaf000
 8086b70:	bfac      	ite	ge
 8086b72:	f604 246c 	addwge	r4, r4, #2668	; 0xa6c
 8086b76:	f604 246b 	addwlt	r4, r4, #2667	; 0xa6b
 8086b7a:	604b      	str	r3, [r1, #4]
 8086b7c:	600a      	str	r2, [r1, #0]
 8086b7e:	2307      	movs	r3, #7
 8086b80:	1ce2      	adds	r2, r4, #3
 8086b82:	fb92 f3f3 	sdiv	r3, r2, r3
 8086b86:	4d34      	ldr	r5, [pc, #208]	; (8086c58 <gmtime_r+0x120>)
 8086b88:	ebc3 03c3 	rsb	r3, r3, r3, lsl #3
 8086b8c:	fb94 f5f5 	sdiv	r5, r4, r5
 8086b90:	1ad3      	subs	r3, r2, r3
 8086b92:	f648 62ac 	movw	r2, #36524	; 0x8eac
 8086b96:	f240 57b4 	movw	r7, #1460	; 0x5b4
 8086b9a:	618b      	str	r3, [r1, #24]
 8086b9c:	4b2f      	ldr	r3, [pc, #188]	; (8086c5c <gmtime_r+0x124>)
 8086b9e:	4830      	ldr	r0, [pc, #192]	; (8086c60 <gmtime_r+0x128>)
 8086ba0:	fb03 4405 	mla	r4, r3, r5, r4
 8086ba4:	fbb4 f2f2 	udiv	r2, r4, r2
 8086ba8:	fbb4 f3f7 	udiv	r3, r4, r7
 8086bac:	fbb4 f0f0 	udiv	r0, r4, r0
 8086bb0:	4422      	add	r2, r4
 8086bb2:	1ad2      	subs	r2, r2, r3
 8086bb4:	f648 6694 	movw	r6, #36500	; 0x8e94
 8086bb8:	1a13      	subs	r3, r2, r0
 8086bba:	f240 126d 	movw	r2, #365	; 0x16d
 8086bbe:	fbb3 f6f6 	udiv	r6, r3, r6
 8086bc2:	fbb3 f0f2 	udiv	r0, r3, r2
 8086bc6:	fbb3 f3f7 	udiv	r3, r3, r7
 8086bca:	4434      	add	r4, r6
 8086bcc:	1ae3      	subs	r3, r4, r3
 8086bce:	fb02 3310 	mls	r3, r2, r0, r3
 8086bd2:	eb03 0283 	add.w	r2, r3, r3, lsl #2
 8086bd6:	2499      	movs	r4, #153	; 0x99
 8086bd8:	3202      	adds	r2, #2
 8086bda:	fbb2 f2f4 	udiv	r2, r2, r4
 8086bde:	4354      	muls	r4, r2
 8086be0:	1ca6      	adds	r6, r4, #2
 8086be2:	2405      	movs	r4, #5
 8086be4:	fbb6 f4f4 	udiv	r4, r6, r4
 8086be8:	2a0a      	cmp	r2, #10
 8086bea:	bf34      	ite	cc
 8086bec:	2602      	movcc	r6, #2
 8086bee:	f06f 0609 	mvncs.w	r6, #9
 8086bf2:	4416      	add	r6, r2
 8086bf4:	f44f 72c8 	mov.w	r2, #400	; 0x190
 8086bf8:	fb02 0505 	mla	r5, r2, r5, r0
 8086bfc:	1c5f      	adds	r7, r3, #1
 8086bfe:	2e01      	cmp	r6, #1
 8086c00:	bf98      	it	ls
 8086c02:	3501      	addls	r5, #1
 8086c04:	f5b3 7f99 	cmp.w	r3, #306	; 0x132
 8086c08:	eba7 0704 	sub.w	r7, r7, r4
 8086c0c:	d302      	bcc.n	8086c14 <gmtime_r+0xdc>
 8086c0e:	f5a3 7299 	sub.w	r2, r3, #306	; 0x132
 8086c12:	e014      	b.n	8086c3e <gmtime_r+0x106>
 8086c14:	0782      	lsls	r2, r0, #30
 8086c16:	d105      	bne.n	8086c24 <gmtime_r+0xec>
 8086c18:	2464      	movs	r4, #100	; 0x64
 8086c1a:	fbb0 f2f4 	udiv	r2, r0, r4
 8086c1e:	fb04 0212 	mls	r2, r4, r2, r0
 8086c22:	b94a      	cbnz	r2, 8086c38 <gmtime_r+0x100>
 8086c24:	f44f 72c8 	mov.w	r2, #400	; 0x190
 8086c28:	fbb0 f4f2 	udiv	r4, r0, r2
 8086c2c:	fb02 0014 	mls	r0, r2, r4, r0
 8086c30:	fab0 f280 	clz	r2, r0
 8086c34:	0952      	lsrs	r2, r2, #5
 8086c36:	e000      	b.n	8086c3a <gmtime_r+0x102>
 8086c38:	2201      	movs	r2, #1
 8086c3a:	333b      	adds	r3, #59	; 0x3b
 8086c3c:	441a      	add	r2, r3
 8086c3e:	f2a5 756c 	subw	r5, r5, #1900	; 0x76c
 8086c42:	2300      	movs	r3, #0
 8086c44:	61ca      	str	r2, [r1, #28]
 8086c46:	614d      	str	r5, [r1, #20]
 8086c48:	610e      	str	r6, [r1, #16]
 8086c4a:	60cf      	str	r7, [r1, #12]
 8086c4c:	620b      	str	r3, [r1, #32]
 8086c4e:	4608      	mov	r0, r1
 8086c50:	bdf0      	pop	{r4, r5, r6, r7, pc}
 8086c52:	bf00      	nop
 8086c54:	00015180 	.word	0x00015180
 8086c58:	00023ab1 	.word	0x00023ab1
 8086c5c:	fffdc54f 	.word	0xfffdc54f
 8086c60:	00023ab0 	.word	0x00023ab0

08086c64 <labs>:
 8086c64:	2800      	cmp	r0, #0
 8086c66:	bfb8      	it	lt
 8086c68:	4240      	neglt	r0, r0
 8086c6a:	4770      	bx	lr

08086c6c <_Balloc>:
 8086c6c:	b570      	push	{r4, r5, r6, lr}
 8086c6e:	6a45      	ldr	r5, [r0, #36]	; 0x24
 8086c70:	4604      	mov	r4, r0
 8086c72:	460e      	mov	r6, r1
 8086c74:	b93d      	cbnz	r5, 8086c86 <_Balloc+0x1a>
 8086c76:	2010      	movs	r0, #16
 8086c78:	f7fb f958 	bl	8081f2c <malloc>
 8086c7c:	6260      	str	r0, [r4, #36]	; 0x24
 8086c7e:	6045      	str	r5, [r0, #4]
 8086c80:	6085      	str	r5, [r0, #8]
 8086c82:	6005      	str	r5, [r0, #0]
 8086c84:	60c5      	str	r5, [r0, #12]
 8086c86:	6a65      	ldr	r5, [r4, #36]	; 0x24
 8086c88:	68eb      	ldr	r3, [r5, #12]
 8086c8a:	b143      	cbz	r3, 8086c9e <_Balloc+0x32>
 8086c8c:	6a63      	ldr	r3, [r4, #36]	; 0x24
 8086c8e:	68db      	ldr	r3, [r3, #12]
 8086c90:	f853 0026 	ldr.w	r0, [r3, r6, lsl #2]
 8086c94:	b178      	cbz	r0, 8086cb6 <_Balloc+0x4a>
 8086c96:	6802      	ldr	r2, [r0, #0]
 8086c98:	f843 2026 	str.w	r2, [r3, r6, lsl #2]
 8086c9c:	e017      	b.n	8086cce <_Balloc+0x62>
 8086c9e:	2221      	movs	r2, #33	; 0x21
 8086ca0:	2104      	movs	r1, #4
 8086ca2:	4620      	mov	r0, r4
 8086ca4:	f000 fbcb 	bl	808743e <_calloc_r>
 8086ca8:	6a63      	ldr	r3, [r4, #36]	; 0x24
 8086caa:	60e8      	str	r0, [r5, #12]
 8086cac:	68db      	ldr	r3, [r3, #12]
 8086cae:	2b00      	cmp	r3, #0
 8086cb0:	d1ec      	bne.n	8086c8c <_Balloc+0x20>
 8086cb2:	2000      	movs	r0, #0
 8086cb4:	bd70      	pop	{r4, r5, r6, pc}
 8086cb6:	2101      	movs	r1, #1
 8086cb8:	fa01 f506 	lsl.w	r5, r1, r6
 8086cbc:	1d6a      	adds	r2, r5, #5
 8086cbe:	0092      	lsls	r2, r2, #2
 8086cc0:	4620      	mov	r0, r4
 8086cc2:	f000 fbbc 	bl	808743e <_calloc_r>
 8086cc6:	2800      	cmp	r0, #0
 8086cc8:	d0f3      	beq.n	8086cb2 <_Balloc+0x46>
 8086cca:	6046      	str	r6, [r0, #4]
 8086ccc:	6085      	str	r5, [r0, #8]
 8086cce:	2300      	movs	r3, #0
 8086cd0:	6103      	str	r3, [r0, #16]
 8086cd2:	60c3      	str	r3, [r0, #12]
 8086cd4:	bd70      	pop	{r4, r5, r6, pc}

08086cd6 <_Bfree>:
 8086cd6:	b570      	push	{r4, r5, r6, lr}
 8086cd8:	6a44      	ldr	r4, [r0, #36]	; 0x24
 8086cda:	4606      	mov	r6, r0
 8086cdc:	460d      	mov	r5, r1
 8086cde:	b93c      	cbnz	r4, 8086cf0 <_Bfree+0x1a>
 8086ce0:	2010      	movs	r0, #16
 8086ce2:	f7fb f923 	bl	8081f2c <malloc>
 8086ce6:	6270      	str	r0, [r6, #36]	; 0x24
 8086ce8:	6044      	str	r4, [r0, #4]
 8086cea:	6084      	str	r4, [r0, #8]
 8086cec:	6004      	str	r4, [r0, #0]
 8086cee:	60c4      	str	r4, [r0, #12]
 8086cf0:	b13d      	cbz	r5, 8086d02 <_Bfree+0x2c>
 8086cf2:	6a73      	ldr	r3, [r6, #36]	; 0x24
 8086cf4:	686a      	ldr	r2, [r5, #4]
 8086cf6:	68db      	ldr	r3, [r3, #12]
 8086cf8:	f853 1022 	ldr.w	r1, [r3, r2, lsl #2]
 8086cfc:	6029      	str	r1, [r5, #0]
 8086cfe:	f843 5022 	str.w	r5, [r3, r2, lsl #2]
 8086d02:	bd70      	pop	{r4, r5, r6, pc}

08086d04 <__multadd>:
 8086d04:	e92d 41f0 	stmdb	sp!, {r4, r5, r6, r7, r8, lr}
 8086d08:	4606      	mov	r6, r0
 8086d0a:	460c      	mov	r4, r1
 8086d0c:	690d      	ldr	r5, [r1, #16]
 8086d0e:	461f      	mov	r7, r3
 8086d10:	f101 0e14 	add.w	lr, r1, #20
 8086d14:	2300      	movs	r3, #0
 8086d16:	f8de 0000 	ldr.w	r0, [lr]
 8086d1a:	3301      	adds	r3, #1
 8086d1c:	b281      	uxth	r1, r0
 8086d1e:	fb02 7101 	mla	r1, r2, r1, r7
 8086d22:	0c00      	lsrs	r0, r0, #16
 8086d24:	0c0f      	lsrs	r7, r1, #16
 8086d26:	fb02 7000 	mla	r0, r2, r0, r7
 8086d2a:	b289      	uxth	r1, r1
 8086d2c:	eb01 4100 	add.w	r1, r1, r0, lsl #16
 8086d30:	429d      	cmp	r5, r3
 8086d32:	ea4f 4710 	mov.w	r7, r0, lsr #16
 8086d36:	f84e 1b04 	str.w	r1, [lr], #4
 8086d3a:	dcec      	bgt.n	8086d16 <__multadd+0x12>
 8086d3c:	b1d7      	cbz	r7, 8086d74 <__multadd+0x70>
 8086d3e:	68a3      	ldr	r3, [r4, #8]
 8086d40:	429d      	cmp	r5, r3
 8086d42:	db12      	blt.n	8086d6a <__multadd+0x66>
 8086d44:	6861      	ldr	r1, [r4, #4]
 8086d46:	4630      	mov	r0, r6
 8086d48:	3101      	adds	r1, #1
 8086d4a:	f7ff ff8f 	bl	8086c6c <_Balloc>
 8086d4e:	4680      	mov	r8, r0
 8086d50:	6922      	ldr	r2, [r4, #16]
 8086d52:	f104 010c 	add.w	r1, r4, #12
 8086d56:	3202      	adds	r2, #2
 8086d58:	0092      	lsls	r2, r2, #2
 8086d5a:	300c      	adds	r0, #12
 8086d5c:	f7fd fc18 	bl	8084590 <memcpy>
 8086d60:	4621      	mov	r1, r4
 8086d62:	4630      	mov	r0, r6
 8086d64:	f7ff ffb7 	bl	8086cd6 <_Bfree>
 8086d68:	4644      	mov	r4, r8
 8086d6a:	eb04 0385 	add.w	r3, r4, r5, lsl #2
 8086d6e:	3501      	adds	r5, #1
 8086d70:	615f      	str	r7, [r3, #20]
 8086d72:	6125      	str	r5, [r4, #16]
 8086d74:	4620      	mov	r0, r4
 8086d76:	e8bd 81f0 	ldmia.w	sp!, {r4, r5, r6, r7, r8, pc}

08086d7a <__s2b>:
 8086d7a:	e92d 43f8 	stmdb	sp!, {r3, r4, r5, r6, r7, r8, r9, lr}
 8086d7e:	4606      	mov	r6, r0
 8086d80:	4615      	mov	r5, r2
 8086d82:	461f      	mov	r7, r3
 8086d84:	2209      	movs	r2, #9
 8086d86:	3308      	adds	r3, #8
 8086d88:	460c      	mov	r4, r1
 8086d8a:	fb93 f3f2 	sdiv	r3, r3, r2
 8086d8e:	2100      	movs	r1, #0
 8086d90:	2201      	movs	r2, #1
 8086d92:	429a      	cmp	r2, r3
 8086d94:	da02      	bge.n	8086d9c <__s2b+0x22>
 8086d96:	0052      	lsls	r2, r2, #1
 8086d98:	3101      	adds	r1, #1
 8086d9a:	e7fa      	b.n	8086d92 <__s2b+0x18>
 8086d9c:	4630      	mov	r0, r6
 8086d9e:	f7ff ff65 	bl	8086c6c <_Balloc>
 8086da2:	9b08      	ldr	r3, [sp, #32]
 8086da4:	2d09      	cmp	r5, #9
 8086da6:	6143      	str	r3, [r0, #20]
 8086da8:	f04f 0301 	mov.w	r3, #1
 8086dac:	6103      	str	r3, [r0, #16]
 8086dae:	dd11      	ble.n	8086dd4 <__s2b+0x5a>
 8086db0:	f104 0809 	add.w	r8, r4, #9
 8086db4:	46c1      	mov	r9, r8
 8086db6:	442c      	add	r4, r5
 8086db8:	f819 3b01 	ldrb.w	r3, [r9], #1
 8086dbc:	4601      	mov	r1, r0
 8086dbe:	3b30      	subs	r3, #48	; 0x30
 8086dc0:	220a      	movs	r2, #10
 8086dc2:	4630      	mov	r0, r6
 8086dc4:	f7ff ff9e 	bl	8086d04 <__multadd>
 8086dc8:	45a1      	cmp	r9, r4
 8086dca:	d1f5      	bne.n	8086db8 <__s2b+0x3e>
 8086dcc:	eb08 0405 	add.w	r4, r8, r5
 8086dd0:	3c08      	subs	r4, #8
 8086dd2:	e001      	b.n	8086dd8 <__s2b+0x5e>
 8086dd4:	340a      	adds	r4, #10
 8086dd6:	2509      	movs	r5, #9
 8086dd8:	1b2d      	subs	r5, r5, r4
 8086dda:	1963      	adds	r3, r4, r5
 8086ddc:	429f      	cmp	r7, r3
 8086dde:	dd08      	ble.n	8086df2 <__s2b+0x78>
 8086de0:	f814 3b01 	ldrb.w	r3, [r4], #1
 8086de4:	4601      	mov	r1, r0
 8086de6:	3b30      	subs	r3, #48	; 0x30
 8086de8:	220a      	movs	r2, #10
 8086dea:	4630      	mov	r0, r6
 8086dec:	f7ff ff8a 	bl	8086d04 <__multadd>
 8086df0:	e7f3      	b.n	8086dda <__s2b+0x60>
 8086df2:	e8bd 83f8 	ldmia.w	sp!, {r3, r4, r5, r6, r7, r8, r9, pc}

08086df6 <__hi0bits>:
 8086df6:	0c03      	lsrs	r3, r0, #16
 8086df8:	041b      	lsls	r3, r3, #16
 8086dfa:	b913      	cbnz	r3, 8086e02 <__hi0bits+0xc>
 8086dfc:	0400      	lsls	r0, r0, #16
 8086dfe:	2310      	movs	r3, #16
 8086e00:	e000      	b.n	8086e04 <__hi0bits+0xe>
 8086e02:	2300      	movs	r3, #0
 8086e04:	f010 4f7f 	tst.w	r0, #4278190080	; 0xff000000
 8086e08:	bf04      	itt	eq
 8086e0a:	0200      	lsleq	r0, r0, #8
 8086e0c:	3308      	addeq	r3, #8
 8086e0e:	f010 4f70 	tst.w	r0, #4026531840	; 0xf0000000
 8086e12:	bf04      	itt	eq
 8086e14:	0100      	lsleq	r0, r0, #4
 8086e16:	3304      	addeq	r3, #4
 8086e18:	f010 4f40 	tst.w	r0, #3221225472	; 0xc0000000
 8086e1c:	bf04      	itt	eq
 8086e1e:	0080      	lsleq	r0, r0, #2
 8086e20:	3302      	addeq	r3, #2
 8086e22:	2800      	cmp	r0, #0
 8086e24:	db03      	blt.n	8086e2e <__hi0bits+0x38>
 8086e26:	0042      	lsls	r2, r0, #1
 8086e28:	d503      	bpl.n	8086e32 <__hi0bits+0x3c>
 8086e2a:	1c58      	adds	r0, r3, #1
 8086e2c:	4770      	bx	lr
 8086e2e:	4618      	mov	r0, r3
 8086e30:	4770      	bx	lr
 8086e32:	2020      	movs	r0, #32
 8086e34:	4770      	bx	lr

08086e36 <__lo0bits>:
 8086e36:	6803      	ldr	r3, [r0, #0]
 8086e38:	f013 0207 	ands.w	r2, r3, #7
 8086e3c:	d00b      	beq.n	8086e56 <__lo0bits+0x20>
 8086e3e:	07d9      	lsls	r1, r3, #31
 8086e40:	d422      	bmi.n	8086e88 <__lo0bits+0x52>
 8086e42:	079a      	lsls	r2, r3, #30
 8086e44:	bf4b      	itete	mi
 8086e46:	085b      	lsrmi	r3, r3, #1
 8086e48:	089b      	lsrpl	r3, r3, #2
 8086e4a:	6003      	strmi	r3, [r0, #0]
 8086e4c:	6003      	strpl	r3, [r0, #0]
 8086e4e:	bf4c      	ite	mi
 8086e50:	2001      	movmi	r0, #1
 8086e52:	2002      	movpl	r0, #2
 8086e54:	4770      	bx	lr
 8086e56:	b299      	uxth	r1, r3
 8086e58:	b909      	cbnz	r1, 8086e5e <__lo0bits+0x28>
 8086e5a:	0c1b      	lsrs	r3, r3, #16
 8086e5c:	2210      	movs	r2, #16
 8086e5e:	f013 0fff 	tst.w	r3, #255	; 0xff
 8086e62:	bf04      	itt	eq
 8086e64:	0a1b      	lsreq	r3, r3, #8
 8086e66:	3208      	addeq	r2, #8
 8086e68:	0719      	lsls	r1, r3, #28
 8086e6a:	bf04      	itt	eq
 8086e6c:	091b      	lsreq	r3, r3, #4
 8086e6e:	3204      	addeq	r2, #4
 8086e70:	0799      	lsls	r1, r3, #30
 8086e72:	bf04      	itt	eq
 8086e74:	089b      	lsreq	r3, r3, #2
 8086e76:	3202      	addeq	r2, #2
 8086e78:	07d9      	lsls	r1, r3, #31
 8086e7a:	d402      	bmi.n	8086e82 <__lo0bits+0x4c>
 8086e7c:	085b      	lsrs	r3, r3, #1
 8086e7e:	d005      	beq.n	8086e8c <__lo0bits+0x56>
 8086e80:	3201      	adds	r2, #1
 8086e82:	6003      	str	r3, [r0, #0]
 8086e84:	4610      	mov	r0, r2
 8086e86:	4770      	bx	lr
 8086e88:	2000      	movs	r0, #0
 8086e8a:	4770      	bx	lr
 8086e8c:	2020      	movs	r0, #32
 8086e8e:	4770      	bx	lr

08086e90 <__i2b>:
 8086e90:	b510      	push	{r4, lr}
 8086e92:	460c      	mov	r4, r1
 8086e94:	2101      	movs	r1, #1
 8086e96:	f7ff fee9 	bl	8086c6c <_Balloc>
 8086e9a:	2201      	movs	r2, #1
 8086e9c:	6144      	str	r4, [r0, #20]
 8086e9e:	6102      	str	r2, [r0, #16]
 8086ea0:	bd10      	pop	{r4, pc}

08086ea2 <__multiply>:
 8086ea2:	e92d 4ff7 	stmdb	sp!, {r0, r1, r2, r4, r5, r6, r7, r8, r9, sl, fp, lr}
 8086ea6:	4614      	mov	r4, r2
 8086ea8:	690a      	ldr	r2, [r1, #16]
 8086eaa:	6923      	ldr	r3, [r4, #16]
 8086eac:	4688      	mov	r8, r1
 8086eae:	429a      	cmp	r2, r3
 8086eb0:	bfbe      	ittt	lt
 8086eb2:	460b      	movlt	r3, r1
 8086eb4:	46a0      	movlt	r8, r4
 8086eb6:	461c      	movlt	r4, r3
 8086eb8:	f8d8 7010 	ldr.w	r7, [r8, #16]
 8086ebc:	f8d4 9010 	ldr.w	r9, [r4, #16]
 8086ec0:	f8d8 3008 	ldr.w	r3, [r8, #8]
 8086ec4:	f8d8 1004 	ldr.w	r1, [r8, #4]
 8086ec8:	eb07 0609 	add.w	r6, r7, r9
 8086ecc:	429e      	cmp	r6, r3
 8086ece:	bfc8      	it	gt
 8086ed0:	3101      	addgt	r1, #1
 8086ed2:	f7ff fecb 	bl	8086c6c <_Balloc>
 8086ed6:	f100 0514 	add.w	r5, r0, #20
 8086eda:	462b      	mov	r3, r5
 8086edc:	eb05 0c86 	add.w	ip, r5, r6, lsl #2
 8086ee0:	2200      	movs	r2, #0
 8086ee2:	4563      	cmp	r3, ip
 8086ee4:	d202      	bcs.n	8086eec <__multiply+0x4a>
 8086ee6:	f843 2b04 	str.w	r2, [r3], #4
 8086eea:	e7fa      	b.n	8086ee2 <__multiply+0x40>
 8086eec:	f104 0214 	add.w	r2, r4, #20
 8086ef0:	f108 0114 	add.w	r1, r8, #20
 8086ef4:	eb02 0389 	add.w	r3, r2, r9, lsl #2
 8086ef8:	eb01 0787 	add.w	r7, r1, r7, lsl #2
 8086efc:	9300      	str	r3, [sp, #0]
 8086efe:	9b00      	ldr	r3, [sp, #0]
 8086f00:	9201      	str	r2, [sp, #4]
 8086f02:	4293      	cmp	r3, r2
 8086f04:	d957      	bls.n	8086fb6 <__multiply+0x114>
 8086f06:	f8b2 b000 	ldrh.w	fp, [r2]
 8086f0a:	f1bb 0f00 	cmp.w	fp, #0
 8086f0e:	d023      	beq.n	8086f58 <__multiply+0xb6>
 8086f10:	4689      	mov	r9, r1
 8086f12:	46ae      	mov	lr, r5
 8086f14:	f04f 0800 	mov.w	r8, #0
 8086f18:	f859 4b04 	ldr.w	r4, [r9], #4
 8086f1c:	f8be a000 	ldrh.w	sl, [lr]
 8086f20:	b2a3      	uxth	r3, r4
 8086f22:	fb0b a303 	mla	r3, fp, r3, sl
 8086f26:	ea4f 4a14 	mov.w	sl, r4, lsr #16
 8086f2a:	f8de 4000 	ldr.w	r4, [lr]
 8086f2e:	4443      	add	r3, r8
 8086f30:	ea4f 4814 	mov.w	r8, r4, lsr #16
 8086f34:	fb0b 840a 	mla	r4, fp, sl, r8
 8086f38:	46f2      	mov	sl, lr
 8086f3a:	eb04 4413 	add.w	r4, r4, r3, lsr #16
 8086f3e:	b29b      	uxth	r3, r3
 8086f40:	ea43 4304 	orr.w	r3, r3, r4, lsl #16
 8086f44:	454f      	cmp	r7, r9
 8086f46:	ea4f 4814 	mov.w	r8, r4, lsr #16
 8086f4a:	f84a 3b04 	str.w	r3, [sl], #4
 8086f4e:	d901      	bls.n	8086f54 <__multiply+0xb2>
 8086f50:	46d6      	mov	lr, sl
 8086f52:	e7e1      	b.n	8086f18 <__multiply+0x76>
 8086f54:	f8ce 8004 	str.w	r8, [lr, #4]
 8086f58:	9b01      	ldr	r3, [sp, #4]
 8086f5a:	3204      	adds	r2, #4
 8086f5c:	f8b3 a002 	ldrh.w	sl, [r3, #2]
 8086f60:	f1ba 0f00 	cmp.w	sl, #0
 8086f64:	d021      	beq.n	8086faa <__multiply+0x108>
 8086f66:	462c      	mov	r4, r5
 8086f68:	4689      	mov	r9, r1
 8086f6a:	682b      	ldr	r3, [r5, #0]
 8086f6c:	f04f 0800 	mov.w	r8, #0
 8086f70:	f8b9 e000 	ldrh.w	lr, [r9]
 8086f74:	f8b4 b002 	ldrh.w	fp, [r4, #2]
 8086f78:	b29b      	uxth	r3, r3
 8086f7a:	fb0a be0e 	mla	lr, sl, lr, fp
 8086f7e:	46a3      	mov	fp, r4
 8086f80:	44f0      	add	r8, lr
 8086f82:	ea43 4308 	orr.w	r3, r3, r8, lsl #16
 8086f86:	f84b 3b04 	str.w	r3, [fp], #4
 8086f8a:	f859 3b04 	ldr.w	r3, [r9], #4
 8086f8e:	f8b4 e004 	ldrh.w	lr, [r4, #4]
 8086f92:	0c1b      	lsrs	r3, r3, #16
 8086f94:	fb0a e303 	mla	r3, sl, r3, lr
 8086f98:	454f      	cmp	r7, r9
 8086f9a:	eb03 4318 	add.w	r3, r3, r8, lsr #16
 8086f9e:	ea4f 4813 	mov.w	r8, r3, lsr #16
 8086fa2:	d901      	bls.n	8086fa8 <__multiply+0x106>
 8086fa4:	465c      	mov	r4, fp
 8086fa6:	e7e3      	b.n	8086f70 <__multiply+0xce>
 8086fa8:	6063      	str	r3, [r4, #4]
 8086faa:	3504      	adds	r5, #4
 8086fac:	e7a7      	b.n	8086efe <__multiply+0x5c>
 8086fae:	f85c 3d04 	ldr.w	r3, [ip, #-4]!
 8086fb2:	b913      	cbnz	r3, 8086fba <__multiply+0x118>
 8086fb4:	3e01      	subs	r6, #1
 8086fb6:	2e00      	cmp	r6, #0
 8086fb8:	dcf9      	bgt.n	8086fae <__multiply+0x10c>
 8086fba:	6106      	str	r6, [r0, #16]
 8086fbc:	b003      	add	sp, #12
 8086fbe:	e8bd 8ff0 	ldmia.w	sp!, {r4, r5, r6, r7, r8, r9, sl, fp, pc}
	...

08086fc4 <__pow5mult>:
 8086fc4:	e92d 43f8 	stmdb	sp!, {r3, r4, r5, r6, r7, r8, r9, lr}
 8086fc8:	4615      	mov	r5, r2
 8086fca:	f012 0203 	ands.w	r2, r2, #3
 8086fce:	4606      	mov	r6, r0
 8086fd0:	460f      	mov	r7, r1
 8086fd2:	d007      	beq.n	8086fe4 <__pow5mult+0x20>
 8086fd4:	4c21      	ldr	r4, [pc, #132]	; (808705c <__pow5mult+0x98>)
 8086fd6:	3a01      	subs	r2, #1
 8086fd8:	2300      	movs	r3, #0
 8086fda:	f854 2022 	ldr.w	r2, [r4, r2, lsl #2]
 8086fde:	f7ff fe91 	bl	8086d04 <__multadd>
 8086fe2:	4607      	mov	r7, r0
 8086fe4:	10ad      	asrs	r5, r5, #2
 8086fe6:	d036      	beq.n	8087056 <__pow5mult+0x92>
 8086fe8:	6a74      	ldr	r4, [r6, #36]	; 0x24
 8086fea:	b93c      	cbnz	r4, 8086ffc <__pow5mult+0x38>
 8086fec:	2010      	movs	r0, #16
 8086fee:	f7fa ff9d 	bl	8081f2c <malloc>
 8086ff2:	6270      	str	r0, [r6, #36]	; 0x24
 8086ff4:	6044      	str	r4, [r0, #4]
 8086ff6:	6084      	str	r4, [r0, #8]
 8086ff8:	6004      	str	r4, [r0, #0]
 8086ffa:	60c4      	str	r4, [r0, #12]
 8086ffc:	f8d6 8024 	ldr.w	r8, [r6, #36]	; 0x24
 8087000:	f8d8 4008 	ldr.w	r4, [r8, #8]
 8087004:	b94c      	cbnz	r4, 808701a <__pow5mult+0x56>
 8087006:	f240 2171 	movw	r1, #625	; 0x271
 808700a:	4630      	mov	r0, r6
 808700c:	f7ff ff40 	bl	8086e90 <__i2b>
 8087010:	4604      	mov	r4, r0
 8087012:	2300      	movs	r3, #0
 8087014:	f8c8 0008 	str.w	r0, [r8, #8]
 8087018:	6003      	str	r3, [r0, #0]
 808701a:	f04f 0800 	mov.w	r8, #0
 808701e:	07eb      	lsls	r3, r5, #31
 8087020:	d50a      	bpl.n	8087038 <__pow5mult+0x74>
 8087022:	4639      	mov	r1, r7
 8087024:	4622      	mov	r2, r4
 8087026:	4630      	mov	r0, r6
 8087028:	f7ff ff3b 	bl	8086ea2 <__multiply>
 808702c:	4681      	mov	r9, r0
 808702e:	4639      	mov	r1, r7
 8087030:	4630      	mov	r0, r6
 8087032:	f7ff fe50 	bl	8086cd6 <_Bfree>
 8087036:	464f      	mov	r7, r9
 8087038:	106d      	asrs	r5, r5, #1
 808703a:	d00c      	beq.n	8087056 <__pow5mult+0x92>
 808703c:	6820      	ldr	r0, [r4, #0]
 808703e:	b108      	cbz	r0, 8087044 <__pow5mult+0x80>
 8087040:	4604      	mov	r4, r0
 8087042:	e7ec      	b.n	808701e <__pow5mult+0x5a>
 8087044:	4622      	mov	r2, r4
 8087046:	4621      	mov	r1, r4
 8087048:	4630      	mov	r0, r6
 808704a:	f7ff ff2a 	bl	8086ea2 <__multiply>
 808704e:	6020      	str	r0, [r4, #0]
 8087050:	f8c0 8000 	str.w	r8, [r0]
 8087054:	e7f4      	b.n	8087040 <__pow5mult+0x7c>
 8087056:	4638      	mov	r0, r7
 8087058:	e8bd 83f8 	ldmia.w	sp!, {r3, r4, r5, r6, r7, r8, r9, pc}
 808705c:	08088328 	.word	0x08088328

08087060 <__lshift>:
 8087060:	e92d 47f0 	stmdb	sp!, {r4, r5, r6, r7, r8, r9, sl, lr}
 8087064:	460c      	mov	r4, r1
 8087066:	4607      	mov	r7, r0
 8087068:	4691      	mov	r9, r2
 808706a:	6926      	ldr	r6, [r4, #16]
 808706c:	ea4f 1a62 	mov.w	sl, r2, asr #5
 8087070:	4456      	add	r6, sl
 8087072:	6849      	ldr	r1, [r1, #4]
 8087074:	68a3      	ldr	r3, [r4, #8]
 8087076:	1c75      	adds	r5, r6, #1
 8087078:	42ab      	cmp	r3, r5
 808707a:	da02      	bge.n	8087082 <__lshift+0x22>
 808707c:	3101      	adds	r1, #1
 808707e:	005b      	lsls	r3, r3, #1
 8087080:	e7fa      	b.n	8087078 <__lshift+0x18>
 8087082:	4638      	mov	r0, r7
 8087084:	f7ff fdf2 	bl	8086c6c <_Balloc>
 8087088:	2300      	movs	r3, #0
 808708a:	4680      	mov	r8, r0
 808708c:	461a      	mov	r2, r3
 808708e:	f100 0114 	add.w	r1, r0, #20
 8087092:	4553      	cmp	r3, sl
 8087094:	da03      	bge.n	808709e <__lshift+0x3e>
 8087096:	f841 2023 	str.w	r2, [r1, r3, lsl #2]
 808709a:	3301      	adds	r3, #1
 808709c:	e7f9      	b.n	8087092 <__lshift+0x32>
 808709e:	ea2a 73ea 	bic.w	r3, sl, sl, asr #31
 80870a2:	6920      	ldr	r0, [r4, #16]
 80870a4:	eb01 0383 	add.w	r3, r1, r3, lsl #2
 80870a8:	f019 091f 	ands.w	r9, r9, #31
 80870ac:	f104 0114 	add.w	r1, r4, #20
 80870b0:	eb01 0e80 	add.w	lr, r1, r0, lsl #2
 80870b4:	d014      	beq.n	80870e0 <__lshift+0x80>
 80870b6:	f1c9 0c20 	rsb	ip, r9, #32
 80870ba:	2200      	movs	r2, #0
 80870bc:	6808      	ldr	r0, [r1, #0]
 80870be:	469a      	mov	sl, r3
 80870c0:	fa00 f009 	lsl.w	r0, r0, r9
 80870c4:	4302      	orrs	r2, r0
 80870c6:	f843 2b04 	str.w	r2, [r3], #4
 80870ca:	f851 2b04 	ldr.w	r2, [r1], #4
 80870ce:	458e      	cmp	lr, r1
 80870d0:	fa22 f20c 	lsr.w	r2, r2, ip
 80870d4:	d8f2      	bhi.n	80870bc <__lshift+0x5c>
 80870d6:	f8ca 2004 	str.w	r2, [sl, #4]
 80870da:	b142      	cbz	r2, 80870ee <__lshift+0x8e>
 80870dc:	1cb5      	adds	r5, r6, #2
 80870de:	e006      	b.n	80870ee <__lshift+0x8e>
 80870e0:	3b04      	subs	r3, #4
 80870e2:	f851 2b04 	ldr.w	r2, [r1], #4
 80870e6:	458e      	cmp	lr, r1
 80870e8:	f843 2f04 	str.w	r2, [r3, #4]!
 80870ec:	d8f9      	bhi.n	80870e2 <__lshift+0x82>
 80870ee:	3d01      	subs	r5, #1
 80870f0:	4638      	mov	r0, r7
 80870f2:	f8c8 5010 	str.w	r5, [r8, #16]
 80870f6:	4621      	mov	r1, r4
 80870f8:	f7ff fded 	bl	8086cd6 <_Bfree>
 80870fc:	4640      	mov	r0, r8
 80870fe:	e8bd 87f0 	ldmia.w	sp!, {r4, r5, r6, r7, r8, r9, sl, pc}

08087102 <__mcmp>:
 8087102:	6903      	ldr	r3, [r0, #16]
 8087104:	690a      	ldr	r2, [r1, #16]
 8087106:	b510      	push	{r4, lr}
 8087108:	1a9b      	subs	r3, r3, r2
 808710a:	d111      	bne.n	8087130 <__mcmp+0x2e>
 808710c:	0092      	lsls	r2, r2, #2
 808710e:	3014      	adds	r0, #20
 8087110:	3114      	adds	r1, #20
 8087112:	1883      	adds	r3, r0, r2
 8087114:	440a      	add	r2, r1
 8087116:	f853 4d04 	ldr.w	r4, [r3, #-4]!
 808711a:	f852 1d04 	ldr.w	r1, [r2, #-4]!
 808711e:	428c      	cmp	r4, r1
 8087120:	d002      	beq.n	8087128 <__mcmp+0x26>
 8087122:	d307      	bcc.n	8087134 <__mcmp+0x32>
 8087124:	2001      	movs	r0, #1
 8087126:	bd10      	pop	{r4, pc}
 8087128:	4298      	cmp	r0, r3
 808712a:	d3f4      	bcc.n	8087116 <__mcmp+0x14>
 808712c:	2000      	movs	r0, #0
 808712e:	bd10      	pop	{r4, pc}
 8087130:	4618      	mov	r0, r3
 8087132:	bd10      	pop	{r4, pc}
 8087134:	f04f 30ff 	mov.w	r0, #4294967295
 8087138:	bd10      	pop	{r4, pc}

0808713a <__mdiff>:
 808713a:	e92d 43f8 	stmdb	sp!, {r3, r4, r5, r6, r7, r8, r9, lr}
 808713e:	460c      	mov	r4, r1
 8087140:	4607      	mov	r7, r0
 8087142:	4611      	mov	r1, r2
 8087144:	4620      	mov	r0, r4
 8087146:	4615      	mov	r5, r2
 8087148:	f7ff ffdb 	bl	8087102 <__mcmp>
 808714c:	1e06      	subs	r6, r0, #0
 808714e:	d108      	bne.n	8087162 <__mdiff+0x28>
 8087150:	4631      	mov	r1, r6
 8087152:	4638      	mov	r0, r7
 8087154:	f7ff fd8a 	bl	8086c6c <_Balloc>
 8087158:	2301      	movs	r3, #1
 808715a:	6103      	str	r3, [r0, #16]
 808715c:	6146      	str	r6, [r0, #20]
 808715e:	e8bd 83f8 	ldmia.w	sp!, {r3, r4, r5, r6, r7, r8, r9, pc}
 8087162:	bfbc      	itt	lt
 8087164:	4623      	movlt	r3, r4
 8087166:	462c      	movlt	r4, r5
 8087168:	4638      	mov	r0, r7
 808716a:	6861      	ldr	r1, [r4, #4]
 808716c:	bfba      	itte	lt
 808716e:	461d      	movlt	r5, r3
 8087170:	2601      	movlt	r6, #1
 8087172:	2600      	movge	r6, #0
 8087174:	f7ff fd7a 	bl	8086c6c <_Balloc>
 8087178:	692b      	ldr	r3, [r5, #16]
 808717a:	60c6      	str	r6, [r0, #12]
 808717c:	6926      	ldr	r6, [r4, #16]
 808717e:	f105 0914 	add.w	r9, r5, #20
 8087182:	f104 0114 	add.w	r1, r4, #20
 8087186:	eb01 0786 	add.w	r7, r1, r6, lsl #2
 808718a:	eb09 0883 	add.w	r8, r9, r3, lsl #2
 808718e:	f100 0514 	add.w	r5, r0, #20
 8087192:	f04f 0c00 	mov.w	ip, #0
 8087196:	f851 2b04 	ldr.w	r2, [r1], #4
 808719a:	f859 4b04 	ldr.w	r4, [r9], #4
 808719e:	b293      	uxth	r3, r2
 80871a0:	449c      	add	ip, r3
 80871a2:	b2a3      	uxth	r3, r4
 80871a4:	0c24      	lsrs	r4, r4, #16
 80871a6:	ebc3 030c 	rsb	r3, r3, ip
 80871aa:	ebc4 4212 	rsb	r2, r4, r2, lsr #16
 80871ae:	eb02 4223 	add.w	r2, r2, r3, asr #16
 80871b2:	b29b      	uxth	r3, r3
 80871b4:	ea4f 4c22 	mov.w	ip, r2, asr #16
 80871b8:	45c8      	cmp	r8, r9
 80871ba:	ea43 4202 	orr.w	r2, r3, r2, lsl #16
 80871be:	468e      	mov	lr, r1
 80871c0:	f845 2b04 	str.w	r2, [r5], #4
 80871c4:	d8e7      	bhi.n	8087196 <__mdiff+0x5c>
 80871c6:	45be      	cmp	lr, r7
 80871c8:	d20e      	bcs.n	80871e8 <__mdiff+0xae>
 80871ca:	f85e 1b04 	ldr.w	r1, [lr], #4
 80871ce:	b28a      	uxth	r2, r1
 80871d0:	4462      	add	r2, ip
 80871d2:	1413      	asrs	r3, r2, #16
 80871d4:	eb03 4311 	add.w	r3, r3, r1, lsr #16
 80871d8:	b292      	uxth	r2, r2
 80871da:	ea42 4203 	orr.w	r2, r2, r3, lsl #16
 80871de:	ea4f 4c23 	mov.w	ip, r3, asr #16
 80871e2:	f845 2b04 	str.w	r2, [r5], #4
 80871e6:	e7ee      	b.n	80871c6 <__mdiff+0x8c>
 80871e8:	f855 3d04 	ldr.w	r3, [r5, #-4]!
 80871ec:	b90b      	cbnz	r3, 80871f2 <__mdiff+0xb8>
 80871ee:	3e01      	subs	r6, #1
 80871f0:	e7fa      	b.n	80871e8 <__mdiff+0xae>
 80871f2:	6106      	str	r6, [r0, #16]
 80871f4:	e8bd 83f8 	ldmia.w	sp!, {r3, r4, r5, r6, r7, r8, r9, pc}

080871f8 <__ulp>:
 80871f8:	4b10      	ldr	r3, [pc, #64]	; (808723c <__ulp+0x44>)
 80871fa:	400b      	ands	r3, r1
 80871fc:	f1a3 7350 	sub.w	r3, r3, #54525952	; 0x3400000
 8087200:	2b00      	cmp	r3, #0
 8087202:	dd02      	ble.n	808720a <__ulp+0x12>
 8087204:	2000      	movs	r0, #0
 8087206:	4619      	mov	r1, r3
 8087208:	4770      	bx	lr
 808720a:	425b      	negs	r3, r3
 808720c:	151b      	asrs	r3, r3, #20
 808720e:	2b13      	cmp	r3, #19
 8087210:	f04f 0000 	mov.w	r0, #0
 8087214:	f04f 0100 	mov.w	r1, #0
 8087218:	dc04      	bgt.n	8087224 <__ulp+0x2c>
 808721a:	f44f 2200 	mov.w	r2, #524288	; 0x80000
 808721e:	fa42 f103 	asr.w	r1, r2, r3
 8087222:	4770      	bx	lr
 8087224:	3b14      	subs	r3, #20
 8087226:	2b1e      	cmp	r3, #30
 8087228:	f04f 0201 	mov.w	r2, #1
 808722c:	bfce      	itee	gt
 808722e:	4613      	movgt	r3, r2
 8087230:	f1c3 031f 	rsble	r3, r3, #31
 8087234:	fa02 f303 	lslle.w	r3, r2, r3
 8087238:	4618      	mov	r0, r3
 808723a:	4770      	bx	lr
 808723c:	7ff00000 	.word	0x7ff00000

08087240 <__b2d>:
 8087240:	b5f8      	push	{r3, r4, r5, r6, r7, lr}
 8087242:	6905      	ldr	r5, [r0, #16]
 8087244:	f100 0614 	add.w	r6, r0, #20
 8087248:	eb06 0585 	add.w	r5, r6, r5, lsl #2
 808724c:	f855 4c04 	ldr.w	r4, [r5, #-4]
 8087250:	1f2f      	subs	r7, r5, #4
 8087252:	4620      	mov	r0, r4
 8087254:	f7ff fdcf 	bl	8086df6 <__hi0bits>
 8087258:	f1c0 0320 	rsb	r3, r0, #32
 808725c:	280a      	cmp	r0, #10
 808725e:	600b      	str	r3, [r1, #0]
 8087260:	dc14      	bgt.n	808728c <__b2d+0x4c>
 8087262:	f1c0 0e0b 	rsb	lr, r0, #11
 8087266:	fa24 f10e 	lsr.w	r1, r4, lr
 808726a:	42be      	cmp	r6, r7
 808726c:	f041 537f 	orr.w	r3, r1, #1069547520	; 0x3fc00000
 8087270:	bf34      	ite	cc
 8087272:	f855 1c08 	ldrcc.w	r1, [r5, #-8]
 8087276:	2100      	movcs	r1, #0
 8087278:	3015      	adds	r0, #21
 808727a:	fa04 f000 	lsl.w	r0, r4, r0
 808727e:	fa21 f10e 	lsr.w	r1, r1, lr
 8087282:	f443 1340 	orr.w	r3, r3, #3145728	; 0x300000
 8087286:	ea40 0201 	orr.w	r2, r0, r1
 808728a:	e023      	b.n	80872d4 <__b2d+0x94>
 808728c:	42be      	cmp	r6, r7
 808728e:	bf3a      	itte	cc
 8087290:	f1a5 0708 	subcc.w	r7, r5, #8
 8087294:	f855 1c08 	ldrcc.w	r1, [r5, #-8]
 8087298:	2100      	movcs	r1, #0
 808729a:	380b      	subs	r0, #11
 808729c:	d015      	beq.n	80872ca <__b2d+0x8a>
 808729e:	4084      	lsls	r4, r0
 80872a0:	f1c0 0520 	rsb	r5, r0, #32
 80872a4:	f044 547f 	orr.w	r4, r4, #1069547520	; 0x3fc00000
 80872a8:	f444 1440 	orr.w	r4, r4, #3145728	; 0x300000
 80872ac:	42b7      	cmp	r7, r6
 80872ae:	fa21 fe05 	lsr.w	lr, r1, r5
 80872b2:	ea44 030e 	orr.w	r3, r4, lr
 80872b6:	bf8c      	ite	hi
 80872b8:	f857 4c04 	ldrhi.w	r4, [r7, #-4]
 80872bc:	2400      	movls	r4, #0
 80872be:	fa01 f000 	lsl.w	r0, r1, r0
 80872c2:	40ec      	lsrs	r4, r5
 80872c4:	ea40 0204 	orr.w	r2, r0, r4
 80872c8:	e004      	b.n	80872d4 <__b2d+0x94>
 80872ca:	460a      	mov	r2, r1
 80872cc:	f044 537f 	orr.w	r3, r4, #1069547520	; 0x3fc00000
 80872d0:	f443 1340 	orr.w	r3, r3, #3145728	; 0x300000
 80872d4:	4610      	mov	r0, r2
 80872d6:	4619      	mov	r1, r3
 80872d8:	bdf8      	pop	{r3, r4, r5, r6, r7, pc}

080872da <__d2b>:
 80872da:	e92d 41f3 	stmdb	sp!, {r0, r1, r4, r5, r6, r7, r8, lr}
 80872de:	461c      	mov	r4, r3
 80872e0:	2101      	movs	r1, #1
 80872e2:	4690      	mov	r8, r2
 80872e4:	9e08      	ldr	r6, [sp, #32]
 80872e6:	9d09      	ldr	r5, [sp, #36]	; 0x24
 80872e8:	f7ff fcc0 	bl	8086c6c <_Balloc>
 80872ec:	f3c4 0213 	ubfx	r2, r4, #0, #20
 80872f0:	f3c4 540a 	ubfx	r4, r4, #20, #11
 80872f4:	4607      	mov	r7, r0
 80872f6:	b10c      	cbz	r4, 80872fc <__d2b+0x22>
 80872f8:	f442 1280 	orr.w	r2, r2, #1048576	; 0x100000
 80872fc:	9201      	str	r2, [sp, #4]
 80872fe:	f1b8 0f00 	cmp.w	r8, #0
 8087302:	d019      	beq.n	8087338 <__d2b+0x5e>
 8087304:	a802      	add	r0, sp, #8
 8087306:	f840 8d08 	str.w	r8, [r0, #-8]!
 808730a:	f7ff fd94 	bl	8086e36 <__lo0bits>
 808730e:	9b00      	ldr	r3, [sp, #0]
 8087310:	b148      	cbz	r0, 8087326 <__d2b+0x4c>
 8087312:	9a01      	ldr	r2, [sp, #4]
 8087314:	f1c0 0120 	rsb	r1, r0, #32
 8087318:	fa02 f101 	lsl.w	r1, r2, r1
 808731c:	430b      	orrs	r3, r1
 808731e:	40c2      	lsrs	r2, r0
 8087320:	617b      	str	r3, [r7, #20]
 8087322:	9201      	str	r2, [sp, #4]
 8087324:	e000      	b.n	8087328 <__d2b+0x4e>
 8087326:	617b      	str	r3, [r7, #20]
 8087328:	9b01      	ldr	r3, [sp, #4]
 808732a:	2b00      	cmp	r3, #0
 808732c:	bf14      	ite	ne
 808732e:	2102      	movne	r1, #2
 8087330:	2101      	moveq	r1, #1
 8087332:	61bb      	str	r3, [r7, #24]
 8087334:	6139      	str	r1, [r7, #16]
 8087336:	e007      	b.n	8087348 <__d2b+0x6e>
 8087338:	a801      	add	r0, sp, #4
 808733a:	f7ff fd7c 	bl	8086e36 <__lo0bits>
 808733e:	9b01      	ldr	r3, [sp, #4]
 8087340:	2101      	movs	r1, #1
 8087342:	617b      	str	r3, [r7, #20]
 8087344:	6139      	str	r1, [r7, #16]
 8087346:	3020      	adds	r0, #32
 8087348:	b134      	cbz	r4, 8087358 <__d2b+0x7e>
 808734a:	f2a4 4433 	subw	r4, r4, #1075	; 0x433
 808734e:	4404      	add	r4, r0
 8087350:	6034      	str	r4, [r6, #0]
 8087352:	f1c0 0035 	rsb	r0, r0, #53	; 0x35
 8087356:	e009      	b.n	808736c <__d2b+0x92>
 8087358:	f2a0 4032 	subw	r0, r0, #1074	; 0x432
 808735c:	eb07 0381 	add.w	r3, r7, r1, lsl #2
 8087360:	6030      	str	r0, [r6, #0]
 8087362:	6918      	ldr	r0, [r3, #16]
 8087364:	f7ff fd47 	bl	8086df6 <__hi0bits>
 8087368:	ebc0 1041 	rsb	r0, r0, r1, lsl #5
 808736c:	6028      	str	r0, [r5, #0]
 808736e:	4638      	mov	r0, r7
 8087370:	b002      	add	sp, #8
 8087372:	e8bd 81f0 	ldmia.w	sp!, {r4, r5, r6, r7, r8, pc}

08087376 <__ratio>:
 8087376:	e92d 43f7 	stmdb	sp!, {r0, r1, r2, r4, r5, r6, r7, r8, r9, lr}
 808737a:	4688      	mov	r8, r1
 808737c:	4669      	mov	r1, sp
 808737e:	4681      	mov	r9, r0
 8087380:	f7ff ff5e 	bl	8087240 <__b2d>
 8087384:	460d      	mov	r5, r1
 8087386:	4604      	mov	r4, r0
 8087388:	a901      	add	r1, sp, #4
 808738a:	4640      	mov	r0, r8
 808738c:	f7ff ff58 	bl	8087240 <__b2d>
 8087390:	460f      	mov	r7, r1
 8087392:	4606      	mov	r6, r0
 8087394:	f8d9 3010 	ldr.w	r3, [r9, #16]
 8087398:	f8d8 2010 	ldr.w	r2, [r8, #16]
 808739c:	4620      	mov	r0, r4
 808739e:	1a9a      	subs	r2, r3, r2
 80873a0:	e89d 000a 	ldmia.w	sp, {r1, r3}
 80873a4:	1ac9      	subs	r1, r1, r3
 80873a6:	eb01 1342 	add.w	r3, r1, r2, lsl #5
 80873aa:	2b00      	cmp	r3, #0
 80873ac:	bfcc      	ite	gt
 80873ae:	eb05 5503 	addgt.w	r5, r5, r3, lsl #20
 80873b2:	eba7 5703 	suble.w	r7, r7, r3, lsl #20
 80873b6:	4632      	mov	r2, r6
 80873b8:	463b      	mov	r3, r7
 80873ba:	4629      	mov	r1, r5
 80873bc:	f7fc fd80 	bl	8083ec0 <__aeabi_ddiv>
 80873c0:	b003      	add	sp, #12
 80873c2:	e8bd 83f0 	ldmia.w	sp!, {r4, r5, r6, r7, r8, r9, pc}

080873c6 <__copybits>:
 80873c6:	3901      	subs	r1, #1
 80873c8:	b510      	push	{r4, lr}
 80873ca:	1149      	asrs	r1, r1, #5
 80873cc:	6914      	ldr	r4, [r2, #16]
 80873ce:	3101      	adds	r1, #1
 80873d0:	f102 0314 	add.w	r3, r2, #20
 80873d4:	eb00 0181 	add.w	r1, r0, r1, lsl #2
 80873d8:	eb03 0484 	add.w	r4, r3, r4, lsl #2
 80873dc:	42a3      	cmp	r3, r4
 80873de:	4602      	mov	r2, r0
 80873e0:	d204      	bcs.n	80873ec <__copybits+0x26>
 80873e2:	f853 2b04 	ldr.w	r2, [r3], #4
 80873e6:	f840 2b04 	str.w	r2, [r0], #4
 80873ea:	e7f7      	b.n	80873dc <__copybits+0x16>
 80873ec:	2300      	movs	r3, #0
 80873ee:	428a      	cmp	r2, r1
 80873f0:	d202      	bcs.n	80873f8 <__copybits+0x32>
 80873f2:	f842 3b04 	str.w	r3, [r2], #4
 80873f6:	e7fa      	b.n	80873ee <__copybits+0x28>
 80873f8:	bd10      	pop	{r4, pc}

080873fa <__any_on>:
 80873fa:	f100 0214 	add.w	r2, r0, #20
 80873fe:	6900      	ldr	r0, [r0, #16]
 8087400:	114b      	asrs	r3, r1, #5
 8087402:	4298      	cmp	r0, r3
 8087404:	b510      	push	{r4, lr}
 8087406:	db0c      	blt.n	8087422 <__any_on+0x28>
 8087408:	dd0c      	ble.n	8087424 <__any_on+0x2a>
 808740a:	f011 011f 	ands.w	r1, r1, #31
 808740e:	d009      	beq.n	8087424 <__any_on+0x2a>
 8087410:	f852 4023 	ldr.w	r4, [r2, r3, lsl #2]
 8087414:	fa24 f001 	lsr.w	r0, r4, r1
 8087418:	fa00 f101 	lsl.w	r1, r0, r1
 808741c:	428c      	cmp	r4, r1
 808741e:	d10c      	bne.n	808743a <__any_on+0x40>
 8087420:	e000      	b.n	8087424 <__any_on+0x2a>
 8087422:	4603      	mov	r3, r0
 8087424:	eb02 0383 	add.w	r3, r2, r3, lsl #2
 8087428:	4293      	cmp	r3, r2
 808742a:	d904      	bls.n	8087436 <__any_on+0x3c>
 808742c:	f853 1d04 	ldr.w	r1, [r3, #-4]!
 8087430:	2900      	cmp	r1, #0
 8087432:	d0f9      	beq.n	8087428 <__any_on+0x2e>
 8087434:	e001      	b.n	808743a <__any_on+0x40>
 8087436:	2000      	movs	r0, #0
 8087438:	bd10      	pop	{r4, pc}
 808743a:	2001      	movs	r0, #1
 808743c:	bd10      	pop	{r4, pc}

0808743e <_calloc_r>:
 808743e:	b538      	push	{r3, r4, r5, lr}
 8087440:	fb02 f401 	mul.w	r4, r2, r1
 8087444:	4621      	mov	r1, r4
 8087446:	f7fa fdc1 	bl	8081fcc <_malloc_r>
 808744a:	4605      	mov	r5, r0
 808744c:	b118      	cbz	r0, 8087456 <_calloc_r+0x18>
 808744e:	4622      	mov	r2, r4
 8087450:	2100      	movs	r1, #0
 8087452:	f7fd f8a8 	bl	80845a6 <memset>
 8087456:	4628      	mov	r0, r5
 8087458:	bd38      	pop	{r3, r4, r5, pc}
	...

0808745c <nanf>:
 808745c:	4800      	ldr	r0, [pc, #0]	; (8087460 <nanf+0x4>)
 808745e:	4770      	bx	lr
 8087460:	7fc00000 	.word	0x7fc00000

08087464 <__env_lock>:
 8087464:	4770      	bx	lr

08087466 <__env_unlock>:
 8087466:	4770      	bx	lr

08087468 <dynalib_user>:
 8087468:	0021 0808 0061 0808 008d 0808 0091 0808     !...a...........
 8087478:	0000 0000                                   ....

0808747c <_ZTV16JsonParserStaticILj256ELj20EE>:
	...
 8087484:	00b9 0808 00cd 0808 6553 2074 655a 6f72     ........Set Zero
 8087494:	4620 6e75 7463 6f69 206e 6163 6c6c 6465      Function called
 80874a4:	6620 6f72 206d 6c63 756f 0064 6552 7473      from cloud.Rest
 80874b4:	7261 2074 7274 6769 6567 6572 0064 6f4c     art triggered.Lo
 80874c4:	706f 4420 6c65 7961 7520 6470 7461 6465     op Delay updated
 80874d4:	7420 3a6f 0020 007b 4c22 6f6f 4470 6c65      to: .{."LoopDel
 80874e4:	7961 3a22 2200 2200 007d 6f4c 706f 4420     ay":."."}.Loop D
 80874f4:	6c65 7961 7520 6470 7461 6465 5300 6174     elay updated.Sta
 8087504:	7472 7075 203a 7552 6e6e 6e69 2067 6553     rtup: Running Se
 8087514:	7574 0070 6c43 756f 5264 7365 7465 7546     tup.CloudResetFu
 8087524:	636e 6974 6e6f 5300 7465 6f4c 706f 6544     nction.SetLoopDe
 8087534:	616c 0079 6553 5a74 7265 006f 6f68 6b6f     lay.SetZero.hook
 8087544:	722d 7365 6f70 736e 2f65 7473 7261 7574     -response/startu
 8087554:	0070 6552 6f62 746f 6920 746e 6169 6574     p.Reboot intiate
 8087564:	0064 6544 7562 0067 6925 2c00 0020 3425     d.Debug.%i., .%4
 8087574:	312e 0066 5a22 7265 4f6f 6666 6573 4974     .1f."ZeroOffsetI
 8087584:	4d6e 226d 003a 6173 6576 655a 6f72 4e00     nMm":.saveZero.N
 8087594:	7765 7a20 7265 4f6f 6666 6573 2074 7328     ew zeroOffset (s
 80875a4:	7661 6465 7420 206f 6c63 756f 2964 203a     aved to cloud): 
 80875b4:	2200 5444 3a22 2200 002c 5322 2253 003a     ."DT":.",."SS":.
 80875c4:	7372 6973 253d 2c64 7120 6175 3d6c 6425     rssi=%d, qual=%d
 80875d4:	2200 734c 6942 7374 3a22 2200 734c 6d4d     ."LsBits":."LsMm
 80875e4:	3a22 2200 734c 7641 3a22 2200 734c 6853     ":."LsAv":."LsSh
 80875f4:	7641 3a22 7400 6369 4c6b 7665 6c65 5200     Av":.tickLevel.R
 8087604:	6d65 746f 2065 6552 6573 2074 6e49 7469     emote Reset Init
 8087614:	6169 6574 0064 6933 746f 6300 756f 646c     iated.3iot.could
 8087624:	6e20 746f 7020 7261 6573 6a20 6f73 006e      not parse json.
 8087634:	7265 6f72 0072 657a 6f72 664f 7366 7465     error.zeroOffset
 8087644:	6e49 6d4d 2820 7361 7320 6f74 6572 2064     InMm (as stored 
 8087654:	6e6f 4120 757a 6572 3a29 0020 6553 7474     on Azure): .Sett
 8087664:	6e69 2067 657a 6f72 664f 7366 7465 6e49     ing zeroOffsetIn
 8087674:	6d4d 0000                                   Mm..

08087678 <_ZTV13JsonReference>:
	...
 8087680:	0d4d 0808 0d4f 0808                         M...O...

08087688 <_ZTV10JsonBuffer>:
	...
 8087690:	0d5d 0808 0d79 0808 6c25 0075 3025 7834     ]...y...%lu.%04x
 80876a0:	5c00 2575 3430 0058 7274 6575 2500 2a2e     .\u%04X.true.%.*
 80876b0:	0066 6625 2500 2a2e 666c 2500 666c 0000     f.%f.%.*lf.%lf..

080876c0 <_ZTV10JsonParser>:
	...
 80876c8:	0d8d 0808 0db1 0808                         ........

080876d0 <_ZTV30CellularHelperRSSIQualResponse>:
	...
 80876d8:	1a49 0808 5954 4550 555f 4b4e 4f4e 4e57     I...TYPE_UNKNOWN
 80876e8:	5400 5059 5f45 4b4f 5400 5059 5f45 5245     .TYPE_OK.TYPE_ER
 80876f8:	4f52 0052 5954 4550 435f 4e4f 454e 5443     ROR.TYPE_CONNECT
 8087708:	5400 5059 5f45 4f4e 4143 5252 4549 0052     .TYPE_NOCARRIER.
 8087718:	5954 4550 4e5f 444f 4149 544c 4e4f 0045     TYPE_NODIALTONE.
 8087728:	5954 4550 425f 5355 0059 5954 4550 4e5f     TYPE_BUSY.TYPE_N
 8087738:	414f 534e 4557 0052 5954 4550 505f 4f52     OANSWER.TYPE_PRO
 8087748:	504d 0054 5954 4550 505f 554c 0053 5954     MPT.TYPE_PLUS.TY
 8087758:	4550 415f 4f42 5452 4445 7400 7079 3d65     PE_ABORTED.type=
 8087768:	7830 7825 6300 6c65 756c 616c 2072 6572     0x%x.cellular re
 8087778:	7073 6e6f 6573 7420 7079 3d65 7325 6c20     sponse type=%s l
 8087788:	6e65 253d 0064 6e5c 5c00 0072 7830 3025     en=%d.\n.\r.0x%0
 8087798:	7832 2500 2c64 6425 6b00 7965 7420 6f6f     2x.%d,%d.key too
 80877a8:	6c20 6e6f 2067 656b 3d79 7325 7620 6c61      long key=%s val
 80877b8:	6575 253d 0073 4152 0054 4d55 5354 4d00     ue=%s.RAT.UMTS.M
 80877c8:	4343 4d00 434e 4c00 4341 4300 0049 5342     CC.MNC.LAC.CI.BS
 80877d8:	4349 4100 4652 4e43 4100 4652 4e43 445f     IC.ARFCN.ARFCN_D
 80877e8:	4445 5200 4c58 5645 5553 0042 5f54 4441     ED.RXLEVSUB.T_AD
 80877f8:	0056 5852 454c 0056 4c44 0046 4c55 0046     V.RXLEV.DLF.ULF.
 8087808:	5352 5043 4c20 5645 5200 4341 5300 0043     RSCP LEV.RAC.SC.
 8087818:	4345 304e 4c20 5645 7500 6b6e 6f6e 6e77     ECN0 LEV.unknown
 8087828:	6b20 7965 253d 2073 6176 756c 3d65 7325      key=%s value=%s
 8087838:	4d00 4343 003a 4152 3a54 4700 4d53 0020     .MCC:.RAT:.GSM .
 8087848:	4344 2053 3831 3030 4500 4753 204d 3039     DCS 1800.ESGM 90
 8087858:	0030 4d55 5354 0020 4733 7520 6b6e 6f6e     0.UMTS .3G unkno
 8087868:	6e77 4400 5343 3120 3038 2030 726f 3120     wn.DCS 1800 or 1
 8087878:	3039 0030 4745 4d53 3920 3030 3200 2047     900.EGSM 900.2G 
 8087888:	6e75 6e6b 776f 006e 636d 3d63 6425 202c     unknown.mcc=%d, 
 8087898:	6e6d 3d63 6425 202c 616c 3d63 7825 6320     mnc=%d, lac=%x c
 80878a8:	3d69 7825 6220 6e61 3d64 7325 7220 7373     i=%x band=%s rss
 80878b8:	3d69 6425 7200 7461 553d 544d 2053 7325     i=%d.rat=UMTS %s
 80878c8:	6420 666c 253d 2064 6c75 3d66 6425 7200      dlf=%d ulf=%d.r
 80878d8:	7461 473d 4d53 2520 2073 7362 6369 253d     at=GSM %s bsic=%
 80878e8:	2078 7261 6366 3d6e 6425 7220 6c78 7665     x arfcn=%d rxlev
 80878f8:	253d 0064 6573 7672 6369 2065 7325 6e00     =%d.service %s.n
 8087908:	6965 6867 6f62 2072 6425 2520 0073 616c     eighbor %d %s.la
 8087918:	3d74 6625 6c20 6e6f 253d 2066 6c61 3d74     t=%f lon=%f alt=
 8087928:	6425 7520 636e 7265 6174 6e69 7974 253d     %d uncertainty=%
 8087938:	0064 6176 696c 3d64 6166 736c 0065 6425     d.valid=false.%d
 8087948:	252c 2c64 2522 2278 222c 7825 2c22 6425     ,%d,"%x","%x",%d
 8087958:	7300 6174 3d74 6425 6c20 6361 303d 2578     .stat=%d lac=0x%
 8087968:	2078 6963 303d 2578 2078 6172 3d74 6425     x ci=0x%x rat=%d
 8087978:	4100 2b54 4743 4d4d 0a0d 4100 4954 0d30     .AT+CGMM...ATI0.
 8087988:	000a 5441 432b 4d47 0d52 000a 5441 432b     ..AT+CGMR...AT+C
 8087998:	5347 0d4e 000a 5441 432b 4d47 0d49 000a     GSN...AT+CGMI...
 80879a8:	4343 4449 4100 2b54 4343 4449 0a0d 5300     CCID.AT+CCID...S
 80879b8:	5241 2d41 3452 5500 4f44 4e50 4100 2b54     ARA-R4.UDOPN.AT+
 80879c8:	4455 504f 3d4e 6425 0a0d 4300 5153 4100     UDOPN=%d...CSQ.A
 80879d8:	2b54 5343 0d51 000a 5441 432b 504f 3d53     T+CSQ...AT+COPS=
 80879e8:	0d30 000a 706f 7265 7461 726f 6120 726c     0...operator alr
 80879f8:	6165 7964 2520 0073 5441 432b 504f 3d53     eady %s.AT+COPS=
 8087a08:	0d32 000a 5441 432b 504f 3d53 2c34 2c32     2...AT+COPS=4,2,
 8087a18:	2522 2273 0a0d 4300 4547 0044 5441 432b     "%s"...CGED.AT+C
 8087a28:	4547 3d44 6425 0a0d 5500 4c55 434f 4100     GED=%d...UULOC.A
 8087a38:	2b54 4c55 434f 4543 4c4c 303d 0a0d 4100     T+ULOCCELL=0...A
 8087a48:	2b54 4c55 434f 323d 322c 302c 252c 2c64     T+ULOC=2,2,0,%d,
 8087a58:	3035 3030 0a0d 4100 2b54 5243 4745 323d     5000...AT+CREG=2
 8087a68:	0a0d 4300 4552 0047 5441 432b 4552 3f47     ...CREG.AT+CREG?
 8087a78:	0a0d 4100 2b54 5243 4745 303d 0a0d 4100     ...AT+CREG=0...A
 8087a88:	2b54 5055 4e49 3d47 2522 2273 0a0d 5500     T+UPING="%s"...U
 8087a98:	4e44 5253 004e 5441 552b 4e44 5253 3d4e     DNSRN.AT+UDNSRN=
 8087aa8:	2c30 2522 2273 0a0d 2500 2e75 7525 252e     0,"%s"...%u.%u.%
 8087ab8:	2e75 7525 0a00 252b 3a73 0020               u.%u..+%s: .

08087ac4 <_ZTV32CellularHelperPlusStringResponse>:
	...
 8087acc:	1a49 0808                                   I...

08087ad0 <_ZTV8SPIClass>:
	...
 8087ad8:	1fdd 0808 1ff5 0808 6162 6475 5300 7265     ........baud.Ser
 8087ae8:	6169 006c 5355 5342 7265 6169 316c 7400     ial.USBSerial1.t
 8087af8:	7079 0065 6170 6172 006d 6d63 0064 6469     ype.param.cmd.id
 8087b08:	6800 646e 7300 7274 006d 6966 746c 6c00     .hnd.strm.filt.l
 8087b18:	6c76 6100 6464 6148 646e 656c 0072 6572     vl.addHandler.re
 8087b28:	6f6d 6576 6148 646e 656c 0072 6e65 6d75     moveHandler.enum
 8087b38:	6148 646e 656c 7372 4a00 4f53 534e 7274     Handlers.JSONStr
 8087b48:	6165 4c6d 676f 6148 646e 656c 0072 7061     eamLogHandler.ap
 8087b58:	0070 3025 3031 2075 5d00 0020 2928 203a     p.%010u .] .(): 
 8087b68:	2000 005b 6f63 6564 3d20 0020 6564 6174     . [.code = .deta
 8087b78:	6c69 2073 203d 6c00 006e 6e66 6300 646f     ils = .ln.fn.cod
 8087b88:	0065 6564 6174 6c69 6e00 6e6f 0065 7274     e.detail.none.tr
 8087b98:	6361 0065 6e69 6f66 7700 7261 006e 6170     ace.info.warn.pa
 8087ba8:	696e 0063 6c61 006c 2b25 3330 3a64 3025     nic.all.%+03d:%0
 8087bb8:	7532 2500 2d59 6d25 252d 5464 4825 253a     2u.%Y-%m-%dT%H:%
 8087bc8:	3a4d 5325 7a25 6100 6373 6974 656d 0000     M:%S%z.asctime..

08087bd8 <_ZTVSt15_Sp_counted_ptrIPN8particle6detail10FutureImplIbNS1_13FutureContextEEELN9__gnu_cxx12_Lock_policyE0EE>:
	...
 8087be0:	28a1 0808 28a7 0808 28eb 0808 28b5 0808     .(...(...(...(..
 8087bf0:	28a3 0808                                   .(..

08087bf4 <_ZTV9IPAddress>:
	...
 8087bfc:	2e91 0808 2e81 0808 2e83 0808               ............

08087c08 <_ZTV9USBSerial>:
	...
 8087c10:	2f25 0808 2f75 0808 2f83 0808 23c9 0808     %/..u/.../...#..
 8087c20:	2f61 0808 2f27 0808 2f3d 0808 2f6f 0808     a/..'/..=/..o/..
 8087c30:	2f53 0808 2f21 0808                         S/..!/..

08087c38 <_ZTVN5spark13CellularClassE>:
	...
 8087c40:	3127 0808 311d 0808 3113 0808 3085 0808     '1...1...1...0..
 8087c50:	3107 0808 30fb 0808 30ef 0808 30e7 0808     .1...0...0...0..
 8087c60:	30dd 0808 30d3 0808 308f 0808               .0...0...0..

08087c6c <_ZTV11USARTSerial>:
	...
 8087c74:	3161 0808 31b1 0808 31bf 0808 23c9 0808     a1...1...1...#..
 8087c84:	3175 0808 3197 0808 3183 0808 31ab 0808     u1...1...1...1..
 8087c94:	3163 0808 3167 0808                         c1..g1..

08087c9c <_ZTV7TwoWire>:
	...
 8087ca4:	32c1 0808 330b 0808 32e3 0808 32c3 0808     .2...3...2...2..
 8087cb4:	32eb 0808 32f3 0808 32fb 0808 3303 0808     .2...2...2...3..

08087cc4 <_ZTVN5spark12NetworkClassE>:
	...
 8087ccc:	33c9 0808 33d3 0808 33dd 0808 33e7 0808     .3...3...3...3..
 8087cdc:	33f1 0808 33fd 0808 3409 0808 3415 0808     .3...3...4...4..
 8087cec:	341d 0808 3427 0808 3431 0808               .4..'4..14..

08087cf8 <_ZSt7nothrow>:
	...

08087cf9 <day_name.4723>:
 8087cf9:	7553 4d6e 6e6f 7554 5765 6465 6854 4675     SunMonTueWedThuF
 8087d09:	6972 6153 4a74                                   riSat

08087d0e <mon_name.4724>:
 8087d0e:	614a 466e 6265 614d 4172 7270 614d 4a79     JanFebMarAprMayJ
 8087d1e:	6e75 754a 416c 6775 6553 4f70 7463 6f4e     unJulAugSepOctNo
 8087d2e:	4476 6365 2e25 7333 2520 332e 2573 6433     vDec%.3s %.3s%3d
 8087d3e:	2520 322e 3a64 2e25 6432 253a 322e 2064      %.2d:%.2d:%.2d 
 8087d4e:	6425 000a                                   %d..

08087d52 <_ctype_>:
 8087d52:	2000 2020 2020 2020 2020 2828 2828 2028     .         ((((( 
 8087d62:	2020 2020 2020 2020 2020 2020 2020 2020                     
 8087d72:	8820 1010 1010 1010 1010 1010 1010 1010      ...............
 8087d82:	0410 0404 0404 0404 0404 1004 1010 1010     ................
 8087d92:	1010 4141 4141 4141 0101 0101 0101 0101     ..AAAAAA........
 8087da2:	0101 0101 0101 0101 0101 0101 1010 1010     ................
 8087db2:	1010 4242 4242 4242 0202 0202 0202 0202     ..BBBBBB........
 8087dc2:	0202 0202 0202 0202 0202 0202 1010 1010     ................
 8087dd2:	0020 0000 0000 0000 0000 0000 0000 0000      ...............
	...

08087e54 <__sf_fake_stdin>:
	...

08087e74 <__sf_fake_stdout>:
	...

08087e94 <__sf_fake_stderr>:
	...
 8087eb4:	4f50 4953 0058 002e                         POSIX...

08087ebc <__month_lengths>:
 8087ebc:	001f 0000 001c 0000 001f 0000 001e 0000     ................
 8087ecc:	001f 0000 001e 0000 001f 0000 001f 0000     ................
 8087edc:	001e 0000 001f 0000 001e 0000 001f 0000     ................
 8087eec:	001f 0000 001d 0000 001f 0000 001e 0000     ................
 8087efc:	001f 0000 001e 0000 001f 0000 001f 0000     ................
 8087f0c:	001e 0000 001f 0000 001e 0000 001f 0000     ................
 8087f1c:	7325 2e25 642a 2500 2573 2e30 642a 2b00     %s%.*d.%s%0.*d.+
 8087f2c:	2d00 2500 6432 2500 322e 2f64 2e25 6432     .-.%2d.%.2d/%.2d
 8087f3c:	252f 322e 0064 2d59 6d25 252d 0064 2a2e     /%.2d.Y-%m-%d..*
 8087f4c:	0075 2e25 6433 2500 6c6c 0064 2e25 6432     u.%.3d.%lld.%.2d
 8087f5c:	253a 322e 3a64 2e25 6432 2500 302b 6c33     :%.2d:%.2d.%+03l
 8087f6c:	2564 322e 646c 0000                         d%.2ld..

08087f74 <fpi.5342>:
 8087f74:	0035 0000 fbce ffff 03cb 0000 0001 0000     5...............
 8087f84:	0000 0000 666e 6900 696e 7974 0000 0000     ....nf.inity....

08087f94 <fpinan.5378>:
 8087f94:	0034 0000 fbce ffff 03cb 0000 0001 0000     4...............
 8087fa4:	0000 0000                                   ....

08087fa8 <tinytens>:
 8087fa8:	89bc 97d8 d2b2 3c9c a733 d5a8 f623 3949     .......<3...#.I9
 8087fb8:	a73d 44f4 0ffd 32a5 979d cf8c ba08 255b     =..D...2......[%
 8087fc8:	6f43 64ac 0628 1168 434c 545f 4d49 0045     Co.d(.h.LC_TIME.
 8087fd8:	614a 006e 6546 0062 614d 0072 7041 0072     Jan.Feb.Mar.Apr.
 8087fe8:	614d 0079 754a 006e 754a 006c 7541 0067     May.Jun.Jul.Aug.
 8087ff8:	6553 0070 634f 0074 6f4e 0076 6544 0063     Sep.Oct.Nov.Dec.
 8088008:	614a 756e 7261 0079 6546 7262 6175 7972     January.February
 8088018:	4d00 7261 6863 4100 7270 6c69 4a00 6e75     .March.April.Jun
 8088028:	0065 754a 796c 4100 6775 7375 0074 6553     e.July.August.Se
 8088038:	7470 6d65 6562 0072 634f 6f74 6562 0072     ptember.October.
 8088048:	6f4e 6576 626d 7265 4400 6365 6d65 6562     November.Decembe
 8088058:	0072 7553 006e 6f4d 006e 7554 0065 6557     r.Sun.Mon.Tue.We
 8088068:	0064 6854 0075 7246 0069 6153 0074 7553     d.Thu.Fri.Sat.Su
 8088078:	646e 7961 4d00 6e6f 6164 0079 7554 7365     nday.Monday.Tues
 8088088:	6164 0079 6557 6e64 7365 6164 0079 6854     day.Wednesday.Th
 8088098:	7275 6473 7961 4600 6972 6164 0079 6153     ursday.Friday.Sa
 80880a8:	7574 6472 7961 2500 3a48 4d25 253a 0053     turday.%H:%M:%S.
 80880b8:	6d25 252f 2f64 7925 2500 2061 6225 2520     %m/%d/%y.%a %b %
 80880c8:	2065 4825 253a 3a4d 5325 2520 0059 4d41     e %H:%M:%S %Y.AM
 80880d8:	5000 004d 6125 2520 2062 6525 2520 3a48     .PM.%a %b %e %H:
 80880e8:	4d25 253a 2053 5a25 2520 0059 4925 253a     %M:%S %Z %Y.%I:%
 80880f8:	3a4d 5325 2520 0070                         M:%S %p.

08088100 <_C_time_locale>:
 8088100:	7fd8 0808 7fdc 0808 7fe0 0808 7fe4 0808     ................
 8088110:	7fe8 0808 7fec 0808 7ff0 0808 7ff4 0808     ................
 8088120:	7ff8 0808 7ffc 0808 8000 0808 8004 0808     ................
 8088130:	8008 0808 8010 0808 8019 0808 801f 0808     ................
 8088140:	7fe8 0808 8025 0808 802a 0808 802f 0808     ....%...*.../...
 8088150:	8036 0808 8040 0808 8048 0808 8051 0808     6...@...H...Q...
 8088160:	805a 0808 805e 0808 8062 0808 8066 0808     Z...^...b...f...
 8088170:	806a 0808 806e 0808 8072 0808 8076 0808     j...n...r...v...
 8088180:	807d 0808 8084 0808 808c 0808 8096 0808     }...............
 8088190:	809f 0808 80a6 0808 80af 0808 80b8 0808     ................
 80881a0:	80c1 0808 80d6 0808 80d9 0808 80dc 0808     ................
 80881b0:	8008 0808 8010 0808 8019 0808 801f 0808     ................
 80881c0:	7fe8 0808 8025 0808 802a 0808 802f 0808     ....%...*.../...
 80881d0:	8036 0808 8040 0808 8048 0808 8051 0808     6...@...H...Q...
 80881e0:	7b03 0808 80f4 0808 7ab0 0808 7ab0 0808     .{.......z...z..
 80881f0:	7ab0 0808 7ab0 0808 7ab0 0808 5a54 4700     .z...z...z..TZ.G
 8088200:	544d 2500 3031 5e5b 2d30 2c39 2d2b 255d     MT.%10[^0-9,+-]%
 8088210:	006e 254d 7568 6e25 252e 7568 6e25 252e     n.M%hu%n.%hu%n.%
 8088220:	7568 6e25 2f00 6825 2575 3a6e 6825 2575     hu%n./%hu%n:%hu%
 8088230:	3a6e 6825 2575 006e                         n:%hu%n.

08088238 <__mprec_tens>:
 8088238:	0000 0000 0000 3ff0 0000 0000 0000 4024     .......?......$@
 8088248:	0000 0000 0000 4059 0000 0000 4000 408f     ......Y@.....@.@
 8088258:	0000 0000 8800 40c3 0000 0000 6a00 40f8     .......@.....j.@
 8088268:	0000 0000 8480 412e 0000 0000 12d0 4163     .......A......cA
 8088278:	0000 0000 d784 4197 0000 0000 cd65 41cd     .......A....e..A
 8088288:	0000 2000 a05f 4202 0000 e800 4876 4237     ... _..B....vH7B
 8088298:	0000 a200 1a94 426d 0000 e540 309c 42a2     ......mB..@..0.B
 80882a8:	0000 1e90 bcc4 42d6 0000 2634 6bf5 430c     .......B..4&.k.C
 80882b8:	8000 37e0 c379 4341 a000 85d8 3457 4376     ...7y.AC....W4vC
 80882c8:	c800 674e c16d 43ab 3d00 6091 58e4 43e1     ..Ngm..C.=.`.X.C
 80882d8:	8c40 78b5 af1d 4415 ef50 d6e2 1ae4 444b     @..x...DP.....KD
 80882e8:	d592 064d f0cf 4480 4af6 c7e1 2d02 44b5     ..M....D.J...-.D
 80882f8:	9db4 79d9 7843 44ea                         ...yCx.D

08088300 <__mprec_bigtens>:
 8088300:	8000 37e0 c379 4341 6e17 b505 b8b5 4693     ...7y.AC.n.....F
 8088310:	f9f5 e93f 4f03 4d38 1d32 f930 7748 5a82     ..?..O8M2.0.Hw.Z
 8088320:	bf3c 7f73 4fdd 7515                         <.s..O.u

08088328 <p05.5385>:
 8088328:	0005 0000 0019 0000 007d 0000               ........}...

08088334 <link_const_variable_data_end>:
 8088334:	08080ad1 	.word	0x08080ad1
 8088338:	0808157b 	.word	0x0808157b
 808833c:	0808167f 	.word	0x0808167f
 8088340:	08081783 	.word	0x08081783
 8088344:	08081ad1 	.word	0x08081ad1
 8088348:	08082065 	.word	0x08082065
 808834c:	080824f5 	.word	0x080824f5
 8088350:	080826dd 	.word	0x080826dd
 8088354:	08082735 	.word	0x08082735
 8088358:	08083131 	.word	0x08083131
 808835c:	0808347d 	.word	0x0808347d
 8088360:	08083569 	.word	0x08083569
 8088364:	0808366d 	.word	0x0808366d
 8088368:	080836f1 	.word	0x080836f1
 808836c:	080837b5 	.word	0x080837b5
 8088370:	08083879 	.word	0x08083879

08088374 <link_constructors_end>:
	...
